(dp1
S'yellow'
p2
(dp3
S'driver_genes'
p4
(lp5
(lp6
S'ENSG00000116254'
p7
aFinf
acnumpy.core.multiarray
scalar
p8
(cnumpy
dtype
p9
(S'f8'
I0
I1
tRp10
(I3
S'<'
NNNI-1
I-1
I0
tbS'\xd1\xed\xb1\xb2|\xa5r?'
tRp11
ag8
(g10
S'\x00\xc41r\xfd\x84\x92?'
tRp12
aa(lp13
S'ENSG00000204071'
p14
aFinf
ag8
(g10
S')\xed}\xd4\xcf\x13\x7f?'
tRp15
ag8
(g10
S'\x80\xd7\xa1\x88\xb3!\x97?'
tRp16
aa(lp17
S'ENSG00000130294'
p18
aFinf
ag8
(g10
S'g\xe9}\xd4\xcf\x13\x9f?'
tRp19
ag8
(g10
S' R<\x98b\x8f\xa8?'
tRp20
aa(lp21
S'ENSG00000130643'
p22
aFinf
ag8
(g10
S'\x91\xe6\x97C\xa6\xdc\x98?'
tRp23
ag8
(g10
S' R<\x98b\x8f\xa8?'
tRp24
aasS'module_genes'
p25
c__builtin__
set
p26
((lp27
S'ENSG00000086619'
p28
aS'ENSG00000184840'
p29
aS'ENSG00000186399'
p30
aS'ENSG00000166130'
p31
aS'ENSG00000175697'
p32
aS'ENSG00000074695'
p33
aS'ENSG00000131697'
p34
aS'ENSG00000071537'
p35
aS'ENSG00000154265'
p36
aS'ENSG00000188573'
p37
aS'ENSG00000163902'
p38
aS'ENSG00000130758'
p39
aS'ENSG00000050393'
p40
aS'ENSG00000065600'
p41
aS'ENSG00000214954'
p42
aS'ENSG00000162298'
p43
aS'ENSG00000180953'
p44
aS'ENSG00000176463'
p45
aS'ENSG00000213996'
p46
aS'ENSG00000198856'
p47
aS'ENSG00000178381'
p48
aS'ENSG00000023318'
p49
aS'ENSG00000184164'
p50
aS'ENSG00000157637'
p51
aS'ENSG00000051108'
p52
aS'ENSG00000166794'
p53
atRp54
ssS'grey60'
p55
(dp56
g4
(lp57
(lp58
S'ENSG00000237341'
p59
aFinf
ag8
(g10
S'{\xec\x97C\xa6\xdcX?'
tRp60
ag8
(g10
S'\x00\xec\x97C\xa6\xdcX?'
tRp61
aasg25
g26
((lp62
S'ENSG00000148290'
p63
aS'ENSG00000036054'
p64
aS'ENSG00000171503'
p65
aS'ENSG00000119471'
p66
aS'ENSG00000100023'
p67
aS'ENSG00000102543'
p68
aS'ENSG00000101017'
p69
aS'ENSG00000113734'
p70
aS'ENSG00000163933'
p71
aS'ENSG00000116406'
p72
aS'ENSG00000100884'
p73
aS'ENSG00000006744'
p74
aS'ENSG00000166822'
p75
aS'ENSG00000167315'
p76
aS'ENSG00000122971'
p77
aS'ENSG00000168818'
p78
aS'ENSG00000134262'
p79
aS'ENSG00000127838'
p80
aS'ENSG00000138614'
p81
atRp82
ssS'darkseagreen'
p83
(dp84
g4
(lp85
(lp86
S'ENSG00000153234'
p87
aFinf
ag8
(g10
S'u\xf1\xb1\xb2|\xa5r?'
tRp88
ag8
(g10
S'\x80\x10\x99.\x9f\x9a\x82?'
tRp89
aa(lp90
S'ENSG00000120129'
p91
ag8
(g10
S'\x00\x00\x00\x00\x00pd@'
tRp92
ag8
(g10
S'\xeat&cz\xe2\x8b?'
tRp93
ag8
(g10
S'\x00u&cz\xe2\x8b?'
tRp94
aasg25
g26
((lp95
S'ENSG00000100221'
p96
aS'ENSG00000142178'
p97
aS'ENSG00000117479'
p98
aS'ENSG00000113070'
p99
aS'ENSG00000112308'
p100
aS'ENSG00000130518'
p101
aS'ENSG00000123815'
p102
aS'ENSG00000164949'
p103
aS'ENSG00000143878'
p104
atRp105
ssS'aquamarine4'
p106
(dp107
g25
g26
((lp108
S'ENSG00000196605'
p109
aS'ENSG00000138750'
p110
aS'ENSG00000042429'
p111
aS'ENSG00000186867'
p112
aS'ENSG00000126814'
p113
atRp114
ssS'aquamarine1'
p115
(dp116
g25
g26
((lp117
S'ENSG00000232653'
p118
aS'ENSG00000118985'
p119
aS'ENSG00000183889'
p120
aS'ENSG00000106049'
p121
aS'ENSG00000124116'
p122
aS'ENSG00000160961'
p123
aS'ENSG00000111752'
p124
atRp125
ssS'aquamarine3'
p126
(dp127
g4
(lp128
(lp129
S'ENSG00000162777'
p130
aFinf
ag8
(g10
S'\xd1\xed\xb1\xb2|\xa5r?'
tRp131
ag8
(g10
S'\x00\r\x99.\x9f\x9a\x82?'
tRp132
aa(lp133
S'ENSG00000178078'
p134
aFinf
ag8
(g10
S'4f^\xdf\xdbN\xa7?'
tRp135
ag8
(g10
S'0f^\xdf\xdbN\xa7?'
tRp136
aasg25
g26
((lp137
S'ENSG00000164124'
p138
aS'ENSG00000111012'
p139
aS'ENSG00000268688'
p140
aS'ENSG00000074416'
p141
aS'ENSG00000129315'
p142
aS'ENSG00000055483'
p143
atRp144
ssS'aquamarine2'
p145
(dp146
g25
g26
((lp147
S'ENSG00000113209'
p148
aS'ENSG00000068078'
p149
aS'ENSG00000141295'
p150
aS'ENSG00000101639'
p151
aS'ENSG00000176769'
p152
aS'ENSG00000189120'
p153
atRp154
ssS'brown'
p155
(dp156
g4
(lp157
(lp158
S'ENSG00000138795'
p159
ag8
(g10
S'UUUUU5{@'
tRp160
ag8
(g10
S']\x85S\x90\xc5\x14"?'
tRp161
ag8
(g10
S'\x00XF)3\x1e;?'
tRp162
aa(lp163
S'ENSG00000103528'
p164
aFinf
ag8
(g10
S'u\xf1\xb1\xb2|\xa5r?'
tRp165
ag8
(g10
S'\x80\x10\x99.\x9f\x9a\x82?'
tRp166
aa(lp167
S'ENSG00000007516'
p168
ag8
(g10
S'\x00\x00\x00\x00\x00`T@'
tRp169
ag8
(g10
S'\xba\x9b\x062\xa4*\x97?'
tRp170
ag8
(g10
S'\xc0\x9b\x062\xa4*\x97?'
tRp171
aasg25
g26
((lp172
S'ENSG00000131188'
p173
aS'ENSG00000188483'
p174
aS'ENSG00000182087'
p175
aS'ENSG00000175756'
p176
aS'ENSG00000167685'
p177
aS'ENSG00000213015'
p178
aS'ENSG00000167971'
p179
aS'ENSG00000261221'
p180
aS'ENSG00000131116'
p181
aS'ENSG00000125458'
p182
aS'ENSG00000154162'
p183
aS'ENSG00000130522'
p184
aS'ENSG00000168702'
p185
aS'ENSG00000198680'
p186
aS'ENSG00000164897'
p187
aS'ENSG00000135736'
p188
aS'ENSG00000140905'
p189
aS'ENSG00000117410'
p190
aS'ENSG00000167969'
p191
aS'ENSG00000164334'
p192
aS'ENSG00000160256'
p193
aS'ENSG00000178922'
p194
aS'ENSG00000182154'
p195
aS'ENSG00000181444'
p196
aS'ENSG00000127774'
p197
aS'ENSG00000136378'
p198
aS'ENSG00000102871'
p199
aS'ENSG00000170234'
p200
aS'ENSG00000101439'
p201
atRp202
ssS'coral3'
p203
(dp204
g25
g26
((lp205
S'ENSG00000205090'
p206
aS'ENSG00000151575'
p207
aS'ENSG00000124380'
p208
aS'ENSG00000184903'
p209
aS'ENSG00000213923'
p210
aS'ENSG00000090238'
p211
aS'ENSG00000115221'
p212
aS'ENSG00000136867'
p213
aS'ENSG00000136866'
p214
aS'ENSG00000137274'
p215
aS'ENSG00000116678'
p216
aS'ENSG00000180902'
p217
atRp218
ssS'cyan'
p219
(dp220
g4
(lp221
(lp222
S'ENSG00000179284'
p223
aFinf
ag8
(g10
S'u\xf1\xb1\xb2|\xa5r?'
tRp224
ag8
(g10
S'\x80\x10\x99.\x9f\x9a\x82?'
tRp225
aa(lp226
S'ENSG00000144868'
p227
aFinf
ag8
(g10
S'u\xf1\xb1\xb2|\xa5r?'
tRp228
ag8
(g10
S'\x80\x10\x99.\x9f\x9a\x82?'
tRp229
aasg25
g26
((lp230
S'ENSG00000162390'
p231
aS'ENSG00000168026'
p232
aS'ENSG00000112514'
p233
aS'ENSG00000184313'
p234
aS'ENSG00000154803'
p235
aS'ENSG00000131626'
p236
aS'ENSG00000170921'
p237
aS'ENSG00000104723'
p238
aS'ENSG00000184428'
p239
aS'ENSG00000196704'
p240
aS'ENSG00000225190'
p241
aS'ENSG00000156804'
p242
aS'ENSG00000181315'
p243
aS'ENSG00000107521'
p244
aS'ENSG00000078403'
p245
aS'ENSG00000109445'
p246
aS'ENSG00000182986'
p247
aS'ENSG00000124299'
p248
aS'ENSG00000171928'
p249
aS'ENSG00000118960'
p250
atRp251
ssS'skyblue'
p252
(dp253
g4
(lp254
(lp255
S'ENSG00000112294'
p256
ag8
(g10
S'\x00\x00\x00\x00\x00 K@'
tRp257
ag8
(g10
S'\x97~4\xb3|\xcb\x9e?'
tRp258
ag8
(g10
S'\xb0LW2\xd1\xde\xa6?'
tRp259
aa(lp260
S'ENSG00000138166'
p261
aFinf
ag8
(g10
S'\xb2\xe7}\xd4\xcf\x13\x7f?'
tRp262
ag8
(g10
S'\xb0LW2\xd1\xde\xa6?'
tRp263
aa(lp264
S'ENSG00000112715'
p265
aFinf
ag8
(g10
S'\xb2\xe7}\xd4\xcf\x13\x7f?'
tRp266
ag8
(g10
S'\xb0LW2\xd1\xde\xa6?'
tRp267
aa(lp268
S'ENSG00000182253'
p269
aFinf
ag8
(g10
S'\xb2\xe7}\xd4\xcf\x13\x7f?'
tRp270
ag8
(g10
S'\xb0LW2\xd1\xde\xa6?'
tRp271
aa(lp272
S'ENSG00000163874'
p273
aFinf
ag8
(g10
S'\xb2\xe7}\xd4\xcf\x13\x7f?'
tRp274
ag8
(g10
S'\xb0LW2\xd1\xde\xa6?'
tRp275
aa(lp276
S'ENSG00000112245'
p277
aFinf
ag8
(g10
S'\xb2\xe7}\xd4\xcf\x13\x7f?'
tRp278
ag8
(g10
S'\xb0LW2\xd1\xde\xa6?'
tRp279
aasg25
g26
((lp280
S'ENSG00000152766'
p281
aS'ENSG00000163072'
p282
aS'ENSG00000136169'
p283
aS'ENSG00000122644'
p284
aS'ENSG00000166747'
p285
aS'ENSG00000129219'
p286
aS'ENSG00000181649'
p287
aS'ENSG00000172123'
p288
aS'ENSG00000105996'
p289
aS'ENSG00000100330'
p290
aS'ENSG00000112640'
p291
aS'ENSG00000136147'
p292
aS'ENSG00000077616'
p293
aS'ENSG00000132842'
p294
aS'ENSG00000152137'
p295
aS'ENSG00000111144'
p296
aS'ENSG00000100347'
p297
atRp298
ssS'deepskyblue4'
p299
(dp300
g25
g26
((lp301
S'ENSG00000169914'
p302
aS'ENSG00000145349'
p303
aS'ENSG00000167766'
p304
aS'ENSG00000240344'
p305
aS'ENSG00000145348'
p306
aS'ENSG00000186792'
p307
aS'ENSG00000080166'
p308
aS'ENSG00000188051'
p309
atRp310
ssS'deepskyblue3'
p311
(dp312
g25
g26
((lp313
S'ENSG00000053770'
p314
aS'ENSG00000130312'
p315
aS'ENSG00000147669'
p316
aS'ENSG00000134248'
p317
aS'ENSG00000180481'
p318
aS'ENSG00000168275'
p319
atRp320
ssS'rosybrown2'
p321
(dp322
g25
g26
((lp323
S'ENSG00000119397'
p324
aS'ENSG00000007341'
p325
aS'ENSG00000106804'
p326
aS'ENSG00000205363'
p327
aS'ENSG00000198756'
p328
aS'ENSG00000149328'
p329
aS'ENSG00000169507'
p330
atRp331
ssS'lightpink'
p332
(dp333
g4
(lp334
(lp335
S'ENSG00000163050'
p336
aFinf
ag8
(g10
S'\x88\xec\x97C\xa6\xdch?'
tRp337
ag8
(g10
S'\x80z,\xce\xfd\xd2x?'
tRp338
aa(lp339
S'ENSG00000138449'
p340
ag8
(g10
S'\x00\x00\x00\x00\x00\x80\x84@'
tRp341
ag8
(g10
S"\xf1?\xeb'\xd0\xd7x?"
tRp342
ag8
(g10
S"\x00@\xeb'\xd0\xd7x?"
tRp343
aasg25
g26
((lp344
S'ENSG00000182912'
p345
aS'ENSG00000170442'
p346
aS'ENSG00000136100'
p347
aS'ENSG00000133454'
p348
aS'ENSG00000172803'
p349
aS'ENSG00000165917'
p350
aS'ENSG00000188130'
p351
aS'ENSG00000125686'
p352
aS'ENSG00000100483'
p353
atRp354
ssS'deepskyblue1'
p355
(dp356
g25
g26
((lp357
S'ENSG00000215305'
p358
aS'ENSG00000177042'
p359
aS'ENSG00000217075'
p360
aS'ENSG00000097046'
p361
aS'ENSG00000149499'
p362
atRp363
ssS'lemonchiffon3'
p364
(dp365
g4
(lp366
(lp367
S'ENSG00000160179'
p368
aFinf
ag8
(g10
S'\x88\xec\x97C\xa6\xdch?'
tRp369
ag8
(g10
S'\x80\xd1\x85\xff\xaa\xe3\x8e?'
tRp370
aasg25
g26
((lp371
S'ENSG00000008226'
p372
aS'ENSG00000177225'
p373
aS'ENSG00000183549'
p374
aS'ENSG00000179774'
p375
aS'ENSG00000255284'
p376
aS'ENSG00000177595'
p377
aS'ENSG00000254667'
p378
atRp379
ssS'lemonchiffon2'
p380
(dp381
g25
g26
((lp382
S'ENSG00000120697'
p383
aS'ENSG00000171502'
p384
aS'ENSG00000164081'
p385
aS'ENSG00000143771'
p386
aS'ENSG00000111886'
p387
aS'ENSG00000116857'
p388
atRp389
ssS'lemonchiffon1'
p390
(dp391
g25
g26
((lp392
S'ENSG00000112619'
p393
aS'ENSG00000197768'
p394
aS'ENSG00000163257'
p395
aS'ENSG00000143614'
p396
aS'ENSG00000118217'
p397
aS'ENSG00000188163'
p398
atRp399
ssS'bisque'
p400
(dp401
g4
(lp402
(lp403
S'ENSG00000132698'
p404
aFinf
ag8
(g10
S'u\xf1\xb1\xb2|\xa5r?'
tRp405
ag8
(g10
S'\x80\x10\x99.\x9f\x9a\x82?'
tRp406
aa(lp407
S'ENSG00000189334'
p408
ag8
(g10
S'\x00\x00\x00\x00\x00xt@'
tRp409
ag8
(g10
S'\xe9\xe8.\x89;\x9e\x82?'
tRp410
ag8
(g10
S'\x00\xe9.\x89;\x9e\x82?'
tRp411
aasg25
g26
((lp412
S'ENSG00000213903'
p413
aS'ENSG00000180509'
p414
aS'ENSG00000116882'
p415
aS'ENSG00000162078'
p416
aS'ENSG00000152242'
p417
aS'ENSG00000186318'
p418
atRp419
ssS'lemonchiffon4'
p420
(dp421
g25
g26
((lp422
S'ENSG00000118096'
p423
aS'ENSG00000168944'
p424
aS'ENSG00000214872'
p425
aS'ENSG00000149582'
p426
aS'ENSG00000258839'
p427
aS'ENSG00000213199'
p428
aS'ENSG00000124140'
p429
atRp430
ssS'lightgoldenrodyellow'
p431
(dp432
g25
g26
((lp433
S'ENSG00000165029'
p434
aS'ENSG00000157992'
p435
aS'ENSG00000034693'
p436
aS'ENSG00000136052'
p437
aS'ENSG00000136448'
p438
aS'ENSG00000107104'
p439
aS'ENSG00000138030'
p440
aS'ENSG00000151552'
p441
atRp442
ssS'lavender'
p443
(dp444
g25
g26
((lp445
S'ENSG00000171148'
p446
aS'ENSG00000116497'
p447
aS'ENSG00000169964'
p448
aS'ENSG00000143578'
p449
aS'ENSG00000140463'
p450
aS'ENSG00000111704'
p451
aS'ENSG00000112062'
p452
aS'ENSG00000204520'
p453
aS'ENSG00000100982'
p454
atRp455
ssS'chartreuse3'
p456
(dp457
g25
g26
((lp458
S'ENSG00000170153'
p459
aS'ENSG00000249242'
p460
aS'ENSG00000138190'
p461
aS'ENSG00000079691'
p462
aS'ENSG00000111696'
p463
aS'ENSG00000197008'
p464
atRp465
ssS'chartreuse2'
p466
(dp467
g25
g26
((lp468
S'ENSG00000127947'
p469
aS'ENSG00000143376'
p470
aS'ENSG00000164251'
p471
aS'ENSG00000133612'
p472
aS'ENSG00000090487'
p473
aS'ENSG00000165898'
p474
atRp475
ssS'chartreuse1'
p476
(dp477
g25
g26
((lp478
S'ENSG00000033100'
p479
aS'ENSG00000241043'
p480
aS'ENSG00000197217'
p481
aS'ENSG00000135541'
p482
aS'ENSG00000146574'
p483
atRp484
ssS'chartreuse4'
p485
(dp486
g25
g26
((lp487
S'ENSG00000215018'
p488
aS'ENSG00000120675'
p489
aS'ENSG00000148110'
p490
aS'ENSG00000116120'
p491
aS'ENSG00000136152'
p492
aS'ENSG00000130957'
p493
aS'ENSG00000120860'
p494
atRp495
ssS'blue'
p496
(dp497
g4
(lp498
(lp499
S'ENSG00000204338'
p500
aFinf
ag8
(g10
S'\x88\xec\x97C\xa6\xdch?'
tRp501
ag8
(g10
S'\x801\xfd\x87\x9e\x8e\x95?'
tRp502
aa(lp503
S'ENSG00000231852'
p504
aFinf
ag8
(g10
S'\x88\xec\x97C\xa6\xdch?'
tRp505
ag8
(g10
S'\x801\xfd\x87\x9e\x8e\x95?'
tRp506
aa(lp507
S'ENSG00000163694'
p508
ag8
(g10
S'\x00\x00\x00\x00\x00xt@'
tRp509
ag8
(g10
S'\xca\xe1.\x89;\x9e\x82?'
tRp510
ag8
(g10
S'\x90/6\xb1r\xda\xa6?'
tRp511
aa(lp512
S'ENSG00000146955'
p513
ag8
(g10
S'\x00\x00\x00\x00\x00@k@'
tRp514
ag8
(g10
S'v\xe3\x91\xf0#\xce\x88?'
tRp515
ag8
(g10
S'\x90\xddEO\xb3[\xa8?'
tRp516
aa(lp517
S'ENSG00000006453'
p518
ag8
(g10
S'\x00\x00\x00\x00\x00hd@'
tRp519
ag8
(g10
S'\x91\x96\x1eJ\xa1\xfb\x8e?'
tRp520
ag8
(g10
S'\x90\xddEO\xb3[\xa8?'
tRp521
aasg25
g26
((lp522
S'ENSG00000197958'
p523
aS'ENSG00000168566'
p524
aS'ENSG00000132676'
p525
aS'ENSG00000160679'
p526
aS'ENSG00000125743'
p527
aS'ENSG00000084092'
p528
aS'ENSG00000166012'
p529
aS'ENSG00000177600'
p530
aS'ENSG00000222046'
p531
aS'ENSG00000175390'
p532
aS'ENSG00000137154'
p533
aS'ENSG00000198755'
p534
aS'ENSG00000221986'
p535
aS'ENSG00000231500'
p536
aS'ENSG00000151882'
p537
aS'ENSG00000198242'
p538
aS'ENSG00000186468'
p539
aS'ENSG00000092036'
p540
aS'ENSG00000160182'
p541
aS'ENSG00000147604'
p542
aS'ENSG00000099290'
p543
aS'ENSG00000073605'
p544
aS'ENSG00000147852'
p545
aS'ENSG00000157111'
p546
aS'ENSG00000170889'
p547
aS'ENSG00000215252'
p548
aS'ENSG00000266714'
p549
aS'ENSG00000204628'
p550
aS'ENSG00000090621'
p551
aS'ENSG00000153157'
p552
aS'ENSG00000148655'
p553
aS'ENSG00000070371'
p554
aS'ENSG00000168028'
p555
aS'ENSG00000130414'
p556
aS'ENSG00000108107'
p557
aS'ENSG00000197345'
p558
aS'ENSG00000204525'
p559
atRp560
ssS'maroon4'
p561
(dp562
g25
g26
((lp563
S'ENSG00000080345'
p564
aS'ENSG00000113441'
p565
aS'ENSG00000113595'
p566
aS'ENSG00000214063'
p567
aS'ENSG00000158109'
p568
aS'ENSG00000203965'
p569
atRp570
ssS'maroon3'
p571
(dp572
g25
g26
((lp573
S'ENSG00000099330'
p574
aS'ENSG00000181031'
p575
aS'ENSG00000058804'
p576
aS'ENSG00000006042'
p577
aS'ENSG00000196655'
p578
atRp579
ssS'gold3'
p580
(dp581
g4
(lp582
(lp583
S'ENSG00000077942'
p584
aFinf
ag8
(g10
S'\x88\xec\x97C\xa6\xdch?'
tRp585
ag8
(g10
S'\x00\xeb\x06\xb5s\x99\x98?'
tRp586
aa(lp587
S'ENSG00000164692'
p588
aFinf
ag8
(g10
S'\x88\xec\x97C\xa6\xdch?'
tRp589
ag8
(g10
S'\x00\xeb\x06\xb5s\x99\x98?'
tRp590
aa(lp591
S'ENSG00000174807'
p592
aFinf
ag8
(g10
S'\x88\xec\x97C\xa6\xdch?'
tRp593
ag8
(g10
S'\x00\xeb\x06\xb5s\x99\x98?'
tRp594
aa(lp595
S'ENSG00000122176'
p596
aFinf
ag8
(g10
S'\x88\xec\x97C\xa6\xdch?'
tRp597
ag8
(g10
S'\x00\xeb\x06\xb5s\x99\x98?'
tRp598
aa(lp599
S'ENSG00000011465'
p600
ag8
(g10
S'\x00\x00\x00\x00\x00\x80\x84@'
tRp601
ag8
(g10
S"\xf1?\xeb'\xd0\xd7x?"
tRp602
ag8
(g10
S'\xc0\x89\n\xbe/\x9e\x98?'
tRp603
aa(lp604
S'ENSG00000151320'
p605
ag8
(g10
S'\x00\x00\x00\x00\x00\x80\x84@'
tRp606
ag8
(g10
S"\xf1?\xeb'\xd0\xd7x?"
tRp607
ag8
(g10
S'\xc0\x89\n\xbe/\x9e\x98?'
tRp608
aa(lp609
S'ENSG00000123570'
p610
ag8
(g10
S'\x00\x00\x00\x00\x00\x80\x84@'
tRp611
ag8
(g10
S"\xf1?\xeb'\xd0\xd7x?"
tRp612
ag8
(g10
S'\xc0\x89\n\xbe/\x9e\x98?'
tRp613
aa(lp614
S'ENSG00000116774'
p615
ag8
(g10
S'n\xdb\xb6m\xdb6W@'
tRp616
ag8
(g10
S'd^\xdf\x81\xcb\xba\x98?'
tRp617
ag8
(g10
S'`^\xdf\x81\xcb\xba\x98?'
tRp618
aasg25
g26
((lp619
S'ENSG00000161513'
p620
aS'ENSG00000135519'
p621
aS'ENSG00000069869'
p622
aS'ENSG00000102452'
p623
aS'ENSG00000138829'
p624
atRp625
ssS'turquoise3'
p626
(dp627
g25
g26
((lp628
S'ENSG00000122068'
p629
aS'ENSG00000117425'
p630
aS'ENSG00000133983'
p631
aS'ENSG00000188931'
p632
aS'ENSG00000116883'
p633
aS'ENSG00000131795'
p634
atRp635
ssS'rosybrown1'
p636
(dp637
g4
(lp638
(lp639
S'ENSG00000204219'
p640
aFinf
ag8
(g10
S'2\xf1\x97C\xa6\xdch?'
tRp641
ag8
(g10
S'\x80j\xbc\x96\x08\xa8\x9e?'
tRp642
aa(lp643
S'ENSG00000157193'
p644
aFinf
ag8
(g10
S'2\xf1\x97C\xa6\xdch?'
tRp645
ag8
(g10
S'\x80j\xbc\x96\x08\xa8\x9e?'
tRp646
aa(lp647
S'ENSG00000135409'
p648
aFinf
ag8
(g10
S'\xd1\xed\xb1\xb2|\xa5r?'
tRp649
ag8
(g10
S'P\xce\xe4Z\x1eZ\xa2?'
tRp650
aa(lp651
S'ENSG00000175707'
p652
aFinf
ag8
(g10
S'\x93\xe9\x97C\xa6\xdcx?'
tRp653
ag8
(g10
S'\x90I\x7f\xb4\xad\\\xa5?'
tRp654
aa(lp655
S'ENSG00000188488'
p656
aFinf
ag8
(g10
S'\x93\xe9\x97C\xa6\xdcx?'
tRp657
ag8
(g10
S'\x90I\x7f\xb4\xad\\\xa5?'
tRp658
aa(lp659
S'ENSG00000106538'
p660
aFinf
ag8
(g10
S'\xd3\xeb${\x11\xc1\x85?'
tRp661
ag8
(g10
S'0\xb2}\xcf0\xe3\xa6?'
tRp662
aa(lp663
S'ENSG00000204385'
p664
aFinf
ag8
(g10
S'l\xf1\xb1\xb2|\xa5\x82?'
tRp665
ag8
(g10
S'0\xb2}\xcf0\xe3\xa6?'
tRp666
aa(lp667
S'ENSG00000249242'
p668
aFinf
ag8
(g10
S'\x81\xed\n\x0c;\xf8\x8b?'
tRp669
ag8
(g10
S'0\xb2}\xcf0\xe3\xa6?'
tRp670
aasg25
g26
((lp671
S'ENSG00000165821'
p672
aS'ENSG00000064012'
p673
aS'ENSG00000166086'
p674
aS'ENSG00000177383'
p675
aS'ENSG00000088832'
p676
aS'ENSG00000134287'
p677
aS'ENSG00000196405'
p678
atRp679
ssS'skyblue4'
p680
(dp681
g4
(lp682
(lp683
S'ENSG00000125378'
p684
aFinf
ag8
(g10
S'\x95\xec\x97C\xa6\xdcx?'
tRp685
ag8
(g10
S'\xc0O\x13\xe0\x10W\xa8?'
tRp686
aasg25
g26
((lp687
S'ENSG00000108924'
p688
aS'ENSG00000144891'
p689
aS'ENSG00000120262'
p690
aS'ENSG00000185917'
p691
aS'ENSG00000040199'
p692
aS'ENSG00000153208'
p693
aS'ENSG00000086232'
p694
aS'ENSG00000145703'
p695
aS'ENSG00000132122'
p696
aS'ENSG00000111962'
p697
aS'ENSG00000112333'
p698
aS'ENSG00000177994'
p699
atRp700
ssS'skyblue1'
p701
(dp702
g4
(lp703
(lp704
S'ENSG00000006432'
p705
ag8
(g10
S'\x00\x00\x00\x00\x00xt@'
tRp706
ag8
(g10
S'\xca\xe1.\x89;\x9e\x82?'
tRp707
ag8
(g10
S' \xf5\xadP\x8d\xac\x9b?'
tRp708
aa(lp709
S'ENSG00000169291'
p710
ag8
(g10
S'\xcd\xcc\xcc\xcc\xccL`@'
tRp711
ag8
(g10
S'nn\xea\xcaY\x93\x92?'
tRp712
ag8
(g10
S'p~\xd1\x1c8h\xa2?'
tRp713
aasg25
g26
((lp714
S'ENSG00000012660'
p715
aS'ENSG00000130948'
p716
aS'ENSG00000182134'
p717
aS'ENSG00000100979'
p718
aS'ENSG00000162769'
p719
aS'ENSG00000164039'
p720
aS'ENSG00000149084'
p721
aS'ENSG00000175265'
p722
aS'ENSG00000129167'
p723
aS'ENSG00000140263'
p724
aS'ENSG00000130529'
p725
aS'ENSG00000248485'
p726
aS'ENSG00000118961'
p727
atRp728
ssS'skyblue3'
p729
(dp730
g25
g26
((lp731
S'ENSG00000134864'
p732
aS'ENSG00000134758'
p733
aS'ENSG00000133818'
p734
aS'ENSG00000151338'
p735
aS'ENSG00000167930'
p736
aS'ENSG00000124788'
p737
aS'ENSG00000166450'
p738
aS'ENSG00000142166'
p739
aS'ENSG00000165555'
p740
aS'ENSG00000058091'
p741
aS'ENSG00000070614'
p742
aS'ENSG00000078814'
p743
aS'ENSG00000136720'
p744
aS'ENSG00000178665'
p745
aS'ENSG00000136243'
p746
aS'ENSG00000161243'
p747
atRp748
ssS'skyblue2'
p749
(dp750
g4
(lp751
(lp752
S'ENSG00000120279'
p753
aFinf
ag8
(g10
S'\x88\xec\x97C\xa6\xdch?'
tRp754
ag8
(g10
S'\x80\xd1\x85\xff\xaa\xe3\x8e?'
tRp755
aa(lp756
S'ENSG00000162444'
p757
ag8
(g10
S'\x00\x00\x00\x00\x00\x80\x84@'
tRp758
ag8
(g10
S"\xf1?\xeb'\xd0\xd7x?"
tRp759
ag8
(g10
S'\xc0\x89\n\xbe/\x9e\x98?'
tRp760
aa(lp761
S'ENSG00000157554'
p762
ag8
(g10
S'\x00\x00\x00\x00\x00xt@'
tRp763
ag8
(g10
S'\xca\xe1.\x89;\x9e\x82?'
tRp764
ag8
(g10
S' \xf5\xadP\x8d\xac\x9b?'
tRp765
aa(lp766
S'ENSG00000147113'
p767
ag8
(g10
S'\x00\x00\x00\x00\x00 [@'
tRp768
ag8
(g10
S'6R\xdai\xad\xa7\x95?'
tRp769
ag8
(g10
S'\xb0\xe5\xf7`\x0fm\xa5?'
tRp770
aasg25
g26
((lp771
S'ENSG00000123191'
p772
aS'ENSG00000107020'
p773
aS'ENSG00000156990'
p774
aS'ENSG00000197208'
p775
aS'ENSG00000112234'
p776
aS'ENSG00000174808'
p777
aS'ENSG00000120664'
p778
aS'ENSG00000150048'
p779
aS'ENSG00000176915'
p780
aS'ENSG00000146373'
p781
aS'ENSG00000111596'
p782
aS'ENSG00000135643'
p783
aS'ENSG00000155099'
p784
atRp785
ssS'indianred1'
p786
(dp787
g4
(lp788
(lp789
S'ENSG00000095585'
p790
aFinf
ag8
(g10
S'\x88\xec\x97C\xa6\xdch?'
tRp791
ag8
(g10
S'\x00\xf9\x08\xc3\x03\x97\x82?'
tRp792
aa(lp793
S'ENSG00000167851'
p794
aFinf
ag8
(g10
S'\x88\xec\x97C\xa6\xdch?'
tRp795
ag8
(g10
S'\x00\xf9\x08\xc3\x03\x97\x82?'
tRp796
aasg25
g26
((lp797
S'ENSG00000184574'
p798
aS'ENSG00000175567'
p799
aS'ENSG00000144843'
p800
aS'ENSG00000143384'
p801
aS'ENSG00000168961'
p802
aS'ENSG00000139572'
p803
aS'ENSG00000170627'
p804
aS'ENSG00000110446'
p805
aS'ENSG00000174004'
p806
atRp807
ssS'floralwhite'
p808
(dp809
g4
(lp810
(lp811
S'ENSG00000142627'
p812
ag8
(g10
S'\x00\x00\x00\x00\x00\x80\x84@'
tRp813
ag8
(g10
S"\xf1?\xeb'\xd0\xd7x?"
tRp814
ag8
(g10
S'\xc0y\x7f\xfb\xfc\x84\x92?'
tRp815
aa(lp816
S'ENSG00000115963'
p817
ag8
(g10
S'\x00\x00\x00\x00\x00xt@'
tRp818
ag8
(g10
S'\xca\xe1.\x89;\x9e\x82?'
tRp819
ag8
(g10
S'`\x85af\x91\x88\x92?'
tRp820
aa(lp821
S'ENSG00000170485'
p822
ag8
(g10
S'\x00\x00\x00\x00\x00xt@'
tRp823
ag8
(g10
S'\xca\xe1.\x89;\x9e\x82?'
tRp824
ag8
(g10
S'`\x85af\x91\x88\x92?'
tRp825
aasg25
g26
((lp826
S'ENSG00000048544'
p827
aS'ENSG00000204991'
p828
aS'ENSG00000169570'
p829
aS'ENSG00000110344'
p830
aS'ENSG00000182704'
p831
aS'ENSG00000119638'
p832
aS'ENSG00000119787'
p833
aS'ENSG00000070269'
p834
aS'ENSG00000018510'
p835
aS'ENSG00000215712'
p836
aS'ENSG00000140043'
p837
aS'ENSG00000203666'
p838
aS'ENSG00000204084'
p839
aS'ENSG00000183605'
p840
aS'ENSG00000239665'
p841
atRp842
ssS'turquoise1'
p843
(dp844
g25
g26
((lp845
S'ENSG00000127366'
p846
aS'ENSG00000205020'
p847
aS'ENSG00000172594'
p848
aS'ENSG00000145545'
p849
aS'ENSG00000163399'
p850
atRp851
ssS'firebrick3'
p852
(dp853
g25
g26
((lp854
S'ENSG00000126266'
p855
aS'ENSG00000055044'
p856
aS'ENSG00000109991'
p857
aS'ENSG00000243955'
p858
aS'ENSG00000107742'
p859
aS'ENSG00000105695'
p860
aS'ENSG00000168016'
p861
aS'ENSG00000172795'
p862
aS'ENSG00000012124'
p863
aS'ENSG00000177830'
p864
aS'ENSG00000139132'
p865
atRp866
ssS'firebrick2'
p867
(dp868
g4
(lp869
(lp870
S'ENSG00000198805'
p871
aFinf
ag8
(g10
S'\x88\xec\x97C\xa6\xdch?'
tRp872
ag8
(g10
S'\x00\xed\x97C\xa6\xdch?'
tRp873
aasg25
g26
((lp874
S'ENSG00000184575'
p875
aS'ENSG00000196388'
p876
aS'ENSG00000134440'
p877
aS'ENSG00000142156'
p878
aS'ENSG00000214194'
p879
aS'ENSG00000070669'
p880
aS'ENSG00000105835'
p881
aS'ENSG00000031698'
p882
aS'ENSG00000023191'
p883
aS'ENSG00000156463'
p884
atRp885
ssS'steelblue3'
p886
(dp887
g25
g26
((lp888
S'ENSG00000198270'
p889
aS'ENSG00000166796'
p890
aS'ENSG00000117595'
p891
aS'ENSG00000127080'
p892
aS'ENSG00000168306'
p893
aS'ENSG00000185052'
p894
aS'ENSG00000168350'
p895
atRp896
ssS'steelblue4'
p897
(dp898
g4
(lp899
(lp900
S'ENSG00000144381'
p901
aFinf
ag8
(g10
S'{\xec\x97C\xa6\xdcX?'
tRp902
ag8
(g10
S'\x003\xe2\x08\xd2\xd7h?'
tRp903
aa(lp904
S'ENSG00000115541'
p905
aFinf
ag8
(g10
S'\xd1\xed\xb1\xb2|\xa5r?'
tRp906
ag8
(g10
S'\x00\xee\xb1\xb2|\xa5r?'
tRp907
aasg25
g26
((lp908
S'ENSG00000174943'
p909
aS'ENSG00000064313'
p910
aS'ENSG00000151773'
p911
aS'ENSG00000197599'
p912
aS'ENSG00000214900'
p913
aS'ENSG00000166268'
p914
aS'ENSG00000179630'
p915
aS'ENSG00000168615'
p916
atRp917
ssS'firebrick4'
p918
(dp919
g4
(lp920
(lp921
S'ENSG00000115380'
p922
aFinf
ag8
(g10
S'2\xf1\x97C\xa6\xdch?'
tRp923
ag8
(g10
S'\x00\xf1\x97C\xa6\xdch?'
tRp924
aasg25
g26
((lp925
S'ENSG00000141971'
p926
aS'ENSG00000126934'
p927
aS'ENSG00000166912'
p928
aS'ENSG00000164253'
p929
aS'ENSG00000198108'
p930
aS'ENSG00000101220'
p931
aS'ENSG00000139433'
p932
aS'ENSG00000172500'
p933
aS'ENSG00000146433'
p934
aS'ENSG00000158882'
p935
aS'ENSG00000149179'
p936
aS'ENSG00000164144'
p937
aS'ENSG00000103148'
p938
atRp939
ssS'lightskyblue1'
p940
(dp941
g25
g26
((lp942
S'ENSG00000161179'
p943
aS'ENSG00000120669'
p944
aS'ENSG00000141076'
p945
aS'ENSG00000196793'
p946
aS'ENSG00000108064'
p947
aS'ENSG00000129347'
p948
aS'ENSG00000244165'
p949
aS'ENSG00000171453'
p950
atRp951
ssS'greenyellow'
p952
(dp953
g4
(lp954
(lp955
g615
ag8
(g10
S'fffff\x06P@'
tRp956
ag8
(g10
S'f\xa3\xe9\xae\xf7\xf6\xe1>'
tRp957
ag8
(g10
S'\x00x\x97ec\xa53?'
tRp958
aasg25
g26
((lp959
S'ENSG00000159674'
p960
aS'ENSG00000118526'
p961
aS'ENSG00000165617'
p962
aS'ENSG00000119147'
p963
aS'ENSG00000144827'
p964
aS'ENSG00000168679'
p965
aS'ENSG00000019991'
p966
aS'ENSG00000146966'
p967
aS'ENSG00000154678'
p968
aS'ENSG00000106823'
p969
aS'ENSG00000197859'
p970
aS'ENSG00000241644'
p971
aS'ENSG00000135744'
p972
aS'ENSG00000111615'
p973
aS'ENSG00000140092'
p974
aS'ENSG00000146197'
p975
aS'ENSG00000087245'
p976
aS'ENSG00000018236'
p977
aS'ENSG00000243244'
p978
aS'ENSG00000049130'
p979
aS'ENSG00000092051'
p980
atRp981
ssS'lightseagreen'
p982
(dp983
g25
g26
((lp984
S'ENSG00000184227'
p985
aS'ENSG00000155876'
p986
aS'ENSG00000143368'
p987
aS'ENSG00000163159'
p988
aS'ENSG00000116785'
p989
aS'ENSG00000165527'
p990
aS'ENSG00000119673'
p991
atRp992
ssS'sienna'
p993
(dp994
g4
(lp995
(lp996
S'ENSG00000174080'
p997
ag8
(g10
S'\x00\x00\x00\x00\x00\x80\x84@'
tRp998
ag8
(g10
S"\xf1?\xeb'\xd0\xd7x?"
tRp999
ag8
(g10
S"\x00@\xeb'\xd0\xd7x?"
tRp1000
aasg25
g26
((lp1001
S'ENSG00000180104'
p1002
aS'ENSG00000205307'
p1003
aS'ENSG00000186281'
p1004
aS'ENSG00000152154'
p1005
aS'ENSG00000107438'
p1006
aS'ENSG00000155275'
p1007
aS'ENSG00000111664'
p1008
aS'ENSG00000179409'
p1009
aS'ENSG00000161692'
p1010
atRp1011
ssS'indianred3'
p1012
(dp1013
g25
g26
((lp1014
S'ENSG00000175879'
p1015
aS'ENSG00000161958'
p1016
aS'ENSG00000180818'
p1017
aS'ENSG00000130695'
p1018
aS'ENSG00000126822'
p1019
aS'ENSG00000163527'
p1020
aS'ENSG00000177311'
p1021
aS'ENSG00000128652'
p1022
aS'ENSG00000039319'
p1023
aS'ENSG00000041515'
p1024
aS'ENSG00000110693'
p1025
aS'ENSG00000170500'
p1026
atRp1027
ssS'royalblue'
p1028
(dp1029
g4
(lp1030
(lp1031
S'ENSG00000134533'
p1032
ag8
(g10
S'\x00\x00\x00\x00\x008T@'
tRp1033
ag8
(g10
S'r)BT\xce\x12T?'
tRp1034
ag8
(g10
S'\x00\x9agJ\t\xe2\xa1?'
tRp1035
aa(lp1036
S'ENSG00000148541'
p1037
ag8
(g10
S'\x1c\xc7q\x1c\xc7\xf1Q@'
tRp1038
ag8
(g10
S'z\xe3\xe6\xed\xec{X?'
tRp1039
ag8
(g10
S'\xa0f\xa5\xc85\xff\xa4?'
tRp1040
aasg25
g26
((lp1041
S'ENSG00000177119'
p1042
aS'ENSG00000198130'
p1043
aS'ENSG00000115423'
p1044
aS'ENSG00000145354'
p1045
aS'ENSG00000063854'
p1046
aS'ENSG00000174928'
p1047
aS'ENSG00000153790'
p1048
aS'ENSG00000162852'
p1049
aS'ENSG00000145439'
p1050
aS'ENSG00000129625'
p1051
aS'ENSG00000187699'
p1052
aS'ENSG00000116906'
p1053
aS'ENSG00000129422'
p1054
aS'ENSG00000167641'
p1055
aS'ENSG00000138439'
p1056
aS'ENSG00000136842'
p1057
aS'ENSG00000142675'
p1058
aS'ENSG00000182118'
p1059
atRp1060
ssS'gainsboro'
p1061
(dp1062
g25
g26
((lp1063
S'ENSG00000145147'
p1064
aS'ENSG00000026025'
p1065
aS'ENSG00000169071'
p1066
aS'ENSG00000155287'
p1067
aS'ENSG00000107611'
p1068
aS'ENSG00000100504'
p1069
atRp1070
ssS'peru'
p1071
(dp1072
g25
g26
((lp1073
S'ENSG00000196353'
p1074
aS'ENSG00000185792'
p1075
aS'ENSG00000100908'
p1076
aS'ENSG00000188000'
p1077
aS'ENSG00000105298'
p1078
aS'ENSG00000134809'
p1079
aS'ENSG00000128272'
p1080
aS'ENSG00000139055'
p1081
atRp1082
ssS'red3'
p1083
(dp1084
g25
g26
((lp1085
S'ENSG00000121236'
p1086
aS'ENSG00000134265'
p1087
aS'ENSG00000071967'
p1088
aS'ENSG00000139291'
p1089
aS'ENSG00000198105'
p1090
aS'ENSG00000222047'
p1091
atRp1092
ssS'red2'
p1093
(dp1094
g4
(lp1095
(lp1096
S'ENSG00000198300'
p1097
ag8
(g10
S'\x00\x00\x00\x00\x00\xe0J@'
tRp1098
ag8
(g10
S'\xb2\x01\x18\x89\x1f\x04\xa4?'
tRp1099
ag8
(g10
S'\xb0\x01\x18\x89\x1f\x04\xa4?'
tRp1100
aasg25
g26
((lp1101
S'ENSG00000198838'
p1102
aS'ENSG00000168993'
p1103
aS'ENSG00000183087'
p1104
aS'ENSG00000145217'
p1105
aS'ENSG00000118017'
p1106
aS'ENSG00000141994'
p1107
atRp1108
ssS'red1'
p1109
(dp1110
g25
g26
((lp1111
S'ENSG00000104043'
p1112
aS'ENSG00000068615'
p1113
aS'ENSG00000079101'
p1114
aS'ENSG00000189164'
p1115
aS'ENSG00000136531'
p1116
aS'ENSG00000181666'
p1117
aS'ENSG00000148019'
p1118
aS'ENSG00000140284'
p1119
atRp1120
ssS'dodgerblue'
p1121
(dp1122
g4
(lp1123
(lp1124
S'ENSG00000203499'
p1125
aFinf
ag8
(g10
S'{\xec\x97C\xa6\xdcX?'
tRp1126
ag8
(g10
S'\x00\xec\x97C\xa6\xdcX?'
tRp1127
aasg25
g26
((lp1128
S'ENSG00000049245'
p1129
aS'ENSG00000184436'
p1130
aS'ENSG00000144566'
p1131
aS'ENSG00000132406'
p1132
aS'ENSG00000180921'
p1133
aS'ENSG00000144026'
p1134
aS'ENSG00000248487'
p1135
atRp1136
ssS'red4'
p1137
(dp1138
g4
(lp1139
(lp1140
S'ENSG00000106034'
p1141
aFinf
ag8
(g10
S'{\xec\x97C\xa6\xdcX?'
tRp1142
ag8
(g10
S'\x00\xec\x97C\xa6\xdcX?'
tRp1143
aasg25
g26
((lp1144
S'ENSG00000185420'
p1145
aS'ENSG00000058335'
p1146
aS'ENSG00000145358'
p1147
aS'ENSG00000137831'
p1148
aS'ENSG00000165650'
p1149
aS'ENSG00000143499'
p1150
aS'ENSG00000166140'
p1151
aS'ENSG00000134779'
p1152
atRp1153
ssS'lemonchiffon'
p1154
(dp1155
g4
(lp1156
(lp1157
S'ENSG00000185811'
p1158
aFinf
ag8
(g10
S'I\xee\x97C\xa6\xdc\x88?'
tRp1159
ag8
(g10
S'\xe0\xdc\x8b\x93}\xa3\x95?'
tRp1160
aa(lp1161
S'ENSG00000127084'
p1162
aFinf
ag8
(g10
S'\xd3\xeb${\x11\xc1\x85?'
tRp1163
ag8
(g10
S'\xe0\xdc\x8b\x93}\xa3\x95?'
tRp1164
aasg25
g26
((lp1165
S'ENSG00000169126'
p1166
aS'ENSG00000150054'
p1167
aS'ENSG00000153113'
p1168
aS'ENSG00000175591'
p1169
aS'ENSG00000155530'
p1170
atRp1171
ssS'chocolate'
p1172
(dp1173
g4
(lp1174
(lp1175
S'ENSG00000196990'
p1176
aFinf
ag8
(g10
S'{\xec\x97C\xa6\xdcX?'
tRp1177
ag8
(g10
S'\x00\xac\x91S-\xcex?'
tRp1178
aa(lp1179
S'ENSG00000105290'
p1180
aFinf
ag8
(g10
S'\xd1\xed\xb1\xb2|\xa5r?'
tRp1181
ag8
(g10
S'\xc0\xeeU)\xaf\xd7\x8b?'
tRp1182
aa(lp1183
S'ENSG00000101489'
p1184
aFinf
ag8
(g10
S')\xed}\xd4\xcf\x13\x7f?'
tRp1185
ag8
(g10
S"\x00'\x8ee\xa1\xf5\x8e?"
tRp1186
aa(lp1187
S'ENSG00000067715'
p1188
aFinf
ag8
(g10
S'+\xef\xb1\xb2|\xa5\xa2?'
tRp1189
ag8
(g10
S'0\xef\xb1\xb2|\xa5\xa2?'
tRp1190
aasg25
g26
((lp1191
S'ENSG00000151692'
p1192
aS'ENSG00000182132'
p1193
aS'ENSG00000111254'
p1194
aS'ENSG00000250506'
p1195
aS'ENSG00000128683'
p1196
aS'ENSG00000140543'
p1197
aS'ENSG00000157884'
p1198
aS'ENSG00000197635'
p1199
atRp1200
ssS'darkgrey'
p1201
(dp1202
g25
g26
((lp1203
S'ENSG00000185745'
p1204
aS'ENSG00000177409'
p1205
aS'ENSG00000188820'
p1206
aS'ENSG00000128335'
p1207
aS'ENSG00000173193'
p1208
aS'ENSG00000160710'
p1209
aS'ENSG00000025708'
p1210
aS'ENSG00000128284'
p1211
aS'ENSG00000231925'
p1212
aS'ENSG00000158865'
p1213
aS'ENSG00000108771'
p1214
aS'ENSG00000102934'
p1215
aS'ENSG00000160326'
p1216
aS'ENSG00000138496'
p1217
aS'ENSG00000010030'
p1218
aS'ENSG00000137135'
p1219
aS'ENSG00000112096'
p1220
atRp1221
ssS'antiquewhite'
p1222
(dp1223
g4
(lp1224
(lp1225
S'ENSG00000145703'
p1226
aFinf
ag8
(g10
S'{\xec\x97C\xa6\xdcX?'
tRp1227
ag8
(g10
S'@\xd1\xf94j\x93\x82?'
tRp1228
aa(lp1229
S'ENSG00000111057'
p1230
aFinf
ag8
(g10
S'\xd1\xed\xb1\xb2|\xa5r?'
tRp1231
ag8
(g10
S'@\xd6\x85\xff\xaa\xe3\x8e?'
tRp1232
aa(lp1233
S'ENSG00000179299'
p1234
aFinf
ag8
(g10
S'2\xf1\x97C\xa6\xdch?'
tRp1235
ag8
(g10
S'@\xd6\x85\xff\xaa\xe3\x8e?'
tRp1236
aa(lp1237
S'ENSG00000053918'
p1238
aFinf
ag8
(g10
S'2\xf1\x97C\xa6\xdch?'
tRp1239
ag8
(g10
S'@\xd6\x85\xff\xaa\xe3\x8e?'
tRp1240
aa(lp1241
g159
aFinf
ag8
(g10
S')\xed}\xd4\xcf\x13\x7f?'
tRp1242
ag8
(g10
S"\x00'\x8ee\xa1\xf5\x8e?"
tRp1243
aa(lp1244
S'ENSG00000165140'
p1245
aFinf
ag8
(g10
S'I\xee\x97C\xa6\xdc\x88?'
tRp1246
ag8
(g10
S"\x00'\x8ee\xa1\xf5\x8e?"
tRp1247
aasg25
g26
((lp1248
S'ENSG00000160218'
p1249
aS'ENSG00000129003'
p1250
aS'ENSG00000197774'
p1251
aS'ENSG00000074370'
p1252
aS'ENSG00000241973'
p1253
aS'ENSG00000130413'
p1254
aS'ENSG00000135778'
p1255
aS'ENSG00000180185'
p1256
aS'ENSG00000267596'
p1257
atRp1258
ssS'moccasin'
p1259
(dp1260
g4
(lp1261
(lp1262
S'ENSG00000135373'
p1263
aFinf
ag8
(g10
S'2\xf1\x97C\xa6\xdch?'
tRp1264
ag8
(g10
S'\x00\xf1\x97C\xa6\xdch?'
tRp1265
aasg25
g26
((lp1266
S'ENSG00000148225'
p1267
aS'ENSG00000014257'
p1268
aS'ENSG00000037474'
p1269
aS'ENSG00000073008'
p1270
aS'ENSG00000196367'
p1271
aS'ENSG00000111321'
p1272
aS'ENSG00000102763'
p1273
aS'ENSG00000109063'
p1274
aS'ENSG00000170954'
p1275
aS'ENSG00000213214'
p1276
atRp1277
ssS'chocolate1'
p1278
(dp1279
g4
(lp1280
(lp1281
S'ENSG00000171819'
p1282
aFinf
ag8
(g10
S'u\xf1\xb1\xb2|\xa5r?'
tRp1283
ag8
(g10
S'@c\xb4\xbej\x99\xa4?'
tRp1284
aasg25
g26
((lp1285
S'ENSG00000141469'
p1286
aS'ENSG00000100577'
p1287
aS'ENSG00000101134'
p1288
aS'ENSG00000105650'
p1289
aS'ENSG00000243137'
p1290
aS'ENSG00000158863'
p1291
aS'ENSG00000141198'
p1292
aS'ENSG00000180440'
p1293
atRp1294
ssS'chocolate2'
p1295
(dp1296
g4
(lp1297
(lp1298
S'ENSG00000137331'
p1299
aFinf
ag8
(g10
S'2\xf1\x97C\xa6\xdch?'
tRp1300
ag8
(g10
S'\x00\xf1\x97C\xa6\xdch?'
tRp1301
aasg25
g26
((lp1302
S'ENSG00000164935'
p1303
aS'ENSG00000108688'
p1304
aS'ENSG00000179841'
p1305
aS'ENSG00000179889'
p1306
aS'ENSG00000115008'
p1307
aS'ENSG00000163576'
p1308
aS'ENSG00000269396'
p1309
aS'ENSG00000127191'
p1310
aS'ENSG00000151014'
p1311
atRp1312
ssS'chocolate3'
p1313
(dp1314
g25
g26
((lp1315
S'ENSG00000145284'
p1316
aS'ENSG00000168653'
p1317
aS'ENSG00000169715'
p1318
aS'ENSG00000100296'
p1319
aS'ENSG00000169371'
p1320
aS'ENSG00000254531'
p1321
aS'ENSG00000073584'
p1322
aS'ENSG00000205364'
p1323
aS'ENSG00000084623'
p1324
aS'ENSG00000103723'
p1325
atRp1326
ssS'chocolate4'
p1327
(dp1328
g4
(lp1329
(lp1330
S'ENSG00000113763'
p1331
aFinf
ag8
(g10
S'\x88\xec\x97C\xa6\xdch?'
tRp1332
ag8
(g10
S'\x80z,\xce\xfd\xd2x?'
tRp1333
aa(lp1334
S'ENSG00000145920'
p1335
ag8
(g10
S'\x00\x00\x00\x00\x00@k@'
tRp1336
ag8
(g10
S'v\xe3\x91\xf0#\xce\x88?'
tRp1337
ag8
(g10
S'\x80\xe3\x91\xf0#\xce\x88?'
tRp1338
aasg25
g26
((lp1339
S'ENSG00000197444'
p1340
aS'ENSG00000153246'
p1341
aS'ENSG00000163806'
p1342
aS'ENSG00000154917'
p1343
aS'ENSG00000149926'
p1344
aS'ENSG00000213639'
p1345
aS'ENSG00000112078'
p1346
aS'ENSG00000198160'
p1347
aS'ENSG00000115107'
p1348
aS'ENSG00000148143'
p1349
atRp1350
ssS'darkslateblue'
p1351
(dp1352
g25
g26
((lp1353
S'ENSG00000239713'
p1354
aS'ENSG00000139192'
p1355
aS'ENSG00000204267'
p1356
aS'ENSG00000094880'
p1357
aS'ENSG00000136514'
p1358
aS'ENSG00000206503'
p1359
aS'ENSG00000197646'
p1360
aS'ENSG00000079150'
p1361
aS'ENSG00000186470'
p1362
aS'ENSG00000182957'
p1363
aS'ENSG00000167920'
p1364
aS'ENSG00000171302'
p1365
aS'ENSG00000204642'
p1366
aS'ENSG00000168394'
p1367
atRp1368
ssS'lightskyblue'
p1369
(dp1370
g4
(lp1371
(lp1372
g1245
aFinf
ag8
(g10
S'I\xee\x97C\xa6\xdc\x88?'
tRp1373
ag8
(g10
S'@\xee\x97C\xa6\xdc\x88?'
tRp1374
aasg25
g26
((lp1375
S'ENSG00000073350'
p1376
aS'ENSG00000186510'
p1377
aS'ENSG00000197563'
p1378
aS'ENSG00000129250'
p1379
aS'ENSG00000040531'
p1380
aS'ENSG00000170175'
p1381
aS'ENSG00000183527'
p1382
atRp1383
ssS'deeppink'
p1384
(dp1385
g4
(lp1386
(lp1387
S'ENSG00000166145'
p1388
aFinf
ag8
(g10
S'{\xec\x97C\xa6\xdcX?'
tRp1389
ag8
(g10
S'@\xd1\xf94j\x93\x82?'
tRp1390
aa(lp1391
g508
aFinf
ag8
(g10
S'\xd1\xed\xb1\xb2|\xa5r?'
tRp1392
ag8
(g10
S'@\x9c\xf2u\xc7\x18\x97?'
tRp1393
aa(lp1394
g513
aFinf
ag8
(g10
S'\x93\xe9\x97C\xa6\xdcx?'
tRp1395
ag8
(g10
S' \xa4Ds\xef\xa2\x98?'
tRp1396
aa(lp1397
g518
aFinf
ag8
(g10
S')\xed}\xd4\xcf\x13\x7f?'
tRp1398
ag8
(g10
S' \xa4Ds\xef\xa2\x98?'
tRp1399
aasg25
g26
((lp1400
S'ENSG00000107798'
p1401
aS'ENSG00000049860'
p1402
aS'ENSG00000104763'
p1403
aS'ENSG00000216490'
p1404
aS'ENSG00000171298'
p1405
aS'ENSG00000130175'
p1406
aS'ENSG00000131238'
p1407
aS'ENSG00000149418'
p1408
aS'ENSG00000163956'
p1409
aS'ENSG00000156171'
p1410
aS'ENSG00000135506'
p1411
atRp1412
ssS'plum'
p1413
(dp1414
g25
g26
((lp1415
S'ENSG00000137486'
p1416
aS'ENSG00000152291'
p1417
aS'ENSG00000115884'
p1418
aS'ENSG00000144455'
p1419
aS'ENSG00000163938'
p1420
aS'ENSG00000077097'
p1421
aS'ENSG00000100744'
p1422
aS'ENSG00000057608'
p1423
aS'ENSG00000144677'
p1424
aS'ENSG00000213859'
p1425
aS'ENSG00000069493'
p1426
aS'ENSG00000119335'
p1427
aS'ENSG00000100448'
p1428
atRp1429
ssS'springgreen1'
p1430
(dp1431
g25
g26
((lp1432
S'ENSG00000130402'
p1433
aS'ENSG00000143702'
p1434
aS'ENSG00000066084'
p1435
aS'ENSG00000121486'
p1436
aS'ENSG00000023516'
p1437
atRp1438
ssS'springgreen2'
p1439
(dp1440
g25
g26
((lp1441
S'ENSG00000158457'
p1442
aS'ENSG00000096433'
p1443
aS'ENSG00000144642'
p1444
aS'ENSG00000254685'
p1445
aS'ENSG00000117643'
p1446
aS'ENSG00000180638'
p1447
atRp1448
ssS'springgreen3'
p1449
(dp1450
g25
g26
((lp1451
S'ENSG00000206535'
p1452
aS'ENSG00000166971'
p1453
aS'ENSG00000197013'
p1454
aS'ENSG00000261794'
p1455
aS'ENSG00000156795'
p1456
aS'ENSG00000103479'
p1457
atRp1458
ssS'seashell2'
p1459
(dp1460
g25
g26
((lp1461
S'ENSG00000144214'
p1462
aS'ENSG00000239704'
p1463
aS'ENSG00000176945'
p1464
aS'ENSG00000244687'
p1465
aS'ENSG00000164344'
p1466
aS'ENSG00000111450'
p1467
aS'ENSG00000167720'
p1468
atRp1469
ssS'seashell3'
p1470
(dp1471
g25
g26
((lp1472
S'ENSG00000128872'
p1473
aS'ENSG00000137267'
p1474
aS'ENSG00000261857'
p1475
aS'ENSG00000188487'
p1476
aS'ENSG00000162706'
p1477
aS'ENSG00000137285'
p1478
aS'ENSG00000244045'
p1479
atRp1480
ssS'magenta'
p1481
(dp1482
g4
(lp1483
(lp1484
S'ENSG00000170153'
p1485
aFinf
ag8
(g10
S'l\xf1\xb1\xb2|\xa5\x82?'
tRp1486
ag8
(g10
S'0\xb2}\xcf0\xe3\xa6?'
tRp1487
aasg25
g26
((lp1488
S'ENSG00000164506'
p1489
aS'ENSG00000188643'
p1490
aS'ENSG00000163964'
p1491
aS'ENSG00000167080'
p1492
aS'ENSG00000182631'
p1493
aS'ENSG00000168385'
p1494
aS'ENSG00000204149'
p1495
aS'ENSG00000169504'
p1496
aS'ENSG00000104419'
p1497
aS'ENSG00000154229'
p1498
aS'ENSG00000186063'
p1499
aS'ENSG00000150672'
p1500
aS'ENSG00000130208'
p1501
aS'ENSG00000108381'
p1502
aS'ENSG00000151388'
p1503
aS'ENSG00000204616'
p1504
aS'ENSG00000138119'
p1505
aS'ENSG00000119227'
p1506
aS'ENSG00000175600'
p1507
aS'ENSG00000107130'
p1508
aS'ENSG00000135968'
p1509
aS'ENSG00000131149'
p1510
aS'ENSG00000153814'
p1511
atRp1512
ssS'seashell1'
p1513
(dp1514
g4
(lp1515
(lp1516
S'ENSG00000133477'
p1517
aFinf
ag8
(g10
S'u\xf1\xb1\xb2|\xa5r?'
tRp1518
ag8
(g10
S'@}\xaf\xde;\xa7\x9b?'
tRp1519
aa(lp1520
S'ENSG00000092607'
p1521
aFinf
ag8
(g10
S'u\xf1\xb1\xb2|\xa5r?'
tRp1522
ag8
(g10
S'@}\xaf\xde;\xa7\x9b?'
tRp1523
aasg25
g26
((lp1524
S'ENSG00000243989'
p1525
aS'ENSG00000100299'
p1526
aS'ENSG00000111364'
p1527
aS'ENSG00000074966'
p1528
aS'ENSG00000188175'
p1529
aS'ENSG00000107249'
p1530
atRp1531
ssS'tan'
p1532
(dp1533
g4
(lp1534
(lp1535
S'ENSG00000179144'
p1536
ag8
(g10
S'%I\x92$I\x12G@'
tRp1537
ag8
(g10
S'\xa0\xce\xe4\xd0b\xd4c?'
tRp1538
ag8
(g10
S'p\xf2\x84K\x9f\x14\xa1?'
tRp1539
aasg25
g26
((lp1540
S'ENSG00000133561'
p1541
aS'ENSG00000173269'
p1542
aS'ENSG00000121005'
p1543
aS'ENSG00000165806'
p1544
aS'ENSG00000135363'
p1545
aS'ENSG00000125409'
p1546
aS'ENSG00000136114'
p1547
aS'ENSG00000150455'
p1548
aS'ENSG00000235098'
p1549
aS'ENSG00000198478'
p1550
aS'ENSG00000007314'
p1551
aS'ENSG00000157557'
p1552
aS'ENSG00000130300'
p1553
aS'ENSG00000069122'
p1554
aS'ENSG00000135048'
p1555
aS'ENSG00000169908'
p1556
aS'ENSG00000163513'
p1557
aS'ENSG00000091972'
p1558
aS'ENSG00000196329'
p1559
aS'ENSG00000118946'
p1560
atRp1561
ssS'seashell4'
p1562
(dp1563
g25
g26
((lp1564
S'ENSG00000255374'
p1565
aS'ENSG00000109472'
p1566
aS'ENSG00000262601'
p1567
aS'ENSG00000124743'
p1568
aS'ENSG00000215218'
p1569
aS'ENSG00000128656'
p1570
aS'ENSG00000156876'
p1571
aS'ENSG00000121064'
p1572
atRp1573
ssS'pink'
p1574
(dp1575
g4
(lp1576
(lp1577
S'ENSG00000159409'
p1578
aFinf
ag8
(g10
S'\x88\xec\x97C\xa6\xdch?'
tRp1579
ag8
(g10
S'\x80z,\xce\xfd\xd2x?'
tRp1580
aa(lp1581
g1335
ag8
(g10
S'\x00\x00\x00\x00\x00@k@'
tRp1582
ag8
(g10
S'v\xe3\x91\xf0#\xce\x88?'
tRp1583
ag8
(g10
S'\x80\xe3\x91\xf0#\xce\x88?'
tRp1584
aasg25
g26
((lp1585
S'ENSG00000173641'
p1586
aS'ENSG00000162434'
p1587
aS'ENSG00000125970'
p1588
aS'ENSG00000143891'
p1589
aS'ENSG00000196352'
p1590
aS'ENSG00000058673'
p1591
aS'ENSG00000057663'
p1592
aS'ENSG00000166974'
p1593
aS'ENSG00000124588'
p1594
aS'ENSG00000135972'
p1595
aS'ENSG00000175093'
p1596
aS'ENSG00000118600'
p1597
aS'ENSG00000151640'
p1598
aS'ENSG00000104936'
p1599
aS'ENSG00000022567'
p1600
aS'ENSG00000109458'
p1601
aS'ENSG00000162980'
p1602
aS'ENSG00000119203'
p1603
aS'ENSG00000166928'
p1604
aS'ENSG00000100439'
p1605
aS'ENSG00000106771'
p1606
aS'ENSG00000029639'
p1607
aS'ENSG00000166949'
p1608
atRp1609
ssS'palevioletred'
p1610
(dp1611
g25
g26
((lp1612
S'ENSG00000133678'
p1613
aS'ENSG00000164332'
p1614
aS'ENSG00000115084'
p1615
aS'ENSG00000187676'
p1616
aS'ENSG00000103591'
p1617
aS'ENSG00000112977'
p1618
aS'ENSG00000006695'
p1619
aS'ENSG00000105447'
p1620
aS'ENSG00000041802'
p1621
aS'ENSG00000068654'
p1622
atRp1623
ssS'powderblue'
p1624
(dp1625
g25
g26
((lp1626
S'ENSG00000117834'
p1627
aS'ENSG00000077238'
p1628
aS'ENSG00000116183'
p1629
aS'ENSG00000100890'
p1630
aS'ENSG00000116194'
p1631
aS'ENSG00000106392'
p1632
aS'ENSG00000198874'
p1633
aS'ENSG00000179242'
p1634
aS'ENSG00000143971'
p1635
aS'ENSG00000255974'
p1636
atRp1637
ssS'mediumblue'
p1638
(dp1639
g25
g26
((lp1640
S'ENSG00000184293'
p1641
aS'ENSG00000131018'
p1642
aS'ENSG00000105697'
p1643
aS'ENSG00000167850'
p1644
aS'ENSG00000177663'
p1645
aS'ENSG00000239998'
p1646
aS'ENSG00000135097'
p1647
atRp1648
ssS'lightcyan'
p1649
(dp1650
g4
(lp1651
(lp1652
S'ENSG00000008300'
p1653
aFinf
ag8
(g10
S'{\xec\x97C\xa6\xdcX?'
tRp1654
ag8
(g10
S'\x00\xec\x97C\xa6\xdcX?'
tRp1655
aasg25
g26
((lp1656
S'ENSG00000197535'
p1657
aS'ENSG00000197857'
p1658
aS'ENSG00000159917'
p1659
aS'ENSG00000133657'
p1660
aS'ENSG00000198182'
p1661
aS'ENSG00000167555'
p1662
aS'ENSG00000221923'
p1663
aS'ENSG00000198046'
p1664
aS'ENSG00000196263'
p1665
aS'ENSG00000105136'
p1666
aS'ENSG00000135747'
p1667
aS'ENSG00000196867'
p1668
aS'ENSG00000258405'
p1669
aS'ENSG00000159915'
p1670
aS'ENSG00000188295'
p1671
aS'ENSG00000100987'
p1672
aS'ENSG00000179909'
p1673
aS'ENSG00000018869'
p1674
aS'ENSG00000152467'
p1675
atRp1676
ssS'midnightblue'
p1677
(dp1678
g4
(lp1679
(lp1680
S'ENSG00000179776'
p1681
aFinf
ag8
(g10
S'\xd9\xca\xe6\xfeQOq>'
tRp1682
ag8
(g10
S'\x00\x00\xe0\x1b\xcfJ\x9e>'
tRp1683
aa(lp1684
S'ENSG00000101331'
p1685
aFinf
ag8
(g10
S'\xb2\xe7}\xd4\xcf\x13\x7f?'
tRp1686
ag8
(g10
S'\xb0LW2\xd1\xde\xa6?'
tRp1687
aa(lp1688
S'ENSG00000198844'
p1689
aFinf
ag8
(g10
S'\xb2\xe7}\xd4\xcf\x13\x7f?'
tRp1690
ag8
(g10
S'\xb0LW2\xd1\xde\xa6?'
tRp1691
aa(lp1692
S'ENSG00000142910'
p1693
aFinf
ag8
(g10
S'\xb2\xe7}\xd4\xcf\x13\x7f?'
tRp1694
ag8
(g10
S'\xb0LW2\xd1\xde\xa6?'
tRp1695
aasg25
g26
((lp1696
S'ENSG00000129467'
p1697
aS'ENSG00000143537'
p1698
aS'ENSG00000108947'
p1699
aS'ENSG00000132031'
p1700
aS'ENSG00000122679'
p1701
aS'ENSG00000115310'
p1702
aS'ENSG00000197134'
p1703
aS'ENSG00000203883'
p1704
aS'ENSG00000158955'
p1705
aS'ENSG00000176907'
p1706
aS'ENSG00000128567'
p1707
aS'ENSG00000068697'
p1708
aS'ENSG00000136238'
p1709
aS'ENSG00000126878'
p1710
aS'ENSG00000154485'
p1711
aS'ENSG00000185187'
p1712
aS'ENSG00000187240'
p1713
aS'ENSG00000183186'
p1714
aS'ENSG00000100300'
p1715
atRp1716
ssS'honeydew1'
p1717
(dp1718
g25
g26
((lp1719
S'ENSG00000189068'
p1720
aS'ENSG00000197321'
p1721
aS'ENSG00000004455'
p1722
aS'ENSG00000145384'
p1723
aS'ENSG00000166780'
p1724
aS'ENSG00000006625'
p1725
aS'ENSG00000130348'
p1726
aS'ENSG00000164096'
p1727
aS'ENSG00000163239'
p1728
aS'ENSG00000137074'
p1729
aS'ENSG00000106628'
p1730
aS'ENSG00000140104'
p1731
aS'ENSG00000156968'
p1732
aS'ENSG00000103351'
p1733
atRp1734
ssS'mediumpurple1'
p1735
(dp1736
g4
(lp1737
(lp1738
S'ENSG00000137975'
p1739
aFinf
ag8
(g10
S'\x88\xec\x97C\xa6\xdch?'
tRp1740
ag8
(g10
S'\x00\xeb\x06\xb5s\x99\x98?'
tRp1741
aa(lp1742
S'ENSG00000137714'
p1743
aFinf
ag8
(g10
S'\x88\xec\x97C\xa6\xdch?'
tRp1744
ag8
(g10
S'\x00\xeb\x06\xb5s\x99\x98?'
tRp1745
aasg25
g26
((lp1746
S'ENSG00000111424'
p1747
aS'ENSG00000189283'
p1748
aS'ENSG00000107140'
p1749
aS'ENSG00000232774'
p1750
aS'ENSG00000181619'
p1751
aS'ENSG00000182472'
p1752
aS'ENSG00000069275'
p1753
aS'ENSG00000185621'
p1754
aS'ENSG00000126790'
p1755
aS'ENSG00000222018'
p1756
aS'ENSG00000219626'
p1757
aS'ENSG00000083544'
p1758
atRp1759
ssS'mediumpurple2'
p1760
(dp1761
g4
(lp1762
(lp1763
S'ENSG00000186868'
p1764
aFinf
ag8
(g10
S'u\xf1\xb1\xb2|\xa5r?'
tRp1765
ag8
(g10
S'\xa0\xa0\xf2u\xc7\x18\x97?'
tRp1766
aa(lp1767
S'ENSG00000139410'
p1768
ag8
(g10
S'\x00\x00\x00\x00\x00xt@'
tRp1769
ag8
(g10
S'\xe9\xe8.\x89;\x9e\x82?'
tRp1770
ag8
(g10
S'\x00\xea\xba\xbc\xa1]\xa2?'
tRp1771
aasg25
g26
((lp1772
S'ENSG00000108175'
p1773
aS'ENSG00000165730'
p1774
aS'ENSG00000198729'
p1775
aS'ENSG00000149218'
p1776
aS'ENSG00000148737'
p1777
aS'ENSG00000197980'
p1778
aS'ENSG00000149639'
p1779
aS'ENSG00000076351'
p1780
aS'ENSG00000075884'
p1781
aS'ENSG00000167193'
p1782
aS'ENSG00000140481'
p1783
aS'ENSG00000060749'
p1784
aS'ENSG00000135749'
p1785
atRp1786
ssS'mediumpurple3'
p1787
(dp1788
g4
(lp1789
(lp1790
g705
ag8
(g10
S'UUUUU5[@'
tRp1791
ag8
(g10
S'\xd40r\xdd\xbe\x8f\x92?'
tRp1792
ag8
(g10
S'\xe00r\xdd\xbe\x8f\x92?'
tRp1793
aasg25
g26
((lp1794
S'ENSG00000112667'
p1795
aS'ENSG00000178188'
p1796
aS'ENSG00000169826'
p1797
aS'ENSG00000051009'
p1798
aS'ENSG00000244731'
p1799
aS'ENSG00000224389'
p1800
aS'ENSG00000197081'
p1801
aS'ENSG00000185565'
p1802
aS'ENSG00000254521'
p1803
aS'ENSG00000164331'
p1804
aS'ENSG00000206127'
p1805
aS'ENSG00000204344'
p1806
aS'ENSG00000130340'
p1807
aS'ENSG00000168477'
p1808
aS'ENSG00000107099'
p1809
atRp1810
ssS'mediumpurple4'
p1811
(dp1812
g25
g26
((lp1813
S'ENSG00000170571'
p1814
aS'ENSG00000112031'
p1815
aS'ENSG00000112304'
p1816
aS'ENSG00000163082'
p1817
aS'ENSG00000082146'
p1818
aS'ENSG00000104361'
p1819
aS'ENSG00000114698'
p1820
aS'ENSG00000164978'
p1821
aS'ENSG00000134318'
p1822
aS'ENSG00000144306'
p1823
aS'ENSG00000080493'
p1824
aS'ENSG00000143183'
p1825
atRp1826
ssS'khaki4'
p1827
(dp1828
g25
g26
((lp1829
S'ENSG00000130545'
p1830
aS'ENSG00000120586'
p1831
aS'ENSG00000196511'
p1832
aS'ENSG00000204577'
p1833
aS'ENSG00000023608'
p1834
aS'ENSG00000169519'
p1835
aS'ENSG00000140090'
p1836
aS'ENSG00000126870'
p1837
atRp1838
ssS'paleturquoise4'
p1839
(dp1840
g4
(lp1841
(lp1842
S'ENSG00000167508'
p1843
aFinf
ag8
(g10
S'{\xec\x97C\xa6\xdcX?'
tRp1844
ag8
(g10
S'\x00\xec\x97C\xa6\xdcX?'
tRp1845
aasg25
g26
((lp1846
S'ENSG00000084628'
p1847
aS'ENSG00000160049'
p1848
aS'ENSG00000174915'
p1849
aS'ENSG00000047346'
p1850
aS'ENSG00000172831'
p1851
aS'ENSG00000117054'
p1852
aS'ENSG00000105364'
p1853
aS'ENSG00000180878'
p1854
aS'ENSG00000166169'
p1855
atRp1856
ssS'paleturquoise3'
p1857
(dp1858
g25
g26
((lp1859
S'ENSG00000168803'
p1860
aS'ENSG00000113328'
p1861
aS'ENSG00000179532'
p1862
aS'ENSG00000189366'
p1863
aS'ENSG00000113971'
p1864
aS'ENSG00000137101'
p1865
aS'ENSG00000165502'
p1866
aS'ENSG00000177868'
p1867
atRp1868
ssS'khaki1'
p1869
(dp1870
g4
(lp1871
(lp1872
S'ENSG00000132906'
p1873
aFinf
ag8
(g10
S'\x1c\xa8\xf9\x0b\xa6\x04\xed>'
tRp1874
ag8
(g10
S'\x00\x00\xc3\xe3\x98\x04\xfd>'
tRp1875
aa(lp1876
S'ENSG00000185186'
p1877
ag8
(g10
S'\x00\x00\x00\x00\x00xt@'
tRp1878
ag8
(g10
S'\xe9\xe8.\x89;\x9e\x82?'
tRp1879
ag8
(g10
S'\x00\xe9.\x89;\x9e\x82?'
tRp1880
aasg25
g26
((lp1881
S'ENSG00000166886'
p1882
aS'ENSG00000141568'
p1883
aS'ENSG00000069849'
p1884
aS'ENSG00000132906'
p1885
aS'ENSG00000116761'
p1886
aS'ENSG00000124659'
p1887
atRp1888
ssS'khaki2'
p1889
(dp1890
g25
g26
((lp1891
S'ENSG00000125871'
p1892
aS'ENSG00000124357'
p1893
aS'ENSG00000146250'
p1894
aS'ENSG00000173728'
p1895
aS'ENSG00000131504'
p1896
aS'ENSG00000267795'
p1897
aS'ENSG00000132801'
p1898
atRp1899
ssS'khaki3'
p1900
(dp1901
g4
(lp1902
(lp1903
S'ENSG00000166265'
p1904
aFinf
ag8
(g10
S'2\xf1\x97C\xa6\xdch?'
tRp1905
ag8
(g10
S'\x00\xfc\x08\xc3\x03\x97\x82?'
tRp1906
aa(lp1907
g710
aFinf
ag8
(g10
S'l\xf1\xb1\xb2|\xa5\x82?'
tRp1908
ag8
(g10
S'\xc0/\x80\xaa\xc1\x8f\x92?'
tRp1909
aa(lp1910
g1681
aFinf
ag8
(g10
S'&i\xeb\x16G3\xa4?'
tRp1911
ag8
(g10
S' i\xeb\x16G3\xa4?'
tRp1912
aasg25
g26
((lp1913
S'ENSG00000011143'
p1914
aS'ENSG00000117640'
p1915
aS'ENSG00000182749'
p1916
aS'ENSG00000099260'
p1917
aS'ENSG00000100336'
p1918
aS'ENSG00000100441'
p1919
aS'ENSG00000004142'
p1920
aS'ENSG00000204427'
p1921
atRp1922
ssS'salmon1'
p1923
(dp1924
g4
(lp1925
(lp1926
S'ENSG00000105409'
p1927
ag8
(g10
S'\x00\x00\x00\x00\x00\x80\x84@'
tRp1928
ag8
(g10
S"\xf1?\xeb'\xd0\xd7x?"
tRp1929
ag8
(g10
S"\x00@\xeb'\xd0\xd7x?"
tRp1930
aasg25
g26
((lp1931
S'ENSG00000173226'
p1932
aS'ENSG00000213672'
p1933
aS'ENSG00000243708'
p1934
aS'ENSG00000177479'
p1935
aS'ENSG00000130684'
p1936
aS'ENSG00000171596'
p1937
aS'ENSG00000153094'
p1938
aS'ENSG00000137877'
p1939
aS'ENSG00000138468'
p1940
aS'ENSG00000124935'
p1941
aS'ENSG00000125398'
p1942
atRp1943
ssS'honeydew4'
p1944
(dp1945
g25
g26
((lp1946
S'ENSG00000259363'
p1947
aS'ENSG00000170955'
p1948
aS'ENSG00000168036'
p1949
aS'ENSG00000188659'
p1950
aS'ENSG00000178209'
p1951
atRp1952
ssS'salmon3'
p1953
(dp1954
g4
(lp1955
(lp1956
S'ENSG00000101445'
p1957
ag8
(g10
S'\x00\x00\x00\x00\x00xt@'
tRp1958
ag8
(g10
S'\xe9\xe8.\x89;\x9e\x82?'
tRp1959
ag8
(g10
S'\x00\xea\xba\xbc\xa1]\xa2?'
tRp1960
aa(lp1961
S'ENSG00000136997'
p1962
ag8
(g10
S'\x00\x00\x00\x00\x00pd@'
tRp1963
ag8
(g10
S'\xeat&cz\xe2\x8b?'
tRp1964
ag8
(g10
S'pC\x01(K\xa1\xa4?'
tRp1965
aasg25
g26
((lp1966
S'ENSG00000093072'
p1967
aS'ENSG00000099954'
p1968
aS'ENSG00000112297'
p1969
aS'ENSG00000046604'
p1970
aS'ENSG00000257599'
p1971
aS'ENSG00000103811'
p1972
atRp1973
ssS'salmon2'
p1974
(dp1975
g25
g26
((lp1976
S'ENSG00000099377'
p1977
aS'ENSG00000188312'
p1978
aS'ENSG00000198794'
p1979
aS'ENSG00000171130'
p1980
aS'ENSG00000099365'
p1981
aS'ENSG00000140995'
p1982
aS'ENSG00000132821'
p1983
aS'ENSG00000171714'
p1984
aS'ENSG00000108439'
p1985
aS'ENSG00000082014'
p1986
aS'ENSG00000076864'
p1987
aS'ENSG00000173566'
p1988
atRp1989
ssS'salmon4'
p1990
(dp1991
g25
g26
((lp1992
S'ENSG00000171150'
p1993
aS'ENSG00000156273'
p1994
aS'ENSG00000203813'
p1995
aS'ENSG00000162669'
p1996
aS'ENSG00000105656'
p1997
aS'ENSG00000180011'
p1998
aS'ENSG00000163251'
p1999
aS'ENSG00000187634'
p2000
aS'ENSG00000086544'
p2001
aS'ENSG00000147454'
p2002
aS'ENSG00000117707'
p2003
aS'ENSG00000152049'
p2004
aS'ENSG00000150510'
p2005
aS'ENSG00000183735'
p2006
atRp2007
ssS'linen'
p2008
(dp2009
g25
g26
((lp2010
S'ENSG00000183287'
p2011
aS'ENSG00000172728'
p2012
aS'ENSG00000107566'
p2013
aS'ENSG00000181090'
p2014
aS'ENSG00000143774'
p2015
aS'ENSG00000068650'
p2016
aS'ENSG00000186635'
p2017
aS'ENSG00000103024'
p2018
atRp2019
ssS'burlywood1'
p2020
(dp2021
g25
g26
((lp2022
S'ENSG00000035115'
p2023
aS'ENSG00000168724'
p2024
aS'ENSG00000129595'
p2025
aS'ENSG00000103742'
p2026
aS'ENSG00000143622'
p2027
aS'ENSG00000186567'
p2028
aS'ENSG00000146833'
p2029
aS'ENSG00000183508'
p2030
atRp2031
ssS'green'
p2032
(dp2033
g4
(lp2034
(lp2035
S'ENSG00000158856'
p2036
aFinf
ag8
(g10
S'\x95\xec\x97C\xa6\xdcx?'
tRp2037
ag8
(g10
S'@\x07\xc1XU\xc9\x88?'
tRp2038
aa(lp2039
S'ENSG00000178075'
p2040
ag8
(g10
S'\x00\x00\x00\x00\x00@k@'
tRp2041
ag8
(g10
S' \xeb\x91\xf0#\xce\x88?'
tRp2042
ag8
(g10
S'\x00\xeb\x91\xf0#\xce\x88?'
tRp2043
aasg25
g26
((lp2044
S'ENSG00000158716'
p2045
aS'ENSG00000065413'
p2046
aS'ENSG00000108932'
p2047
aS'ENSG00000196961'
p2048
aS'ENSG00000069966'
p2049
aS'ENSG00000183762'
p2050
aS'ENSG00000168916'
p2051
aS'ENSG00000135074'
p2052
aS'ENSG00000166913'
p2053
aS'ENSG00000144868'
p2054
aS'ENSG00000160097'
p2055
aS'ENSG00000203985'
p2056
aS'ENSG00000232237'
p2057
aS'ENSG00000149260'
p2058
aS'ENSG00000166839'
p2059
aS'ENSG00000169604'
p2060
aS'ENSG00000085741'
p2061
aS'ENSG00000162437'
p2062
aS'ENSG00000162076'
p2063
aS'ENSG00000137411'
p2064
aS'ENSG00000100249'
p2065
aS'ENSG00000234906'
p2066
aS'ENSG00000001084'
p2067
aS'ENSG00000011105'
p2068
aS'ENSG00000101104'
p2069
atRp2070
ssS'blueviolet'
p2071
(dp2072
g4
(lp2073
(lp2074
S'ENSG00000143226'
p2075
aFinf
ag8
(g10
S'u\xf1\xb1\xb2|\xa5r?'
tRp2076
ag8
(g10
S'\xb0<L\xae\x18\xd6\xa6?'
tRp2077
aa(lp2078
S'ENSG00000113749'
p2079
aFinf
ag8
(g10
S'u\xf1\xb1\xb2|\xa5r?'
tRp2080
ag8
(g10
S'\xb0<L\xae\x18\xd6\xa6?'
tRp2081
aasg25
g26
((lp2082
S'ENSG00000132932'
p2083
aS'ENSG00000053328'
p2084
aS'ENSG00000004468'
p2085
aS'ENSG00000121716'
p2086
aS'ENSG00000204740'
p2087
aS'ENSG00000165985'
p2088
aS'ENSG00000130653'
p2089
aS'ENSG00000123453'
p2090
aS'ENSG00000085514'
p2091
aS'ENSG00000204963'
p2092
aS'ENSG00000125388'
p2093
atRp2094
ssS'brown2'
p2095
(dp2096
g25
g26
((lp2097
S'ENSG00000214237'
p2098
aS'ENSG00000136261'
p2099
aS'ENSG00000173218'
p2100
aS'ENSG00000178078'
p2101
aS'ENSG00000157827'
p2102
aS'ENSG00000197872'
p2103
aS'ENSG00000163646'
p2104
aS'ENSG00000135929'
p2105
aS'ENSG00000164627'
p2106
aS'ENSG00000137727'
p2107
aS'ENSG00000144021'
p2108
aS'ENSG00000119812'
p2109
atRp2110
ssS'brown3'
p2111
(dp2112
g4
(lp2113
(lp2114
S'ENSG00000173546'
p2115
aFinf
ag8
(g10
S'\x93\xe9\x97C\xa6\xdcx?'
tRp2116
ag8
(g10
S'\x80\xe9\x97C\xa6\xdcx?'
tRp2117
aasg25
g26
((lp2118
S'ENSG00000115525'
p2119
aS'ENSG00000112486'
p2120
aS'ENSG00000183250'
p2121
aS'ENSG00000165801'
p2122
aS'ENSG00000164663'
p2123
aS'ENSG00000115355'
p2124
aS'ENSG00000065060'
p2125
aS'ENSG00000100994'
p2126
aS'ENSG00000157077'
p2127
atRp2128
ssS'peachpuff'
p2129
(dp2130
g4
(lp2131
(lp2132
S'ENSG00000149256'
p2133
aFinf
ag8
(g10
S'{\xec\x97C\xa6\xdcX?'
tRp2134
ag8
(g10
S'\x00h\xbfJ?\x9er?'
tRp2135
aa(lp2136
S'ENSG00000153904'
p2137
aFinf
ag8
(g10
S'2\xf1\x97C\xa6\xdch?'
tRp2138
ag8
(g10
S'\x80~,\xce\xfd\xd2x?'
tRp2139
aa(lp2140
S'ENSG00000162545'
p2141
aFinf
ag8
(g10
S'2\xf1\x97C\xa6\xdch?'
tRp2142
ag8
(g10
S'\x80~,\xce\xfd\xd2x?'
tRp2143
aasg25
g26
((lp2144
S'ENSG00000124164'
p2145
aS'ENSG00000121904'
p2146
aS'ENSG00000104728'
p2147
aS'ENSG00000100077'
p2148
aS'ENSG00000139610'
p2149
atRp2150
ssS'brown4'
p2151
(dp2152
g25
g26
((lp2153
S'ENSG00000153066'
p2154
aS'ENSG00000181585'
p2155
aS'ENSG00000178038'
p2156
aS'ENSG00000183617'
p2157
aS'ENSG00000103199'
p2158
aS'ENSG00000134755'
p2159
aS'ENSG00000172366'
p2160
aS'ENSG00000111671'
p2161
aS'ENSG00000214106'
p2162
aS'ENSG00000169413'
p2163
aS'ENSG00000145242'
p2164
aS'ENSG00000114480'
p2165
aS'ENSG00000118655'
p2166
aS'ENSG00000171202'
p2167
aS'ENSG00000136560'
p2168
atRp2169
ssS'orange4'
p2170
(dp2171
g4
(lp2172
(lp2173
S'ENSG00000165457'
p2174
ag8
(g10
S'UUUUU5{@'
tRp2175
ag8
(g10
S's\x84S\x90\xc5\x14"?'
tRp2176
ag8
(g10
S'\x00l\xc6_\xfc\x0fb?'
tRp2177
aa(lp2178
S'ENSG00000110079'
p2179
ag8
(g10
S'\xab\xaa\xaa\xaa\xaa*k@'
tRp2180
ag8
(g10
S'U\xd5%\x9f\xab\x062?'
tRp2181
ag8
(g10
S'\x80EM\x06\xef\xddp?'
tRp2182
aa(lp2183
g1158
ag8
(g10
S'\x00\x00\x00\x00\x00\x00R@'
tRp2184
ag8
(g10
S'\xe7\xd0\x93\x1dZ\xc6T?'
tRp2185
ag8
(g10
S'\x00\x1a\xc2\xbde\x07\x92?'
tRp2186
aa(lp2187
S'ENSG00000173372'
p2188
ag8
(g10
S'\x00\x00\x00\x00\x00\x00R@'
tRp2189
ag8
(g10
S'\xe7\xd0\x93\x1dZ\xc6T?'
tRp2190
ag8
(g10
S'\x00\x1a\xc2\xbde\x07\x92?'
tRp2191
aasg25
g26
((lp2192
S'ENSG00000100368'
p2193
aS'ENSG00000196209'
p2194
aS'ENSG00000163606'
p2195
aS'ENSG00000129538'
p2196
aS'ENSG00000172361'
p2197
aS'ENSG00000089356'
p2198
aS'ENSG00000158270'
p2199
aS'ENSG00000183748'
p2200
aS'ENSG00000110871'
p2201
atRp2202
ssS'orange1'
p2203
(dp2204
g25
g26
((lp2205
S'ENSG00000188452'
p2206
aS'ENSG00000175857'
p2207
aS'ENSG00000196268'
p2208
aS'ENSG00000075975'
p2209
aS'ENSG00000128271'
p2210
aS'ENSG00000115232'
p2211
aS'ENSG00000181656'
p2212
atRp2213
ssS'orange3'
p2214
(dp2215
g4
(lp2216
(lp2217
S'ENSG00000055732'
p2218
aFinf
ag8
(g10
S'2\xf1\x97C\xa6\xdch?'
tRp2219
ag8
(g10
S'@\xd6\x85\xff\xaa\xe3\x8e?'
tRp2220
aa(lp2221
S'ENSG00000167656'
p2222
aFinf
ag8
(g10
S'2\xf1\x97C\xa6\xdch?'
tRp2223
ag8
(g10
S'@\xd6\x85\xff\xaa\xe3\x8e?'
tRp2224
aa(lp2225
S'ENSG00000163072'
p2226
aFinf
ag8
(g10
S'2\xf1\x97C\xa6\xdch?'
tRp2227
ag8
(g10
S'@\xd6\x85\xff\xaa\xe3\x8e?'
tRp2228
aa(lp2229
S'ENSG00000163071'
p2230
aFinf
ag8
(g10
S'2\xf1\x97C\xa6\xdch?'
tRp2231
ag8
(g10
S'@\xd6\x85\xff\xaa\xe3\x8e?'
tRp2232
aa(lp2233
S'ENSG00000145147'
p2234
aFinf
ag8
(g10
S')\xed}\xd4\xcf\x13\x7f?'
tRp2235
ag8
(g10
S'@\xd6\x85\xff\xaa\xe3\x8e?'
tRp2236
aasg25
g26
((lp2237
S'ENSG00000147592'
p2238
aS'ENSG00000130699'
p2239
aS'ENSG00000196363'
p2240
aS'ENSG00000228570'
p2241
aS'ENSG00000174775'
p2242
aS'ENSG00000237440'
p2243
aS'ENSG00000197860'
p2244
aS'ENSG00000197238'
p2245
aS'ENSG00000221947'
p2246
atRp2247
ssS'orange2'
p2248
(dp2249
g25
g26
((lp2250
S'ENSG00000259511'
p2251
aS'ENSG00000129596'
p2252
aS'ENSG00000156103'
p2253
aS'ENSG00000203907'
p2254
aS'ENSG00000138738'
p2255
aS'ENSG00000128891'
p2256
aS'ENSG00000168903'
p2257
aS'ENSG00000165934'
p2258
atRp2259
ssS'yellow4'
p2260
(dp2261
g4
(lp2262
(lp2263
S'ENSG00000114698'
p2264
ag8
(g10
S'\x00\x00\x00\x00\x00@k@'
tRp2265
ag8
(g10
S'v\xe3\x91\xf0#\xce\x88?'
tRp2266
ag8
(g10
S"`\xdc\x8da'a\xa2?"
tRp2267
aa(lp2268
S'ENSG00000074527'
p2269
ag8
(g10
S'\x00\x00\x00\x00\x00@k@'
tRp2270
ag8
(g10
S'v\xe3\x91\xf0#\xce\x88?'
tRp2271
ag8
(g10
S"`\xdc\x8da'a\xa2?"
tRp2272
aa(lp2273
S'ENSG00000182326'
p2274
ag8
(g10
S'\x00\x00\x00\x00\x00@k@'
tRp2275
ag8
(g10
S'v\xe3\x91\xf0#\xce\x88?'
tRp2276
ag8
(g10
S"`\xdc\x8da'a\xa2?"
tRp2277
aasg25
g26
((lp2278
S'ENSG00000008294'
p2279
aS'ENSG00000198848'
p2280
aS'ENSG00000090013'
p2281
aS'ENSG00000165233'
p2282
aS'ENSG00000101751'
p2283
aS'ENSG00000074935'
p2284
aS'ENSG00000176928'
p2285
aS'ENSG00000162944'
p2286
aS'ENSG00000227471'
p2287
aS'ENSG00000104687'
p2288
aS'ENSG00000135093'
p2289
aS'ENSG00000147813'
p2290
aS'ENSG00000203778'
p2291
atRp2292
ssS'yellow3'
p2293
(dp2294
g4
(lp2295
(lp2296
S'ENSG00000143632'
p2297
aFinf
ag8
(g10
S'\x88\xec\x97C\xa6\xdch?'
tRp2298
ag8
(g10
S'\x80z,\xce\xfd\xd2x?'
tRp2299
aa(lp2300
S'ENSG00000155657'
p2301
ag8
(g10
S'\x00\x00\x00\x00\x00\x80\x84@'
tRp2302
ag8
(g10
S"\xf1?\xeb'\xd0\xd7x?"
tRp2303
ag8
(g10
S"\x00@\xeb'\xd0\xd7x?"
tRp2304
aasg25
g26
((lp2305
S'ENSG00000168938'
p2306
aS'ENSG00000160325'
p2307
aS'ENSG00000144504'
p2308
aS'ENSG00000125731'
p2309
aS'ENSG00000187642'
p2310
aS'ENSG00000188242'
p2311
aS'ENSG00000112679'
p2312
aS'ENSG00000220201'
p2313
aS'ENSG00000141569'
p2314
aS'ENSG00000125247'
p2315
aS'ENSG00000250673'
p2316
aS'ENSG00000178750'
p2317
atRp2318
ssS'yellow2'
p2319
(dp2320
g25
g26
((lp2321
S'ENSG00000163161'
p2322
aS'ENSG00000156414'
p2323
aS'ENSG00000251209'
p2324
aS'ENSG00000127585'
p2325
aS'ENSG00000118200'
p2326
aS'ENSG00000048405'
p2327
aS'ENSG00000154710'
p2328
aS'ENSG00000104901'
p2329
aS'ENSG00000073331'
p2330
aS'ENSG00000116783'
p2331
atRp2332
ssS'orange'
p2333
(dp2334
g4
(lp2335
(lp2336
S'ENSG00000095203'
p2337
aFinf
ag8
(g10
S'u\xf1\xb1\xb2|\xa5r?'
tRp2338
ag8
(g10
S'\xa0\xa0\xf2u\xc7\x18\x97?'
tRp2339
aa(lp2340
S'ENSG00000267128'
p2341
aFinf
ag8
(g10
S'u\xf1\xb1\xb2|\xa5r?'
tRp2342
ag8
(g10
S'\xa0\xa0\xf2u\xc7\x18\x97?'
tRp2343
aasg25
g26
((lp2344
S'ENSG00000164118'
p2345
aS'ENSG00000258744'
p2346
aS'ENSG00000115318'
p2347
aS'ENSG00000197045'
p2348
aS'ENSG00000171757'
p2349
aS'ENSG00000005436'
p2350
aS'ENSG00000141576'
p2351
aS'ENSG00000174749'
p2352
aS'ENSG00000175920'
p2353
aS'ENSG00000124615'
p2354
aS'ENSG00000164241'
p2355
aS'ENSG00000133488'
p2356
aS'ENSG00000171444'
p2357
aS'ENSG00000131981'
p2358
aS'ENSG00000167333'
p2359
aS'ENSG00000185404'
p2360
aS'ENSG00000214491'
p2361
atRp2362
ssS'mediumorchid4'
p2363
(dp2364
g25
g26
((lp2365
S'ENSG00000204248'
p2366
aS'ENSG00000163312'
p2367
aS'ENSG00000073282'
p2368
aS'ENSG00000135241'
p2369
aS'ENSG00000242247'
p2370
aS'ENSG00000219438'
p2371
aS'ENSG00000101224'
p2372
aS'ENSG00000149089'
p2373
aS'ENSG00000136546'
p2374
atRp2375
ssS'mediumorchid1'
p2376
(dp2377
g25
g26
((lp2378
S'ENSG00000198060'
p2379
aS'ENSG00000104518'
p2380
aS'ENSG00000272047'
p2381
aS'ENSG00000049449'
p2382
aS'ENSG00000134744'
p2383
aS'ENSG00000169045'
p2384
aS'ENSG00000152492'
p2385
atRp2386
ssS'mediumorchid3'
p2387
(dp2388
g25
g26
((lp2389
S'ENSG00000132874'
p2390
aS'ENSG00000066248'
p2391
aS'ENSG00000110436'
p2392
aS'ENSG00000117597'
p2393
aS'ENSG00000108839'
p2394
aS'ENSG00000131910'
p2395
aS'ENSG00000151348'
p2396
aS'ENSG00000137960'
p2397
aS'ENSG00000035664'
p2398
atRp2399
ssS'mediumorchid2'
p2400
(dp2401
g25
g26
((lp2402
S'ENSG00000104731'
p2403
aS'ENSG00000198646'
p2404
aS'ENSG00000143315'
p2405
aS'ENSG00000146909'
p2406
aS'ENSG00000163389'
p2407
aS'ENSG00000198298'
p2408
aS'ENSG00000164151'
p2409
aS'ENSG00000164880'
p2410
atRp2411
ssS'cyan2'
p2412
(dp2413
g25
g26
((lp2414
S'ENSG00000185619'
p2415
aS'ENSG00000099949'
p2416
aS'ENSG00000022976'
p2417
aS'ENSG00000160055'
p2418
aS'ENSG00000123415'
p2419
aS'ENSG00000140367'
p2420
atRp2421
ssS'cyan3'
p2422
(dp2423
g25
g26
((lp2424
S'ENSG00000175764'
p2425
aS'ENSG00000184924'
p2426
aS'ENSG00000163331'
p2427
aS'ENSG00000005243'
p2428
aS'ENSG00000143416'
p2429
aS'ENSG00000084676'
p2430
atRp2431
ssS'goldenrod'
p2432
(dp2433
g25
g26
((lp2434
S'ENSG00000170275'
p2435
aS'ENSG00000131165'
p2436
aS'ENSG00000165996'
p2437
aS'ENSG00000110203'
p2438
aS'ENSG00000136738'
p2439
atRp2440
ssS'cyan4'
p2441
(dp2442
g25
g26
((lp2443
S'ENSG00000101019'
p2444
aS'ENSG00000141068'
p2445
aS'ENSG00000111725'
p2446
aS'ENSG00000131845'
p2447
aS'ENSG00000176473'
p2448
aS'ENSG00000133466'
p2449
aS'ENSG00000111215'
p2450
atRp2451
ssS'darkviolet'
p2452
(dp2453
g4
(lp2454
(lp2455
S'ENSG00000241388'
p2456
aFinf
ag8
(g10
S'{\xec\x97C\xa6\xdcX?'
tRp2457
ag8
(g10
S'\x00h\xbfJ?\x9er?'
tRp2458
aa(lp2459
S'ENSG00000012504'
p2460
aFinf
ag8
(g10
S'\x93\xe9\x97C\xa6\xdcx?'
tRp2461
ag8
(g10
S'@\x04\xc1XU\xc9\x88?'
tRp2462
aa(lp2463
S'ENSG00000243955'
p2464
aFinf
ag8
(g10
S'\x93\xe9\x97C\xa6\xdcx?'
tRp2465
ag8
(g10
S'@\x04\xc1XU\xc9\x88?'
tRp2466
aasg25
g26
((lp2467
S'ENSG00000010278'
p2468
aS'ENSG00000129562'
p2469
aS'ENSG00000158828'
p2470
aS'ENSG00000183726'
p2471
aS'ENSG00000239264'
p2472
aS'ENSG00000139182'
p2473
aS'ENSG00000108639'
p2474
aS'ENSG00000108813'
p2475
aS'ENSG00000114771'
p2476
aS'ENSG00000134285'
p2477
aS'ENSG00000187010'
p2478
aS'ENSG00000155957'
p2479
atRp2480
ssS'darkmagenta'
p2481
(dp2482
g25
g26
((lp2483
S'ENSG00000146409'
p2484
aS'ENSG00000144645'
p2485
aS'ENSG00000147457'
p2486
aS'ENSG00000164002'
p2487
aS'ENSG00000105875'
p2488
aS'ENSG00000107779'
p2489
aS'ENSG00000049283'
p2490
aS'ENSG00000116793'
p2491
aS'ENSG00000171843'
p2492
aS'ENSG00000110880'
p2493
aS'ENSG00000125637'
p2494
aS'ENSG00000099203'
p2495
aS'ENSG00000004809'
p2496
aS'ENSG00000173214'
p2497
aS'ENSG00000160229'
p2498
aS'ENSG00000087008'
p2499
atRp2500
ssS'ghostwhite'
p2501
(dp2502
g25
g26
((lp2503
S'ENSG00000197782'
p2504
aS'ENSG00000099821'
p2505
aS'ENSG00000121101'
p2506
aS'ENSG00000122512'
p2507
aS'ENSG00000175029'
p2508
atRp2509
ssS'darkkhaki'
p2510
(dp2511
g25
g26
((lp2512
S'ENSG00000132329'
p2513
aS'ENSG00000166073'
p2514
aS'ENSG00000136875'
p2515
aS'ENSG00000249931'
p2516
aS'ENSG00000173156'
p2517
atRp2518
ssS'cornsilk'
p2519
(dp2520
g25
g26
((lp2521
S'ENSG00000126249'
p2522
aS'ENSG00000243566'
p2523
aS'ENSG00000034510'
p2524
aS'ENSG00000152778'
p2525
aS'ENSG00000112365'
p2526
aS'ENSG00000171421'
p2527
aS'ENSG00000122687'
p2528
aS'ENSG00000105750'
p2529
aS'ENSG00000105329'
p2530
atRp2531
ssS'red'
p2532
(dp2533
g4
(lp2534
(lp2535
g2188
ag8
(g10
S'\x00\x00\x00\x00\x00\x00R@'
tRp2536
ag8
(g10
S'\xe7\xd0\x93\x1dZ\xc6T?'
tRp2537
ag8
(g10
S'\x80\xdb\xf6\xa2 \xf2\x8e?'
tRp2538
aasg25
g26
((lp2539
S'ENSG00000105464'
p2540
aS'ENSG00000186230'
p2541
aS'ENSG00000166206'
p2542
aS'ENSG00000113532'
p2543
aS'ENSG00000091073'
p2544
aS'ENSG00000198951'
p2545
aS'ENSG00000165275'
p2546
aS'ENSG00000111877'
p2547
aS'ENSG00000182578'
p2548
aS'ENSG00000164967'
p2549
aS'ENSG00000110077'
p2550
aS'ENSG00000188321'
p2551
aS'ENSG00000179344'
p2552
aS'ENSG00000198502'
p2553
aS'ENSG00000144741'
p2554
aS'ENSG00000170802'
p2555
aS'ENSG00000169313'
p2556
aS'ENSG00000197696'
p2557
aS'ENSG00000204219'
p2558
aS'ENSG00000163131'
p2559
aS'ENSG00000090382'
p2560
aS'ENSG00000196126'
p2561
aS'ENSG00000196735'
p2562
atRp2563
ssS'lightslateblue'
p2564
(dp2565
g25
g26
((lp2566
S'ENSG00000197580'
p2567
aS'ENSG00000111481'
p2568
aS'ENSG00000165271'
p2569
aS'ENSG00000106526'
p2570
aS'ENSG00000166321'
p2571
aS'ENSG00000175581'
p2572
aS'ENSG00000162989'
p2573
aS'ENSG00000214114'
p2574
aS'ENSG00000167291'
p2575
aS'ENSG00000198740'
p2576
aS'ENSG00000204315'
p2577
aS'ENSG00000161326'
p2578
atRp2579
ssS'steelblue'
p2580
(dp2581
g25
g26
((lp2582
S'ENSG00000121578'
p2583
aS'ENSG00000144591'
p2584
aS'ENSG00000115677'
p2585
aS'ENSG00000120742'
p2586
aS'ENSG00000174780'
p2587
aS'ENSG00000114956'
p2588
aS'ENSG00000164244'
p2589
aS'ENSG00000109501'
p2590
aS'ENSG00000121577'
p2591
aS'ENSG00000013375'
p2592
aS'ENSG00000020922'
p2593
aS'ENSG00000103187'
p2594
aS'ENSG00000101109'
p2595
aS'ENSG00000181789'
p2596
aS'ENSG00000146386'
p2597
aS'ENSG00000124134'
p2598
atRp2599
ssS'aliceblue'
p2600
(dp2601
g4
(lp2602
(lp2603
S'ENSG00000082482'
p2604
aFinf
ag8
(g10
S'u\xf1\xb1\xb2|\xa5r?'
tRp2605
ag8
(g10
S'@}\xaf\xde;\xa7\x9b?'
tRp2606
aa(lp2607
S'ENSG00000149564'
p2608
ag8
(g10
S'\x00\x00\x00\x00\x00xt@'
tRp2609
ag8
(g10
S'\xe9\xe8.\x89;\x9e\x82?'
tRp2610
ag8
(g10
S'P86\xb1r\xda\xa6?'
tRp2611
aasg25
g26
((lp2612
S'ENSG00000187824'
p2613
aS'ENSG00000066583'
p2614
aS'ENSG00000067798'
p2615
aS'ENSG00000125733'
p2616
aS'ENSG00000204060'
p2617
aS'ENSG00000166831'
p2618
aS'ENSG00000113396'
p2619
aS'ENSG00000166750'
p2620
aS'ENSG00000165443'
p2621
atRp2622
ssS'lightskyblue2'
p2623
(dp2624
g4
(lp2625
(lp2626
S'ENSG00000101255'
p2627
aFinf
ag8
(g10
S'u\xf1\xb1\xb2|\xa5r?'
tRp2628
ag8
(g10
S'@c\xb4\xbej\x99\xa4?'
tRp2629
aasg25
g26
((lp2630
S'ENSG00000099958'
p2631
aS'ENSG00000142949'
p2632
aS'ENSG00000012983'
p2633
aS'ENSG00000170271'
p2634
aS'ENSG00000103064'
p2635
aS'ENSG00000100376'
p2636
aS'ENSG00000038002'
p2637
aS'ENSG00000068971'
p2638
aS'ENSG00000076554'
p2639
atRp2640
ssS'lightskyblue3'
p2641
(dp2642
g4
(lp2643
(lp2644
S'ENSG00000119973'
p2645
aFinf
ag8
(g10
S'u\xf1\xb1\xb2|\xa5r?'
tRp2646
ag8
(g10
S'\xc0\xd1\xe4Z\x1eZ\xa2?'
tRp2647
aa(lp2648
S'ENSG00000180176'
p2649
aFinf
ag8
(g10
S'u\xf1\xb1\xb2|\xa5r?'
tRp2650
ag8
(g10
S'\xc0\xd1\xe4Z\x1eZ\xa2?'
tRp2651
aa(lp2652
S'ENSG00000115297'
p2653
aFinf
ag8
(g10
S'u\xf1\xb1\xb2|\xa5r?'
tRp2654
ag8
(g10
S'\xc0\xd1\xe4Z\x1eZ\xa2?'
tRp2655
aa(lp2656
S'ENSG00000080644'
p2657
aFinf
ag8
(g10
S'u\xf1\xb1\xb2|\xa5r?'
tRp2658
ag8
(g10
S'\xc0\xd1\xe4Z\x1eZ\xa2?'
tRp2659
aa(lp2660
S'ENSG00000198216'
p2661
aFinf
ag8
(g10
S'u\xf1\xb1\xb2|\xa5r?'
tRp2662
ag8
(g10
S'\xc0\xd1\xe4Z\x1eZ\xa2?'
tRp2663
aasg25
g26
((lp2664
S'ENSG00000168081'
p2665
aS'ENSG00000214189'
p2666
aS'ENSG00000105497'
p2667
aS'ENSG00000180694'
p2668
aS'ENSG00000163682'
p2669
aS'ENSG00000039139'
p2670
aS'ENSG00000131791'
p2671
aS'ENSG00000167183'
p2672
aS'ENSG00000171227'
p2673
atRp2674
ssS'blue1'
p2675
(dp2676
g25
g26
((lp2677
S'ENSG00000162415'
p2678
aS'ENSG00000171992'
p2679
aS'ENSG00000170260'
p2680
aS'ENSG00000146007'
p2681
aS'ENSG00000105479'
p2682
aS'ENSG00000100731'
p2683
aS'ENSG00000147364'
p2684
aS'ENSG00000109062'
p2685
aS'ENSG00000131459'
p2686
atRp2687
ssS'blue3'
p2688
(dp2689
g4
(lp2690
(lp2691
g256
aFinf
ag8
(g10
S'\x93\xe9\x97C\xa6\xdcx?'
tRp2692
ag8
(g10
S'\x80\xe9\x97C\xa6\xdcx?'
tRp2693
aasg25
g26
((lp2694
S'ENSG00000013288'
p2695
aS'ENSG00000112367'
p2696
aS'ENSG00000131558'
p2697
aS'ENSG00000168872'
p2698
aS'ENSG00000122507'
p2699
aS'ENSG00000160695'
p2700
aS'ENSG00000204839'
p2701
aS'ENSG00000048740'
p2702
aS'ENSG00000010379'
p2703
aS'ENSG00000197816'
p2704
atRp2705
ssS'blue2'
p2706
(dp2707
g25
g26
((lp2708
S'ENSG00000124568'
p2709
aS'ENSG00000133962'
p2710
aS'ENSG00000164330'
p2711
aS'ENSG00000156395'
p2712
aS'ENSG00000221866'
p2713
aS'ENSG00000104059'
p2714
aS'ENSG00000123643'
p2715
aS'ENSG00000006016'
p2716
aS'ENSG00000165929'
p2717
aS'ENSG00000124564'
p2718
aS'ENSG00000047457'
p2719
aS'ENSG00000269113'
p2720
atRp2721
ssS'blue4'
p2722
(dp2723
g25
g26
((lp2724
S'ENSG00000198185'
p2725
aS'ENSG00000197496'
p2726
aS'ENSG00000176428'
p2727
aS'ENSG00000158296'
p2728
aS'ENSG00000136197'
p2729
aS'ENSG00000162976'
p2730
aS'ENSG00000256087'
p2731
aS'ENSG00000183765'
p2732
aS'ENSG00000159899'
p2733
aS'ENSG00000172554'
p2734
aS'ENSG00000143001'
p2735
atRp2736
ssS'burlywood'
p2737
(dp2738
g4
(lp2739
(lp2740
S'ENSG00000171564'
p2741
aFinf
ag8
(g10
S'\xb2\xe7}\xd4\xcf\x13\x7f?'
tRp2742
ag8
(g10
S'\xb0LW2\xd1\xde\xa6?'
tRp2743
aa(lp2744
S'ENSG00000171557'
p2745
aFinf
ag8
(g10
S'\xb2\xe7}\xd4\xcf\x13\x7f?'
tRp2746
ag8
(g10
S'\xb0LW2\xd1\xde\xa6?'
tRp2747
aa(lp2748
S'ENSG00000153902'
p2749
ag8
(g10
S'\x00\x00\x00\x00\x00hd@'
tRp2750
ag8
(g10
S'\xf1\x96\x1eJ\xa1\xfb\x8e?'
tRp2751
ag8
(g10
S'\xb0LW2\xd1\xde\xa6?'
tRp2752
aa(lp2753
S'ENSG00000185585'
p2754
aFinf
ag8
(g10
S'\xb2\xe7}\xd4\xcf\x13\x7f?'
tRp2755
ag8
(g10
S'\xb0LW2\xd1\xde\xa6?'
tRp2756
aa(lp2757
S'ENSG00000115596'
p2758
aFinf
ag8
(g10
S'\xb2\xe7}\xd4\xcf\x13\x7f?'
tRp2759
ag8
(g10
S'\xb0LW2\xd1\xde\xa6?'
tRp2760
aa(lp2761
S'ENSG00000132470'
p2762
aFinf
ag8
(g10
S'\xb2\xe7}\xd4\xcf\x13\x7f?'
tRp2763
ag8
(g10
S'\xb0LW2\xd1\xde\xa6?'
tRp2764
aasg25
g26
((lp2765
S'ENSG00000171560'
p2766
aS'ENSG00000106541'
p2767
aS'ENSG00000115648'
p2768
aS'ENSG00000156345'
p2769
aS'ENSG00000172482'
p2770
aS'ENSG00000117601'
p2771
aS'ENSG00000110244'
p2772
aS'ENSG00000110245'
p2773
atRp2774
ssS'darksalmon'
p2775
(dp2776
g25
g26
((lp2777
S'ENSG00000131849'
p2778
aS'ENSG00000048828'
p2779
aS'ENSG00000085721'
p2780
aS'ENSG00000261115'
p2781
aS'ENSG00000177990'
p2782
aS'ENSG00000185090'
p2783
aS'ENSG00000150076'
p2784
aS'ENSG00000161328'
p2785
atRp2786
ssS'violetred1'
p2787
(dp2788
g4
(lp2789
(lp2790
S'ENSG00000141485'
p2791
aFinf
ag8
(g10
S'{\xec\x97C\xa6\xdcX?'
tRp2792
ag8
(g10
S'\x00\x89K\x0e\xb4\xfb~?'
tRp2793
aa(lp2794
S'ENSG00000171759'
p2795
aFinf
ag8
(g10
S'{\xec\x97C\xa6\xdcX?'
tRp2796
ag8
(g10
S'\x00\x89K\x0e\xb4\xfb~?'
tRp2797
aa(lp2798
S'ENSG00000235501'
p2799
aFinf
ag8
(g10
S'2\xf1\x97C\xa6\xdch?'
tRp2800
ag8
(g10
S'\x00\xfc\x08\xc3\x03\x97\x82?'
tRp2801
aa(lp2802
S'ENSG00000196632'
p2803
aFinf
ag8
(g10
S'2\xf1\x97C\xa6\xdch?'
tRp2804
ag8
(g10
S'\x00\xfc\x08\xc3\x03\x97\x82?'
tRp2805
aa(lp2806
g668
aFinf
ag8
(g10
S'\x81\xed\n\x0c;\xf8\x8b?'
tRp2807
ag8
(g10
S'\x80\xed\n\x0c;\xf8\x8b?'
tRp2808
aasg25
g26
((lp2809
S'ENSG00000136404'
p2810
aS'ENSG00000174788'
p2811
aS'ENSG00000228278'
p2812
aS'ENSG00000172061'
p2813
aS'ENSG00000167671'
p2814
aS'ENSG00000125445'
p2815
aS'ENSG00000076944'
p2816
atRp2817
ssS'violetred2'
p2818
(dp2819
g25
g26
((lp2820
S'ENSG00000129484'
p2821
aS'ENSG00000178966'
p2822
aS'ENSG00000135269'
p2823
aS'ENSG00000174652'
p2824
aS'ENSG00000182552'
p2825
aS'ENSG00000163961'
p2826
aS'ENSG00000139620'
p2827
atRp2828
ssS'violetred3'
p2829
(dp2830
g25
g26
((lp2831
S'ENSG00000119509'
p2832
aS'ENSG00000136874'
p2833
aS'ENSG00000167113'
p2834
aS'ENSG00000072832'
p2835
aS'ENSG00000172785'
p2836
aS'ENSG00000072840'
p2837
atRp2838
ssS'violetred4'
p2839
(dp2840
g25
g26
((lp2841
S'ENSG00000182670'
p2842
aS'ENSG00000169885'
p2843
aS'ENSG00000153006'
p2844
aS'ENSG00000217702'
p2845
aS'ENSG00000155592'
p2846
aS'ENSG00000137975'
p2847
aS'ENSG00000122417'
p2848
atRp2849
ssS'tomato4'
p2850
(dp2851
g4
(lp2852
(lp2853
S'ENSG00000122477'
p2854
aFinf
ag8
(g10
S'\x88\xec\x97C\xa6\xdch?'
tRp2855
ag8
(g10
S'\xa0\xa8\xe6\xc7\xeb\xa1\x9b?'
tRp2856
aasg25
g26
((lp2857
S'ENSG00000241878'
p2858
aS'ENSG00000145087'
p2859
aS'ENSG00000103056'
p2860
aS'ENSG00000215504'
p2861
aS'ENSG00000149541'
p2862
aS'ENSG00000139985'
p2863
aS'ENSG00000163703'
p2864
aS'ENSG00000132600'
p2865
atRp2866
ssS'tomato2'
p2867
(dp2868
g25
g26
((lp2869
S'ENSG00000198842'
p2870
aS'ENSG00000129667'
p2871
aS'ENSG00000183307'
p2872
aS'ENSG00000185668'
p2873
aS'ENSG00000218537'
p2874
aS'ENSG00000163406'
p2875
aS'ENSG00000056487'
p2876
aS'ENSG00000129673'
p2877
aS'ENSG00000184674'
p2878
atRp2879
ssS'orangered'
p2880
(dp2881
g4
(lp2882
(lp2883
S'ENSG00000078081'
p2884
aFinf
ag8
(g10
S'\x93\xe9\x97C\xa6\xdcx?'
tRp2885
ag8
(g10
S'\x80\xe9\x97C\xa6\xdcx?'
tRp2886
aasg25
g26
((lp2887
S'ENSG00000233927'
p2888
aS'ENSG00000058453'
p2889
aS'ENSG00000104953'
p2890
aS'ENSG00000186523'
p2891
aS'ENSG00000135637'
p2892
aS'ENSG00000101255'
p2893
aS'ENSG00000196700'
p2894
aS'ENSG00000145002'
p2895
aS'ENSG00000180891'
p2896
aS'ENSG00000267106'
p2897
atRp2898
ssS'navajowhite'
p2899
(dp2900
g4
(lp2901
(lp2902
S'ENSG00000076826'
p2903
ag8
(g10
S'\xdb\xb6m\xdb\xb6-G@'
tRp2904
ag8
(g10
S')\xcf\x1d#\xdcr\xa2?'
tRp2905
ag8
(g10
S'0\xcf\x1d#\xdcr\xa2?'
tRp2906
aasg25
g26
((lp2907
S'ENSG00000174899'
p2908
aS'ENSG00000135373'
p2909
aS'ENSG00000257365'
p2910
aS'ENSG00000134545'
p2911
aS'ENSG00000162139'
p2912
aS'ENSG00000105707'
p2913
aS'ENSG00000091262'
p2914
aS'ENSG00000121350'
p2915
aS'ENSG00000170425'
p2916
aS'ENSG00000143851'
p2917
aS'ENSG00000123838'
p2918
atRp2919
ssS'violetred'
p2920
(dp2921
g25
g26
((lp2922
S'ENSG00000244476'
p2923
aS'ENSG00000167515'
p2924
aS'ENSG00000139537'
p2925
aS'ENSG00000141446'
p2926
aS'ENSG00000172273'
p2927
aS'ENSG00000105085'
p2928
atRp2929
ssS'mistyrose'
p2930
(dp2931
g25
g26
((lp2932
S'ENSG00000138246'
p2933
aS'ENSG00000006282'
p2934
aS'ENSG00000137944'
p2935
aS'ENSG00000172915'
p2936
aS'ENSG00000061676'
p2937
aS'ENSG00000177885'
p2938
aS'ENSG00000116957'
p2939
aS'ENSG00000164597'
p2940
aS'ENSG00000006114'
p2941
aS'ENSG00000117226'
p2942
atRp2943
ssS'white'
p2944
(dp2945
g4
(lp2946
(lp2947
S'ENSG00000066056'
p2948
ag8
(g10
S'\x00\x00\x00\x00\x00p\x84@'
tRp2949
ag8
(g10
S'\x88bt\xf6-\xb8\x15?'
tRp2950
ag8
(g10
S'\x00f\xc3\x97f\xa3Q?'
tRp2951
aa(lp2952
g767
ag8
(g10
S'fffffFp@'
tRp2953
ag8
(g10
S'>\xd5T\x17Q\xf22?'
tRp2954
ag8
(g10
S'\x00\x07\xca\xf8\xea_l?'
tRp2955
aa(lp2956
g1681
ag8
(g10
S'UUUUUUJ@'
tRp2957
ag8
(g10
S'\xb9\xd0pf\x9d\xf8q?'
tRp2958
ag8
(g10
S'\xf0l8\x1a\xe2,\xa8?'
tRp2959
aa(lp2960
S'ENSG00000119888'
p2961
aFinf
ag8
(g10
S'u\xf1\xb1\xb2|\xa5r?'
tRp2962
ag8
(g10
S'\xf0l8\x1a\xe2,\xa8?'
tRp2963
aasg25
g26
((lp2964
S'ENSG00000176974'
p2965
aS'ENSG00000155393'
p2966
aS'ENSG00000161573'
p2967
aS'ENSG00000105483'
p2968
aS'ENSG00000180198'
p2969
aS'ENSG00000124191'
p2970
aS'ENSG00000129214'
p2971
aS'ENSG00000162148'
p2972
aS'ENSG00000118514'
p2973
aS'ENSG00000172967'
p2974
aS'ENSG00000163879'
p2975
aS'ENSG00000162367'
p2976
aS'ENSG00000165215'
p2977
aS'ENSG00000179241'
p2978
aS'ENSG00000182117'
p2979
aS'ENSG00000204301'
p2980
aS'ENSG00000185689'
p2981
atRp2982
ssS'tomato'
p2983
(dp2984
g25
g26
((lp2985
S'ENSG00000256162'
p2986
aS'ENSG00000123179'
p2987
aS'ENSG00000166788'
p2988
aS'ENSG00000185800'
p2989
aS'ENSG00000118156'
p2990
aS'ENSG00000157837'
p2991
aS'ENSG00000143067'
p2992
aS'ENSG00000010310'
p2993
aS'ENSG00000100106'
p2994
aS'ENSG00000182240'
p2995
atRp2996
ssS'seagreen4'
p2997
(dp2998
g25
g26
((lp2999
S'ENSG00000187848'
p3000
aS'ENSG00000213066'
p3001
aS'ENSG00000103037'
p3002
aS'ENSG00000105176'
p3003
aS'ENSG00000184677'
p3004
atRp3005
ssS'hotpink'
p3006
(dp3007
g25
g26
((lp3008
S'ENSG00000184226'
p3009
aS'ENSG00000185684'
p3010
aS'ENSG00000104490'
p3011
aS'ENSG00000138092'
p3012
aS'ENSG00000135976'
p3013
aS'ENSG00000125245'
p3014
atRp3015
ssS'limegreen'
p3016
(dp3017
g25
g26
((lp3018
S'ENSG00000121691'
p3019
aS'ENSG00000111652'
p3020
aS'ENSG00000182732'
p3021
aS'ENSG00000130707'
p3022
aS'ENSG00000116885'
p3023
aS'ENSG00000153250'
p3024
aS'ENSG00000164494'
p3025
aS'ENSG00000197165'
p3026
atRp3027
ssS'darkolivegreen2'
p3028
(dp3029
g25
g26
((lp3030
S'ENSG00000187630'
p3031
aS'ENSG00000182919'
p3032
aS'ENSG00000109771'
p3033
aS'ENSG00000174606'
p3034
aS'ENSG00000178971'
p3035
aS'ENSG00000041988'
p3036
aS'ENSG00000104756'
p3037
aS'ENSG00000157326'
p3038
aS'ENSG00000155858'
p3039
aS'ENSG00000133193'
p3040
aS'ENSG00000269165'
p3041
atRp3042
ssS'palegreen1'
p3043
(dp3044
g25
g26
((lp3045
S'ENSG00000182831'
p3046
aS'ENSG00000119231'
p3047
aS'ENSG00000120913'
p3048
aS'ENSG00000266173'
p3049
aS'ENSG00000143033'
p3050
aS'ENSG00000145725'
p3051
atRp3052
ssS'palegreen3'
p3053
(dp3054
g4
(lp3055
(lp3056
S'ENSG00000106258'
p3057
aFinf
ag8
(g10
S'2\xf1\x97C\xa6\xdch?'
tRp3058
ag8
(g10
S'\x80~,\xce\xfd\xd2x?'
tRp3059
aa(lp3060
S'ENSG00000073067'
p3061
aFinf
ag8
(g10
S'2\xf1\x97C\xa6\xdch?'
tRp3062
ag8
(g10
S'\x80~,\xce\xfd\xd2x?'
tRp3063
aasg25
g26
((lp3064
S'ENSG00000065268'
p3065
aS'ENSG00000132677'
p3066
aS'ENSG00000185379'
p3067
aS'ENSG00000162994'
p3068
aS'ENSG00000163697'
p3069
aS'ENSG00000198860'
p3070
aS'ENSG00000196458'
p3071
atRp3072
ssS'palegreen4'
p3073
(dp3074
g4
(lp3075
(lp3076
S'ENSG00000260027'
p3077
aFinf
ag8
(g10
S'\x88\xec\x97C\xa6\xdch?'
tRp3078
ag8
(g10
S'\x80z,\xce\xfd\xd2x?'
tRp3079
aa(lp3080
S'ENSG00000108511'
p3081
aFinf
ag8
(g10
S'\x88\xec\x97C\xa6\xdch?'
tRp3082
ag8
(g10
S'\x80z,\xce\xfd\xd2x?'
tRp3083
aasg25
g26
((lp3084
S'ENSG00000196460'
p3085
aS'ENSG00000116752'
p3086
aS'ENSG00000188243'
p3087
aS'ENSG00000118939'
p3088
aS'ENSG00000095585'
p3089
aS'ENSG00000137841'
p3090
aS'ENSG00000146192'
p3091
atRp3092
ssS'mistyrose1'
p3093
(dp3094
g25
g26
((lp3095
S'ENSG00000159423'
p3096
aS'ENSG00000196236'
p3097
aS'ENSG00000115364'
p3098
aS'ENSG00000066926'
p3099
aS'ENSG00000071794'
p3100
aS'ENSG00000128928'
p3101
aS'ENSG00000134905'
p3102
atRp3103
ssS'turquoise2'
p3104
(dp3105
g25
g26
((lp3106
S'ENSG00000167608'
p3107
aS'ENSG00000179152'
p3108
aS'ENSG00000182923'
p3109
aS'ENSG00000272325'
p3110
aS'ENSG00000109654'
p3111
aS'ENSG00000119139'
p3112
aS'ENSG00000143970'
p3113
aS'ENSG00000129055'
p3114
atRp3115
ssS'mistyrose3'
p3116
(dp3117
g4
(lp3118
(lp3119
g817
aFinf
ag8
(g10
S'\xd1\xed\xb1\xb2|\xa5r?'
tRp3120
ag8
(g10
S'\x00\r\x99.\x9f\x9a\x82?'
tRp3121
aa(lp3122
g822
aFinf
ag8
(g10
S'\xd1\xed\xb1\xb2|\xa5r?'
tRp3123
ag8
(g10
S'\x00\r\x99.\x9f\x9a\x82?'
tRp3124
aasg25
g26
((lp3125
S'ENSG00000177483'
p3126
aS'ENSG00000106688'
p3127
aS'ENSG00000100554'
p3128
aS'ENSG00000103932'
p3129
aS'ENSG00000110435'
p3130
aS'ENSG00000115944'
p3131
aS'ENSG00000153774'
p3132
aS'ENSG00000083857'
p3133
atRp3134
ssS'burlywood2'
p3135
(dp3136
g25
g26
((lp3137
S'ENSG00000103550'
p3138
aS'ENSG00000166595'
p3139
aS'ENSG00000136718'
p3140
aS'ENSG00000197016'
p3141
aS'ENSG00000171469'
p3142
aS'ENSG00000188629'
p3143
aS'ENSG00000186522'
p3144
atRp3145
ssS'burlywood4'
p3146
(dp3147
g25
g26
((lp3148
S'ENSG00000100014'
p3149
aS'ENSG00000167077'
p3150
aS'ENSG00000072958'
p3151
aS'ENSG00000143954'
p3152
aS'ENSG00000204310'
p3153
aS'ENSG00000102781'
p3154
atRp3155
ssS'rosybrown'
p3156
(dp3157
g4
(lp3158
(lp3159
S'ENSG00000112297'
p3160
aFinf
ag8
(g10
S'u\xf1\xb1\xb2|\xa5r?'
tRp3161
ag8
(g10
S'\x80\xc71r\xfd\x84\x92?'
tRp3162
aa(lp3163
g1962
ag8
(g10
S'\x00\x00\x00\x00\x00pd@'
tRp3164
ag8
(g10
S'\xeat&cz\xe2\x8b?'
tRp3165
ag8
(g10
S'pC\x01(K\xa1\xa4?'
tRp3166
aasg25
g26
((lp3167
S'ENSG00000127241'
p3168
aS'ENSG00000118702'
p3169
aS'ENSG00000183117'
p3170
aS'ENSG00000187815'
p3171
aS'ENSG00000197632'
p3172
aS'ENSG00000165511'
p3173
aS'ENSG00000178473'
p3174
atRp3175
ssS'turquoise4'
p3176
(dp3177
g4
(lp3178
(lp3179
S'ENSG00000139737'
p3180
aFinf
ag8
(g10
S'\x88\xec\x97C\xa6\xdch?'
tRp3181
ag8
(g10
S'\x00\xf9\x08\xc3\x03\x97\x82?'
tRp3182
aa(lp3183
S'ENSG00000167972'
p3184
ag8
(g10
S'\x00\x00\x00\x00\x00 [@'
tRp3185
ag8
(g10
S'6R\xdai\xad\xa7\x95?'
tRp3186
ag8
(g10
S'\xb0\xe5\xf7`\x0fm\xa5?'
tRp3187
aasg25
g26
((lp3188
S'ENSG00000148935'
p3189
aS'ENSG00000168280'
p3190
aS'ENSG00000172725'
p3191
aS'ENSG00000198168'
p3192
aS'ENSG00000156253'
p3193
aS'ENSG00000164924'
p3194
aS'ENSG00000139344'
p3195
atRp3196
ssS'whitesmoke'
p3197
(dp3198
g25
g26
((lp3199
S'ENSG00000152219'
p3200
aS'ENSG00000135900'
p3201
aS'ENSG00000136270'
p3202
aS'ENSG00000183431'
p3203
aS'ENSG00000151665'
p3204
aS'ENSG00000183386'
p3205
aS'ENSG00000120253'
p3206
aS'ENSG00000137513'
p3207
aS'ENSG00000115020'
p3208
atRp3209
ssS'lightblue'
p3210
(dp3211
g4
(lp3212
(lp3213
S'ENSG00000169896'
p3214
aFinf
ag8
(g10
S'{\xec\x97C\xa6\xdcX?'
tRp3215
ag8
(g10
S'\x00h\xbfJ?\x9er?'
tRp3216
aa(lp3217
S'ENSG00000143119'
p3218
aFinf
ag8
(g10
S'\x18m\xd1\xa7pj\x9a?'
tRp3219
ag8
(g10
S'`\xf9\x9a9V\xc7\x9b?'
tRp3220
aa(lp3221
S'ENSG00000066336'
p3222
aFinf
ag8
(g10
S'\x81\xed\n\x0c;\xf8\x8b?'
tRp3223
ag8
(g10
S'`\xf9\x9a9V\xc7\x9b?'
tRp3224
aasg25
g26
((lp3225
S'ENSG00000196653'
p3226
aS'ENSG00000249915'
p3227
aS'ENSG00000161944'
p3228
aS'ENSG00000186446'
p3229
aS'ENSG00000177192'
p3230
aS'ENSG00000072694'
p3231
aS'ENSG00000135686'
p3232
aS'ENSG00000162086'
p3233
atRp3234
ssS'snow'
p3235
(dp3236
g25
g26
((lp3237
S'ENSG00000176623'
p3238
aS'ENSG00000122481'
p3239
aS'ENSG00000149292'
p3240
aS'ENSG00000166170'
p3241
aS'ENSG00000114648'
p3242
aS'ENSG00000196535'
p3243
aS'ENSG00000140265'
p3244
atRp3245
ssS'olivedrab4'
p3246
(dp3247
g4
(lp3248
(lp3249
S'ENSG00000105427'
p3250
aFinf
ag8
(g10
S'u\xf1\xb1\xb2|\xa5r?'
tRp3251
ag8
(g10
S'\x80\xc71r\xfd\x84\x92?'
tRp3252
aa(lp3253
S'ENSG00000167741'
p3254
ag8
(g10
S'\x00\x00\x00\x00\x00xt@'
tRp3255
ag8
(g10
S'\xe9\xe8.\x89;\x9e\x82?'
tRp3256
ag8
(g10
S'\xe0\xff\xadP\x8d\xac\x9b?'
tRp3257
aa(lp3258
g1230
ag8
(g10
S'\x00\x00\x00\x00\x00pd@'
tRp3259
ag8
(g10
S'\xeat&cz\xe2\x8b?'
tRp3260
ag8
(g10
S'\x00\xbaR\x80\xe1\xb1\x9b?'
tRp3261
aasg25
g26
((lp3262
S'ENSG00000106733'
p3263
aS'ENSG00000110169'
p3264
aS'ENSG00000256812'
p3265
aS'ENSG00000163207'
p3266
aS'ENSG00000126233'
p3267
aS'ENSG00000164576'
p3268
aS'ENSG00000166535'
p3269
atRp3270
ssS'purple4'
p3271
(dp3272
g25
g26
((lp3273
S'ENSG00000105072'
p3274
aS'ENSG00000172613'
p3275
aS'ENSG00000188626'
p3276
aS'ENSG00000101052'
p3277
aS'ENSG00000253320'
p3278
atRp3279
ssS'olivedrab1'
p3280
(dp3281
g25
g26
((lp3282
S'ENSG00000086102'
p3283
aS'ENSG00000133739'
p3284
aS'ENSG00000185808'
p3285
aS'ENSG00000139726'
p3286
aS'ENSG00000128394'
p3287
aS'ENSG00000083290'
p3288
atRp3289
ssS'olivedrab2'
p3290
(dp3291
g25
g26
((lp3292
S'ENSG00000122359'
p3293
aS'ENSG00000115685'
p3294
aS'ENSG00000169612'
p3295
aS'ENSG00000120896'
p3296
aS'ENSG00000183891'
p3297
aS'ENSG00000132383'
p3298
atRp3299
ssS'purple2'
p3300
(dp3301
g25
g26
((lp3302
S'ENSG00000257949'
p3303
aS'ENSG00000161265'
p3304
aS'ENSG00000135392'
p3305
aS'ENSG00000164010'
p3306
aS'ENSG00000185019'
p3307
aS'ENSG00000182551'
p3308
aS'ENSG00000112137'
p3309
aS'ENSG00000235750'
p3310
aS'ENSG00000063176'
p3311
atRp3312
ssS'orangered3'
p3313
(dp3314
g4
(lp3315
(lp3316
g757
ag8
(g10
S'\x00\x00\x00\x00\x00hd@'
tRp3317
ag8
(g10
S'\xf1\x96\x1eJ\xa1\xfb\x8e?'
tRp3318
ag8
(g10
S'\xe0\xd4\xed7\xa2\xbf\x9e?'
tRp3319
aa(lp3320
S'ENSG00000167037'
p3321
ag8
(g10
S'\x00\x00\x00\x00\x00hd@'
tRp3322
ag8
(g10
S'\xf1\x96\x1eJ\xa1\xfb\x8e?'
tRp3323
ag8
(g10
S'\xe0\xd4\xed7\xa2\xbf\x9e?'
tRp3324
aasg25
g26
((lp3325
S'ENSG00000167037'
p3326
aS'ENSG00000162105'
p3327
aS'ENSG00000115526'
p3328
aS'ENSG00000057704'
p3329
aS'ENSG00000130943'
p3330
aS'ENSG00000144488'
p3331
aS'ENSG00000039600'
p3332
aS'ENSG00000197915'
p3333
aS'ENSG00000188385'
p3334
aS'ENSG00000133216'
p3335
aS'ENSG00000181409'
p3336
aS'ENSG00000136444'
p3337
aS'ENSG00000110375'
p3338
atRp3339
ssS'orangered2'
p3340
(dp3341
g4
(lp3342
(lp3343
S'ENSG00000189143'
p3344
aFinf
ag8
(g10
S'u\xf1\xb1\xb2|\xa5r?'
tRp3345
ag8
(g10
S'\xb0<L\xae\x18\xd6\xa6?'
tRp3346
aasg25
g26
((lp3347
S'ENSG00000109180'
p3348
aS'ENSG00000111291'
p3349
aS'ENSG00000149115'
p3350
aS'ENSG00000143603'
p3351
aS'ENSG00000155093'
p3352
aS'ENSG00000125520'
p3353
aS'ENSG00000188199'
p3354
atRp3355
ssS'orangered1'
p3356
(dp3357
g4
(lp3358
(lp3359
S'ENSG00000118526'
p3360
aFinf
ag8
(g10
S'{\xec\x97C\xa6\xdcX?'
tRp3361
ag8
(g10
S'\x00\xec\x97C\xa6\xdcX?'
tRp3362
aasg25
g26
((lp3363
S'ENSG00000196378'
p3364
aS'ENSG00000157429'
p3365
aS'ENSG00000168116'
p3366
aS'ENSG00000177873'
p3367
aS'ENSG00000144792'
p3368
aS'ENSG00000196150'
p3369
aS'ENSG00000172340'
p3370
aS'ENSG00000171940'
p3371
aS'ENSG00000149054'
p3372
aS'ENSG00000149050'
p3373
aS'ENSG00000109814'
p3374
aS'ENSG00000002745'
p3375
atRp3376
ssS'orangered4'
p3377
(dp3378
g25
g26
((lp3379
S'ENSG00000005100'
p3380
aS'ENSG00000175634'
p3381
aS'ENSG00000167747'
p3382
aS'ENSG00000163811'
p3383
aS'ENSG00000186007'
p3384
aS'ENSG00000118733'
p3385
aS'ENSG00000167749'
p3386
aS'ENSG00000166847'
p3387
aS'ENSG00000183833'
p3388
aS'ENSG00000167748'
p3389
aS'ENSG00000103549'
p3390
aS'ENSG00000125630'
p3391
aS'ENSG00000159479'
p3392
aS'ENSG00000172602'
p3393
aS'ENSG00000185298'
p3394
atRp3395
ssS'mistyrose4'
p3396
(dp3397
g4
(lp3398
(lp3399
S'ENSG00000144802'
p3400
aFinf
ag8
(g10
S'\x88\xec\x97C\xa6\xdch?'
tRp3401
ag8
(g10
S'\x80\xd1\x85\xff\xaa\xe3\x8e?'
tRp3402
aa(lp3403
g1299
ag8
(g10
S'\x00\x00\x00\x00\x00\x80\x84@'
tRp3404
ag8
(g10
S"\xf1?\xeb'\xd0\xd7x?"
tRp3405
ag8
(g10
S'\xc0\x89\n\xbe/\x9e\x98?'
tRp3406
aa(lp3407
g1962
ag8
(g10
S'\x00\x00\x00\x00\x00xt@'
tRp3408
ag8
(g10
S'\xca\xe1.\x89;\x9e\x82?'
tRp3409
ag8
(g10
S' \xf5\xadP\x8d\xac\x9b?'
tRp3410
aa(lp3411
S'ENSG00000113212'
p3412
ag8
(g10
S'\x00\x00\x00\x00\x00hd@'
tRp3413
ag8
(g10
S'\x91\x96\x1eJ\xa1\xfb\x8e?'
tRp3414
ag8
(g10
S'`\xd4\xed7\xa2\xbf\x9e?'
tRp3415
aasg25
g26
((lp3416
S'ENSG00000152359'
p3417
aS'ENSG00000145632'
p3418
aS'ENSG00000121989'
p3419
aS'ENSG00000105894'
p3420
aS'ENSG00000133706'
p3421
aS'ENSG00000150630'
p3422
aS'ENSG00000105248'
p3423
aS'ENSG00000175198'
p3424
aS'ENSG00000095015'
p3425
atRp3426
ssS'thistle2'
p3427
(dp3428
g25
g26
((lp3429
S'ENSG00000042493'
p3430
aS'ENSG00000143110'
p3431
aS'ENSG00000141401'
p3432
aS'ENSG00000164695'
p3433
aS'ENSG00000171051'
p3434
aS'ENSG00000106302'
p3435
aS'ENSG00000112799'
p3436
aS'ENSG00000163191'
p3437
aS'ENSG00000150782'
p3438
aS'ENSG00000112053'
p3439
aS'ENSG00000182853'
p3440
aS'ENSG00000091106'
p3441
aS'ENSG00000118785'
p3442
aS'ENSG00000169508'
p3443
atRp3444
ssS'thistle1'
p3445
(dp3446
g4
(lp3447
(lp3448
g2218
ag8
(g10
S'\x00\x00\x00\x00\x00xt@'
tRp3449
ag8
(g10
S'\xe9\xe8.\x89;\x9e\x82?'
tRp3450
ag8
(g10
S'P86\xb1r\xda\xa6?'
tRp3451
aa(lp3452
g2222
ag8
(g10
S'\x00\x00\x00\x00\x00xt@'
tRp3453
ag8
(g10
S'\xe9\xe8.\x89;\x9e\x82?'
tRp3454
ag8
(g10
S'P86\xb1r\xda\xa6?'
tRp3455
aa(lp3456
g2226
ag8
(g10
S'\x00\x00\x00\x00\x00xt@'
tRp3457
ag8
(g10
S'\xe9\xe8.\x89;\x9e\x82?'
tRp3458
ag8
(g10
S'P86\xb1r\xda\xa6?'
tRp3459
aa(lp3460
g2230
ag8
(g10
S'\x00\x00\x00\x00\x00xt@'
tRp3461
ag8
(g10
S'\xe9\xe8.\x89;\x9e\x82?'
tRp3462
ag8
(g10
S'P86\xb1r\xda\xa6?'
tRp3463
aa(lp3464
g2234
ag8
(g10
S'\x00\x00\x00\x00\x00`T@'
tRp3465
ag8
(g10
S'\xba\x9b\x062\xa4*\x97?'
tRp3466
ag8
(g10
S'P86\xb1r\xda\xa6?'
tRp3467
aasg25
g26
((lp3468
S'ENSG00000113643'
p3469
aS'ENSG00000135249'
p3470
aS'ENSG00000112290'
p3471
aS'ENSG00000148700'
p3472
aS'ENSG00000112763'
p3473
aS'ENSG00000155363'
p3474
aS'ENSG00000152229'
p3475
aS'ENSG00000187624'
p3476
aS'ENSG00000162543'
p3477
aS'ENSG00000242110'
p3478
aS'ENSG00000143924'
p3479
aS'ENSG00000170775'
p3480
aS'ENSG00000112584'
p3481
aS'ENSG00000101197'
p3482
atRp3483
ssS'salmon'
p3484
(dp3485
g4
(lp3486
(lp3487
S'ENSG00000139344'
p3488
aFinf
ag8
(g10
S'{\xec\x97C\xa6\xdcX?'
tRp3489
ag8
(g10
S'\x00\xec\x97C\xa6\xdcX?'
tRp3490
aasg25
g26
((lp3491
S'ENSG00000185681'
p3492
aS'ENSG00000225697'
p3493
aS'ENSG00000101457'
p3494
aS'ENSG00000143379'
p3495
aS'ENSG00000118816'
p3496
aS'ENSG00000125651'
p3497
aS'ENSG00000186184'
p3498
aS'ENSG00000166200'
p3499
aS'ENSG00000205740'
p3500
aS'ENSG00000171574'
p3501
aS'ENSG00000162779'
p3502
aS'ENSG00000073050'
p3503
aS'ENSG00000162714'
p3504
aS'ENSG00000140443'
p3505
aS'ENSG00000205765'
p3506
aS'ENSG00000164346'
p3507
aS'ENSG00000168297'
p3508
aS'ENSG00000164284'
p3509
aS'ENSG00000115274'
p3510
aS'ENSG00000159111'
p3511
atRp3512
ssS'thistle4'
p3513
(dp3514
g4
(lp3515
(lp3516
S'ENSG00000128656'
p3517
aFinf
ag8
(g10
S'u\xf1\xb1\xb2|\xa5r?'
tRp3518
ag8
(g10
S'\x80\x10\x99.\x9f\x9a\x82?'
tRp3519
aasg25
g26
((lp3520
S'ENSG00000125772'
p3521
aS'ENSG00000104888'
p3522
aS'ENSG00000100285'
p3523
aS'ENSG00000126231'
p3524
aS'ENSG00000166165'
p3525
aS'ENSG00000101079'
p3526
aS'ENSG00000180611'
p3527
aS'ENSG00000100101'
p3528
aS'ENSG00000136682'
p3529
aS'ENSG00000100097'
p3530
aS'ENSG00000140323'
p3531
atRp3532
ssS'oldlace'
p3533
(dp3534
g4
(lp3535
(lp3536
S'ENSG00000109956'
p3537
aFinf
ag8
(g10
S'{\xec\x97C\xa6\xdcX?'
tRp3538
ag8
(g10
S'\x00\xac\x91S-\xcex?'
tRp3539
aa(lp3540
g14
aFinf
ag8
(g10
S')\xed}\xd4\xcf\x13\x7f?'
tRp3541
ag8
(g10
S'\x80\xd7\xa1\x88\xb3!\x97?'
tRp3542
aa(lp3543
g18
aFinf
ag8
(g10
S'g\xe9}\xd4\xcf\x13\x9f?'
tRp3544
ag8
(g10
S' R<\x98b\x8f\xa8?'
tRp3545
aa(lp3546
g22
aFinf
ag8
(g10
S'\x91\xe6\x97C\xa6\xdc\x98?'
tRp3547
ag8
(g10
S' R<\x98b\x8f\xa8?'
tRp3548
aasg25
g26
((lp3549
S'ENSG00000148300'
p3550
aS'ENSG00000147488'
p3551
aS'ENSG00000225830'
p3552
aS'ENSG00000263002'
p3553
aS'ENSG00000115275'
p3554
aS'ENSG00000090316'
p3555
aS'ENSG00000204632'
p3556
aS'ENSG00000074266'
p3557
atRp3558
ssS'darkseagreen4'
p3559
(dp3560
g4
(lp3561
(lp3562
S'ENSG00000016391'
p3563
ag8
(g10
S'\x00\x00\x00\x00\x00xt@'
tRp3564
ag8
(g10
S'\xe9\xe8.\x89;\x9e\x82?'
tRp3565
ag8
(g10
S'\xe0\xff\xadP\x8d\xac\x9b?'
tRp3566
aasg25
g26
((lp3567
S'ENSG00000176148'
p3568
aS'ENSG00000188747'
p3569
aS'ENSG00000085662'
p3570
aS'ENSG00000158163'
p3571
aS'ENSG00000135052'
p3572
aS'ENSG00000187990'
p3573
aS'ENSG00000187609'
p3574
aS'ENSG00000132879'
p3575
aS'ENSG00000128989'
p3576
aS'ENSG00000116661'
p3577
aS'ENSG00000186453'
p3578
aS'ENSG00000260230'
p3579
aS'ENSG00000116874'
p3580
atRp3581
ssS'darkseagreen3'
p3582
(dp3583
g25
g26
((lp3584
S'ENSG00000176732'
p3585
aS'ENSG00000144401'
p3586
aS'ENSG00000214253'
p3587
aS'ENSG00000198064'
p3588
aS'ENSG00000165832'
p3589
aS'ENSG00000142252'
p3590
aS'ENSG00000165055'
p3591
aS'ENSG00000100815'
p3592
aS'ENSG00000183655'
p3593
aS'ENSG00000138399'
p3594
aS'ENSG00000162620'
p3595
aS'ENSG00000070159'
p3596
atRp3597
ssS'darkseagreen2'
p3598
(dp3599
g25
g26
((lp3600
S'ENSG00000130770'
p3601
aS'ENSG00000197959'
p3602
aS'ENSG00000099984'
p3603
aS'ENSG00000182557'
p3604
aS'ENSG00000099974'
p3605
aS'ENSG00000169299'
p3606
aS'ENSG00000107443'
p3607
aS'ENSG00000133433'
p3608
aS'ENSG00000124532'
p3609
aS'ENSG00000099991'
p3610
atRp3611
ssS'darkseagreen1'
p3612
(dp3613
g4
(lp3614
(lp3615
S'ENSG00000171401'
p3616
aFinf
ag8
(g10
S'{\xec\x97C\xa6\xdcX?'
tRp3617
ag8
(g10
S'\x00\x89K\x0e\xb4\xfb~?'
tRp3618
aa(lp3619
S'ENSG00000170477'
p3620
aFinf
ag8
(g10
S'{\xec\x97C\xa6\xdcX?'
tRp3621
ag8
(g10
S'\x00\x89K\x0e\xb4\xfb~?'
tRp3622
aa(lp3623
S'ENSG00000168703'
p3624
aFinf
ag8
(g10
S'{\xec\x97C\xa6\xdcX?'
tRp3625
ag8
(g10
S'\x00\x89K\x0e\xb4\xfb~?'
tRp3626
aa(lp3627
S'ENSG00000186081'
p3628
aFinf
ag8
(g10
S'2\xf1\x97C\xa6\xdch?'
tRp3629
ag8
(g10
S'\x00\x89K\x0e\xb4\xfb~?'
tRp3630
aa(lp3631
S'ENSG00000205420'
p3632
aFinf
ag8
(g10
S'{\xec\x97C\xa6\xdcX?'
tRp3633
ag8
(g10
S'\x00\x89K\x0e\xb4\xfb~?'
tRp3634
aasg25
g26
((lp3635
S'ENSG00000177427'
p3636
aS'ENSG00000132199'
p3637
aS'ENSG00000131375'
p3638
aS'ENSG00000131400'
p3639
aS'ENSG00000101417'
p3640
aS'ENSG00000053108'
p3641
aS'ENSG00000122008'
p3642
aS'ENSG00000146540'
p3643
aS'ENSG00000030110'
p3644
aS'ENSG00000132382'
p3645
atRp3646
ssS'lightpink1'
p3647
(dp3648
g4
(lp3649
(lp3650
g3184
aFinf
ag8
(g10
S'\xd3\xeb${\x11\xc1\x85?'
tRp3651
ag8
(g10
S'\xe0\xdc\x8b\x93}\xa3\x95?'
tRp3652
aa(lp3653
S'ENSG00000249859'
p3654
aFinf
ag8
(g10
S'\xec\xb5[\x1c\xcdP\xa0?'
tRp3655
ag8
(g10
S'\xf0\xb5[\x1c\xcdP\xa0?'
tRp3656
aasg25
g26
((lp3657
S'ENSG00000100038'
p3658
aS'ENSG00000136271'
p3659
aS'ENSG00000127481'
p3660
aS'ENSG00000169567'
p3661
aS'ENSG00000144357'
p3662
aS'ENSG00000134909'
p3663
aS'ENSG00000075826'
p3664
aS'ENSG00000139737'
p3665
aS'ENSG00000163113'
p3666
aS'ENSG00000240857'
p3667
atRp3668
ssS'lightsalmon4'
p3669
(dp3670
g25
g26
((lp3671
S'ENSG00000164220'
p3672
aS'ENSG00000198208'
p3673
aS'ENSG00000153904'
p3674
aS'ENSG00000119718'
p3675
aS'ENSG00000171055'
p3676
aS'ENSG00000079277'
p3677
atRp3678
ssS'lightsalmon2'
p3679
(dp3680
g25
g26
((lp3681
S'ENSG00000184923'
p3682
aS'ENSG00000101290'
p3683
aS'ENSG00000169967'
p3684
aS'ENSG00000164048'
p3685
aS'ENSG00000130517'
p3686
atRp3687
ssS'lightsalmon3'
p3688
(dp3689
g4
(lp3690
(lp3691
S'ENSG00000122679'
p3692
ag8
(g10
S'\x00\x00\x00\x00\x00`T@'
tRp3693
ag8
(g10
S'\xba\x9b\x062\xa4*\x97?'
tRp3694
ag8
(g10
S'p\xbe\x9d\x1e\x8e\xe7\xa6?'
tRp3695
aasg25
g26
((lp3696
S'ENSG00000110328'
p3697
aS'ENSG00000161281'
p3698
aS'ENSG00000178172'
p3699
aS'ENSG00000107537'
p3700
aS'ENSG00000197362'
p3701
aS'ENSG00000197245'
p3702
atRp3703
ssS'green4'
p3704
(dp3705
g25
g26
((lp3706
S'ENSG00000103253'
p3707
aS'ENSG00000130489'
p3708
aS'ENSG00000117266'
p3709
aS'ENSG00000175040'
p3710
aS'ENSG00000113231'
p3711
aS'ENSG00000059122'
p3712
aS'ENSG00000065989'
p3713
aS'ENSG00000198513'
p3714
aS'ENSG00000167642'
p3715
aS'ENSG00000133107'
p3716
aS'ENSG00000100321'
p3717
atRp3718
ssS'green1'
p3719
(dp3720
g25
g26
((lp3721
S'ENSG00000005421'
p3722
aS'ENSG00000221838'
p3723
aS'ENSG00000149761'
p3724
aS'ENSG00000243789'
p3725
aS'ENSG00000100949'
p3726
aS'ENSG00000148824'
p3727
aS'ENSG00000148832'
p3728
aS'ENSG00000138380'
p3729
atRp3730
ssS'green3'
p3731
(dp3732
g25
g26
((lp3733
S'ENSG00000170310'
p3734
aS'ENSG00000100288'
p3735
aS'ENSG00000223510'
p3736
aS'ENSG00000103047'
p3737
aS'ENSG00000171097'
p3738
aS'ENSG00000107614'
p3739
aS'ENSG00000070950'
p3740
aS'ENSG00000196476'
p3741
aS'ENSG00000198590'
p3742
aS'ENSG00000068784'
p3743
atRp3744
ssS'green2'
p3745
(dp3746
g25
g26
((lp3747
S'ENSG00000182013'
p3748
aS'ENSG00000095209'
p3749
aS'ENSG00000170379'
p3750
aS'ENSG00000172469'
p3751
aS'ENSG00000164040'
p3752
aS'ENSG00000149150'
p3753
aS'ENSG00000146205'
p3754
aS'ENSG00000136816'
p3755
aS'ENSG00000157107'
p3756
atRp3757
ssS'black'
p3758
(dp3759
g25
g26
((lp3760
S'ENSG00000121022'
p3761
aS'ENSG00000128944'
p3762
aS'ENSG00000171428'
p3763
aS'ENSG00000054219'
p3764
aS'ENSG00000088038'
p3765
aS'ENSG00000124459'
p3766
aS'ENSG00000167914'
p3767
aS'ENSG00000146872'
p3768
aS'ENSG00000100056'
p3769
aS'ENSG00000126254'
p3770
aS'ENSG00000100603'
p3771
aS'ENSG00000148835'
p3772
aS'ENSG00000104497'
p3773
aS'ENSG00000132740'
p3774
aS'ENSG00000152240'
p3775
aS'ENSG00000138785'
p3776
aS'ENSG00000175467'
p3777
aS'ENSG00000113812'
p3778
aS'ENSG00000163935'
p3779
aS'ENSG00000076924'
p3780
aS'ENSG00000101624'
p3781
aS'ENSG00000167674'
p3782
aS'ENSG00000122643'
p3783
atRp3784
ssS'orchid1'
p3785
(dp3786
g25
g26
((lp3787
S'ENSG00000145777'
p3788
aS'ENSG00000196151'
p3789
aS'ENSG00000141698'
p3790
aS'ENSG00000108666'
p3791
aS'ENSG00000176399'
p3792
aS'ENSG00000158850'
p3793
atRp3794
ssS'orchid3'
p3795
(dp3796
g4
(lp3797
(lp3798
S'ENSG00000135636'
p3799
aFinf
ag8
(g10
S'2\xf1\x97C\xa6\xdch?'
tRp3800
ag8
(g10
S'\x80~,\xce\xfd\xd2x?'
tRp3801
aa(lp3802
g1536
aFinf
ag8
(g10
S'l\xf1\xb1\xb2|\xa5\x82?'
tRp3803
ag8
(g10
S'\x80\xf1\xb1\xb2|\xa5\x82?'
tRp3804
aasg25
g26
((lp3805
S'ENSG00000205106'
p3806
aS'ENSG00000234284'
p3807
aS'ENSG00000136950'
p3808
aS'ENSG00000169957'
p3809
aS'ENSG00000148296'
p3810
atRp3811
ssS'antiquewhite3'
p3812
(dp3813
g4
(lp3814
(lp3815
S'ENSG00000077984'
p3816
aFinf
ag8
(g10
S'\x88\xec\x97C\xa6\xdch?'
tRp3817
ag8
(g10
S'\x80z,\xce\xfd\xd2x?'
tRp3818
aa(lp3819
S'ENSG00000105374'
p3820
aFinf
ag8
(g10
S'\x88\xec\x97C\xa6\xdch?'
tRp3821
ag8
(g10
S'\x80z,\xce\xfd\xd2x?'
tRp3822
aasg25
g26
((lp3823
S'ENSG00000152760'
p3824
aS'ENSG00000254614'
p3825
aS'ENSG00000127663'
p3826
aS'ENSG00000125775'
p3827
aS'ENSG00000133636'
p3828
aS'ENSG00000196456'
p3829
aS'ENSG00000187764'
p3830
aS'ENSG00000105088'
p3831
atRp3832
ssS'antiquewhite2'
p3833
(dp3834
g4
(lp3835
(lp3836
S'ENSG00000237289'
p3837
aFinf
ag8
(g10
S'{\xec\x97C\xa6\xdcX?'
tRp3838
ag8
(g10
S'\x003\xe2\x08\xd2\xd7h?'
tRp3839
aa(lp3840
S'ENSG00000067606'
p3841
aFinf
ag8
(g10
S'\xd1\xed\xb1\xb2|\xa5r?'
tRp3842
ag8
(g10
S'\x00\xee\xb1\xb2|\xa5r?'
tRp3843
aasg25
g26
((lp3844
S'ENSG00000196743'
p3845
aS'ENSG00000141140'
p3846
aS'ENSG00000165548'
p3847
aS'ENSG00000159082'
p3848
aS'ENSG00000198715'
p3849
aS'ENSG00000090661'
p3850
aS'ENSG00000226742'
p3851
aS'ENSG00000066382'
p3852
aS'ENSG00000170624'
p3853
aS'ENSG00000140365'
p3854
aS'ENSG00000155463'
p3855
aS'ENSG00000174093'
p3856
atRp3857
ssS'antiquewhite1'
p3858
(dp3859
g25
g26
((lp3860
S'ENSG00000158715'
p3861
aS'ENSG00000152926'
p3862
aS'ENSG00000213462'
p3863
aS'ENSG00000006607'
p3864
aS'ENSG00000166436'
p3865
aS'ENSG00000081665'
p3866
aS'ENSG00000165672'
p3867
aS'ENSG00000156239'
p3868
aS'ENSG00000162384'
p3869
aS'ENSG00000114554'
p3870
atRp3871
ssS'antiquewhite4'
p3872
(dp3873
g25
g26
((lp3874
S'ENSG00000116604'
p3875
aS'ENSG00000166484'
p3876
aS'ENSG00000119772'
p3877
aS'ENSG00000171475'
p3878
aS'ENSG00000100813'
p3879
aS'ENSG00000113318'
p3880
aS'ENSG00000166716'
p3881
aS'ENSG00000175376'
p3882
aS'ENSG00000115616'
p3883
aS'ENSG00000104689'
p3884
aS'ENSG00000163904'
p3885
aS'ENSG00000163877'
p3886
aS'ENSG00000197579'
p3887
atRp3888
ssS'bisque4'
p3889
(dp3890
g4
(lp3891
(lp3892
S'ENSG00000248859'
p3893
aFinf
ag8
(g10
S'\x88\xec\x97C\xa6\xdch?'
tRp3894
ag8
(g10
S'\xa0";ij\x81\x92?'
tRp3895
aa(lp3896
S'ENSG00000203883'
p3897
ag8
(g10
S'\x00\x00\x00\x00\x00\x80\x84@'
tRp3898
ag8
(g10
S"\xf1?\xeb'\xd0\xd7x?"
tRp3899
ag8
(g10
S' \xe8\x80r\xea\xad\x9e?'
tRp3900
aa(lp3901
S'ENSG00000137834'
p3902
ag8
(g10
S'\x00\x00\x00\x00\x00\x80\x84@'
tRp3903
ag8
(g10
S"\xf1?\xeb'\xd0\xd7x?"
tRp3904
ag8
(g10
S' \xe8\x80r\xea\xad\x9e?'
tRp3905
aa(lp3906
g1184
ag8
(g10
S'\x00\x00\x00\x00\x00hd@'
tRp3907
ag8
(g10
S'\x91\x96\x1eJ\xa1\xfb\x8e?'
tRp3908
ag8
(g10
S' #\x1e\x8a.\xe3\xa6?'
tRp3909
aasg25
g26
((lp3910
S'ENSG00000010322'
p3911
aS'ENSG00000168958'
p3912
aS'ENSG00000105556'
p3913
aS'ENSG00000233198'
p3914
aS'ENSG00000154079'
p3915
aS'ENSG00000175893'
p3916
aS'ENSG00000034677'
p3917
aS'ENSG00000163293'
p3918
aS'ENSG00000163386'
p3919
aS'ENSG00000146425'
p3920
aS'ENSG00000198515'
p3921
aS'ENSG00000104899'
p3922
aS'ENSG00000183691'
p3923
aS'ENSG00000066230'
p3924
atRp3925
ssS'bisque1'
p3926
(dp3927
g25
g26
((lp3928
S'ENSG00000184208'
p3929
aS'ENSG00000127870'
p3930
aS'ENSG00000178700'
p3931
aS'ENSG00000143466'
p3932
aS'ENSG00000170421'
p3933
aS'ENSG00000144230'
p3934
aS'ENSG00000243284'
p3935
atRp3936
ssS'bisque2'
p3937
(dp3938
g25
g26
((lp3939
S'ENSG00000065833'
p3940
aS'ENSG00000153317'
p3941
aS'ENSG00000132639'
p3942
aS'ENSG00000055118'
p3943
aS'ENSG00000156042'
p3944
aS'ENSG00000185274'
p3945
aS'ENSG00000159228'
p3946
atRp3947
ssS'bisque3'
p3948
(dp3949
g25
g26
((lp3950
S'ENSG00000136925'
p3951
aS'ENSG00000188086'
p3952
aS'ENSG00000078246'
p3953
aS'ENSG00000178202'
p3954
aS'ENSG00000069431'
p3955
aS'ENSG00000108465'
p3956
aS'ENSG00000091640'
p3957
aS'ENSG00000143575'
p3958
atRp3959
ssS'darkturquoise'
p3960
(dp3961
g25
g26
((lp3962
S'ENSG00000128463'
p3963
aS'ENSG00000127922'
p3964
aS'ENSG00000165948'
p3965
aS'ENSG00000140990'
p3966
aS'ENSG00000103363'
p3967
aS'ENSG00000150316'
p3968
aS'ENSG00000134825'
p3969
aS'ENSG00000077463'
p3970
aS'ENSG00000125995'
p3971
aS'ENSG00000154518'
p3972
aS'ENSG00000131143'
p3973
aS'ENSG00000137288'
p3974
aS'ENSG00000100865'
p3975
aS'ENSG00000131495'
p3976
aS'ENSG00000183648'
p3977
aS'ENSG00000109390'
p3978
aS'ENSG00000184752'
p3979
atRp3980
ssS'plum4'
p3981
(dp3982
g25
g26
((lp3983
S'ENSG00000146729'
p3984
aS'ENSG00000140009'
p3985
aS'ENSG00000141562'
p3986
aS'ENSG00000123685'
p3987
aS'ENSG00000089163'
p3988
aS'ENSG00000163754'
p3989
aS'ENSG00000028528'
p3990
aS'ENSG00000197841'
p3991
aS'ENSG00000171206'
p3992
aS'ENSG00000157110'
p3993
aS'ENSG00000118197'
p3994
atRp3995
ssS'plum3'
p3996
(dp3997
g4
(lp3998
(lp3999
S'ENSG00000139438'
p4000
ag8
(g10
S'\x00\x00\x00\x00\x00pd@'
tRp4001
ag8
(g10
S'\xeat&cz\xe2\x8b?'
tRp4002
ag8
(g10
S'\x00\xbaR\x80\xe1\xb1\x9b?'
tRp4003
aa(lp4004
S'ENSG00000198133'
p4005
ag8
(g10
S'UUUUU\x15K@'
tRp4006
ag8
(g10
S'BzL\xbe\xcf*\xa0?'
tRp4007
ag8
(g10
S'@zL\xbe\xcf*\xa0?'
tRp4008
aasg25
g26
((lp4009
S'ENSG00000112599'
p4010
aS'ENSG00000073060'
p4011
aS'ENSG00000133027'
p4012
aS'ENSG00000185624'
p4013
aS'ENSG00000112715'
p4014
aS'ENSG00000088812'
p4015
aS'ENSG00000135124'
p4016
aS'ENSG00000213999'
p4017
aS'ENSG00000109072'
p4018
aS'ENSG00000113356'
p4019
aS'ENSG00000215440'
p4020
aS'ENSG00000137070'
p4021
atRp4022
ssS'plum2'
p4023
(dp4024
g25
g26
((lp4025
S'ENSG00000163684'
p4026
aS'ENSG00000177646'
p4027
aS'ENSG00000083123'
p4028
aS'ENSG00000125166'
p4029
aS'ENSG00000171763'
p4030
aS'ENSG00000144659'
p4031
aS'ENSG00000105607'
p4032
aS'ENSG00000148229'
p4033
aS'ENSG00000126602'
p4034
aS'ENSG00000161267'
p4035
aS'ENSG00000114054'
p4036
aS'ENSG00000140848'
p4037
aS'ENSG00000123297'
p4038
aS'ENSG00000061794'
p4039
atRp4040
ssS'plum1'
p4041
(dp4042
g4
(lp4043
(lp4044
S'ENSG00000153253'
p4045
aFinf
ag8
(g10
S'\x88\xec\x97C\xa6\xdch?'
tRp4046
ag8
(g10
S'\x80z,\xce\xfd\xd2x?'
tRp4047
aa(lp4048
S'ENSG00000160963'
p4049
aFinf
ag8
(g10
S'\x88\xec\x97C\xa6\xdch?'
tRp4050
ag8
(g10
S'\x80z,\xce\xfd\xd2x?'
tRp4051
aasg25
g26
((lp4052
S'ENSG00000197948'
p4053
aS'ENSG00000145216'
p4054
aS'ENSG00000156261'
p4055
aS'ENSG00000167257'
p4056
aS'ENSG00000258289'
p4057
aS'ENSG00000114446'
p4058
aS'ENSG00000092330'
p4059
aS'ENSG00000185885'
p4060
aS'ENSG00000185201'
p4061
aS'ENSG00000158411'
p4062
aS'ENSG00000167595'
p4063
aS'ENSG00000126746'
p4064
aS'ENSG00000143590'
p4065
aS'ENSG00000204308'
p4066
aS'ENSG00000139998'
p4067
aS'ENSG00000145623'
p4068
atRp4069
ssS'darkcyan'
p4070
(dp4071
g25
g26
((lp4072
S'ENSG00000125510'
p4073
aS'ENSG00000171700'
p4074
aS'ENSG00000236624'
p4075
aS'ENSG00000108264'
p4076
aS'ENSG00000054965'
p4077
aS'ENSG00000106683'
p4078
atRp4079
ssS'thistle'
p4080
(dp4081
g25
g26
((lp4082
S'ENSG00000172716'
p4083
aS'ENSG00000179958'
p4084
aS'ENSG00000175711'
p4085
aS'ENSG00000134308'
p4086
aS'ENSG00000107959'
p4087
aS'ENSG00000171621'
p4088
aS'ENSG00000095485'
p4089
aS'ENSG00000196873'
p4090
aS'ENSG00000226124'
p4091
aS'ENSG00000135945'
p4092
aS'ENSG00000188375'
p4093
aS'ENSG00000109320'
p4094
atRp4095
ssS'violet'
p4096
(dp4097
g25
g26
((lp4098
S'ENSG00000105771'
p4099
aS'ENSG00000152939'
p4100
aS'ENSG00000167220'
p4101
aS'ENSG00000006831'
p4102
aS'ENSG00000179943'
p4103
aS'ENSG00000164120'
p4104
aS'ENSG00000172159'
p4105
aS'ENSG00000196071'
p4106
aS'ENSG00000135127'
p4107
aS'ENSG00000156966'
p4108
aS'ENSG00000081913'
p4109
aS'ENSG00000167528'
p4110
aS'ENSG00000138757'
p4111
aS'ENSG00000079313'
p4112
aS'ENSG00000120159'
p4113
aS'ENSG00000137815'
p4114
atRp4115
ssS'darkorchid4'
p4116
(dp4117
g25
g26
((lp4118
S'ENSG00000189143'
p4119
aS'ENSG00000178809'
p4120
aS'ENSG00000185594'
p4121
aS'ENSG00000165171'
p4122
aS'ENSG00000089159'
p4123
aS'ENSG00000177465'
p4124
aS'ENSG00000160271'
p4125
aS'ENSG00000228032'
p4126
atRp4127
ssS'darkorchid1'
p4128
(dp4129
g25
g26
((lp4130
S'ENSG00000167862'
p4131
aS'ENSG00000203872'
p4132
aS'ENSG00000164941'
p4133
aS'ENSG00000164610'
p4134
aS'ENSG00000084764'
p4135
aS'ENSG00000087269'
p4136
atRp4137
ssS'darkorchid2'
p4138
(dp4139
g25
g26
((lp4140
S'ENSG00000109111'
p4141
aS'ENSG00000006712'
p4142
aS'ENSG00000128604'
p4143
aS'ENSG00000111554'
p4144
aS'ENSG00000168066'
p4145
aS'ENSG00000108592'
p4146
atRp4147
ssS'darkorchid3'
p4148
(dp4149
g25
g26
((lp4150
S'ENSG00000101577'
p4151
aS'ENSG00000222033'
p4152
aS'ENSG00000099139'
p4153
aS'ENSG00000125618'
p4154
aS'ENSG00000113946'
p4155
aS'ENSG00000124422'
p4156
aS'ENSG00000088854'
p4157
atRp4158
ssS'honeydew'
p4159
(dp4160
g25
g26
((lp4161
S'ENSG00000081721'
p4162
aS'ENSG00000213551'
p4163
aS'ENSG00000170291'
p4164
aS'ENSG00000159210'
p4165
aS'ENSG00000121766'
p4166
aS'ENSG00000172057'
p4167
aS'ENSG00000175826'
p4168
aS'ENSG00000005075'
p4169
aS'ENSG00000181885'
p4170
aS'ENSG00000104679'
p4171
aS'ENSG00000188234'
p4172
aS'ENSG00000159592'
p4173
atRp4174
ssS'cornflowerblue'
p4175
(dp4176
g4
(lp4177
(lp4178
S'ENSG00000162482'
p4179
aFinf
ag8
(g10
S'u\xf1\xb1\xb2|\xa5r?'
tRp4180
ag8
(g10
S'\xc0\xf3U)\xaf\xd7\x8b?'
tRp4181
aa(lp4182
g2460
ag8
(g10
S'UUUUU5[@'
tRp4183
ag8
(g10
S'\x1b2r\xdd\xbe\x8f\x92?'
tRp4184
ag8
(g10
S'\xe0y\xb4\xeb\xadd\xa2?'
tRp4185
aa(lp4186
g2464
ag8
(g10
S'UUUUU5[@'
tRp4187
ag8
(g10
S'\x1b2r\xdd\xbe\x8f\x92?'
tRp4188
ag8
(g10
S'\xe0y\xb4\xeb\xadd\xa2?'
tRp4189
aasg25
g26
((lp4190
S'ENSG00000076344'
p4191
aS'ENSG00000164520'
p4192
aS'ENSG00000203722'
p4193
aS'ENSG00000034239'
p4194
aS'ENSG00000178852'
p4195
aS'ENSG00000248874'
p4196
aS'ENSG00000120256'
p4197
aS'ENSG00000115561'
p4198
aS'ENSG00000133731'
p4199
atRp4200
ssS'darkblue'
p4201
(dp4202
g25
g26
((lp4203
S'ENSG00000196235'
p4204
aS'ENSG00000186493'
p4205
aS'ENSG00000106560'
p4206
aS'ENSG00000256771'
p4207
aS'ENSG00000130818'
p4208
aS'ENSG00000188171'
p4209
aS'ENSG00000198521'
p4210
atRp4211
ssS'palevioletred1'
p4212
(dp4213
g4
(lp4214
(lp4215
g168
aFinf
ag8
(g10
S')\xed}\xd4\xcf\x13\x7f?'
tRp4216
ag8
(g10
S'\x00\xed}\xd4\xcf\x13\x7f?'
tRp4217
aasg25
g26
((lp4218
S'ENSG00000177054'
p4219
aS'ENSG00000105568'
p4220
aS'ENSG00000160188'
p4221
aS'ENSG00000133985'
p4222
aS'ENSG00000184602'
p4223
aS'ENSG00000167711'
p4224
aS'ENSG00000101282'
p4225
aS'ENSG00000205659'
p4226
aS'ENSG00000138101'
p4227
aS'ENSG00000068885'
p4228
aS'ENSG00000125818'
p4229
atRp4230
ssS'palevioletred2'
p4231
(dp4232
g4
(lp4233
(lp4234
g905
ag8
(g10
S'\x00\x00\x00\x00\x00pd@'
tRp4235
ag8
(g10
S'\xeat&cz\xe2\x8b?'
tRp4236
ag8
(g10
S'\x00u&cz\xe2\x8b?'
tRp4237
aasg25
g26
((lp4238
S'ENSG00000137364'
p4239
aS'ENSG00000137714'
p4240
aS'ENSG00000111269'
p4241
aS'ENSG00000165097'
p4242
aS'ENSG00000167580'
p4243
aS'ENSG00000121318'
p4244
aS'ENSG00000127530'
p4245
aS'ENSG00000123349'
p4246
aS'ENSG00000204428'
p4247
aS'ENSG00000136872'
p4248
aS'ENSG00000104660'
p4249
aS'ENSG00000162604'
p4250
atRp4251
ssS'palevioletred3'
p4252
(dp4253
g4
(lp4254
(lp4255
S'ENSG00000176014'
p4256
aFinf
ag8
(g10
S'\x17\x0cP_\x8a.\x08?'
tRp4257
ag8
(g10
S'\x00 \x1cO\xba!B?'
tRp4258
aasg25
g26
((lp4259
S'ENSG00000111912'
p4260
aS'ENSG00000076356'
p4261
aS'ENSG00000142621'
p4262
aS'ENSG00000233276'
p4263
aS'ENSG00000126247'
p4264
aS'ENSG00000097021'
p4265
aS'ENSG00000006327'
p4266
aS'ENSG00000135549'
p4267
aS'ENSG00000101222'
p4268
aS'ENSG00000165868'
p4269
aS'ENSG00000131899'
p4270
aS'ENSG00000091879'
p4271
aS'ENSG00000106366'
p4272
aS'ENSG00000070718'
p4273
atRp4274
ssS'mediumpurple'
p4275
(dp4276
g25
g26
((lp4277
S'ENSG00000161981'
p4278
aS'ENSG00000049167'
p4279
aS'ENSG00000271605'
p4280
aS'ENSG00000174886'
p4281
aS'ENSG00000173272'
p4282
aS'ENSG00000145416'
p4283
aS'ENSG00000162836'
p4284
aS'ENSG00000116922'
p4285
aS'ENSG00000204169'
p4286
aS'ENSG00000132275'
p4287
atRp4288
ssS'lightblue2'
p4289
(dp4290
g4
(lp4291
(lp4292
S'ENSG00000162552'
p4293
aFinf
ag8
(g10
S'l\xf1\xb1\xb2|\xa5\x82?'
tRp4294
ag8
(g10
S' \x0f\xc3\xab\xb0d\xa2?'
tRp4295
aa(lp4296
S'ENSG00000165905'
p4297
aFinf
ag8
(g10
S'I\xee\x97C\xa6\xdc\x88?'
tRp4298
ag8
(g10
S'0t\xb0\xf9\xc5k\xa2?'
tRp4299
aasg25
g26
((lp4300
S'ENSG00000169330'
p4301
aS'ENSG00000106701'
p4302
aS'ENSG00000099308'
p4303
aS'ENSG00000242612'
p4304
aS'ENSG00000169902'
p4305
aS'ENSG00000128829'
p4306
aS'ENSG00000256073'
p4307
aS'ENSG00000099785'
p4308
aS'ENSG00000132612'
p4309
atRp4310
ssS'lightblue3'
p4311
(dp4312
g25
g26
((lp4313
S'ENSG00000072364'
p4314
aS'ENSG00000134852'
p4315
aS'ENSG00000165813'
p4316
aS'ENSG00000040487'
p4317
aS'ENSG00000161813'
p4318
aS'ENSG00000110911'
p4319
aS'ENSG00000150764'
p4320
aS'ENSG00000123268'
p4321
aS'ENSG00000177200'
p4322
aS'ENSG00000128039'
p4323
atRp4324
ssS'lightblue1'
p4325
(dp4326
g25
g26
((lp4327
S'ENSG00000198131'
p4328
aS'ENSG00000215845'
p4329
aS'ENSG00000185437'
p4330
aS'ENSG00000104938'
p4331
aS'ENSG00000113303'
p4332
aS'ENSG00000115844'
p4333
aS'ENSG00000204604'
p4334
aS'ENSG00000198933'
p4335
aS'ENSG00000157578'
p4336
atRp4337
ssS'lightblue4'
p4338
(dp4339
g25
g26
((lp4340
S'ENSG00000176273'
p4341
aS'ENSG00000023041'
p4342
aS'ENSG00000173809'
p4343
aS'ENSG00000197140'
p4344
aS'ENSG00000145604'
p4345
aS'ENSG00000243710'
p4346
aS'ENSG00000217442'
p4347
aS'ENSG00000196693'
p4348
aS'ENSG00000105397'
p4349
aS'ENSG00000089335'
p4350
aS'ENSG00000138381'
p4351
aS'ENSG00000162695'
p4352
atRp4353
ssS'darkred'
p4354
(dp4355
g4
(lp4356
(lp4357
S'ENSG00000107282'
p4358
aFinf
ag8
(g10
S'{\xec\x97C\xa6\xdcX?'
tRp4359
ag8
(g10
S'\x00\xac\x91S-\xcex?'
tRp4360
aa(lp4361
S'ENSG00000067840'
p4362
aFinf
ag8
(g10
S')\xed}\xd4\xcf\x13\x7f?'
tRp4363
ag8
(g10
S'\x80\xd7\xa1\x88\xb3!\x97?'
tRp4364
aa(lp4365
S'ENSG00000078018'
p4366
aFinf
ag8
(g10
S')\xed}\xd4\xcf\x13\x7f?'
tRp4367
ag8
(g10
S'\x80\xd7\xa1\x88\xb3!\x97?'
tRp4368
aa(lp4369
S'ENSG00000072832'
p4370
aFinf
ag8
(g10
S')\xed}\xd4\xcf\x13\x7f?'
tRp4371
ag8
(g10
S'\x80\xd7\xa1\x88\xb3!\x97?'
tRp4372
aasg25
g26
((lp4373
S'ENSG00000249087'
p4374
aS'ENSG00000176340'
p4375
aS'ENSG00000214078'
p4376
aS'ENSG00000110074'
p4377
aS'ENSG00000242441'
p4378
aS'ENSG00000108561'
p4379
aS'ENSG00000196365'
p4380
aS'ENSG00000117118'
p4381
aS'ENSG00000125945'
p4382
aS'ENSG00000228157'
p4383
aS'ENSG00000106077'
p4384
aS'ENSG00000116544'
p4385
aS'ENSG00000239672'
p4386
aS'ENSG00000068781'
p4387
aS'ENSG00000115286'
p4388
aS'ENSG00000101181'
p4389
aS'ENSG00000136143'
p4390
aS'ENSG00000159784'
p4391
atRp4392
ssS'lavenderblush1'
p4393
(dp4394
g4
(lp4395
(lp4396
S'ENSG00000105699'
p4397
aFinf
ag8
(g10
S'\x88\xec\x97C\xa6\xdch?'
tRp4398
ag8
(g10
S'\xd0m\x1d\xfb\xe5\xd5\xa0?'
tRp4399
aasg25
g26
((lp4400
S'ENSG00000011295'
p4401
aS'ENSG00000159658'
p4402
aS'ENSG00000110723'
p4403
aS'ENSG00000188636'
p4404
aS'ENSG00000177570'
p4405
aS'ENSG00000198929'
p4406
aS'ENSG00000122778'
p4407
aS'ENSG00000089050'
p4408
aS'ENSG00000145362'
p4409
aS'ENSG00000054793'
p4410
aS'ENSG00000239887'
p4411
atRp4412
ssS'lavenderblush3'
p4413
(dp4414
g25
g26
((lp4415
S'ENSG00000165629'
p4416
aS'ENSG00000166226'
p4417
aS'ENSG00000175287'
p4418
aS'ENSG00000185627'
p4419
aS'ENSG00000163636'
p4420
aS'ENSG00000135624'
p4421
aS'ENSG00000143127'
p4422
aS'ENSG00000158825'
p4423
aS'ENSG00000163002'
p4424
aS'ENSG00000136522'
p4425
aS'ENSG00000162885'
p4426
aS'ENSG00000110107'
p4427
aS'ENSG00000120800'
p4428
aS'ENSG00000111845'
p4429
atRp4430
ssS'lavenderblush2'
p4431
(dp4432
g25
g26
((lp4433
S'ENSG00000185024'
p4434
aS'ENSG00000186283'
p4435
aS'ENSG00000169220'
p4436
aS'ENSG00000133789'
p4437
aS'ENSG00000111412'
p4438
aS'ENSG00000198142'
p4439
aS'ENSG00000112039'
p4440
aS'ENSG00000182541'
p4441
aS'ENSG00000162636'
p4442
aS'ENSG00000142856'
p4443
aS'ENSG00000242802'
p4444
aS'ENSG00000168038'
p4445
atRp4446
ssS'mediumturquoise'
p4447
(dp4448
g25
g26
((lp4449
S'ENSG00000196648'
p4450
aS'ENSG00000140575'
p4451
aS'ENSG00000184792'
p4452
aS'ENSG00000049759'
p4453
aS'ENSG00000100036'
p4454
atRp4455
ssS'sienna4'
p4456
(dp4457
g25
g26
((lp4458
S'ENSG00000178234'
p4459
aS'ENSG00000198089'
p4460
aS'ENSG00000177576'
p4461
aS'ENSG00000159692'
p4462
aS'ENSG00000162572'
p4463
aS'ENSG00000151327'
p4464
aS'ENSG00000142082'
p4465
aS'ENSG00000166260'
p4466
aS'ENSG00000119242'
p4467
aS'ENSG00000065029'
p4468
aS'ENSG00000155975'
p4469
aS'ENSG00000037042'
p4470
atRp4471
ssS'sienna1'
p4472
(dp4473
g25
g26
((lp4474
S'ENSG00000206538'
p4475
aS'ENSG00000118523'
p4476
aS'ENSG00000149596'
p4477
aS'ENSG00000071282'
p4478
aS'ENSG00000148357'
p4479
aS'ENSG00000172935'
p4480
aS'ENSG00000135773'
p4481
aS'ENSG00000166387'
p4482
aS'ENSG00000048540'
p4483
atRp4484
ssS'sienna3'
p4485
(dp4486
g4
(lp4487
(lp4488
S'ENSG00000129159'
p4489
aFinf
ag8
(g10
S'u\xf1\xb1\xb2|\xa5r?'
tRp4490
ag8
(g10
S'\xb0<L\xae\x18\xd6\xa6?'
tRp4491
aa(lp4492
S'ENSG00000173826'
p4493
aFinf
ag8
(g10
S'u\xf1\xb1\xb2|\xa5r?'
tRp4494
ag8
(g10
S'\xb0<L\xae\x18\xd6\xa6?'
tRp4495
aa(lp4496
S'ENSG00000133958'
p4497
aFinf
ag8
(g10
S'u\xf1\xb1\xb2|\xa5r?'
tRp4498
ag8
(g10
S'\xb0<L\xae\x18\xd6\xa6?'
tRp4499
aasg25
g26
((lp4500
S'ENSG00000008283'
p4501
aS'ENSG00000233024'
p4502
aS'ENSG00000104635'
p4503
aS'ENSG00000160991'
p4504
aS'ENSG00000085982'
p4505
aS'ENSG00000183010'
p4506
aS'ENSG00000123933'
p4507
aS'ENSG00000157693'
p4508
aS'ENSG00000099917'
p4509
aS'ENSG00000141759'
p4510
aS'ENSG00000121905'
p4511
aS'ENSG00000203711'
p4512
aS'ENSG00000161036'
p4513
aS'ENSG00000125912'
p4514
aS'ENSG00000243317'
p4515
aS'ENSG00000139899'
p4516
atRp4517
ssS'sienna2'
p4518
(dp4519
g4
(lp4520
(lp4521
S'ENSG00000137960'
p4522
aFinf
ag8
(g10
S'\x88\xec\x97C\xa6\xdch?'
tRp4523
ag8
(g10
S'\xa0e\xbc\x96\x08\xa8\x9e?'
tRp4524
aa(lp4525
S'ENSG00000018625'
p4526
aFinf
ag8
(g10
S'\x88\xec\x97C\xa6\xdch?'
tRp4527
ag8
(g10
S'\xa0e\xbc\x96\x08\xa8\x9e?'
tRp4528
aasg25
g26
((lp4529
S'ENSG00000077420'
p4530
aS'ENSG00000136783'
p4531
aS'ENSG00000165028'
p4532
aS'ENSG00000120457'
p4533
aS'ENSG00000139197'
p4534
aS'ENSG00000253719'
p4535
aS'ENSG00000139194'
p4536
aS'ENSG00000213949'
p4537
aS'ENSG00000081052'
p4538
aS'ENSG00000197713'
p4539
atRp4540
ssS'lightyellow1'
p4541
(dp4542
g4
(lp4543
(lp4544
S'ENSG00000159403'
p4545
aFinf
ag8
(g10
S'2\xf1\x97C\xa6\xdch?'
tRp4546
ag8
(g10
S'\x80,L\xe2\xbb\xbf\x88?'
tRp4547
aa(lp4548
g2264
aFinf
ag8
(g10
S'\x93\xe9\x97C\xa6\xdcx?'
tRp4549
ag8
(g10
S'\xa0cPT\x92\x88\x92?'
tRp4550
aa(lp4551
g2269
aFinf
ag8
(g10
S'\x93\xe9\x97C\xa6\xdcx?'
tRp4552
ag8
(g10
S'\xa0cPT\x92\x88\x92?'
tRp4553
aa(lp4554
g2274
aFinf
ag8
(g10
S'\x93\xe9\x97C\xa6\xdcx?'
tRp4555
ag8
(g10
S'\xa0cPT\x92\x88\x92?'
tRp4556
aasg25
g26
((lp4557
S'ENSG00000267270'
p4558
aS'ENSG00000120925'
p4559
aS'ENSG00000157227'
p4560
aS'ENSG00000181045'
p4561
aS'ENSG00000181523'
p4562
atRp4563
ssS'lightyellow2'
p4564
(dp4565
g25
g26
((lp4566
S'ENSG00000131019'
p4567
aS'ENSG00000138071'
p4568
aS'ENSG00000158483'
p4569
aS'ENSG00000166938'
p4570
aS'ENSG00000167700'
p4571
aS'ENSG00000155974'
p4572
atRp4573
ssS'lightsteelblue'
p4574
(dp4575
g4
(lp4576
(lp4577
S'ENSG00000060709'
p4578
aFinf
ag8
(g10
S'2\xf1\x97C\xa6\xdch?'
tRp4579
ag8
(g10
S'\x80,L\xe2\xbb\xbf\x88?'
tRp4580
aa(lp4581
S'ENSG00000139629'
p4582
aFinf
ag8
(g10
S'2\xf1\x97C\xa6\xdch?'
tRp4583
ag8
(g10
S'\x80,L\xe2\xbb\xbf\x88?'
tRp4584
aa(lp4585
S'ENSG00000198400'
p4586
aFinf
ag8
(g10
S'2\xf1\x97C\xa6\xdch?'
tRp4587
ag8
(g10
S'\x80,L\xe2\xbb\xbf\x88?'
tRp4588
aa(lp4589
S'ENSG00000027644'
p4590
aFinf
ag8
(g10
S'2\xf1\x97C\xa6\xdch?'
tRp4591
ag8
(g10
S'\x80,L\xe2\xbb\xbf\x88?'
tRp4592
aasg25
g26
((lp4593
S'ENSG00000188611'
p4594
aS'ENSG00000184990'
p4595
aS'ENSG00000131848'
p4596
aS'ENSG00000146830'
p4597
aS'ENSG00000181396'
p4598
aS'ENSG00000100241'
p4599
aS'ENSG00000120915'
p4600
aS'ENSG00000140943'
p4601
aS'ENSG00000204186'
p4602
aS'ENSG00000138346'
p4603
aS'ENSG00000117602'
p4604
aS'ENSG00000108960'
p4605
aS'ENSG00000124795'
p4606
atRp4607
ssS'lightyellow4'
p4608
(dp4609
g25
g26
((lp4610
S'ENSG00000105887'
p4611
aS'ENSG00000241258'
p4612
aS'ENSG00000127124'
p4613
aS'ENSG00000196312'
p4614
aS'ENSG00000152818'
p4615
aS'ENSG00000089234'
p4616
aS'ENSG00000138621'
p4617
atRp4618
ssS'magenta2'
p4619
(dp4620
g4
(lp4621
(lp4622
S'ENSG00000198929'
p4623
aFinf
ag8
(g10
S'u\xf1\xb1\xb2|\xa5r?'
tRp4624
ag8
(g10
S'\x80\xc71r\xfd\x84\x92?'
tRp4625
aa(lp4626
S'ENSG00000165521'
p4627
aFinf
ag8
(g10
S'u\xf1\xb1\xb2|\xa5r?'
tRp4628
ag8
(g10
S'\x80\xc71r\xfd\x84\x92?'
tRp4629
aa(lp4630
g3841
ag8
(g10
S'\x00\x00\x00\x00\x00pd@'
tRp4631
ag8
(g10
S'\xeat&cz\xe2\x8b?'
tRp4632
ag8
(g10
S'\x00\xbaR\x80\xe1\xb1\x9b?'
tRp4633
aa(lp4634
S'ENSG00000054690'
p4635
ag8
(g10
S'fffff&@@'
tRp4636
ag8
(g10
S'\x90z2\x15@@\xa9?'
tRp4637
ag8
(g10
S'\x90z2\x15@@\xa9?'
tRp4638
aasg25
g26
((lp4639
S'ENSG00000140157'
p4640
aS'ENSG00000166762'
p4641
aS'ENSG00000140400'
p4642
aS'ENSG00000206432'
p4643
aS'ENSG00000149922'
p4644
aS'ENSG00000143153'
p4645
aS'ENSG00000171729'
p4646
aS'ENSG00000144406'
p4647
aS'ENSG00000168264'
p4648
aS'ENSG00000213995'
p4649
atRp4650
ssS'lightgoldenrod'
p4651
(dp4652
g4
(lp4653
(lp4654
S'ENSG00000070182'
p4655
aFinf
ag8
(g10
S'\x88\xec\x97C\xa6\xdch?'
tRp4656
ag8
(g10
S'\x00\xf9\x08\xc3\x03\x97\x82?'
tRp4657
aasg25
g26
((lp4658
S'ENSG00000105538'
p4659
aS'ENSG00000158555'
p4660
aS'ENSG00000184185'
p4661
aS'ENSG00000162366'
p4662
aS'ENSG00000182264'
p4663
atRp4664
ssS'navajowhite4'
p4665
(dp4666
g25
g26
((lp4667
S'ENSG00000100916'
p4668
aS'ENSG00000173535'
p4669
aS'ENSG00000138085'
p4670
aS'ENSG00000188672'
p4671
aS'ENSG00000157653'
p4672
aS'ENSG00000213889'
p4673
aS'ENSG00000099338'
p4674
aS'ENSG00000198890'
p4675
aS'ENSG00000111846'
p4676
atRp4677
ssS'mediumorchid'
p4678
(dp4679
g4
(lp4680
(lp4681
S'ENSG00000182578'
p4682
aFinf
ag8
(g10
S'\x95\xec\x97C\xa6\xdcx?'
tRp4683
ag8
(g10
S'\xc0O\x13\xe0\x10W\xa8?'
tRp4684
aasg25
g26
((lp4685
S'ENSG00000141519'
p4686
aS'ENSG00000102595'
p4687
aS'ENSG00000186235'
p4688
aS'ENSG00000144485'
p4689
aS'ENSG00000218739'
p4690
aS'ENSG00000186417'
p4691
aS'ENSG00000146054'
p4692
aS'ENSG00000198035'
p4693
aS'ENSG00000184672'
p4694
aS'ENSG00000105366'
p4695
aS'ENSG00000167799'
p4696
aS'ENSG00000180155'
p4697
aS'ENSG00000260001'
p4698
atRp4699
ssS'olivedrab'
p4700
(dp4701
g4
(lp4702
(lp4703
S'ENSG00000267014'
p4704
aFinf
ag8
(g10
S'{\xec\x97C\xa6\xdcX?'
tRp4705
ag8
(g10
S'\x00\xec\x97C\xa6\xdcX?'
tRp4706
aasg25
g26
((lp4707
S'ENSG00000091513'
p4708
aS'ENSG00000150459'
p4709
aS'ENSG00000174720'
p4710
aS'ENSG00000136932'
p4711
aS'ENSG00000163041'
p4712
atRp4713
ssS'navajowhite1'
p4714
(dp4715
g25
g26
((lp4716
S'ENSG00000120341'
p4717
aS'ENSG00000141404'
p4718
aS'ENSG00000013573'
p4719
aS'ENSG00000027869'
p4720
aS'ENSG00000119318'
p4721
aS'ENSG00000159267'
p4722
aS'ENSG00000188004'
p4723
aS'ENSG00000146215'
p4724
aS'ENSG00000137409'
p4725
aS'ENSG00000198663'
p4726
aS'ENSG00000139044'
p4727
aS'ENSG00000123104'
p4728
atRp4729
ssS'navajowhite2'
p4730
(dp4731
g4
(lp4732
(lp4733
S'ENSG00000198121'
p4734
aFinf
ag8
(g10
S'{\xec\x97C\xa6\xdcX?'
tRp4735
ag8
(g10
S'\x00h\xbfJ?\x9er?'
tRp4736
aa(lp4737
S'ENSG00000152402'
p4738
aFinf
ag8
(g10
S'{\xec\x97C\xa6\xdcX?'
tRp4739
ag8
(g10
S'\x00h\xbfJ?\x9er?'
tRp4740
aa(lp4741
S'ENSG00000134853'
p4742
aFinf
ag8
(g10
S'\x93\xe9\x97C\xa6\xdcx?'
tRp4743
ag8
(g10
S'\x80\xe9\x97C\xa6\xdcx?'
tRp4744
aasg25
g26
((lp4745
S'ENSG00000178222'
p4746
aS'ENSG00000118257'
p4747
aS'ENSG00000004399'
p4748
aS'ENSG00000135540'
p4749
aS'ENSG00000107643'
p4750
aS'ENSG00000182218'
p4751
aS'ENSG00000188739'
p4752
aS'ENSG00000189007'
p4753
aS'ENSG00000069696'
p4754
aS'ENSG00000100568'
p4755
aS'ENSG00000204314'
p4756
aS'ENSG00000213213'
p4757
aS'ENSG00000153291'
p4758
aS'ENSG00000144559'
p4759
atRp4760
ssS'navajowhite3'
p4761
(dp4762
g25
g26
((lp4763
S'ENSG00000065000'
p4764
aS'ENSG00000144791'
p4765
aS'ENSG00000166435'
p4766
aS'ENSG00000172986'
p4767
aS'ENSG00000179528'
p4768
aS'ENSG00000116830'
p4769
aS'ENSG00000145700'
p4770
aS'ENSG00000170949'
p4771
aS'ENSG00000105398'
p4772
atRp4773
ssS'darkgoldenrod2'
p4774
(dp4775
g25
g26
((lp4776
S'ENSG00000141524'
p4777
aS'ENSG00000087266'
p4778
aS'ENSG00000113389'
p4779
aS'ENSG00000100092'
p4780
aS'ENSG00000198113'
p4781
aS'ENSG00000015475'
p4782
atRp4783
ssS'palegreen'
p4784
(dp4785
g25
g26
((lp4786
S'ENSG00000238083'
p4787
aS'ENSG00000228696'
p4788
aS'ENSG00000108379'
p4789
aS'ENSG00000176681'
p4790
aS'ENSG00000185829'
p4791
atRp4792
ssS'seashell'
p4793
(dp4794
g25
g26
((lp4795
S'ENSG00000173145'
p4796
aS'ENSG00000120008'
p4797
aS'ENSG00000171806'
p4798
aS'ENSG00000148690'
p4799
aS'ENSG00000151466'
p4800
aS'ENSG00000163510'
p4801
atRp4802
ssS'aquamarine'
p4803
(dp4804
g4
(lp4805
(lp4806
S'ENSG00000187164'
p4807
aFinf
ag8
(g10
S'u\xf1\xb1\xb2|\xa5r?'
tRp4808
ag8
(g10
S'\xc0\xd1\xe4Z\x1eZ\xa2?'
tRp4809
aa(lp4810
S'ENSG00000176406'
p4811
aFinf
ag8
(g10
S'u\xf1\xb1\xb2|\xa5r?'
tRp4812
ag8
(g10
S'\xc0\xd1\xe4Z\x1eZ\xa2?'
tRp4813
aa(lp4814
S'ENSG00000152092'
p4815
aFinf
ag8
(g10
S'u\xf1\xb1\xb2|\xa5r?'
tRp4816
ag8
(g10
S'\xc0\xd1\xe4Z\x1eZ\xa2?'
tRp4817
aasg25
g26
((lp4818
S'ENSG00000241186'
p4819
aS'ENSG00000198822'
p4820
aS'ENSG00000179071'
p4821
aS'ENSG00000095261'
p4822
aS'ENSG00000163827'
p4823
aS'ENSG00000126218'
p4824
aS'ENSG00000204020'
p4825
atRp4826
ssS'tan4'
p4827
(dp4828
g4
(lp4829
(lp4830
g340
aFinf
ag8
(g10
S'2\xf1\x97C\xa6\xdch?'
tRp4831
ag8
(g10
S'\x00\xf1\x97C\xa6\xdch?'
tRp4832
aasg25
g26
((lp4833
S'ENSG00000124713'
p4834
aS'ENSG00000172239'
p4835
aS'ENSG00000011260'
p4836
aS'ENSG00000171853'
p4837
aS'ENSG00000157796'
p4838
aS'ENSG00000138363'
p4839
aS'ENSG00000131591'
p4840
aS'ENSG00000153406'
p4841
aS'ENSG00000144362'
p4842
aS'ENSG00000213221'
p4843
aS'ENSG00000104973'
p4844
atRp4845
ssS'tan3'
p4846
(dp4847
g25
g26
((lp4848
S'ENSG00000189350'
p4849
aS'ENSG00000163694'
p4850
aS'ENSG00000100362'
p4851
aS'ENSG00000105865'
p4852
aS'ENSG00000137273'
p4853
aS'ENSG00000151360'
p4854
aS'ENSG00000165923'
p4855
aS'ENSG00000198520'
p4856
aS'ENSG00000067533'
p4857
aS'ENSG00000254415'
p4858
atRp4859
ssS'tan2'
p4860
(dp4861
g4
(lp4862
(lp4863
g4005
ag8
(g10
S'UUUUU\x15K@'
tRp4864
ag8
(g10
S'BzL\xbe\xcf*\xa0?'
tRp4865
ag8
(g10
S'\x00\xea\xba\xbc\xa1]\xa2?'
tRp4866
aa(lp4867
S'ENSG00000205362'
p4868
ag8
(g10
S'\x00\x00\x00\x00\x00xt@'
tRp4869
ag8
(g10
S'\xe9\xe8.\x89;\x9e\x82?'
tRp4870
ag8
(g10
S'\x00\xea\xba\xbc\xa1]\xa2?'
tRp4871
aa(lp4872
S'ENSG00000073060'
p4873
ag8
(g10
S'\x00\x00\x00\x00\x00xt@'
tRp4874
ag8
(g10
S'\xe9\xe8.\x89;\x9e\x82?'
tRp4875
ag8
(g10
S'\x00\xea\xba\xbc\xa1]\xa2?'
tRp4876
aa(lp4877
g4000
ag8
(g10
S'\x00\x00\x00\x00\x00pd@'
tRp4878
ag8
(g10
S'\xeat&cz\xe2\x8b?'
tRp4879
ag8
(g10
S'\x00\xea\xba\xbc\xa1]\xa2?'
tRp4880
aasg25
g26
((lp4881
S'ENSG00000127325'
p4882
aS'ENSG00000136425'
p4883
aS'ENSG00000111644'
p4884
aS'ENSG00000100053'
p4885
aS'ENSG00000160145'
p4886
aS'ENSG00000174080'
p4887
aS'ENSG00000198805'
p4888
aS'ENSG00000135828'
p4889
aS'ENSG00000197548'
p4890
atRp4891
ssS'tan1'
p4892
(dp4893
g25
g26
((lp4894
S'ENSG00000010818'
p4895
aS'ENSG00000180992'
p4896
aS'ENSG00000125877'
p4897
aS'ENSG00000037637'
p4898
aS'ENSG00000065154'
p4899
aS'ENSG00000170322'
p4900
aS'ENSG00000165113'
p4901
aS'ENSG00000078668'
p4902
atRp4903
ssS'paleturquoise1'
p4904
(dp4905
g4
(lp4906
(lp4907
S'ENSG00000160460'
p4908
aFinf
ag8
(g10
S'\x88\xec\x97C\xa6\xdch?'
tRp4909
ag8
(g10
S'\x00\xed\x97C\xa6\xdch?'
tRp4910
aasg25
g26
((lp4911
S'ENSG00000114948'
p4912
aS'ENSG00000003056'
p4913
aS'ENSG00000184470'
p4914
aS'ENSG00000151746'
p4915
aS'ENSG00000213965'
p4916
aS'ENSG00000085719'
p4917
aS'ENSG00000111885'
p4918
aS'ENSG00000087085'
p4919
atRp4920
ssS'slateblue'
p4921
(dp4922
g4
(lp4923
(lp4924
S'ENSG00000135773'
p4925
aFinf
ag8
(g10
S'\x95\xec\x97C\xa6\xdcx?'
tRp4926
ag8
(g10
S'@\x07\xc1XU\xc9\x88?'
tRp4927
aa(lp4928
S'ENSG00000231327'
p4929
aFinf
ag8
(g10
S'\x95\xec\x97C\xa6\xdcx?'
tRp4930
ag8
(g10
S'@\x07\xc1XU\xc9\x88?'
tRp4931
aasg25
g26
((lp4932
S'ENSG00000106344'
p4933
aS'ENSG00000132837'
p4934
aS'ENSG00000132840'
p4935
aS'ENSG00000100804'
p4936
aS'ENSG00000141294'
p4937
aS'ENSG00000108671'
p4938
aS'ENSG00000145692'
p4939
aS'ENSG00000159377'
p4940
aS'ENSG00000068976'
p4941
aS'ENSG00000108344'
p4942
atRp4943
ssS'darkorange4'
p4944
(dp4945
g25
g26
((lp4946
S'ENSG00000105928'
p4947
aS'ENSG00000204644'
p4948
aS'ENSG00000162877'
p4949
aS'ENSG00000122678'
p4950
aS'ENSG00000241852'
p4951
atRp4952
ssS'mintcream'
p4953
(dp4954
g4
(lp4955
(lp4956
S'ENSG00000155093'
p4957
aFinf
ag8
(g10
S'\xd1\xed\xb1\xb2|\xa5r?'
tRp4958
ag8
(g10
S'\xf0\x8e\xf1q0\x18\xa0?'
tRp4959
aa(lp4960
S'ENSG00000117477'
p4961
aFinf
ag8
(g10
S'\x93\xe9\x97C\xa6\xdcx?'
tRp4962
ag8
(g10
S'\xb0R[\xa6\xa2]\xa2?'
tRp4963
aa(lp4964
S'ENSG00000156687'
p4965
aFinf
ag8
(g10
S')\xed}\xd4\xcf\x13\x7f?'
tRp4966
ag8
(g10
S'\x109\xb1\xcf\x7f!\xa3?'
tRp4967
aasg25
g26
((lp4968
S'ENSG00000103502'
p4969
aS'ENSG00000130731'
p4970
aS'ENSG00000146243'
p4971
aS'ENSG00000010361'
p4972
aS'ENSG00000129946'
p4973
aS'ENSG00000183662'
p4974
aS'ENSG00000103245'
p4975
atRp4976
ssS'darkorange2'
p4977
(dp4978
g4
(lp4979
(lp4980
S'ENSG00000171345'
p4981
aFinf
ag8
(g10
S'{\xec\x97C\xa6\xdcX?'
tRp4982
ag8
(g10
S'\x00\xe1\x99\xaa\xc7\xa7\x85?'
tRp4983
aa(lp4984
S'ENSG00000137699'
p4985
aFinf
ag8
(g10
S'{\xec\x97C\xa6\xdcX?'
tRp4986
ag8
(g10
S'\x00\xe1\x99\xaa\xc7\xa7\x85?'
tRp4987
aa(lp4988
S'ENSG00000203727'
p4989
aFinf
ag8
(g10
S'{\xec\x97C\xa6\xdcX?'
tRp4990
ag8
(g10
S'\x00\xe1\x99\xaa\xc7\xa7\x85?'
tRp4991
aasg25
g26
((lp4992
S'ENSG00000178449'
p4993
aS'ENSG00000182263'
p4994
aS'ENSG00000144115'
p4995
aS'ENSG00000087053'
p4996
aS'ENSG00000118900'
p4997
aS'ENSG00000232859'
p4998
aS'ENSG00000170903'
p4999
aS'ENSG00000171160'
p5000
aS'ENSG00000268885'
p5001
aS'ENSG00000153574'
p5002
aS'ENSG00000105793'
p5003
aS'ENSG00000181135'
p5004
aS'ENSG00000204323'
p5005
aS'ENSG00000092020'
p5006
aS'ENSG00000156564'
p5007
atRp5008
ssS'saddlebrown'
p5009
(dp5010
g4
(lp5011
(lp5012
S'ENSG00000100604'
p5013
ag8
(g10
S'F\x17]t\xd1EM@'
tRp5014
ag8
(g10
S'P\xcb\x9a\xd4ZJa?'
tRp5015
ag8
(g10
S'p\x9a\x1a\xd7d/\xa5?'
tRp5016
aasg25
g26
((lp5017
S'ENSG00000174446'
p5018
aS'ENSG00000109832'
p5019
aS'ENSG00000130294'
p5020
aS'ENSG00000127561'
p5021
aS'ENSG00000180660'
p5022
aS'ENSG00000181541'
p5023
aS'ENSG00000109956'
p5024
aS'ENSG00000169862'
p5025
aS'ENSG00000121764'
p5026
aS'ENSG00000128564'
p5027
aS'ENSG00000149295'
p5028
aS'ENSG00000139220'
p5029
aS'ENSG00000144834'
p5030
aS'ENSG00000139200'
p5031
aS'ENSG00000155980'
p5032
aS'ENSG00000103546'
p5033
atRp5034
ssS'goldenrod4'
p5035
(dp5036
g25
g26
((lp5037
S'ENSG00000066933'
p5038
aS'ENSG00000198198'
p5039
aS'ENSG00000148341'
p5040
aS'ENSG00000198885'
p5041
aS'ENSG00000179178'
p5042
aS'ENSG00000112303'
p5043
aS'ENSG00000103657'
p5044
aS'ENSG00000180383'
p5045
atRp5046
ssS'goldenrod1'
p5047
(dp5048
g25
g26
((lp5049
S'ENSG00000116157'
p5050
aS'ENSG00000180113'
p5051
aS'ENSG00000124019'
p5052
aS'ENSG00000115998'
p5053
aS'ENSG00000152133'
p5054
aS'ENSG00000102531'
p5055
atRp5056
ssS'goldenrod2'
p5057
(dp5058
g25
g26
((lp5059
S'ENSG00000108953'
p5060
aS'ENSG00000104472'
p5061
aS'ENSG00000179115'
p5062
aS'ENSG00000099956'
p5063
aS'ENSG00000180957'
p5064
aS'ENSG00000164855'
p5065
atRp5066
ssS'goldenrod3'
p5067
(dp5068
g25
g26
((lp5069
S'ENSG00000057252'
p5070
aS'ENSG00000156502'
p5071
aS'ENSG00000170122'
p5072
aS'ENSG00000174175'
p5073
aS'ENSG00000136574'
p5074
aS'ENSG00000082516'
p5075
aS'ENSG00000156469'
p5076
atRp5077
ssS'darkgoldenrod'
p5078
(dp5079
g4
(lp5080
(lp5081
S'ENSG00000197321'
p5082
aFinf
ag8
(g10
S'u\xf1\xb1\xb2|\xa5r?'
tRp5083
ag8
(g10
S'\x80\xf1\xb1\xb2|\xa5r?'
tRp5084
aasg25
g26
((lp5085
S'ENSG00000026508'
p5086
aS'ENSG00000183423'
p5087
aS'ENSG00000162782'
p5088
aS'ENSG00000128594'
p5089
aS'ENSG00000198538'
p5090
aS'ENSG00000180245'
p5091
aS'ENSG00000239332'
p5092
atRp5093
ssS'lightcyan1'
p5094
(dp5095
g4
(lp5096
(lp5097
S'ENSG00000187398'
p5098
aFinf
ag8
(g10
S'\x1d>\xfb\x88|\xc3%?'
tRp5099
ag8
(g10
S'\x00.P\x88f:o?'
tRp5100
aasg25
g26
((lp5101
S'ENSG00000180287'
p5102
aS'ENSG00000153721'
p5103
aS'ENSG00000171811'
p5104
aS'ENSG00000165181'
p5105
aS'ENSG00000162981'
p5106
aS'ENSG00000148468'
p5107
aS'ENSG00000131351'
p5108
aS'ENSG00000112232'
p5109
aS'ENSG00000130720'
p5110
aS'ENSG00000225614'
p5111
aS'ENSG00000005108'
p5112
aS'ENSG00000157103'
p5113
aS'ENSG00000101204'
p5114
aS'ENSG00000251692'
p5115
aS'ENSG00000132915'
p5116
atRp5117
ssS'sandybrown'
p5118
(dp5119
g4
(lp5120
(lp5121
S'ENSG00000102452'
p5122
aFinf
ag8
(g10
S'{\xec\x97C\xa6\xdcX?'
tRp5123
ag8
(g10
S'\x00h\xbfJ?\x9er?'
tRp5124
aa(lp5125
g605
aFinf
ag8
(g10
S'2\xf1\x97C\xa6\xdch?'
tRp5126
ag8
(g10
S'\x80~,\xce\xfd\xd2x?'
tRp5127
aa(lp5128
g610
aFinf
ag8
(g10
S'2\xf1\x97C\xa6\xdch?'
tRp5129
ag8
(g10
S'\x80~,\xce\xfd\xd2x?'
tRp5130
aasg25
g26
((lp5131
S'ENSG00000075568'
p5132
aS'ENSG00000146453'
p5133
aS'ENSG00000198246'
p5134
aS'ENSG00000167103'
p5135
aS'ENSG00000198948'
p5136
atRp5137
ssS'burlywood3'
p5138
(dp5139
g4
(lp5140
(lp5141
S'ENSG00000129450'
p5142
aFinf
ag8
(g10
S'\x88\xec\x97C\xa6\xdch?'
tRp5143
ag8
(g10
S'\xc0kX\x7f\xcfM\xa8?'
tRp5144
aasg25
g26
((lp5145
S'ENSG00000168995'
p5146
aS'ENSG00000198342'
p5147
aS'ENSG00000042317'
p5148
aS'ENSG00000084444'
p5149
aS'ENSG00000168661'
p5150
aS'ENSG00000163864'
p5151
aS'ENSG00000173258'
p5152
atRp5153
ssS'ivory3'
p5154
(dp5155
g25
g26
((lp5156
S'ENSG00000143156'
p5157
aS'ENSG00000171566'
p5158
aS'ENSG00000106290'
p5159
aS'ENSG00000036448'
p5160
aS'ENSG00000140632'
p5161
atRp5162
ssS'steelblue1'
p5163
(dp5164
g25
g26
((lp5165
S'ENSG00000114544'
p5166
aS'ENSG00000127463'
p5167
aS'ENSG00000077549'
p5168
aS'ENSG00000101474'
p5169
aS'ENSG00000136213'
p5170
aS'ENSG00000093010'
p5171
aS'ENSG00000167522'
p5172
atRp5173
ssS'mistyrose2'
p5174
(dp5175
g25
g26
((lp5176
S'ENSG00000254647'
p5177
aS'ENSG00000166965'
p5178
aS'ENSG00000153956'
p5179
aS'ENSG00000102904'
p5180
aS'ENSG00000137103'
p5181
aS'ENSG00000196152'
p5182
aS'ENSG00000161558'
p5183
aS'ENSG00000052749'
p5184
atRp5185
ssS'ivory4'
p5186
(dp5187
g4
(lp5188
(lp5189
S'ENSG00000108852'
p5190
aFinf
ag8
(g10
S'u\xf1\xb1\xb2|\xa5r?'
tRp5191
ag8
(g10
S'\x80\xc71r\xfd\x84\x92?'
tRp5192
aasg25
g26
((lp5193
S'ENSG00000198039'
p5194
aS'ENSG00000065675'
p5195
aS'ENSG00000170011'
p5196
aS'ENSG00000078053'
p5197
aS'ENSG00000196355'
p5198
atRp5199
ssS'darkorange'
p5200
(dp5201
g25
g26
((lp5202
S'ENSG00000177432'
p5203
aS'ENSG00000176049'
p5204
aS'ENSG00000091527'
p5205
aS'ENSG00000163214'
p5206
aS'ENSG00000166816'
p5207
aS'ENSG00000163704'
p5208
aS'ENSG00000107929'
p5209
aS'ENSG00000107937'
p5210
aS'ENSG00000136286'
p5211
aS'ENSG00000197748'
p5212
aS'ENSG00000159307'
p5213
aS'ENSG00000154174'
p5214
aS'ENSG00000100075'
p5215
aS'ENSG00000184117'
p5216
aS'ENSG00000147606'
p5217
aS'ENSG00000138400'
p5218
aS'ENSG00000104450'
p5219
atRp5220
ssS'firebrick1'
p5221
(dp5222
g4
(lp5223
(lp5224
S'ENSG00000108387'
p5225
aFinf
ag8
(g10
S'{\xec\x97C\xa6\xdcX?'
tRp5226
ag8
(g10
S'\xc0\xe6\xa9I\xec\xcc\x8b?'
tRp5227
aa(lp5228
S'ENSG00000146122'
p5229
aFinf
ag8
(g10
S'{\xec\x97C\xa6\xdcX?'
tRp5230
ag8
(g10
S'\xc0\xe6\xa9I\xec\xcc\x8b?'
tRp5231
aa(lp5232
S'ENSG00000111012'
p5233
aFinf
ag8
(g10
S'2\xf1\x97C\xa6\xdch?'
tRp5234
ag8
(g10
S'\x005\xfd\x87\x9e\x8e\x95?'
tRp5235
aa(lp5236
S'ENSG00000264672'
p5237
aFinf
ag8
(g10
S'\xd1\xed\xb1\xb2|\xa5r?'
tRp5238
ag8
(g10
S' x\xaf\xde;\xa7\x9b?'
tRp5239
aa(lp5240
S'ENSG00000100065'
p5241
aFinf
ag8
(g10
S'\x93\xe9\x97C\xa6\xdcx?'
tRp5242
ag8
(g10
S' x\xaf\xde;\xa7\x9b?'
tRp5243
aa(lp5244
g130
aFinf
ag8
(g10
S'\xd1\xed\xb1\xb2|\xa5r?'
tRp5245
ag8
(g10
S' x\xaf\xde;\xa7\x9b?'
tRp5246
aa(lp5247
S'ENSG00000137819'
p5248
aFinf
ag8
(g10
S'l\xf1\xb1\xb2|\xa5\x82?'
tRp5249
ag8
(g10
S' V\xcc\x99<\xb7\x9b?'
tRp5250
aa(lp5251
S'ENSG00000162522'
p5252
aFinf
ag8
(g10
S'l\xf1\xb1\xb2|\xa5\x82?'
tRp5253
ag8
(g10
S' V\xcc\x99<\xb7\x9b?'
tRp5254
aa(lp5255
g134
aFinf
ag8
(g10
S'4f^\xdf\xdbN\xa7?'
tRp5256
ag8
(g10
S'0f^\xdf\xdbN\xa7?'
tRp5257
aasg25
g26
((lp5258
S'ENSG00000186364'
p5259
aS'ENSG00000164484'
p5260
aS'ENSG00000083168'
p5261
aS'ENSG00000070018'
p5262
aS'ENSG00000169410'
p5263
aS'ENSG00000056661'
p5264
aS'ENSG00000170745'
p5265
atRp5266
ssS'lightcyan4'
p5267
(dp5268
g25
g26
((lp5269
S'ENSG00000171135'
p5270
aS'ENSG00000167311'
p5271
aS'ENSG00000188687'
p5272
aS'ENSG00000163702'
p5273
aS'ENSG00000196557'
p5274
atRp5275
ssS'palegoldenrod'
p5276
(dp5277
g25
g26
((lp5278
S'ENSG00000179979'
p5279
aS'ENSG00000163945'
p5280
aS'ENSG00000108474'
p5281
aS'ENSG00000157259'
p5282
aS'ENSG00000163281'
p5283
atRp5284
ssS'pink1'
p5285
(dp5286
g25
g26
((lp5287
S'ENSG00000011376'
p5288
aS'ENSG00000132423'
p5289
aS'ENSG00000174373'
p5290
aS'ENSG00000122965'
p5291
aS'ENSG00000157895'
p5292
aS'ENSG00000036672'
p5293
aS'ENSG00000205212'
p5294
aS'ENSG00000258572'
p5295
aS'ENSG00000168827'
p5296
atRp5297
ssS'pink3'
p5298
(dp5299
g25
g26
((lp5300
S'ENSG00000081320'
p5301
aS'ENSG00000247596'
p5302
aS'ENSG00000114867'
p5303
aS'ENSG00000086062'
p5304
aS'ENSG00000113712'
p5305
aS'ENSG00000128482'
p5306
aS'ENSG00000176393'
p5307
aS'ENSG00000163347'
p5308
aS'ENSG00000148396'
p5309
aS'ENSG00000164088'
p5310
atRp5311
ssS'pink2'
p5312
(dp5313
g25
g26
((lp5314
S'ENSG00000170579'
p5315
aS'ENSG00000105619'
p5316
aS'ENSG00000187145'
p5317
aS'ENSG00000024862'
p5318
aS'ENSG00000177426'
p5319
aS'ENSG00000163960'
p5320
aS'ENSG00000145908'
p5321
aS'ENSG00000257103'
p5322
aS'ENSG00000100028'
p5323
atRp5324
ssS'pink4'
p5325
(dp5326
g4
(lp5327
(lp5328
S'ENSG00000084734'
p5329
aFinf
ag8
(g10
S'\x88\xec\x97C\xa6\xdch?'
tRp5330
ag8
(g10
S'\xc0(L\xe2\xbb\xbf\x88?'
tRp5331
aa(lp5332
S'ENSG00000115226'
p5333
ag8
(g10
S'\x00\x00\x00\x00\x00\x80\x84@'
tRp5334
ag8
(g10
S"\xf1?\xeb'\xd0\xd7x?"
tRp5335
ag8
(g10
S'\xc0y\x7f\xfb\xfc\x84\x92?'
tRp5336
aa(lp5337
g1877
ag8
(g10
S'\x00\x00\x00\x00\x00\x80\x84@'
tRp5338
ag8
(g10
S"\xf1?\xeb'\xd0\xd7x?"
tRp5339
ag8
(g10
S'\xc0y\x7f\xfb\xfc\x84\x92?'
tRp5340
aa(lp5341
g1768
ag8
(g10
S'\x00\x00\x00\x00\x00\x80\x84@'
tRp5342
ag8
(g10
S"\xf1?\xeb'\xd0\xd7x?"
tRp5343
ag8
(g10
S'\xc0y\x7f\xfb\xfc\x84\x92?'
tRp5344
aasg25
g26
((lp5345
S'ENSG00000254852'
p5346
aS'ENSG00000152642'
p5347
aS'ENSG00000160007'
p5348
aS'ENSG00000111224'
p5349
aS'ENSG00000145246'
p5350
aS'ENSG00000131374'
p5351
aS'ENSG00000177025'
p5352
aS'ENSG00000171109'
p5353
aS'ENSG00000197555'
p5354
aS'ENSG00000176919'
p5355
aS'ENSG00000114473'
p5356
aS'ENSG00000140297'
p5357
atRp5358
ssS'darkolivegreen4'
p5359
(dp5360
g4
(lp5361
(lp5362
S'ENSG00000140538'
p5363
aFinf
ag8
(g10
S'{\xec\x97C\xa6\xdcX?'
tRp5364
ag8
(g10
S'\x00\xec\x97C\xa6\xdcX?'
tRp5365
aasg25
g26
((lp5366
S'ENSG00000167693'
p5367
aS'ENSG00000149489'
p5368
aS'ENSG00000168765'
p5369
aS'ENSG00000139910'
p5370
aS'ENSG00000213366'
p5371
aS'ENSG00000184206'
p5372
aS'ENSG00000144815'
p5373
aS'ENSG00000134201'
p5374
aS'ENSG00000134202'
p5375
aS'ENSG00000134184'
p5376
aS'ENSG00000100968'
p5377
aS'ENSG00000170430'
p5378
atRp5379
ssS'lightyellow3'
p5380
(dp5381
g25
g26
((lp5382
S'ENSG00000204538'
p5383
aS'ENSG00000167384'
p5384
aS'ENSG00000197889'
p5385
aS'ENSG00000198467'
p5386
aS'ENSG00000154781'
p5387
aS'ENSG00000204540'
p5388
atRp5389
ssS'darkolivegreen1'
p5390
(dp5391
g25
g26
((lp5392
S'ENSG00000186815'
p5393
aS'ENSG00000100284'
p5394
aS'ENSG00000177669'
p5395
aS'ENSG00000149311'
p5396
aS'ENSG00000112992'
p5397
aS'ENSG00000143951'
p5398
aS'ENSG00000164904'
p5399
aS'ENSG00000226180'
p5400
aS'ENSG00000188559'
p5401
aS'ENSG00000151376'
p5402
atRp5403
ssS'lightyellow'
p5404
(dp5405
g25
g26
((lp5406
S'ENSG00000160883'
p5407
aS'ENSG00000120688'
p5408
aS'ENSG00000119878'
p5409
aS'ENSG00000143442'
p5410
aS'ENSG00000123607'
p5411
aS'ENSG00000182362'
p5412
aS'ENSG00000172345'
p5413
aS'ENSG00000116701'
p5414
aS'ENSG00000179134'
p5415
aS'ENSG00000244482'
p5416
aS'ENSG00000141664'
p5417
aS'ENSG00000182372'
p5418
aS'ENSG00000102858'
p5419
aS'ENSG00000135838'
p5420
aS'ENSG00000163220'
p5421
aS'ENSG00000113593'
p5422
aS'ENSG00000146352'
p5423
aS'ENSG00000021488'
p5424
atRp5425
ssS'lavenderblush'
p5426
(dp5427
g25
g26
((lp5428
S'ENSG00000185608'
p5429
aS'ENSG00000162817'
p5430
aS'ENSG00000116141'
p5431
aS'ENSG00000087191'
p5432
aS'ENSG00000109113'
p5433
aS'ENSG00000168137'
p5434
aS'ENSG00000129518'
p5435
aS'ENSG00000176386'
p5436
aS'ENSG00000135314'
p5437
aS'ENSG00000167525'
p5438
atRp5439
ssS'lightskyblue4'
p5440
(dp5441
g4
(lp5442
(lp5443
S'ENSG00000107562'
p5444
aFinf
ag8
(g10
S'\x88\xec\x97C\xa6\xdch?'
tRp5445
ag8
(g10
S'\x801\xfd\x87\x9e\x8e\x95?'
tRp5446
aasg25
g26
((lp5447
S'ENSG00000174950'
p5448
aS'ENSG00000156384'
p5449
aS'ENSG00000108950'
p5450
aS'ENSG00000153896'
p5451
aS'ENSG00000188677'
p5452
aS'ENSG00000114115'
p5453
aS'ENSG00000178184'
p5454
aS'ENSG00000074319'
p5455
aS'ENSG00000102977'
p5456
aS'ENSG00000022556'
p5457
atRp5458
ssS'azure4'
p5459
(dp5460
g25
g26
((lp5461
S'ENSG00000136878'
p5462
aS'ENSG00000256053'
p5463
aS'ENSG00000104969'
p5464
aS'ENSG00000008838'
p5465
aS'ENSG00000143740'
p5466
atRp5467
ssS'firebrick'
p5468
(dp5469
g4
(lp5470
(lp5471
g1681
ag8
(g10
S'\x16\xb2\x90\x85,d;@'
tRp5472
ag8
(g10
S'\x08\x14\xa3`\xb9\x90P?'
tRp5473
ag8
(g10
S'\xa0*\x1b\x04\x82\x89\x96?'
tRp5474
aasg25
g26
((lp5475
S'ENSG00000246223'
p5476
aS'ENSG00000131386'
p5477
aS'ENSG00000248099'
p5478
aS'ENSG00000196196'
p5479
aS'ENSG00000153162'
p5480
aS'ENSG00000109163'
p5481
aS'ENSG00000154016'
p5482
aS'ENSG00000085063'
p5483
aS'ENSG00000168447'
p5484
atRp5485
ssS'indianred'
p5486
(dp5487
g25
g26
((lp5488
S'ENSG00000148719'
p5489
aS'ENSG00000142065'
p5490
aS'ENSG00000186501'
p5491
aS'ENSG00000143801'
p5492
aS'ENSG00000087502'
p5493
aS'ENSG00000119943'
p5494
aS'ENSG00000168491'
p5495
aS'ENSG00000152689'
p5496
aS'ENSG00000129158'
p5497
atRp5498
ssS'darkolivegreen'
p5499
(dp5500
g4
(lp5501
(lp5502
g134
ag8
(g10
S'\x1c\xc7q\x1c\xc7qQ@'
tRp5503
ag8
(g10
S'\x16|\x0f3!\xb95?'
tRp5504
ag8
(g10
S'\x80z\x84\xc0zQt?'
tRp5505
aasg25
g26
((lp5506
S'ENSG00000259803'
p5507
aS'ENSG00000147883'
p5508
aS'ENSG00000232070'
p5509
aS'ENSG00000178538'
p5510
aS'ENSG00000109466'
p5511
aS'ENSG00000139144'
p5512
aS'ENSG00000254550'
p5513
aS'ENSG00000176715'
p5514
aS'ENSG00000180999'
p5515
aS'ENSG00000171557'
p5516
aS'ENSG00000198382'
p5517
aS'ENSG00000165392'
p5518
aS'ENSG00000112139'
p5519
aS'ENSG00000175170'
p5520
aS'ENSG00000099937'
p5521
aS'ENSG00000138587'
p5522
atRp5523
ssS'lightsteelblue1'
p5524
(dp5525
g4
(lp5526
(lp5527
S'ENSG00000081818'
p5528
ag8
(g10
S'\x00\x00\x00\x00\x00x\x94@'
tRp5529
ag8
(g10
S'\r\xc9\xb7?\xd5\xbd\x05?'
tRp5530
ag8
(g10
S'\x00\xe0G\x9f3N ?'
tRp5531
aa(lp5532
g3412
ag8
(g10
S'UUUUU5{@'
tRp5533
ag8
(g10
S']\x85S\x90\xc5\x14"?'
tRp5534
ag8
(g10
S'\x00\x90\xf5\xd4s\x142?'
tRp5535
aa(lp5536
S'ENSG00000184226'
p5537
aFinf
ag8
(g10
S'u\xf1\xb1\xb2|\xa5r?'
tRp5538
ag8
(g10
S'\x80\xf1\xb1\xb2|\xa5r?'
tRp5539
aasg25
g26
((lp5540
S'ENSG00000197479'
p5541
aS'ENSG00000205078'
p5542
aS'ENSG00000154832'
p5543
aS'ENSG00000146085'
p5544
aS'ENSG00000139370'
p5545
aS'ENSG00000183628'
p5546
aS'ENSG00000239389'
p5547
aS'ENSG00000120328'
p5548
aS'ENSG00000138696'
p5549
aS'ENSG00000253910'
p5550
aS'ENSG00000174194'
p5551
aS'ENSG00000117151'
p5552
aS'ENSG00000120324'
p5553
aS'ENSG00000135951'
p5554
aS'ENSG00000138660'
p5555
atRp5556
ssS'lightsteelblue4'
p5557
(dp5558
g25
g26
((lp5559
S'ENSG00000183346'
p5560
aS'ENSG00000213077'
p5561
aS'ENSG00000268838'
p5562
aS'ENSG00000151353'
p5563
aS'ENSG00000142794'
p5564
atRp5565
ssS'darkgoldenrod4'
p5566
(dp5567
g25
g26
((lp5568
S'ENSG00000188603'
p5569
aS'ENSG00000112110'
p5570
aS'ENSG00000083444'
p5571
aS'ENSG00000166228'
p5572
aS'ENSG00000175334'
p5573
aS'ENSG00000099864'
p5574
aS'ENSG00000100591'
p5575
aS'ENSG00000116791'
p5576
aS'ENSG00000112186'
p5577
atRp5578
ssS'magenta4'
p5579
(dp5580
g4
(lp5581
(lp5582
g4957
aFinf
ag8
(g10
S'\xd1\xed\xb1\xb2|\xa5r?'
tRp5583
ag8
(g10
S'\xf0\x8e\xf1q0\x18\xa0?'
tRp5584
aa(lp5585
g4961
aFinf
ag8
(g10
S'\x93\xe9\x97C\xa6\xdcx?'
tRp5586
ag8
(g10
S'\xb0R[\xa6\xa2]\xa2?'
tRp5587
aa(lp5588
g4965
aFinf
ag8
(g10
S')\xed}\xd4\xcf\x13\x7f?'
tRp5589
ag8
(g10
S'\x109\xb1\xcf\x7f!\xa3?'
tRp5590
aasg25
g26
((lp5591
S'ENSG00000075234'
p5592
aS'ENSG00000071242'
p5593
aS'ENSG00000164031'
p5594
aS'ENSG00000164187'
p5595
aS'ENSG00000233822'
p5596
aS'ENSG00000124374'
p5597
aS'ENSG00000169738'
p5598
aS'ENSG00000127580'
p5599
aS'ENSG00000105866'
p5600
aS'ENSG00000141540'
p5601
aS'ENSG00000166676'
p5602
aS'ENSG00000166402'
p5603
atRp5604
ssS'magenta3'
p5605
(dp5606
g25
g26
((lp5607
S'ENSG00000144182'
p5608
aS'ENSG00000160323'
p5609
aS'ENSG00000186889'
p5610
aS'ENSG00000197568'
p5611
aS'ENSG00000168070'
p5612
aS'ENSG00000245017'
p5613
aS'ENSG00000135045'
p5614
aS'ENSG00000066185'
p5615
aS'ENSG00000099942'
p5616
aS'ENSG00000162337'
p5617
aS'ENSG00000061273'
p5618
atRp5619
ssS'darkgoldenrod1'
p5620
(dp5621
g4
(lp5622
(lp5623
S'ENSG00000198910'
p5624
aFinf
ag8
(g10
S'I\xee\x97C\xa6\xdc\x88?'
tRp5625
ag8
(g10
S'0t\xb0\xf9\xc5k\xa2?'
tRp5626
aa(lp5627
g18
aFinf
ag8
(g10
S'g\xe9}\xd4\xcf\x13\x9f?'
tRp5628
ag8
(g10
S' R<\x98b\x8f\xa8?'
tRp5629
aa(lp5630
g22
aFinf
ag8
(g10
S'\x91\xe6\x97C\xa6\xdc\x98?'
tRp5631
ag8
(g10
S' R<\x98b\x8f\xa8?'
tRp5632
aasg25
g26
((lp5633
S'ENSG00000124302'
p5634
aS'ENSG00000112812'
p5635
aS'ENSG00000180979'
p5636
aS'ENSG00000188785'
p5637
aS'ENSG00000180822'
p5638
aS'ENSG00000102710'
p5639
aS'ENSG00000103202'
p5640
aS'ENSG00000113068'
p5641
atRp5642
ssS'magenta1'
p5643
(dp5644
g25
g26
((lp5645
S'ENSG00000110318'
p5646
aS'ENSG00000166349'
p5647
aS'ENSG00000161618'
p5648
aS'ENSG00000161010'
p5649
aS'ENSG00000167280'
p5650
aS'ENSG00000173209'
p5651
aS'ENSG00000064545'
p5652
aS'ENSG00000164070'
p5653
aS'ENSG00000171903'
p5654
atRp5655
ssS'darkgoldenrod3'
p5656
(dp5657
g25
g26
((lp5658
S'ENSG00000101307'
p5659
aS'ENSG00000241106'
p5660
aS'ENSG00000232629'
p5661
aS'ENSG00000237541'
p5662
aS'ENSG00000105501'
p5663
aS'ENSG00000164308'
p5664
aS'ENSG00000170866'
p5665
aS'ENSG00000172322'
p5666
atRp5667
ssS'springgreen'
p5668
(dp5669
g4
(lp5670
(lp5671
g1188
aFinf
ag8
(g10
S'+\xef\xb1\xb2|\xa5\xa2?'
tRp5672
ag8
(g10
S'0\xef\xb1\xb2|\xa5\xa2?'
tRp5673
aasg25
g26
((lp5674
S'ENSG00000100726'
p5675
aS'ENSG00000181218'
p5676
aS'ENSG00000185946'
p5677
aS'ENSG00000269514'
p5678
aS'ENSG00000066032'
p5679
atRp5680
ssS'turquoise'
p5681
(dp5682
g4
(lp5683
(lp5684
S'ENSG00000171848'
p5685
ag8
(g10
S'\x00\x00\x00\x00\x00\x80J@'
tRp5686
ag8
(g10
S'2\x0bk\xa6\x06\x9c1?'
tRp5687
ag8
(g10
S'\x80h\x0bl"\xcc\x7f?'
tRp5688
aa(lp5689
S'ENSG00000237649'
p5690
aFinf
ag8
(g10
S'\xba\x0f\x19\x9d\x15\xbdO?'
tRp5691
ag8
(g10
S'\x80\x8fj\x16Ci\x9b?'
tRp5692
aa(lp5693
S'ENSG00000146670'
p5694
aFinf
ag8
(g10
S'\xba\x0f\x19\x9d\x15\xbdO?'
tRp5695
ag8
(g10
S'\x80\x8fj\x16Ci\x9b?'
tRp5696
aa(lp5697
S'ENSG00000123485'
p5698
aFinf
ag8
(g10
S'\xba\x0f\x19\x9d\x15\xbdO?'
tRp5699
ag8
(g10
S'\x80\x8fj\x16Ci\x9b?'
tRp5700
aasg25
g26
((lp5701
S'ENSG00000078900'
p5702
aS'ENSG00000087250'
p5703
aS'ENSG00000138658'
p5704
aS'ENSG00000162063'
p5705
aS'ENSG00000165152'
p5706
aS'ENSG00000092853'
p5707
aS'ENSG00000166289'
p5708
aS'ENSG00000013810'
p5709
aS'ENSG00000198554'
p5710
aS'ENSG00000132507'
p5711
aS'ENSG00000105486'
p5712
aS'ENSG00000214562'
p5713
aS'ENSG00000153714'
p5714
aS'ENSG00000171320'
p5715
aS'ENSG00000151876'
p5716
aS'ENSG00000007171'
p5717
aS'ENSG00000132436'
p5718
aS'ENSG00000154134'
p5719
aS'ENSG00000158525'
p5720
aS'ENSG00000072864'
p5721
aS'ENSG00000129173'
p5722
aS'ENSG00000105185'
p5723
aS'ENSG00000174371'
p5724
aS'ENSG00000137709'
p5725
aS'ENSG00000110768'
p5726
aS'ENSG00000156802'
p5727
aS'ENSG00000136492'
p5728
aS'ENSG00000127337'
p5729
aS'ENSG00000164045'
p5730
aS'ENSG00000014138'
p5731
aS'ENSG00000012963'
p5732
aS'ENSG00000117748'
p5733
aS'ENSG00000135913'
p5734
aS'ENSG00000205795'
p5735
aS'ENSG00000180998'
p5736
aS'ENSG00000172687'
p5737
aS'ENSG00000138376'
p5738
aS'ENSG00000072571'
p5739
aS'ENSG00000196584'
p5740
aS'ENSG00000105699'
p5741
aS'ENSG00000187605'
p5742
aS'ENSG00000156970'
p5743
aS'ENSG00000004777'
p5744
aS'ENSG00000075275'
p5745
aS'ENSG00000136108'
p5746
aS'ENSG00000160949'
p5747
aS'ENSG00000120539'
p5748
aS'ENSG00000130311'
p5749
aS'ENSG00000161800'
p5750
aS'ENSG00000165568'
p5751
aS'ENSG00000182168'
p5752
aS'ENSG00000169689'
p5753
aS'ENSG00000228716'
p5754
aS'ENSG00000189306'
p5755
aS'ENSG00000136982'
p5756
aS'ENSG00000140830'
p5757
aS'ENSG00000168411'
p5758
aS'ENSG00000123219'
p5759
aS'ENSG00000104738'
p5760
aS'ENSG00000121957'
p5761
aS'ENSG00000161888'
p5762
aS'ENSG00000138801'
p5763
aS'ENSG00000171848'
p5764
aS'ENSG00000151470'
p5765
aS'ENSG00000054967'
p5766
aS'ENSG00000269430'
p5767
aS'ENSG00000112118'
p5768
aS'ENSG00000130669'
p5769
aS'ENSG00000107902'
p5770
aS'ENSG00000035499'
p5771
aS'ENSG00000171608'
p5772
aS'ENSG00000181778'
p5773
aS'ENSG00000140534'
p5774
aS'ENSG00000101057'
p5775
aS'ENSG00000128791'
p5776
aS'ENSG00000119906'
p5777
aS'ENSG00000223496'
p5778
aS'ENSG00000242616'
p5779
aS'ENSG00000091129'
p5780
aS'ENSG00000114861'
p5781
aS'ENSG00000164626'
p5782
aS'ENSG00000175643'
p5783
aS'ENSG00000124839'
p5784
aS'ENSG00000014164'
p5785
aS'ENSG00000153044'
p5786
aS'ENSG00000077514'
p5787
aS'ENSG00000167670'
p5788
aS'ENSG00000213347'
p5789
aS'ENSG00000125885'
p5790
aS'ENSG00000143228'
p5791
aS'ENSG00000182481'
p5792
atRp5793
ssS'cyan1'
p5794
(dp5795
g25
g26
((lp5796
S'ENSG00000112339'
p5797
aS'ENSG00000168517'
p5798
aS'ENSG00000204351'
p5799
aS'ENSG00000146707'
p5800
aS'ENSG00000092094'
p5801
aS'ENSG00000188372'
p5802
aS'ENSG00000172922'
p5803
atRp5804
ssS'darkgreen'
p5805
(dp5806
g4
(lp5807
(lp5808
S'ENSG00000198851'
p5809
ag8
(g10
S'UUUUU\xf5j@'
tRp5810
ag8
(g10
S'\x93H\x9f\xad\x16\xc0\x9a>'
tRp5811
ag8
(g10
S'\x00\x00T\x06\n\xb8\xe0>'
tRp5812
aa(lp5813
S'ENSG00000162739'
p5814
ag8
(g10
S'\xb7m\xdb\xb6m[q@'
tRp5815
ag8
(g10
S'\xcd\x83\xf0W\xe3\x07\xe5>'
tRp5816
ag8
(g10
S'\x00\x80YB\xca\xf8(?'
tRp5817
aa(lp5818
S'ENSG00000100385'
p5819
aFinf
ag8
(g10
S'\x83\r:\xab[4+?'
tRp5820
ag8
(g10
S'\x00D3\x81\x18\x8dn?'
tRp5821
aa(lp5822
S'ENSG00000182866'
p5823
ag8
(g10
S'\x00\x00\x00\x00\x008T@'
tRp5824
ag8
(g10
S'\x82#BT\xce\x12T?'
tRp5825
ag8
(g10
S'\xc0\xef\x9b\xb3\xca\x1e\x95?'
tRp5826
aa(lp5827
S'ENSG00000116824'
p5828
ag8
(g10
S'\x00\x00\x00\x00\x008T@'
tRp5829
ag8
(g10
S'\x82#BT\xce\x12T?'
tRp5830
ag8
(g10
S'\xc0\xef\x9b\xb3\xca\x1e\x95?'
tRp5831
aasg25
g26
((lp5832
S'ENSG00000105717'
p5833
aS'ENSG00000172543'
p5834
aS'ENSG00000146285'
p5835
aS'ENSG00000172116'
p5836
aS'ENSG00000185905'
p5837
aS'ENSG00000205268'
p5838
aS'ENSG00000020633'
p5839
aS'ENSG00000213402'
p5840
aS'ENSG00000136104'
p5841
aS'ENSG00000227507'
p5842
aS'ENSG00000106948'
p5843
aS'ENSG00000146904'
p5844
aS'ENSG00000138755'
p5845
aS'ENSG00000122224'
p5846
aS'ENSG00000089639'
p5847
aS'ENSG00000106367'
p5848
aS'ENSG00000125910'
p5849
atRp5850
ssS'peachpuff4'
p5851
(dp5852
g4
(lp5853
(lp5854
g3218
aFinf
ag8
(g10
S'\x88\xcf\xd0\x9d\xf5\x8dD?'
tRp5855
ag8
(g10
S'\x00\xe8E9\xfd\xcf^?'
tRp5856
aa(lp5857
S'ENSG00000235568'
p5858
aFinf
ag8
(g10
S'\x88\xec\x97C\xa6\xdch?'
tRp5859
ag8
(g10
S'\x80z,\xce\xfd\xd2x?'
tRp5860
aa(lp5861
S'ENSG00000162511'
p5862
ag8
(g10
S'\x00\x00\x00\x00\x00xt@'
tRp5863
ag8
(g10
S'\xca\xe1.\x89;\x9e\x82?'
tRp5864
ag8
(g10
S'\xc0\xe1.\x89;\x9e\x82?'
tRp5865
aasg25
g26
((lp5866
S'ENSG00000143815'
p5867
aS'ENSG00000169629'
p5868
aS'ENSG00000064547'
p5869
aS'ENSG00000138964'
p5870
aS'ENSG00000174885'
p5871
aS'ENSG00000142102'
p5872
aS'ENSG00000119535'
p5873
atRp5874
ssS'slateblue4'
p5875
(dp5876
g4
(lp5877
(lp5878
S'ENSG00000129244'
p5879
aFinf
ag8
(g10
S'u\xf1\xb1\xb2|\xa5r?'
tRp5880
ag8
(g10
S'\xb0<L\xae\x18\xd6\xa6?'
tRp5881
aasg25
g26
((lp5882
S'ENSG00000175322'
p5883
aS'ENSG00000131781'
p5884
aS'ENSG00000146242'
p5885
aS'ENSG00000157214'
p5886
aS'ENSG00000006740'
p5887
aS'ENSG00000186907'
p5888
aS'ENSG00000164647'
p5889
atRp5890
ssS'slateblue3'
p5891
(dp5892
g25
g26
((lp5893
S'ENSG00000204516'
p5894
aS'ENSG00000130856'
p5895
aS'ENSG00000188895'
p5896
aS'ENSG00000085788'
p5897
aS'ENSG00000128254'
p5898
aS'ENSG00000161904'
p5899
aS'ENSG00000148384'
p5900
aS'ENSG00000167962'
p5901
atRp5902
ssS'peachpuff1'
p5903
(dp5904
g25
g26
((lp5905
S'ENSG00000108219'
p5906
aS'ENSG00000196418'
p5907
aS'ENSG00000168671'
p5908
aS'ENSG00000188554'
p5909
aS'ENSG00000154035'
p5910
aS'ENSG00000182359'
p5911
atRp5912
ssS'peachpuff2'
p5913
(dp5914
g25
g26
((lp5915
S'ENSG00000153822'
p5916
aS'ENSG00000171819'
p5917
aS'ENSG00000127249'
p5918
aS'ENSG00000102683'
p5919
aS'ENSG00000057294'
p5920
aS'ENSG00000092295'
p5921
atRp5922
ssS'peachpuff3'
p5923
(dp5924
g25
g26
((lp5925
S'ENSG00000122376'
p5926
aS'ENSG00000110756'
p5927
aS'ENSG00000130177'
p5928
aS'ENSG00000234719'
p5929
aS'ENSG00000183067'
p5930
aS'ENSG00000169764'
p5931
aS'ENSG00000114670'
p5932
atRp5933
ssS'olivedrab3'
p5934
(dp5935
g25
g26
((lp5936
S'ENSG00000169592'
p5937
aS'ENSG00000144043'
p5938
aS'ENSG00000188997'
p5939
aS'ENSG00000127578'
p5940
aS'ENSG00000171962'
p5941
aS'ENSG00000119977'
p5942
aS'ENSG00000250317'
p5943
atRp5944
ssS'slateblue2'
p5945
(dp5946
g25
g26
((lp5947
S'ENSG00000113658'
p5948
aS'ENSG00000037749'
p5949
aS'ENSG00000174109'
p5950
aS'ENSG00000183397'
p5951
aS'ENSG00000138443'
p5952
aS'ENSG00000163138'
p5953
aS'ENSG00000196689'
p5954
aS'ENSG00000070476'
p5955
aS'ENSG00000181027'
p5956
atRp5957
ssS'royalblue4'
p5958
(dp5959
g25
g26
((lp5960
S'ENSG00000029725'
p5961
aS'ENSG00000064419'
p5962
aS'ENSG00000115839'
p5963
aS'ENSG00000095321'
p5964
aS'ENSG00000137106'
p5965
aS'ENSG00000089486'
p5966
atRp5967
ssS'yellowgreen'
p5968
(dp5969
g4
(lp5970
(lp5971
S'ENSG00000101187'
p5972
aFinf
ag8
(g10
S'\x88\xec\x97C\xa6\xdch?'
tRp5973
ag8
(g10
S'\xc0(L\xe2\xbb\xbf\x88?'
tRp5974
aa(lp5975
S'ENSG00000164776'
p5976
aFinf
ag8
(g10
S'\x88\xec\x97C\xa6\xdch?'
tRp5977
ag8
(g10
S'\xc0(L\xe2\xbb\xbf\x88?'
tRp5978
aa(lp5979
S'ENSG00000174611'
p5980
aFinf
ag8
(g10
S'\x88\xec\x97C\xa6\xdch?'
tRp5981
ag8
(g10
S'\xc0(L\xe2\xbb\xbf\x88?'
tRp5982
aa(lp5983
S'ENSG00000133878'
p5984
ag8
(g10
S'\xcd\xcc\xcc\xcc\xccL`@'
tRp5985
ag8
(g10
S'nn\xea\xcaY\x93\x92?'
tRp5986
ag8
(g10
S'`n\xea\xcaY\x93\x92?'
tRp5987
aasg25
g26
((lp5988
S'ENSG00000175575'
p5989
aS'ENSG00000111432'
p5990
aS'ENSG00000164211'
p5991
aS'ENSG00000123095'
p5992
aS'ENSG00000072042'
p5993
aS'ENSG00000123096'
p5994
aS'ENSG00000185591'
p5995
aS'ENSG00000140006'
p5996
aS'ENSG00000181240'
p5997
aS'ENSG00000085465'
p5998
aS'ENSG00000143630'
p5999
aS'ENSG00000146281'
p6000
aS'ENSG00000108590'
p6001
aS'ENSG00000235878'
p6002
aS'ENSG00000156875'
p6003
aS'ENSG00000123427'
p6004
atRp6005
ssS'lightgoldenrod1'
p6006
(dp6007
g25
g26
((lp6008
S'ENSG00000104714'
p6009
aS'ENSG00000156265'
p6010
aS'ENSG00000153898'
p6011
aS'ENSG00000141570'
p6012
aS'ENSG00000133895'
p6013
aS'ENSG00000151806'
p6014
atRp6015
ssS'slateblue1'
p6016
(dp6017
g25
g26
((lp6018
S'ENSG00000173825'
p6019
aS'ENSG00000143373'
p6020
aS'ENSG00000124279'
p6021
aS'ENSG00000083844'
p6022
aS'ENSG00000173960'
p6023
aS'ENSG00000083828'
p6024
aS'ENSG00000174007'
p6025
aS'ENSG00000124177'
p6026
aS'ENSG00000168291'
p6027
atRp6028
ssS'lightgoldenrod3'
p6029
(dp6030
g4
(lp6031
(lp6032
S'ENSG00000073350'
p6033
aFinf
ag8
(g10
S')\xed}\xd4\xcf\x13\x7f?'
tRp6034
ag8
(g10
S"\x00'\x8ee\xa1\xf5\x8e?"
tRp6035
aa(lp6036
g1245
aFinf
ag8
(g10
S'I\xee\x97C\xa6\xdc\x88?'
tRp6037
ag8
(g10
S"\x00'\x8ee\xa1\xf5\x8e?"
tRp6038
aasg25
g26
((lp6039
S'ENSG00000162408'
p6040
aS'ENSG00000177685'
p6041
aS'ENSG00000152620'
p6042
aS'ENSG00000116198'
p6043
aS'ENSG00000177697'
p6044
aS'ENSG00000197020'
p6045
aS'ENSG00000146223'
p6046
atRp6047
ssS'lightgoldenrod2'
p6048
(dp6049
g4
(lp6050
(lp6051
S'ENSG00000069122'
p6052
ag8
(g10
S'\x00\x00\x00\x00\x00pd@'
tRp6053
ag8
(g10
S'\xeat&cz\xe2\x8b?'
tRp6054
ag8
(g10
S'pC\x01(K\xa1\xa4?'
tRp6055
aa(lp6056
S'ENSG00000127329'
p6057
ag8
(g10
S'\x00\x00\x00\x00\x00pd@'
tRp6058
ag8
(g10
S'\xeat&cz\xe2\x8b?'
tRp6059
ag8
(g10
S'pC\x01(K\xa1\xa4?'
tRp6060
aasg25
g26
((lp6061
S'ENSG00000189269'
p6062
aS'ENSG00000115339'
p6063
aS'ENSG00000157322'
p6064
aS'ENSG00000171243'
p6065
aS'ENSG00000103460'
p6066
aS'ENSG00000157335'
p6067
atRp6068
ssS'orchid'
p6069
(dp6070
g4
(lp6071
(lp6072
S'ENSG00000167613'
p6073
aFinf
ag8
(g10
S'2\xf1\x97C\xa6\xdch?'
tRp6074
ag8
(g10
S'\x80,L\xe2\xbb\xbf\x88?'
tRp6075
aa(lp6076
S'ENSG00000011600'
p6077
aFinf
ag8
(g10
S')\xed}\xd4\xcf\x13\x7f?'
tRp6078
ag8
(g10
S'\x80\xd7\xa1\x88\xb3!\x97?'
tRp6079
aa(lp6080
g3218
aFinf
ag8
(g10
S'\x18m\xd1\xa7pj\x9a?'
tRp6081
ag8
(g10
S'`\xf9\x9a9V\xc7\x9b?'
tRp6082
aa(lp6083
g3222
aFinf
ag8
(g10
S'\x81\xed\n\x0c;\xf8\x8b?'
tRp6084
ag8
(g10
S'`\xf9\x9a9V\xc7\x9b?'
tRp6085
aasg25
g26
((lp6086
S'ENSG00000257218'
p6087
aS'ENSG00000114450'
p6088
aS'ENSG00000254087'
p6089
aS'ENSG00000069943'
p6090
aS'ENSG00000155130'
p6091
aS'ENSG00000082074'
p6092
atRp6093
ssS'purple'
p6094
(dp6095
g25
g26
((lp6096
S'ENSG00000185774'
p6097
aS'ENSG00000168032'
p6098
aS'ENSG00000180767'
p6099
aS'ENSG00000239305'
p6100
aS'ENSG00000186654'
p6101
aS'ENSG00000114520'
p6102
aS'ENSG00000152582'
p6103
aS'ENSG00000122203'
p6104
aS'ENSG00000171766'
p6105
aS'ENSG00000103248'
p6106
aS'ENSG00000125611'
p6107
aS'ENSG00000151917'
p6108
aS'ENSG00000142484'
p6109
aS'ENSG00000105971'
p6110
aS'ENSG00000166183'
p6111
aS'ENSG00000134463'
p6112
aS'ENSG00000163810'
p6113
aS'ENSG00000143125'
p6114
aS'ENSG00000138756'
p6115
aS'ENSG00000169006'
p6116
aS'ENSG00000075539'
p6117
aS'ENSG00000136371'
p6118
atRp6119
ssS'thistle3'
p6120
(dp6121
g25
g26
((lp6122
S'ENSG00000084072'
p6123
aS'ENSG00000167768'
p6124
aS'ENSG00000120693'
p6125
aS'ENSG00000140955'
p6126
aS'ENSG00000103168'
p6127
aS'ENSG00000142748'
p6128
aS'ENSG00000174564'
p6129
aS'ENSG00000165810'
p6130
aS'ENSG00000106991'
p6131
aS'ENSG00000164707'
p6132
aS'ENSG00000062524'
p6133
aS'ENSG00000161649'
p6134
atRp6135
ssS'wheat1'
p6136
(dp6137
g25
g26
((lp6138
S'ENSG00000039123'
p6139
aS'ENSG00000106263'
p6140
aS'ENSG00000065427'
p6141
aS'ENSG00000018699'
p6142
aS'ENSG00000087365'
p6143
aS'ENSG00000000419'
p6144
aS'ENSG00000069248'
p6145
aS'ENSG00000013374'
p6146
atRp6147
ssS'wheat3'
p6148
(dp6149
g4
(lp6150
(lp6151
S'ENSG00000227591'
p6152
aFinf
ag8
(g10
S'{\xec\x97C\xa6\xdcX?'
tRp6153
ag8
(g10
S'\x00\xec\x97C\xa6\xdcX?'
tRp6154
aasg25
g26
((lp6155
S'ENSG00000184492'
p6156
aS'ENSG00000253598'
p6157
aS'ENSG00000118762'
p6158
aS'ENSG00000256269'
p6159
aS'ENSG00000164111'
p6160
aS'ENSG00000170017'
p6161
aS'ENSG00000156172'
p6162
aS'ENSG00000068745'
p6163
aS'ENSG00000168268'
p6164
atRp6165
ssS'wheat2'
p6166
(dp6167
g25
g26
((lp6168
S'ENSG00000160226'
p6169
aS'ENSG00000182534'
p6170
aS'ENSG00000099817'
p6171
aS'ENSG00000106404'
p6172
aS'ENSG00000171103'
p6173
atRp6174
ssS'indianred4'
p6175
(dp6176
g25
g26
((lp6177
S'ENSG00000171813'
p6178
aS'ENSG00000120322'
p6179
aS'ENSG00000137171'
p6180
aS'ENSG00000140961'
p6181
aS'ENSG00000196381'
p6182
aS'ENSG00000063127'
p6183
aS'ENSG00000105053'
p6184
aS'ENSG00000157540'
p6185
aS'ENSG00000169062'
p6186
aS'ENSG00000142188'
p6187
aS'ENSG00000155542'
p6188
aS'ENSG00000100461'
p6189
aS'ENSG00000175518'
p6190
atRp6191
ssS'coral2'
p6192
(dp6193
g25
g26
((lp6194
S'ENSG00000154114'
p6195
aS'ENSG00000092969'
p6196
aS'ENSG00000106128'
p6197
aS'ENSG00000133687'
p6198
aS'ENSG00000167644'
p6199
aS'ENSG00000170382'
p6200
aS'ENSG00000204228'
p6201
aS'ENSG00000140545'
p6202
aS'ENSG00000183077'
p6203
aS'ENSG00000198959'
p6204
aS'ENSG00000128274'
p6205
aS'ENSG00000144810'
p6206
aS'ENSG00000100767'
p6207
atRp6208
ssS'coral1'
p6209
(dp6210
g25
g26
((lp6211
S'ENSG00000078237'
p6212
aS'ENSG00000105738'
p6213
aS'ENSG00000196935'
p6214
aS'ENSG00000010282'
p6215
aS'ENSG00000196072'
p6216
aS'ENSG00000167656'
p6217
aS'ENSG00000137563'
p6218
aS'ENSG00000196482'
p6219
aS'ENSG00000244694'
p6220
aS'ENSG00000164338'
p6221
aS'ENSG00000224877'
p6222
aS'ENSG00000185088'
p6223
aS'ENSG00000135679'
p6224
atRp6225
ssS'rosybrown4'
p6226
(dp6227
g25
g26
((lp6228
S'ENSG00000184925'
p6229
aS'ENSG00000185958'
p6230
aS'ENSG00000157823'
p6231
aS'ENSG00000109854'
p6232
aS'ENSG00000166866'
p6233
aS'ENSG00000166863'
p6234
aS'ENSG00000164307'
p6235
aS'ENSG00000155666'
p6236
atRp6237
ssS'rosybrown3'
p6238
(dp6239
g25
g26
((lp6240
S'ENSG00000186532'
p6241
aS'ENSG00000105676'
p6242
aS'ENSG00000117481'
p6243
aS'ENSG00000171174'
p6244
aS'ENSG00000141252'
p6245
aS'ENSG00000178882'
p6246
aS'ENSG00000168237'
p6247
aS'ENSG00000111203'
p6248
atRp6249
ssS'deepskyblue2'
p6250
(dp6251
g25
g26
((lp6252
S'ENSG00000079974'
p6253
aS'ENSG00000187166'
p6254
aS'ENSG00000159063'
p6255
aS'ENSG00000214087'
p6256
aS'ENSG00000144134'
p6257
aS'ENSG00000197376'
p6258
atRp6259
ssS'indianred2'
p6260
(dp6261
g4
(lp6262
(lp6263
S'ENSG00000186310'
p6264
aFinf
ag8
(g10
S'\x88\xec\x97C\xa6\xdch?'
tRp6265
ag8
(g10
S'\xa0";ij\x81\x92?'
tRp6266
aa(lp6267
S'ENSG00000179083'
p6268
aFinf
ag8
(g10
S'\x88\xec\x97C\xa6\xdch?'
tRp6269
ag8
(g10
S'\xa0";ij\x81\x92?'
tRp6270
aasg25
g26
((lp6271
S'ENSG00000139835'
p6272
aS'ENSG00000128266'
p6273
aS'ENSG00000044459'
p6274
aS'ENSG00000185519'
p6275
aS'ENSG00000197775'
p6276
aS'ENSG00000003249'
p6277
aS'ENSG00000168778'
p6278
aS'ENSG00000173852'
p6279
aS'ENSG00000108556'
p6280
aS'ENSG00000102882'
p6281
atRp6282
ssS'coral4'
p6283
(dp6284
g25
g26
((lp6285
S'ENSG00000138161'
p6286
aS'ENSG00000151445'
p6287
aS'ENSG00000006194'
p6288
aS'ENSG00000121542'
p6289
aS'ENSG00000134014'
p6290
aS'ENSG00000112592'
p6291
aS'ENSG00000186026'
p6292
aS'ENSG00000198912'
p6293
aS'ENSG00000116353'
p6294
aS'ENSG00000167840'
p6295
atRp6296
ssS'khaki'
p6297
(dp6298
g25
g26
((lp6299
S'ENSG00000184983'
p6300
aS'ENSG00000136014'
p6301
aS'ENSG00000163320'
p6302
aS'ENSG00000163528'
p6303
aS'ENSG00000143631'
p6304
aS'ENSG00000104859'
p6305
atRp6306
ssS'wheat'
p6307
(dp6308
g25
g26
((lp6309
S'ENSG00000228300'
p6310
aS'ENSG00000161999'
p6311
aS'ENSG00000013306'
p6312
aS'ENSG00000104979'
p6313
aS'ENSG00000105726'
p6314
aS'ENSG00000185324'
p6315
atRp6316
ssS'deepskyblue'
p6317
(dp6318
g4
(lp6319
(lp6320
S'ENSG00000115604'
p6321
aFinf
ag8
(g10
S'2\xf1\x97C\xa6\xdch?'
tRp6322
ag8
(g10
S'@\xd6\x85\xff\xaa\xe3\x8e?'
tRp6323
aa(lp6324
S'ENSG00000103196'
p6325
aFinf
ag8
(g10
S'2\xf1\x97C\xa6\xdch?'
tRp6326
ag8
(g10
S'@\xd6\x85\xff\xaa\xe3\x8e?'
tRp6327
aa(lp6328
S'ENSG00000115602'
p6329
aFinf
ag8
(g10
S'2\xf1\x97C\xa6\xdch?'
tRp6330
ag8
(g10
S'@\xd6\x85\xff\xaa\xe3\x8e?'
tRp6331
aa(lp6332
g4742
aFinf
ag8
(g10
S'\x93\xe9\x97C\xa6\xdcx?'
tRp6333
ag8
(g10
S'@\xd6\x85\xff\xaa\xe3\x8e?'
tRp6334
aa(lp6335
S'ENSG00000116962'
p6336
aFinf
ag8
(g10
S'\xd1\xed\xb1\xb2|\xa5r?'
tRp6337
ag8
(g10
S'@\xd6\x85\xff\xaa\xe3\x8e?'
tRp6338
aasg25
g26
((lp6339
S'ENSG00000111252'
p6340
aS'ENSG00000106153'
p6341
aS'ENSG00000197927'
p6342
aS'ENSG00000103510'
p6343
aS'ENSG00000177464'
p6344
aS'ENSG00000158859'
p6345
aS'ENSG00000185290'
p6346
aS'ENSG00000154945'
p6347
atRp6348
ssS'coral'
p6349
(dp6350
g25
g26
((lp6351
S'ENSG00000197191'
p6352
aS'ENSG00000007237'
p6353
aS'ENSG00000149231'
p6354
aS'ENSG00000169599'
p6355
aS'ENSG00000170390'
p6356
aS'ENSG00000128585'
p6357
aS'ENSG00000173988'
p6358
aS'ENSG00000130396'
p6359
aS'ENSG00000122674'
p6360
aS'ENSG00000168228'
p6361
aS'ENSG00000159593'
p6362
aS'ENSG00000131943'
p6363
atRp6364
ssS'beige'
p6365
(dp6366
g25
g26
((lp6367
S'ENSG00000172375'
p6368
aS'ENSG00000215012'
p6369
aS'ENSG00000152749'
p6370
aS'ENSG00000176624'
p6371
aS'ENSG00000006432'
p6372
aS'ENSG00000131437'
p6373
atRp6374
ssS'dodgerblue1'
p6375
(dp6376
g4
(lp6377
(lp6378
S'ENSG00000080709'
p6379
aFinf
ag8
(g10
S'l\xf1\xb1\xb2|\xa5\x82?'
tRp6380
ag8
(g10
S'\xc0/\x80\xaa\xc1\x8f\x92?'
tRp6381
aa(lp6382
g3654
aFinf
ag8
(g10
S'\xec\xb5[\x1c\xcdP\xa0?'
tRp6383
ag8
(g10
S'\xf0\xb5[\x1c\xcdP\xa0?'
tRp6384
aasg25
g26
((lp6385
S'ENSG00000155755'
p6386
aS'ENSG00000173517'
p6387
aS'ENSG00000158161'
p6388
aS'ENSG00000068383'
p6389
aS'ENSG00000082805'
p6390
aS'ENSG00000100897'
p6391
aS'ENSG00000175175'
p6392
atRp6393
ssS'dodgerblue2'
p6394
(dp6395
g25
g26
((lp6396
S'ENSG00000100271'
p6397
aS'ENSG00000010165'
p6398
aS'ENSG00000138375'
p6399
aS'ENSG00000197181'
p6400
aS'ENSG00000107159'
p6401
aS'ENSG00000114779'
p6402
aS'ENSG00000138764'
p6403
atRp6404
ssS'dodgerblue3'
p6405
(dp6406
g25
g26
((lp6407
S'ENSG00000032742'
p6408
aS'ENSG00000080822'
p6409
aS'ENSG00000104863'
p6410
aS'ENSG00000140386'
p6411
aS'ENSG00000205531'
p6412
aS'ENSG00000111581'
p6413
aS'ENSG00000042088'
p6414
aS'ENSG00000095002'
p6415
atRp6416
ssS'dodgerblue4'
p6417
(dp6418
g25
g26
((lp6419
S'ENSG00000125124'
p6420
aS'ENSG00000187210'
p6421
aS'ENSG00000160282'
p6422
aS'ENSG00000160284'
p6423
aS'ENSG00000183060'
p6424
aS'ENSG00000177946'
p6425
aS'ENSG00000169085'
p6426
aS'ENSG00000181513'
p6427
atRp6428
ssS'mediumvioletred'
p6429
(dp6430
g25
g26
((lp6431
S'ENSG00000158985'
p6432
aS'ENSG00000104219'
p6433
aS'ENSG00000174891'
p6434
aS'ENSG00000063244'
p6435
aS'ENSG00000114978'
p6436
aS'ENSG00000172531'
p6437
atRp6438
ssS'snow4'
p6439
(dp6440
g4
(lp6441
(lp6442
S'ENSG00000157388'
p6443
aFinf
ag8
(g10
S'u\xf1\xb1\xb2|\xa5r?'
tRp6444
ag8
(g10
S'\x80\xf1\xb1\xb2|\xa5r?'
tRp6445
aasg25
g26
((lp6446
S'ENSG00000198336'
p6447
aS'ENSG00000071894'
p6448
aS'ENSG00000011590'
p6449
aS'ENSG00000155657'
p6450
aS'ENSG00000120215'
p6451
aS'ENSG00000086967'
p6452
atRp6453
ssS'snow2'
p6454
(dp6455
g4
(lp6456
(lp6457
S'ENSG00000017427'
p6458
aFinf
ag8
(g10
S'{\xec\x97C\xa6\xdcX?'
tRp6459
ag8
(g10
S'\x00h\xbfJ?\x9er?'
tRp6460
aa(lp6461
S'ENSG00000168079'
p6462
aFinf
ag8
(g10
S'\xd1\xed\xb1\xb2|\xa5r?'
tRp6463
ag8
(g10
S'\x00\r\x99.\x9f\x9a\x82?'
tRp6464
aa(lp6465
S'ENSG00000174348'
p6466
aFinf
ag8
(g10
S'\x81\xed\n\x0c;\xf8\x8b?'
tRp6467
ag8
(g10
S'\x80\xed\n\x0c;\xf8\x8b?'
tRp6468
aasg25
g26
((lp6469
S'ENSG00000196345'
p6470
aS'ENSG00000088882'
p6471
aS'ENSG00000204946'
p6472
aS'ENSG00000099994'
p6473
aS'ENSG00000176593'
p6474
aS'ENSG00000115457'
p6475
atRp6476
ssS'lightcoral'
p6477
(dp6478
g25
g26
((lp6479
S'ENSG00000241058'
p6480
aS'ENSG00000008083'
p6481
aS'ENSG00000167785'
p6482
aS'ENSG00000184465'
p6483
aS'ENSG00000111731'
p6484
aS'ENSG00000167775'
p6485
aS'ENSG00000157426'
p6486
aS'ENSG00000135698'
p6487
aS'ENSG00000174306'
p6488
aS'ENSG00000124587'
p6489
aS'ENSG00000005156'
p6490
aS'ENSG00000203546'
p6491
aS'ENSG00000089063'
p6492
atRp6493
ssS'mediumspringgreen'
p6494
(dp6495
g4
(lp6496
(lp6497
g3654
aFinf
ag8
(g10
S'\xec\xb5[\x1c\xcdP\xa0?'
tRp6498
ag8
(g10
S'\xf0\xb5[\x1c\xcdP\xa0?'
tRp6499
aasg25
g26
((lp6500
S'ENSG00000166664'
p6501
aS'ENSG00000141934'
p6502
aS'ENSG00000080709'
p6503
aS'ENSG00000119328'
p6504
aS'ENSG00000205086'
p6505
atRp6506
ssS'blanchedalmond'
p6507
(dp6508
g4
(lp6509
(lp6510
S'ENSG00000120645'
p6511
aFinf
ag8
(g10
S'u\xf1\xb1\xb2|\xa5r?'
tRp6512
ag8
(g10
S'\xa0\x94\x057+\x10\xa9?'
tRp6513
aa(lp6514
S'ENSG00000230910'
p6515
aFinf
ag8
(g10
S'u\xf1\xb1\xb2|\xa5r?'
tRp6516
ag8
(g10
S'\xa0\x94\x057+\x10\xa9?'
tRp6517
aasg25
g26
((lp6518
S'ENSG00000151632'
p6519
aS'ENSG00000187134'
p6520
aS'ENSG00000037757'
p6521
aS'ENSG00000187758'
p6522
aS'ENSG00000115109'
p6523
aS'ENSG00000142657'
p6524
aS'ENSG00000174521'
p6525
aS'ENSG00000016402'
p6526
atRp6527
ssS'ivory'
p6528
(dp6529
g25
g26
((lp6530
S'ENSG00000205209'
p6531
aS'ENSG00000205464'
p6532
aS'ENSG00000109794'
p6533
aS'ENSG00000145287'
p6534
aS'ENSG00000083099'
p6535
aS'ENSG00000206530'
p6536
aS'ENSG00000164252'
p6537
aS'ENSG00000152348'
p6538
aS'ENSG00000153029'
p6539
aS'ENSG00000163006'
p6540
aS'ENSG00000197971'
p6541
aS'ENSG00000110455'
p6542
aS'ENSG00000145476'
p6543
aS'ENSG00000145949'
p6544
aS'ENSG00000156931'
p6545
atRp6546
ssS'lightpink2'
p6547
(dp6548
g4
(lp6549
(lp6550
S'ENSG00000160593'
p6551
aFinf
ag8
(g10
S'{\xec\x97C\xa6\xdcX?'
tRp6552
ag8
(g10
S'\x00\xec\x97C\xa6\xdcX?'
tRp6553
aasg25
g26
((lp6554
S'ENSG00000137731'
p6555
aS'ENSG00000010072'
p6556
aS'ENSG00000005483'
p6557
aS'ENSG00000164902'
p6558
aS'ENSG00000064199'
p6559
aS'ENSG00000125734'
p6560
aS'ENSG00000172650'
p6561
aS'ENSG00000157379'
p6562
aS'ENSG00000167733'
p6563
aS'ENSG00000168397'
p6564
aS'ENSG00000198917'
p6565
atRp6566
ssS'lightpink3'
p6567
(dp6568
g4
(lp6569
(lp6570
S'ENSG00000203747'
p6571
aFinf
ag8
(g10
S'\x88\xec\x97C\xa6\xdch?'
tRp6572
ag8
(g10
S'\xa0";ij\x81\x92?'
tRp6573
aa(lp6574
g1957
ag8
(g10
S'\x00\x00\x00\x00\x00\x80\x84@'
tRp6575
ag8
(g10
S"\xf1?\xeb'\xd0\xd7x?"
tRp6576
ag8
(g10
S' \xe8\x80r\xea\xad\x9e?'
tRp6577
aa(lp6578
g6073
ag8
(g10
S'\x00\x00\x00\x00\x00\x80\x84@'
tRp6579
ag8
(g10
S"\xf1?\xeb'\xd0\xd7x?"
tRp6580
ag8
(g10
S' \xe8\x80r\xea\xad\x9e?'
tRp6581
aa(lp6582
g6077
ag8
(g10
S'\x00\x00\x00\x00\x00hd@'
tRp6583
ag8
(g10
S'\x91\x96\x1eJ\xa1\xfb\x8e?'
tRp6584
ag8
(g10
S' #\x1e\x8a.\xe3\xa6?'
tRp6585
aasg25
g26
((lp6586
S'ENSG00000244607'
p6587
aS'ENSG00000172586'
p6588
aS'ENSG00000157734'
p6589
aS'ENSG00000158623'
p6590
aS'ENSG00000148482'
p6591
aS'ENSG00000172590'
p6592
aS'ENSG00000064115'
p6593
aS'ENSG00000166337'
p6594
aS'ENSG00000162585'
p6595
aS'ENSG00000184517'
p6596
aS'ENSG00000179914'
p6597
aS'ENSG00000170464'
p6598
atRp6599
ssS'forestgreen'
p6600
(dp6601
g4
(lp6602
(lp6603
g2115
ag8
(g10
S'UUUUU5[@'
tRp6604
ag8
(g10
S'\x1b2r\xdd\xbe\x8f\x92?'
tRp6605
ag8
(g10
S' 2r\xdd\xbe\x8f\x92?'
tRp6606
aasg25
g26
((lp6607
S'ENSG00000183172'
p6608
aS'ENSG00000130592'
p6609
aS'ENSG00000116990'
p6610
aS'ENSG00000160593'
p6611
aS'ENSG00000151461'
p6612
aS'ENSG00000173480'
p6613
atRp6614
ssS'lightpink4'
p6615
(dp6616
g25
g26
((lp6617
S'ENSG00000203667'
p6618
aS'ENSG00000138081'
p6619
aS'ENSG00000147889'
p6620
aS'ENSG00000164181'
p6621
aS'ENSG00000140332'
p6622
aS'ENSG00000153187'
p6623
aS'ENSG00000139926'
p6624
aS'ENSG00000071051'
p6625
aS'ENSG00000100490'
p6626
aS'ENSG00000108557'
p6627
aS'ENSG00000101158'
p6628
aS'ENSG00000131941'
p6629
aS'ENSG00000143882'
p6630
aS'ENSG00000205334'
p6631
atRp6632
ssS'cornsilk4'
p6633
(dp6634
g25
g26
((lp6635
S'ENSG00000213676'
p6636
aS'ENSG00000141013'
p6637
aS'ENSG00000221819'
p6638
aS'ENSG00000118997'
p6639
aS'ENSG00000113296'
p6640
atRp6641
ssS'cornsilk2'
p6642
(dp6643
g4
(lp6644
(lp6645
g3218
ag8
(g10
S'\xde\xdd\xdd\xdd\xdd]U@'
tRp6646
ag8
(g10
S'\xbc\xde\xe0\x97\xcd\\^?'
tRp6647
ag8
(g10
S'\x80\x13\xdf\xf7\x92*\x8e?'
tRp6648
aa(lp6649
S'ENSG00000155629'
p6650
aFinf
ag8
(g10
S'u\xf1\xb1\xb2|\xa5r?'
tRp6651
ag8
(g10
S'\xe0\x91\xf1q0\x18\xa0?'
tRp6652
aa(lp6653
S'ENSG00000000938'
p6654
ag8
(g10
S'\x00\x00\x00\x00\x00xt@'
tRp6655
ag8
(g10
S'\xe9\xe8.\x89;\x9e\x82?'
tRp6656
ag8
(g10
S'\xe0\x91\xf1q0\x18\xa0?'
tRp6657
aa(lp6658
S'ENSG00000103569'
p6659
ag8
(g10
S'\x00\x00\x00\x00\x00xt@'
tRp6660
ag8
(g10
S'\xe9\xe8.\x89;\x9e\x82?'
tRp6661
ag8
(g10
S'\xe0\x91\xf1q0\x18\xa0?'
tRp6662
aa(lp6663
S'ENSG00000104972'
p6664
aFinf
ag8
(g10
S'u\xf1\xb1\xb2|\xa5r?'
tRp6665
ag8
(g10
S'\xe0\x91\xf1q0\x18\xa0?'
tRp6666
aa(lp6667
S'ENSG00000140379'
p6668
aFinf
ag8
(g10
S'u\xf1\xb1\xb2|\xa5r?'
tRp6669
ag8
(g10
S'\xe0\x91\xf1q0\x18\xa0?'
tRp6670
aa(lp6671
S'ENSG00000140678'
p6672
aFinf
ag8
(g10
S'u\xf1\xb1\xb2|\xa5r?'
tRp6673
ag8
(g10
S'\xe0\x91\xf1q0\x18\xa0?'
tRp6674
aa(lp6675
S'ENSG00000186407'
p6676
ag8
(g10
S'\x00\x00\x00\x00\x00xt@'
tRp6677
ag8
(g10
S'\xe9\xe8.\x89;\x9e\x82?'
tRp6678
ag8
(g10
S'\xe0\x91\xf1q0\x18\xa0?'
tRp6679
aasg25
g26
((lp6680
S'ENSG00000186517'
p6681
aS'ENSG00000007264'
p6682
aS'ENSG00000130783'
p6683
aS'ENSG00000197265'
p6684
aS'ENSG00000128815'
p6685
aS'ENSG00000197249'
p6686
aS'ENSG00000166501'
p6687
aS'ENSG00000187257'
p6688
atRp6689
ssS'lightgoldenrod4'
p6690
(dp6691
g4
(lp6692
(lp6693
S'ENSG00000107736'
p6694
aFinf
ag8
(g10
S'\x88\xec\x97C\xa6\xdch?'
tRp6695
ag8
(g10
S'\xa0\xa8\xe6\xc7\xeb\xa1\x9b?'
tRp6696
aa(lp6697
S'ENSG00000148053'
p6698
aFinf
ag8
(g10
S'\x88\xec\x97C\xa6\xdch?'
tRp6699
ag8
(g10
S'\xa0\xa8\xe6\xc7\xeb\xa1\x9b?'
tRp6700
aa(lp6701
S'ENSG00000258525'
p6702
aFinf
ag8
(g10
S'\x88\xec\x97C\xa6\xdch?'
tRp6703
ag8
(g10
S'\xa0\xa8\xe6\xc7\xeb\xa1\x9b?'
tRp6704
aa(lp6705
g3254
ag8
(g10
S'\x00\x00\x00\x00\x00\x80\x84@'
tRp6706
ag8
(g10
S"\xf1?\xeb'\xd0\xd7x?"
tRp6707
ag8
(g10
S'\xa0\x10X\xe6\x1dZ\xa2?'
tRp6708
aa(lp6709
S'ENSG00000168309'
p6710
ag8
(g10
S'\x00\x00\x00\x00\x00\x80\x84@'
tRp6711
ag8
(g10
S"\xf1?\xeb'\xd0\xd7x?"
tRp6712
ag8
(g10
S'\xa0\x10X\xe6\x1dZ\xa2?'
tRp6713
aa(lp6714
S'ENSG00000152583'
p6715
ag8
(g10
S'\x00\x00\x00\x00\x00xt@'
tRp6716
ag8
(g10
S'\xca\xe1.\x89;\x9e\x82?'
tRp6717
ag8
(g10
S'\xf0\xe2\xba\xbc\xa1]\xa2?'
tRp6718
aa(lp6719
S'ENSG00000165795'
p6720
ag8
(g10
S'\x00\x00\x00\x00\x00@k@'
tRp6721
ag8
(g10
S'v\xe3\x91\xf0#\xce\x88?'
tRp6722
ag8
(g10
S"`\xdc\x8da'a\xa2?"
tRp6723
aasg25
g26
((lp6724
S'ENSG00000138744'
p6725
aS'ENSG00000177058'
p6726
aS'ENSG00000180346'
p6727
aS'ENSG00000151006'
p6728
aS'ENSG00000167397'
p6729
aS'ENSG00000108578'
p6730
aS'ENSG00000163029'
p6731
aS'ENSG00000105427'
p6732
atRp6733
ssS'royalblue1'
p6734
(dp6735
g25
g26
((lp6736
S'ENSG00000182511'
p6737
aS'ENSG00000160194'
p6738
aS'ENSG00000127952'
p6739
aS'ENSG00000132313'
p6740
aS'ENSG00000196792'
p6741
aS'ENSG00000116095'
p6742
aS'ENSG00000151914'
p6743
atRp6744
ssS'royalblue3'
p6745
(dp6746
g25
g26
((lp6747
S'ENSG00000166896'
p6748
aS'ENSG00000182405'
p6749
aS'ENSG00000113597'
p6750
aS'ENSG00000197372'
p6751
aS'ENSG00000198231'
p6752
aS'ENSG00000204130'
p6753
aS'ENSG00000100583'
p6754
aS'ENSG00000138111'
p6755
aS'ENSG00000075131'
p6756
aS'ENSG00000043514'
p6757
atRp6758
ssS'cadetblue'
p6759
(dp6760
g25
g26
((lp6761
S'ENSG00000100197'
p6762
aS'ENSG00000129493'
p6763
aS'ENSG00000144681'
p6764
aS'ENSG00000197943'
p6765
aS'ENSG00000137860'
p6766
aS'ENSG00000184385'
p6767
atRp6768
ssS'royalblue2'
p6769
(dp6770
g25
g26
((lp6771
S'ENSG00000131467'
p6772
aS'ENSG00000120451'
p6773
aS'ENSG00000171793'
p6774
aS'ENSG00000110801'
p6775
aS'ENSG00000108395'
p6776
aS'ENSG00000269343'
p6777
aS'ENSG00000162520'
p6778
aS'ENSG00000169131'
p6779
aS'ENSG00000065457'
p6780
atRp6781
ssS'maroon'
p6782
(dp6783
g4
(lp6784
(lp6785
S'ENSG00000115041'
p6786
aFinf
ag8
(g10
S'u\xf1\xb1\xb2|\xa5r?'
tRp6787
ag8
(g10
S'\xe0\x91\xf1q0\x18\xa0?'
tRp6788
aa(lp6789
S'ENSG00000168993'
p6790
aFinf
ag8
(g10
S'u\xf1\xb1\xb2|\xa5r?'
tRp6791
ag8
(g10
S'\xe0\x91\xf1q0\x18\xa0?'
tRp6792
aa(lp6793
g6710
ag8
(g10
S'\x00\x00\x00\x00\x00xt@'
tRp6794
ag8
(g10
S'\xe9\xe8.\x89;\x9e\x82?'
tRp6795
ag8
(g10
S'P86\xb1r\xda\xa6?'
tRp6796
aasg25
g26
((lp6797
S'ENSG00000177106'
p6798
aS'ENSG00000078177'
p6799
aS'ENSG00000158711'
p6800
aS'ENSG00000177030'
p6801
aS'ENSG00000146535'
p6802
aS'ENSG00000185924'
p6803
aS'ENSG00000113583'
p6804
aS'ENSG00000141560'
p6805
aS'ENSG00000128805'
p6806
aS'ENSG00000101363'
p6807
aS'ENSG00000158856'
p6808
aS'ENSG00000129991'
p6809
aS'ENSG00000124126'
p6810
aS'ENSG00000167646'
p6811
atRp6812
ssS'cadetblue1'
p6813
(dp6814
g25
g26
((lp6815
S'ENSG00000101190'
p6816
aS'ENSG00000151208'
p6817
aS'ENSG00000111666'
p6818
aS'ENSG00000241399'
p6819
aS'ENSG00000166596'
p6820
atRp6821
ssS'paleturquoise'
p6822
(dp6823
g4
(lp6824
(lp6825
g2301
ag8
(g10
S'\x00\x00\x00\x00\x00\x80\x84@'
tRp6826
ag8
(g10
S"\xf1?\xeb'\xd0\xd7x?"
tRp6827
ag8
(g10
S"\x00@\xeb'\xd0\xd7x?"
tRp6828
aasg25
g26
((lp6829
S'ENSG00000124593'
p6830
aS'ENSG00000106853'
p6831
aS'ENSG00000174370'
p6832
aS'ENSG00000061656'
p6833
aS'ENSG00000012779'
p6834
aS'ENSG00000213123'
p6835
aS'ENSG00000124570'
p6836
aS'ENSG00000108773'
p6837
aS'ENSG00000108515'
p6838
aS'ENSG00000136636'
p6839
aS'ENSG00000132334'
p6840
aS'ENSG00000085491'
p6841
aS'ENSG00000144283'
p6842
aS'ENSG00000053371'
p6843
aS'ENSG00000004534'
p6844
aS'ENSG00000153815'
p6845
atRp6846
ssS'deeppink2'
p6847
(dp6848
g25
g26
((lp6849
S'ENSG00000197822'
p6850
aS'ENSG00000079689'
p6851
aS'ENSG00000172733'
p6852
aS'ENSG00000084710'
p6853
aS'ENSG00000148680'
p6854
aS'ENSG00000137098'
p6855
aS'ENSG00000103540'
p6856
aS'ENSG00000112182'
p6857
aS'ENSG00000204147'
p6858
atRp6859
ssS'deeppink1'
p6860
(dp6861
g25
g26
((lp6862
S'ENSG00000132589'
p6863
aS'ENSG00000110218'
p6864
aS'ENSG00000115750'
p6865
aS'ENSG00000136048'
p6866
aS'ENSG00000153048'
p6867
aS'ENSG00000187147'
p6868
aS'ENSG00000091317'
p6869
aS'ENSG00000137819'
p6870
aS'ENSG00000163866'
p6871
aS'ENSG00000161920'
p6872
atRp6873
ssS'darkorchid'
p6874
(dp6875
g4
(lp6876
(lp6877
S'ENSG00000233930'
p6878
aFinf
ag8
(g10
S'\x88\xec\x97C\xa6\xdch?'
tRp6879
ag8
(g10
S'\x80\xd1\x85\xff\xaa\xe3\x8e?'
tRp6880
aa(lp6881
g7
ag8
(g10
S'\x00\x00\x00\x00\x00xt@'
tRp6882
ag8
(g10
S'\xca\xe1.\x89;\x9e\x82?'
tRp6883
ag8
(g10
S'\xf0\xe2\xba\xbc\xa1]\xa2?'
tRp6884
aa(lp6885
g14
ag8
(g10
S'\x00\x00\x00\x00\x00hd@'
tRp6886
ag8
(g10
S'\x91\x96\x1eJ\xa1\xfb\x8e?'
tRp6887
ag8
(g10
S' #\x1e\x8a.\xe3\xa6?'
tRp6888
aasg25
g26
((lp6889
S'ENSG00000026103'
p6890
aS'ENSG00000135870'
p6891
aS'ENSG00000103852'
p6892
aS'ENSG00000205869'
p6893
aS'ENSG00000182253'
p6894
atRp6895
ssS'hotpink3'
p6896
(dp6897
g25
g26
((lp6898
S'ENSG00000163607'
p6899
aS'ENSG00000117411'
p6900
aS'ENSG00000197951'
p6901
aS'ENSG00000172113'
p6902
aS'ENSG00000125449'
p6903
aS'ENSG00000140521'
p6904
aS'ENSG00000084693'
p6905
atRp6906
ssS'hotpink2'
p6907
(dp6908
g4
(lp6909
(lp6910
S'ENSG00000173114'
p6911
aFinf
ag8
(g10
S'{\xec\x97C\xa6\xdcX?'
tRp6912
ag8
(g10
S'\x003\xe2\x08\xd2\xd7h?'
tRp6913
aa(lp6914
g3654
aFinf
ag8
(g10
S'\xec\xb5[\x1c\xcdP\xa0?'
tRp6915
ag8
(g10
S'\xf0\xb5[\x1c\xcdP\xa0?'
tRp6916
aasg25
g26
((lp6917
S'ENSG00000176209'
p6918
aS'ENSG00000203791'
p6919
aS'ENSG00000161395'
p6920
aS'ENSG00000151413'
p6921
aS'ENSG00000135974'
p6922
aS'ENSG00000234444'
p6923
aS'ENSG00000188269'
p6924
atRp6925
ssS'hotpink1'
p6926
(dp6927
g25
g26
((lp6928
S'ENSG00000135437'
p6929
aS'ENSG00000185043'
p6930
aS'ENSG00000157617'
p6931
aS'ENSG00000113240'
p6932
aS'ENSG00000136457'
p6933
aS'ENSG00000102886'
p6934
atRp6935
ssS'lightgreen'
p6936
(dp6937
g4
(lp6938
(lp6939
S'ENSG00000221818'
p6940
aFinf
ag8
(g10
S']\xa7\x04f\xbd\x81;?'
tRp6941
ag8
(g10
S'\x00\xb2\xce\x8a)\x15\x87?'
tRp6942
aa(lp6943
g6466
ag8
(g10
S'\x8c.\xba\xe8\xa2\x0b=@'
tRp6944
ag8
(g10
S'\x068LD\x87\x8eC?'
tRp6945
ag8
(g10
S'\x80\x8f\xc2\t4\x8b\x8f?'
tRp6946
aa(lp6947
g6462
ag8
(g10
S'UUUUU\xd5Z@'
tRp6948
ag8
(g10
S'\xff\xbb$+\xff`T?'
tRp6949
ag8
(g10
S'`\xa3%A\n_\x9f?'
tRp6950
aasg25
g26
((lp6951
S'ENSG00000049540'
p6952
aS'ENSG00000010319'
p6953
aS'ENSG00000135424'
p6954
aS'ENSG00000168079'
p6955
aS'ENSG00000197769'
p6956
aS'ENSG00000204882'
p6957
aS'ENSG00000017427'
p6958
aS'ENSG00000102606'
p6959
aS'ENSG00000102802'
p6960
aS'ENSG00000205221'
p6961
aS'ENSG00000121898'
p6962
aS'ENSG00000135312'
p6963
aS'ENSG00000169282'
p6964
aS'ENSG00000172724'
p6965
aS'ENSG00000224940'
p6966
aS'ENSG00000101384'
p6967
aS'ENSG00000159387'
p6968
aS'ENSG00000172236'
p6969
atRp6970
ssS'hotpink4'
p6971
(dp6972
g4
(lp6973
(lp6974
S'ENSG00000175745'
p6975
aFinf
ag8
(g10
S'{\xec\x97C\xa6\xdcX?'
tRp6976
ag8
(g10
S'\x00\x89K\x0e\xb4\xfb~?'
tRp6977
aa(lp6978
S'ENSG00000148082'
p6979
aFinf
ag8
(g10
S'{\xec\x97C\xa6\xdcX?'
tRp6980
ag8
(g10
S'\x00\x89K\x0e\xb4\xfb~?'
tRp6981
aa(lp6982
S'ENSG00000179431'
p6983
aFinf
ag8
(g10
S'{\xec\x97C\xa6\xdcX?'
tRp6984
ag8
(g10
S'\x00\x89K\x0e\xb4\xfb~?'
tRp6985
aa(lp6986
g5248
aFinf
ag8
(g10
S'l\xf1\xb1\xb2|\xa5\x82?'
tRp6987
ag8
(g10
S'\xc0/\x80\xaa\xc1\x8f\x92?'
tRp6988
aa(lp6989
g5252
aFinf
ag8
(g10
S'l\xf1\xb1\xb2|\xa5\x82?'
tRp6990
ag8
(g10
S'\xc0/\x80\xaa\xc1\x8f\x92?'
tRp6991
aasg25
g26
((lp6992
S'ENSG00000135930'
p6993
aS'ENSG00000105058'
p6994
aS'ENSG00000117281'
p6995
aS'ENSG00000197323'
p6996
aS'ENSG00000143155'
p6997
aS'ENSG00000146530'
p6998
aS'ENSG00000164091'
p6999
aS'ENSG00000163875'
p7000
atRp7001
ssS'mediumaquamarine'
p7002
(dp7003
g25
g26
((lp7004
S'ENSG00000161980'
p7005
aS'ENSG00000132323'
p7006
aS'ENSG00000172262'
p7007
aS'ENSG00000054282'
p7008
aS'ENSG00000125450'
p7009
aS'ENSG00000176531'
p7010
atRp7011
ssS'brown1'
p7012
(dp7013
g25
g26
((lp7014
S'ENSG00000198133'
p7015
aS'ENSG00000078043'
p7016
aS'ENSG00000213888'
p7017
aS'ENSG00000116675'
p7018
aS'ENSG00000101638'
p7019
aS'ENSG00000110514'
p7020
aS'ENSG00000072310'
p7021
aS'ENSG00000186716'
p7022
aS'ENSG00000162946'
p7023
aS'ENSG00000124782'
p7024
atRp7025
ss.