(dp1
S'tan'
p2
(dp3
S'module_genes'
p4
c__builtin__
set
p5
((lp6
S'ENSG00000107317'
p7
aS'ENSG00000033800'
p8
aS'ENSG00000214871'
p9
aS'ENSG00000108679'
p10
aS'ENSG00000007341'
p11
aS'ENSG00000178691'
p12
aS'ENSG00000178031'
p13
aS'ENSG00000129007'
p14
aS'ENSG00000162998'
p15
aS'ENSG00000064999'
p16
aS'ENSG00000122223'
p17
aS'ENSG00000137478'
p18
aS'ENSG00000261701'
p19
aS'ENSG00000161265'
p20
aS'ENSG00000152348'
p21
aS'ENSG00000140382'
p22
aS'ENSG00000100519'
p23
aS'ENSG00000187954'
p24
aS'ENSG00000214402'
p25
aS'ENSG00000113851'
p26
aS'ENSG00000112874'
p27
aS'ENSG00000221838'
p28
aS'ENSG00000131779'
p29
aS'ENSG00000121440'
p30
aS'ENSG00000112137'
p31
atRp32
ssS'orange4'
p33
(dp34
g4
g5
((lp35
S'ENSG00000145020'
p36
aS'ENSG00000008517'
p37
aS'ENSG00000145029'
p38
aS'ENSG00000168016'
p39
aS'ENSG00000088756'
p40
aS'ENSG00000164307'
p41
aS'ENSG00000189129'
p42
aS'ENSG00000174776'
p43
aS'ENSG00000203877'
p44
aS'ENSG00000173209'
p45
aS'ENSG00000108797'
p46
atRp47
ssS'firebrick'
p48
(dp49
g4
g5
((lp50
S'ENSG00000135387'
p51
aS'ENSG00000256053'
p52
aS'ENSG00000164404'
p53
aS'ENSG00000141698'
p54
aS'ENSG00000057608'
p55
aS'ENSG00000082781'
p56
aS'ENSG00000126775'
p57
aS'ENSG00000142444'
p58
aS'ENSG00000187446'
p59
aS'ENSG00000070770'
p60
atRp61
ssS'indianred'
p62
(dp63
g4
g5
((lp64
S'ENSG00000164754'
p65
aS'ENSG00000130649'
p66
aS'ENSG00000185689'
p67
aS'ENSG00000227057'
p68
aS'ENSG00000114857'
p69
aS'ENSG00000170113'
p70
aS'ENSG00000154845'
p71
aS'ENSG00000131788'
p72
aS'ENSG00000068784'
p73
atRp74
ssS'orange3'
p75
(dp76
S'driver_genes'
p77
(lp78
(lp79
S'ENSG00000049323'
p80
aFinf
acnumpy.core.multiarray
scalar
p81
(cnumpy
dtype
p82
(S'f8'
I0
I1
tRp83
(I3
S'<'
NNNI-1
I-1
I0
tbS'\x07\x0f\x94\x89+\xddk?'
tRp84
ag81
(g83
S'\x80.\x87\xf0\t\xd1{?'
tRp85
aa(lp86
S'ENSG00000121005'
p87
aFinf
ag81
(g83
S'V\x03/\xa7\xe0\xe5t?'
tRp88
ag81
(g83
S'\x80.\x87\xf0\t\xd1{?'
tRp89
aasg4
g5
((lp90
S'ENSG00000173421'
p91
aS'ENSG00000145777'
p92
aS'ENSG00000162396'
p93
aS'ENSG00000117139'
p94
aS'ENSG00000222020'
p95
aS'ENSG00000130731'
p96
aS'ENSG00000196365'
p97
aS'ENSG00000177096'
p98
aS'ENSG00000132436'
p99
atRp100
ssS'darkolivegreen'
p101
(dp102
g77
(lp103
(lp104
S'ENSG00000124212'
p105
aFinf
ag81
(g83
S'\x07\x0f\x94\x89+\xddk?'
tRp106
ag81
(g83
S'\x002[\x94\x01L\x91?'
tRp107
aa(lp108
S'ENSG00000188783'
p109
aFinf
ag81
(g83
S'V\x03/\xa7\xe0\xe5t?'
tRp110
ag81
(g83
S'\xe0\x13\xa7\xdd\x12\xbd\x94?'
tRp111
aa(lp112
S'ENSG00000163431'
p113
aFinf
ag81
(g83
S'V\x03/\xa7\xe0\xe5t?'
tRp114
ag81
(g83
S'\xe0\x13\xa7\xdd\x12\xbd\x94?'
tRp115
aa(lp116
S'ENSG00000168743'
p117
aFinf
ag81
(g83
S'\x0e\x85a\x18\x86a\x88?'
tRp118
ag81
(g83
S'\x00\x15\xaa3_<\x98?'
tRp119
aa(lp120
S'ENSG00000164684'
p121
aFinf
ag81
(g83
S'\x0e\x85a\x18\x86a\x88?'
tRp122
ag81
(g83
S'\x00\x15\xaa3_<\x98?'
tRp123
aasg4
g5
((lp124
S'ENSG00000144214'
p125
aS'ENSG00000087157'
p126
aS'ENSG00000185344'
p127
aS'ENSG00000214872'
p128
aS'ENSG00000140575'
p129
aS'ENSG00000167543'
p130
aS'ENSG00000163710'
p131
aS'ENSG00000181830'
p132
aS'ENSG00000116560'
p133
aS'ENSG00000183396'
p134
aS'ENSG00000232653'
p135
aS'ENSG00000170802'
p136
aS'ENSG00000178338'
p137
aS'ENSG00000172766'
p138
aS'ENSG00000181778'
p139
aS'ENSG00000109501'
p140
aS'ENSG00000151458'
p141
aS'ENSG00000165934'
p142
aS'ENSG00000104388'
p143
atRp144
ssS'grey60'
p145
(dp146
g4
g5
((lp147
S'ENSG00000176974'
p148
aS'ENSG00000221968'
p149
aS'ENSG00000132406'
p150
aS'ENSG00000108771'
p151
aS'ENSG00000038002'
p152
aS'ENSG00000148429'
p153
aS'ENSG00000160213'
p154
aS'ENSG00000115306'
p155
aS'ENSG00000155016'
p156
aS'ENSG00000171747'
p157
aS'ENSG00000066230'
p158
aS'ENSG00000163449'
p159
aS'ENSG00000151422'
p160
aS'ENSG00000243646'
p161
aS'ENSG00000099338'
p162
aS'ENSG00000141391'
p163
aS'ENSG00000007171'
p164
aS'ENSG00000135378'
p165
aS'ENSG00000090447'
p166
aS'ENSG00000166924'
p167
aS'ENSG00000189190'
p168
aS'ENSG00000104660'
p169
aS'ENSG00000141458'
p170
atRp171
ssS'darkseagreen'
p172
(dp173
g77
(lp174
(lp175
S'ENSG00000059804'
p176
ag81
(g83
S'\x00\x00\x00\x00\x00H\x82@'
tRp177
ag81
(g83
S'YW\xda\x17\x18\xd7{?'
tRp178
ag81
(g83
S'\xc0\xd6$b\xc2\x8e\x9b?'
tRp179
aa(lp180
S'ENSG00000081041'
p181
ag81
(g83
S'\x00\x00\x00\x00\x00H\x82@'
tRp182
ag81
(g83
S'YW\xda\x17\x18\xd7{?'
tRp183
ag81
(g83
S'\xc0\xd6$b\xc2\x8e\x9b?'
tRp184
aa(lp185
S'ENSG00000138166'
p186
ag81
(g83
S'\x00\x00\x00\x00\x00H\x82@'
tRp187
ag81
(g83
S'YW\xda\x17\x18\xd7{?'
tRp188
ag81
(g83
S'\xc0\xd6$b\xc2\x8e\x9b?'
tRp189
aa(lp190
S'ENSG00000163734'
p191
ag81
(g83
S'\x00\x00\x00\x00\x00H\x82@'
tRp192
ag81
(g83
S'YW\xda\x17\x18\xd7{?'
tRp193
ag81
(g83
S'\xc0\xd6$b\xc2\x8e\x9b?'
tRp194
aasg4
g5
((lp195
S'ENSG00000140406'
p196
aS'ENSG00000103257'
p197
aS'ENSG00000226124'
p198
aS'ENSG00000171174'
p199
aS'ENSG00000140323'
p200
aS'ENSG00000178460'
p201
aS'ENSG00000125812'
p202
aS'ENSG00000128342'
p203
aS'ENSG00000132906'
p204
aS'ENSG00000142684'
p205
atRp206
ssS'mediumorchid4'
p207
(dp208
g77
(lp209
(lp210
S'ENSG00000165810'
p211
aFinf
ag81
(g83
S'k\x07/\xa7\xe0\xe5t?'
tRp212
ag81
(g83
S'\xc0\x8a\x00\xdb:\xd8\x84?'
tRp213
aa(lp214
S'ENSG00000158869'
p215
ag81
(g83
S'\x00\x00\x00\x00\x00@X@'
tRp216
ag81
(g83
S'$,\xf4\x1d\x91\xca\x94?'
tRp217
ag81
(g83
S' ,\xf4\x1d\x91\xca\x94?'
tRp218
aasg4
g5
((lp219
S'ENSG00000139970'
p220
aS'ENSG00000112110'
p221
aS'ENSG00000188130'
p222
aS'ENSG00000169026'
p223
aS'ENSG00000165810'
p224
aS'ENSG00000204149'
p225
aS'ENSG00000182851'
p226
aS'ENSG00000072786'
p227
aS'ENSG00000161649'
p228
aS'ENSG00000130755'
p229
atRp230
ssS'green4'
p231
(dp232
g77
(lp233
(lp234
S'ENSG00000135472'
p235
ag81
(g83
S'\x00\x00\x00\x00\x00 X@'
tRp236
ag81
(g83
S'\xf6\xa8\x00S\xfd\x17L?'
tRp237
ag81
(g83
S'`\x00\xceH\x7fG\x92?'
tRp238
aasg4
g5
((lp239
S'ENSG00000163132'
p240
aS'ENSG00000063854'
p241
aS'ENSG00000087258'
p242
aS'ENSG00000101306'
p243
aS'ENSG00000175711'
p244
aS'ENSG00000196358'
p245
aS'ENSG00000128604'
p246
aS'ENSG00000197586'
p247
aS'ENSG00000099800'
p248
aS'ENSG00000171840'
p249
aS'ENSG00000198756'
p250
aS'ENSG00000161798'
p251
aS'ENSG00000065882'
p252
atRp253
ssS'green1'
p254
(dp255
g77
(lp256
(lp257
S'ENSG00000120327'
p258
aFinf
ag81
(g83
S'V\x03/\xa7\xe0\xe5t?'
tRp259
ag81
(g83
S'\xc0\x86\x00\xdb:\xd8\x84?'
tRp260
aa(lp261
S'ENSG00000120324'
p262
aFinf
ag81
(g83
S'V\x03/\xa7\xe0\xe5t?'
tRp263
ag81
(g83
S'\xc0\x86\x00\xdb:\xd8\x84?'
tRp264
aasg4
g5
((lp265
S'ENSG00000145817'
p266
aS'ENSG00000115750'
p267
aS'ENSG00000164123'
p268
aS'ENSG00000187372'
p269
aS'ENSG00000177990'
p270
aS'ENSG00000101751'
p271
aS'ENSG00000089063'
p272
atRp273
ssS'green3'
p274
(dp275
g4
g5
((lp276
S'ENSG00000198218'
p277
aS'ENSG00000185627'
p278
aS'ENSG00000157020'
p279
aS'ENSG00000128617'
p280
aS'ENSG00000115806'
p281
aS'ENSG00000108883'
p282
aS'ENSG00000182934'
p283
aS'ENSG00000132254'
p284
aS'ENSG00000143125'
p285
aS'ENSG00000160229'
p286
aS'ENSG00000178252'
p287
atRp288
ssS'green2'
p289
(dp290
g77
(lp291
(lp292
S'ENSG00000075035'
p293
aFinf
ag81
(g83
S'\xbf\t\x94\x89+\xdd[?'
tRp294
ag81
(g83
S'\x80\x94k\xc6\xc8\xdct?'
tRp295
aa(lp296
S'ENSG00000102452'
p297
aFinf
ag81
(g83
S'v\xc8\x95\xee\r(\x93?'
tRp298
ag81
(g83
S'\x00\x0e\xd2\x0e\x95\xca\x94?'
tRp299
aa(lp300
S'ENSG00000233009'
p301
aFinf
ag81
(g83
S'a\x07/\xa7\xe0\xe5\x84?'
tRp302
ag81
(g83
S'\x00\x0e\xd2\x0e\x95\xca\x94?'
tRp303
aasg4
g5
((lp304
S'ENSG00000076650'
p305
aS'ENSG00000163214'
p306
aS'ENSG00000136643'
p307
aS'ENSG00000149488'
p308
aS'ENSG00000164048'
p309
aS'ENSG00000106069'
p310
aS'ENSG00000161618'
p311
aS'ENSG00000268171'
p312
aS'ENSG00000166140'
p313
aS'ENSG00000163904'
p314
atRp315
ssS'darkgoldenrod4'
p316
(dp317
g77
(lp318
(lp319
S'ENSG00000135476'
p320
ag81
(g83
S'\xab\xaa\xaa\xaa\xaaJh@'
tRp321
ag81
(g83
S'C\xe9f4\xf1\xca\x8b?'
tRp322
ag81
(g83
S'\xa0\xd3\xd0\xbe\xd0\xf9\x9e?'
tRp323
aa(lp324
S'ENSG00000137812'
p325
ag81
(g83
S'\xdb\xb6m\xdb\xb6\xadT@'
tRp326
ag81
(g83
S'\x1c \x80m\xa3\xb2\x9b?'
tRp327
ag81
(g83
S'\xa0\xd3\xd0\xbe\xd0\xf9\x9e?'
tRp328
aa(lp329
S'ENSG00000146670'
p330
ag81
(g83
S'\x00\x00\x00\x00\x00@r@'
tRp331
ag81
(g83
S'\x82k\x98|\xc3\xdc\x84?'
tRp332
ag81
(g83
S'\xa0\xd3\xd0\xbe\xd0\xf9\x9e?'
tRp333
aasg4
g5
((lp334
S'ENSG00000175283'
p335
aS'ENSG00000168924'
p336
aS'ENSG00000145354'
p337
aS'ENSG00000205212'
p338
aS'ENSG00000087086'
p339
aS'ENSG00000134042'
p340
aS'ENSG00000136827'
p341
aS'ENSG00000133393'
p342
aS'ENSG00000256977'
p343
aS'ENSG00000169085'
p344
atRp345
ssS'magenta4'
p346
(dp347
g77
(lp348
(lp349
S'ENSG00000186310'
p350
aFinf
ag81
(g83
S'|\x06\x94\x89+\xdd{?'
tRp351
ag81
(g83
S'@EzW\xe8\xc4\x8b?'
tRp352
aa(lp353
S'ENSG00000109472'
p354
aFinf
ag81
(g83
S'\xc4\x0b\x94\x89+\xdd\x8b?'
tRp355
ag81
(g83
S'\xc0\x0b\x94\x89+\xdd\x8b?'
tRp356
aasg4
g5
((lp357
S'ENSG00000196220'
p358
aS'ENSG00000130948'
p359
aS'ENSG00000204538'
p360
aS'ENSG00000108255'
p361
aS'ENSG00000159164'
p362
aS'ENSG00000076662'
p363
aS'ENSG00000169442'
p364
aS'ENSG00000110171'
p365
aS'ENSG00000120675'
p366
aS'ENSG00000197134'
p367
aS'ENSG00000119655'
p368
aS'ENSG00000170425'
p369
aS'ENSG00000184117'
p370
aS'ENSG00000204540'
p371
atRp372
ssS'magenta3'
p373
(dp374
g4
g5
((lp375
S'ENSG00000126432'
p376
aS'ENSG00000239713'
p377
aS'ENSG00000185591'
p378
aS'ENSG00000162976'
p379
aS'ENSG00000152061'
p380
aS'ENSG00000109654'
p381
aS'ENSG00000117632'
p382
aS'ENSG00000204228'
p383
aS'ENSG00000167525'
p384
aS'ENSG00000163960'
p385
aS'ENSG00000139344'
p386
aS'ENSG00000128394'
p387
aS'ENSG00000198482'
p388
atRp389
ssS'magenta2'
p390
(dp391
g77
(lp392
(lp393
S'ENSG00000163220'
p394
aFinf
ag81
(g83
S'\xbf\t\x94\x89+\xdd[?'
tRp395
ag81
(g83
S'\xc0\xae[\xcf\x17[\x81?'
tRp396
aa(lp397
S'ENSG00000067840'
p398
aFinf
ag81
(g83
S'\x07\x0f\x94\x89+\xddk?'
tRp399
ag81
(g83
S'\xc0\xae[\xcf\x17[\x81?'
tRp400
aa(lp401
S'ENSG00000144596'
p402
aFinf
ag81
(g83
S'\xbf\t\x94\x89+\xdd[?'
tRp403
ag81
(g83
S'\xc0\xae[\xcf\x17[\x81?'
tRp404
aa(lp405
S'ENSG00000172508'
p406
aFinf
ag81
(g83
S'\xbf\t\x94\x89+\xdd[?'
tRp407
ag81
(g83
S'\xc0\xae[\xcf\x17[\x81?'
tRp408
aa(lp409
S'ENSG00000221890'
p410
aFinf
ag81
(g83
S'\x0e\x85a\x18\x86a\x88?'
tRp411
ag81
(g83
S'\x00\x85a\x18\x86a\x88?'
tRp412
aasg4
g5
((lp413
S'ENSG00000156414'
p414
aS'ENSG00000106025'
p415
aS'ENSG00000110169'
p416
aS'ENSG00000230567'
p417
aS'ENSG00000138152'
p418
aS'ENSG00000166750'
p419
aS'ENSG00000162148'
p420
aS'ENSG00000100731'
p421
aS'ENSG00000181523'
p422
aS'ENSG00000164591'
p423
aS'ENSG00000102886'
p424
aS'ENSG00000272047'
p425
atRp426
ssS'magenta1'
p427
(dp428
g77
(lp429
(lp430
S'ENSG00000158806'
p431
aFinf
ag81
(g83
S'\xbf\t\x94\x89+\xdd[?'
tRp432
ag81
(g83
S'\x00\n\x94\x89+\xdd[?'
tRp433
aasg4
g5
((lp434
S'ENSG00000123179'
p435
aS'ENSG00000127952'
p436
aS'ENSG00000164124'
p437
aS'ENSG00000167216'
p438
aS'ENSG00000197599'
p439
aS'ENSG00000112139'
p440
aS'ENSG00000106070'
p441
aS'ENSG00000228300'
p442
aS'ENSG00000049089'
p443
aS'ENSG00000185324'
p444
atRp445
ssS'darkgoldenrod3'
p446
(dp447
g4
g5
((lp448
S'ENSG00000132623'
p449
aS'ENSG00000121542'
p450
aS'ENSG00000198848'
p451
aS'ENSG00000169684'
p452
aS'ENSG00000175470'
p453
aS'ENSG00000163554'
p454
aS'ENSG00000090316'
p455
aS'ENSG00000204084'
p456
aS'ENSG00000197165'
p457
atRp458
ssS'skyblue3'
p459
(dp460
g4
g5
((lp461
S'ENSG00000002745'
p462
aS'ENSG00000164220'
p463
aS'ENSG00000168454'
p464
aS'ENSG00000101413'
p465
aS'ENSG00000011028'
p466
aS'ENSG00000148110'
p467
aS'ENSG00000162493'
p468
aS'ENSG00000176209'
p469
aS'ENSG00000131966'
p470
aS'ENSG00000167646'
p471
aS'ENSG00000124813'
p472
aS'ENSG00000205560'
p473
aS'ENSG00000102683'
p474
aS'ENSG00000214435'
p475
aS'ENSG00000181104'
p476
aS'ENSG00000198887'
p477
aS'ENSG00000096696'
p478
aS'ENSG00000157087'
p479
aS'ENSG00000143195'
p480
atRp481
ssS'black'
p482
(dp483
g77
(lp484
(lp485
S'ENSG00000130775'
p486
ag81
(g83
S'\x17]t\xd1E\x17Z@'
tRp487
ag81
(g83
S'*C*h\xec\xefU?'
tRp488
ag81
(g83
S'P\xb3\xe1\x0e\xaa\xdd\xa0?'
tRp489
aasg4
g5
((lp490
S'ENSG00000105185'
p491
aS'ENSG00000240344'
p492
aS'ENSG00000128923'
p493
aS'ENSG00000153237'
p494
aS'ENSG00000178789'
p495
aS'ENSG00000104043'
p496
aS'ENSG00000205595'
p497
aS'ENSG00000182923'
p498
aS'ENSG00000197405'
p499
aS'ENSG00000129055'
p500
aS'ENSG00000122674'
p501
aS'ENSG00000189120'
p502
aS'ENSG00000124164'
p503
aS'ENSG00000117009'
p504
aS'ENSG00000130775'
p505
aS'ENSG00000138400'
p506
aS'ENSG00000124882'
p507
aS'ENSG00000096996'
p508
aS'ENSG00000013306'
p509
aS'ENSG00000119965'
p510
aS'ENSG00000139572'
p511
aS'ENSG00000152556'
p512
aS'ENSG00000166927'
p513
aS'ENSG00000131042'
p514
aS'ENSG00000166928'
p515
aS'ENSG00000105509'
p516
aS'ENSG00000107443'
p517
aS'ENSG00000087589'
p518
atRp519
ssS'yellow2'
p520
(dp521
g4
g5
((lp522
S'ENSG00000074527'
p523
aS'ENSG00000122733'
p524
aS'ENSG00000182240'
p525
aS'ENSG00000141622'
p526
aS'ENSG00000166341'
p527
aS'ENSG00000179639'
p528
aS'ENSG00000147852'
p529
aS'ENSG00000188542'
p530
aS'ENSG00000138755'
p531
aS'ENSG00000137077'
p532
aS'ENSG00000105376'
p533
aS'ENSG00000211452'
p534
aS'ENSG00000142303'
p535
atRp536
ssS'orange'
p537
(dp538
g4
g5
((lp539
S'ENSG00000021762'
p540
aS'ENSG00000141429'
p541
aS'ENSG00000143815'
p542
aS'ENSG00000154928'
p543
aS'ENSG00000203685'
p544
aS'ENSG00000104290'
p545
aS'ENSG00000151640'
p546
aS'ENSG00000177570'
p547
aS'ENSG00000004660'
p548
aS'ENSG00000126746'
p549
aS'ENSG00000001084'
p550
aS'ENSG00000074964'
p551
aS'ENSG00000119718'
p552
aS'ENSG00000145949'
p553
aS'ENSG00000136895'
p554
aS'ENSG00000216921'
p555
aS'ENSG00000170627'
p556
aS'ENSG00000136147'
p557
aS'ENSG00000196470'
p558
aS'ENSG00000187866'
p559
aS'ENSG00000004534'
p560
atRp561
ssS'brown'
p562
(dp563
g4
g5
((lp564
S'ENSG00000121481'
p565
aS'ENSG00000184292'
p566
aS'ENSG00000167103'
p567
aS'ENSG00000065060'
p568
aS'ENSG00000130475'
p569
aS'ENSG00000141959'
p570
aS'ENSG00000126878'
p571
aS'ENSG00000186792'
p572
aS'ENSG00000176472'
p573
aS'ENSG00000180530'
p574
aS'ENSG00000197782'
p575
aS'ENSG00000196357'
p576
aS'ENSG00000178665'
p577
aS'ENSG00000145416'
p578
aS'ENSG00000152749'
p579
aS'ENSG00000145901'
p580
aS'ENSG00000145779'
p581
aS'ENSG00000062725'
p582
aS'ENSG00000115556'
p583
aS'ENSG00000050393'
p584
aS'ENSG00000147364'
p585
aS'ENSG00000177697'
p586
aS'ENSG00000168556'
p587
aS'ENSG00000137714'
p588
aS'ENSG00000150551'
p589
aS'ENSG00000073282'
p590
aS'ENSG00000172273'
p591
aS'ENSG00000215271'
p592
aS'ENSG00000064692'
p593
aS'ENSG00000165474'
p594
aS'ENSG00000139899'
p595
aS'ENSG00000214050'
p596
aS'ENSG00000171953'
p597
aS'ENSG00000140265'
p598
aS'ENSG00000040633'
p599
atRp600
ssS'turquoise'
p601
(dp602
g77
(lp603
(lp604
g325
ag81
(g83
S'F\x17]t\xd1ec@'
tRp605
ag81
(g83
S'\x1e_\x96u\x9b\xbe9>'
tRp606
ag81
(g83
S'\x00\x00\x00\xcen\xf6|>'
tRp607
aa(lp608
S'ENSG00000148773'
p609
aFinf
ag81
(g83
S'\xeb\x9f\x0cZ\xb7\x13G>'
tRp610
ag81
(g83
S'\x00\x00\x80\xae\xf2\x84\x88>'
tRp611
aa(lp612
g320
ag81
(g83
S'\x92$I\x92$\x89^@'
tRp613
ag81
(g83
S'u^\xa5\xd6\xaa\xc5\x14?'
tRp614
ag81
(g83
S'\x00\xdc\xfc\x1b\x82\xc2T?'
tRp615
aa(lp616
g330
ag81
(g83
S'\x00\x00\x00\x00\x00\x00S@'
tRp617
ag81
(g83
S'&P?\x12_\tc?'
tRp618
ag81
(g83
S'\xd0\xfb\xa1\xc85\x8f\xa1?'
tRp619
aasg4
g5
((lp620
S'ENSG00000121211'
p621
aS'ENSG00000136108'
p622
aS'ENSG00000132305'
p623
aS'ENSG00000151725'
p624
aS'ENSG00000170312'
p625
aS'ENSG00000138160'
p626
aS'ENSG00000128944'
p627
aS'ENSG00000160949'
p628
aS'ENSG00000196605'
p629
aS'ENSG00000120539'
p630
aS'ENSG00000176623'
p631
aS'ENSG00000198093'
p632
aS'ENSG00000120334'
p633
aS'ENSG00000106571'
p634
aS'ENSG00000075218'
p635
aS'ENSG00000177663'
p636
aS'ENSG00000113734'
p637
aS'ENSG00000213965'
p638
aS'ENSG00000197914'
p639
aS'ENSG00000111665'
p640
aS'ENSG00000111664'
p641
aS'ENSG00000178386'
p642
aS'ENSG00000006607'
p643
aS'ENSG00000167608'
p644
aS'ENSG00000261567'
p645
aS'ENSG00000167930'
p646
aS'ENSG00000088325'
p647
aS'ENSG00000173080'
p648
aS'ENSG00000182700'
p649
aS'ENSG00000164045'
p650
aS'ENSG00000169258'
p651
aS'ENSG00000100211'
p652
aS'ENSG00000197619'
p653
aS'ENSG00000185187'
p654
aS'ENSG00000175305'
p655
aS'ENSG00000117010'
p656
aS'ENSG00000186777'
p657
aS'ENSG00000267596'
p658
aS'ENSG00000185480'
p659
aS'ENSG00000064300'
p660
aS'ENSG00000076382'
p661
aS'ENSG00000132313'
p662
aS'ENSG00000154839'
p663
aS'ENSG00000100804'
p664
aS'ENSG00000006025'
p665
aS'ENSG00000178187'
p666
aS'ENSG00000168411'
p667
aS'ENSG00000171649'
p668
aS'ENSG00000105136'
p669
aS'ENSG00000170954'
p670
aS'ENSG00000182606'
p671
aS'ENSG00000055955'
p672
aS'ENSG00000123297'
p673
aS'ENSG00000182504'
p674
aS'ENSG00000196584'
p675
aS'ENSG00000109576'
p676
aS'ENSG00000137411'
p677
aS'ENSG00000167740'
p678
aS'ENSG00000175643'
p679
aS'ENSG00000178295'
p680
aS'ENSG00000166436'
p681
aS'ENSG00000166451'
p682
aS'ENSG00000140993'
p683
aS'ENSG00000065328'
p684
aS'ENSG00000165304'
p685
aS'ENSG00000187624'
p686
aS'ENSG00000140451'
p687
aS'ENSG00000137563'
p688
aS'ENSG00000213347'
p689
aS'ENSG00000187741'
p690
aS'ENSG00000118193'
p691
aS'ENSG00000109927'
p692
aS'ENSG00000129173'
p693
aS'ENSG00000123427'
p694
atRp695
ssS'wheat3'
p696
(dp697
g77
(lp698
(lp699
S'ENSG00000115604'
p700
ag81
(g83
S'\x00\x00\x00\x00\x00@r@'
tRp701
ag81
(g83
S'\x82k\x98|\xc3\xdc\x84?'
tRp702
ag81
(g83
S'\x80Dfy\xdf\xbe\x8b?'
tRp703
aa(lp704
S'ENSG00000096060'
p705
ag81
(g83
S'\x00\x00\x00\x00\x00H\x82@'
tRp706
ag81
(g83
S'YW\xda\x17\x18\xd7{?'
tRp707
ag81
(g83
S'\x80Dfy\xdf\xbe\x8b?'
tRp708
aasg4
g5
((lp709
S'ENSG00000165732'
p710
aS'ENSG00000151773'
p711
aS'ENSG00000162782'
p712
aS'ENSG00000114405'
p713
aS'ENSG00000143382'
p714
aS'ENSG00000112578'
p715
aS'ENSG00000135821'
p716
aS'ENSG00000168610'
p717
aS'ENSG00000105835'
p718
atRp719
ssS'antiquewhite3'
p720
(dp721
g4
g5
((lp722
S'ENSG00000115423'
p723
aS'ENSG00000170310'
p724
aS'ENSG00000151651'
p725
aS'ENSG00000198835'
p726
aS'ENSG00000126870'
p727
aS'ENSG00000010626'
p728
atRp729
ssS'antiquewhite2'
p730
(dp731
g4
g5
((lp732
S'ENSG00000188677'
p733
aS'ENSG00000128581'
p734
aS'ENSG00000187607'
p735
aS'ENSG00000188690'
p736
aS'ENSG00000153113'
p737
aS'ENSG00000186522'
p738
aS'ENSG00000198858'
p739
aS'ENSG00000093000'
p740
aS'ENSG00000163380'
p741
aS'ENSG00000155657'
p742
aS'ENSG00000007080'
p743
aS'ENSG00000135968'
p744
aS'ENSG00000086015'
p745
aS'ENSG00000123739'
p746
atRp747
ssS'antiquewhite1'
p748
(dp749
g77
(lp750
(lp751
S'ENSG00000171033'
p752
ag81
(g83
S'\x00\x00\x00\x00\x00@r@'
tRp753
ag81
(g83
S'\x82k\x98|\xc3\xdc\x84?'
tRp754
ag81
(g83
S'\x80k\x98|\xc3\xdc\x84?'
tRp755
aasg4
g5
((lp756
S'ENSG00000163491'
p757
aS'ENSG00000113643'
p758
aS'ENSG00000180767'
p759
aS'ENSG00000144895'
p760
aS'ENSG00000114416'
p761
aS'ENSG00000139842'
p762
aS'ENSG00000135919'
p763
aS'ENSG00000140386'
p764
aS'ENSG00000164122'
p765
aS'ENSG00000135972'
p766
aS'ENSG00000111142'
p767
aS'ENSG00000180185'
p768
aS'ENSG00000133606'
p769
atRp770
ssS'antiquewhite4'
p771
(dp772
g4
g5
((lp773
S'ENSG00000177042'
p774
aS'ENSG00000094755'
p775
aS'ENSG00000179796'
p776
aS'ENSG00000186281'
p777
aS'ENSG00000143315'
p778
aS'ENSG00000011405'
p779
aS'ENSG00000010539'
p780
aS'ENSG00000171729'
p781
aS'ENSG00000139921'
p782
aS'ENSG00000179913'
p783
aS'ENSG00000187513'
p784
aS'ENSG00000181826'
p785
aS'ENSG00000130396'
p786
aS'ENSG00000129317'
p787
aS'ENSG00000154001'
p788
aS'ENSG00000187244'
p789
atRp790
ssS'indianred4'
p791
(dp792
g4
g5
((lp793
S'ENSG00000177106'
p794
aS'ENSG00000017797'
p795
aS'ENSG00000010318'
p796
aS'ENSG00000197948'
p797
aS'ENSG00000254999'
p798
aS'ENSG00000059691'
p799
aS'ENSG00000127947'
p800
aS'ENSG00000185787'
p801
aS'ENSG00000065613'
p802
aS'ENSG00000104756'
p803
aS'ENSG00000170653'
p804
aS'ENSG00000164924'
p805
aS'ENSG00000133069'
p806
aS'ENSG00000107819'
p807
aS'ENSG00000198865'
p808
atRp809
ssS'yellow'
p810
(dp811
g77
(lp812
(lp813
S'ENSG00000066336'
p814
ag81
(g83
S'\xbc\xbb\xbb\xbb\xbb\xbb2@'
tRp815
ag81
(g83
S'\xc9Q\xf0\x970\x1b`?'
tRp816
ag81
(g83
S'`\x15d\xc8\xe3\xbd\x9f?'
tRp817
aasg4
g5
((lp818
S'ENSG00000175575'
p819
aS'ENSG00000168995'
p820
aS'ENSG00000197181'
p821
aS'ENSG00000167695'
p822
aS'ENSG00000136295'
p823
aS'ENSG00000116701'
p824
aS'ENSG00000160867'
p825
aS'ENSG00000115486'
p826
aS'ENSG00000163694'
p827
aS'ENSG00000144026'
p828
aS'ENSG00000174989'
p829
aS'ENSG00000133731'
p830
aS'ENSG00000255374'
p831
aS'ENSG00000118473'
p832
aS'ENSG00000143376'
p833
aS'ENSG00000151806'
p834
aS'ENSG00000082397'
p835
aS'ENSG00000059377'
p836
aS'ENSG00000167850'
p837
aS'ENSG00000103148'
p838
aS'ENSG00000196542'
p839
aS'ENSG00000129226'
p840
aS'ENSG00000188000'
p841
aS'ENSG00000130544'
p842
aS'ENSG00000236939'
p843
aS'ENSG00000120586'
p844
aS'ENSG00000127366'
p845
aS'ENSG00000154134'
p846
aS'ENSG00000268688'
p847
aS'ENSG00000143226'
p848
aS'ENSG00000137106'
p849
aS'ENSG00000170866'
p850
aS'ENSG00000176593'
p851
atRp852
ssS'bisque4'
p853
(dp854
g77
(lp855
(lp856
g752
ag81
(g83
S'\x00\x00\x00\x00\x008b@'
tRp857
ag81
(g83
S']7Gv}=\x8f?'
tRp858
ag81
(g83
S'@7Gv}=\x8f?'
tRp859
aasg4
g5
((lp860
S'ENSG00000259803'
p861
aS'ENSG00000120324'
p862
aS'ENSG00000176945'
p863
aS'ENSG00000146276'
p864
aS'ENSG00000108846'
p865
aS'ENSG00000183826'
p866
aS'ENSG00000039650'
p867
aS'ENSG00000228716'
p868
aS'ENSG00000115084'
p869
aS'ENSG00000196963'
p870
aS'ENSG00000174720'
p871
aS'ENSG00000108292'
p872
aS'ENSG00000165511'
p873
aS'ENSG00000147439'
p874
aS'ENSG00000171310'
p875
aS'ENSG00000123268'
p876
aS'ENSG00000049239'
p877
aS'ENSG00000114473'
p878
atRp879
ssS'cyan'
p880
(dp881
g77
(lp882
(lp883
S'ENSG00000138615'
p884
ag81
(g83
S'\xb7m\xdb\xb6m\x9bT@'
tRp885
ag81
(g83
S'\\\xedy\x89U.T?'
tRp886
ag81
(g83
S'\xa0Y{\x9b{\xb3\x97?'
tRp887
aa(lp888
S'ENSG00000174348'
p889
ag81
(g83
S'\xb7m\xdb\xb6m\x9bT@'
tRp890
ag81
(g83
S'\\\xedy\x89U.T?'
tRp891
ag81
(g83
S'\xa0Y{\x9b{\xb3\x97?'
tRp892
aa(lp893
S'ENSG00000205221'
p894
ag81
(g83
S'\xdb\xb6m\xdb\xb6mK@'
tRp895
ag81
(g83
S'\xe3\x03\x8fn\xf9\xae`?'
tRp896
ag81
(g83
S'\xf0\xf8\tV\xb9p\xa1?'
tRp897
aasg4
g5
((lp898
S'ENSG00000159640'
p899
aS'ENSG00000160161'
p900
aS'ENSG00000111361'
p901
aS'ENSG00000182551'
p902
aS'ENSG00000103351'
p903
aS'ENSG00000141084'
p904
aS'ENSG00000145708'
p905
aS'ENSG00000168229'
p906
aS'ENSG00000137819'
p907
aS'ENSG00000116874'
p908
aS'ENSG00000196839'
p909
aS'ENSG00000085741'
p910
aS'ENSG00000064763'
p911
aS'ENSG00000100296'
p912
aS'ENSG00000051825'
p913
aS'ENSG00000152689'
p914
aS'ENSG00000136875'
p915
aS'ENSG00000134545'
p916
aS'ENSG00000142546'
p917
aS'ENSG00000011485'
p918
aS'ENSG00000166825'
p919
aS'ENSG00000151360'
p920
aS'ENSG00000174059'
p921
aS'ENSG00000162383'
p922
aS'ENSG00000188051'
p923
atRp924
ssS'navajowhite3'
p925
(dp926
g4
g5
((lp927
S'ENSG00000123143'
p928
aS'ENSG00000197497'
p929
aS'ENSG00000206150'
p930
aS'ENSG00000165806'
p931
aS'ENSG00000105793'
p932
aS'ENSG00000140564'
p933
aS'ENSG00000105865'
p934
aS'ENSG00000178301'
p935
aS'ENSG00000166526'
p936
aS'ENSG00000111666'
p937
aS'ENSG00000185414'
p938
atRp939
ssS'yellow3'
p940
(dp941
g4
g5
((lp942
S'ENSG00000035115'
p943
aS'ENSG00000101333'
p944
aS'ENSG00000156253'
p945
aS'ENSG00000105792'
p946
aS'ENSG00000124225'
p947
aS'ENSG00000100302'
p948
aS'ENSG00000154380'
p949
aS'ENSG00000154553'
p950
aS'ENSG00000157214'
p951
aS'ENSG00000104177'
p952
aS'ENSG00000183775'
p953
aS'ENSG00000198862'
p954
aS'ENSG00000184182'
p955
aS'ENSG00000222040'
p956
atRp957
ssS'mediumorchid3'
p958
(dp959
g4
g5
((lp960
S'ENSG00000123545'
p961
aS'ENSG00000132970'
p962
aS'ENSG00000145214'
p963
aS'ENSG00000176386'
p964
aS'ENSG00000047457'
p965
aS'ENSG00000180611'
p966
aS'ENSG00000177879'
p967
aS'ENSG00000164144'
p968
aS'ENSG00000181027'
p969
atRp970
ssS'skyblue'
p971
(dp972
g77
(lp973
(lp974
S'ENSG00000038945'
p975
aFinf
ag81
(g83
S'k\x07/\xa7\xe0\xe5t?'
tRp976
ag81
(g83
S'\x10@\xa9\n<\t\xa7?'
tRp977
aa(lp978
S'ENSG00000095970'
p979
aFinf
ag81
(g83
S'k\x07/\xa7\xe0\xe5t?'
tRp980
ag81
(g83
S'\x10@\xa9\n<\t\xa7?'
tRp981
aasg4
g5
((lp982
S'ENSG00000204291'
p983
aS'ENSG00000080189'
p984
aS'ENSG00000136783'
p985
aS'ENSG00000116205'
p986
aS'ENSG00000164081'
p987
aS'ENSG00000139266'
p988
aS'ENSG00000179085'
p989
aS'ENSG00000196312'
p990
aS'ENSG00000213240'
p991
aS'ENSG00000198087'
p992
aS'ENSG00000139197'
p993
aS'ENSG00000113318'
p994
aS'ENSG00000162836'
p995
aS'ENSG00000135549'
p996
aS'ENSG00000113441'
p997
aS'ENSG00000223496'
p998
aS'ENSG00000163959'
p999
aS'ENSG00000116750'
p1000
aS'ENSG00000089050'
p1001
aS'ENSG00000188803'
p1002
atRp1003
ssS'darkturquoise'
p1004
(dp1005
g4
g5
((lp1006
S'ENSG00000227124'
p1007
aS'ENSG00000068745'
p1008
aS'ENSG00000120129'
p1009
aS'ENSG00000103510'
p1010
aS'ENSG00000146834'
p1011
aS'ENSG00000132881'
p1012
aS'ENSG00000100814'
p1013
aS'ENSG00000112977'
p1014
aS'ENSG00000135698'
p1015
aS'ENSG00000105072'
p1016
aS'ENSG00000171160'
p1017
aS'ENSG00000166398'
p1018
aS'ENSG00000117748'
p1019
aS'ENSG00000206503'
p1020
aS'ENSG00000182983'
p1021
aS'ENSG00000100461'
p1022
aS'ENSG00000136982'
p1023
aS'ENSG00000211460'
p1024
aS'ENSG00000155666'
p1025
aS'ENSG00000162616'
p1026
aS'ENSG00000115998'
p1027
atRp1028
ssS'rosybrown4'
p1029
(dp1030
g77
(lp1031
(lp1032
S'ENSG00000169169'
p1033
aFinf
ag81
(g83
S'\xbf\t\x94\x89+\xdd[?'
tRp1034
ag81
(g83
S'\xc0\xae[\xcf\x17[\x81?'
tRp1035
aa(lp1036
S'ENSG00000106976'
p1037
aFinf
ag81
(g83
S'\x07\x0f\x94\x89+\xddk?'
tRp1038
ag81
(g83
S'@q7\xda\xdb\xb8\x8b?'
tRp1039
aa(lp1040
S'ENSG00000185070'
p1041
aFinf
ag81
(g83
S'V\x03/\xa7\xe0\xe5t?'
tRp1042
ag81
(g83
S'@\xe3\x8ei\xf1/\x8f?'
tRp1043
aa(lp1044
S'ENSG00000103742'
p1045
aFinf
ag81
(g83
S'V\x03/\xa7\xe0\xe5t?'
tRp1046
ag81
(g83
S'@\xe3\x8ei\xf1/\x8f?'
tRp1047
aa(lp1048
S'ENSG00000104888'
p1049
aFinf
ag81
(g83
S'|\x06\x94\x89+\xdd{?'
tRp1050
ag81
(g83
S'@\xe3\x8ei\xf1/\x8f?'
tRp1051
aasg4
g5
((lp1052
S'ENSG00000168803'
p1053
aS'ENSG00000196177'
p1054
aS'ENSG00000197977'
p1055
aS'ENSG00000124713'
p1056
aS'ENSG00000168653'
p1057
aS'ENSG00000160299'
p1058
aS'ENSG00000175106'
p1059
aS'ENSG00000180155'
p1060
atRp1061
ssS'darkgreen'
p1062
(dp1063
g77
(lp1064
(lp1065
S'ENSG00000187513'
p1066
aFinf
ag81
(g83
S'\xcd\t\x94\x89+\xddk?'
tRp1067
ag81
(g83
S'\xe0.[\x94\x01L\x91?'
tRp1068
aa(lp1069
S'ENSG00000187372'
p1070
aFinf
ag81
(g83
S'\xcd\t\x94\x89+\xddk?'
tRp1071
ag81
(g83
S'\xe0.[\x94\x01L\x91?'
tRp1072
aa(lp1073
g258
ag81
(g83
S'\x00\x00\x00\x00\x00@r@'
tRp1074
ag81
(g83
S'\x82k\x98|\xc3\xdc\x84?'
tRp1075
ag81
(g83
S'\xa0\xd3\xd0\xbe\xd0\xf9\x9e?'
tRp1076
aa(lp1077
g262
ag81
(g83
S'\x00\x00\x00\x00\x00@r@'
tRp1078
ag81
(g83
S'\x82k\x98|\xc3\xdc\x84?'
tRp1079
ag81
(g83
S'\xa0\xd3\xd0\xbe\xd0\xf9\x9e?'
tRp1080
aa(lp1081
S'ENSG00000164176'
p1082
ag81
(g83
S'\xdb\xb6m\xdb\xb6\xadT@'
tRp1083
ag81
(g83
S'\x1c \x80m\xa3\xb2\x9b?'
tRp1084
ag81
(g83
S'\xa0\xd3\xd0\xbe\xd0\xf9\x9e?'
tRp1085
aasg4
g5
((lp1086
S'ENSG00000179833'
p1087
aS'ENSG00000141013'
p1088
aS'ENSG00000103381'
p1089
aS'ENSG00000008324'
p1090
aS'ENSG00000177600'
p1091
aS'ENSG00000250673'
p1092
aS'ENSG00000164104'
p1093
aS'ENSG00000112902'
p1094
aS'ENSG00000145882'
p1095
aS'ENSG00000132600'
p1096
aS'ENSG00000175197'
p1097
aS'ENSG00000050165'
p1098
aS'ENSG00000110429'
p1099
aS'ENSG00000204138'
p1100
aS'ENSG00000154783'
p1101
aS'ENSG00000164171'
p1102
aS'ENSG00000139146'
p1103
aS'ENSG00000162944'
p1104
aS'ENSG00000175832'
p1105
aS'ENSG00000085063'
p1106
aS'ENSG00000170624'
p1107
aS'ENSG00000127578'
p1108
atRp1109
ssS'darkviolet'
p1110
(dp1111
g4
g5
((lp1112
S'ENSG00000077420'
p1113
aS'ENSG00000142185'
p1114
aS'ENSG00000146094'
p1115
aS'ENSG00000154803'
p1116
aS'ENSG00000117640'
p1117
aS'ENSG00000163606'
p1118
aS'ENSG00000196335'
p1119
aS'ENSG00000112799'
p1120
aS'ENSG00000112339'
p1121
aS'ENSG00000115956'
p1122
aS'ENSG00000163389'
p1123
aS'ENSG00000139044'
p1124
aS'ENSG00000118514'
p1125
aS'ENSG00000104972'
p1126
aS'ENSG00000100055'
p1127
atRp1128
ssS'slateblue2'
p1129
(dp1130
g4
g5
((lp1131
S'ENSG00000188312'
p1132
aS'ENSG00000143156'
p1133
aS'ENSG00000197128'
p1134
aS'ENSG00000107959'
p1135
aS'ENSG00000131037'
p1136
aS'ENSG00000160439'
p1137
aS'ENSG00000166359'
p1138
aS'ENSG00000099937'
p1139
aS'ENSG00000146205'
p1140
atRp1141
ssS'slateblue1'
p1142
(dp1143
g4
g5
((lp1144
S'ENSG00000182179'
p1145
aS'ENSG00000169689'
p1146
aS'ENSG00000132793'
p1147
aS'ENSG00000138658'
p1148
aS'ENSG00000198912'
p1149
aS'ENSG00000138030'
p1150
aS'ENSG00000107614'
p1151
aS'ENSG00000100865'
p1152
aS'ENSG00000177076'
p1153
aS'ENSG00000161526'
p1154
aS'ENSG00000111203'
p1155
atRp1156
ssS'indianred1'
p1157
(dp1158
g77
(lp1159
(lp1160
S'ENSG00000129450'
p1161
aFinf
ag81
(g83
S'\xbf\t\x94\x89+\xdd[?'
tRp1162
ag81
(g83
S'\x80\x94k\xc6\xc8\xdct?'
tRp1163
aa(lp1164
S'ENSG00000269072'
p1165
aFinf
ag81
(g83
S'\xbf\t\x94\x89+\xdd[?'
tRp1166
ag81
(g83
S'\x80\x94k\xc6\xc8\xdct?'
tRp1167
aa(lp1168
S'ENSG00000168995'
p1169
aFinf
ag81
(g83
S'V\x03/\xa7\xe0\xe5t?'
tRp1170
ag81
(g83
S'\x80\x03/\xa7\xe0\xe5t?'
tRp1171
aasg4
g5
((lp1172
S'ENSG00000182511'
p1173
aS'ENSG00000129673'
p1174
aS'ENSG00000095209'
p1175
aS'ENSG00000122481'
p1176
aS'ENSG00000171574'
p1177
aS'ENSG00000129925'
p1178
aS'ENSG00000078269'
p1179
aS'ENSG00000242616'
p1180
aS'ENSG00000196152'
p1181
aS'ENSG00000131849'
p1182
atRp1183
ssS'lightpink'
p1184
(dp1185
g4
g5
((lp1186
S'ENSG00000103199'
p1187
aS'ENSG00000105983'
p1188
aS'ENSG00000103194'
p1189
aS'ENSG00000121989'
p1190
aS'ENSG00000075945'
p1191
aS'ENSG00000171055'
p1192
aS'ENSG00000020256'
p1193
aS'ENSG00000168827'
p1194
aS'ENSG00000168397'
p1195
aS'ENSG00000164074'
p1196
atRp1197
ssS'red'
p1198
(dp1199
g77
(lp1200
(lp1201
S'ENSG00000108001'
p1202
ag81
(g83
S'\xca&\x9bl\xb2\xc96@'
tRp1203
ag81
(g83
S'\xa2a\xb3\xab\x99\x9f&?'
tRp1204
ag81
(g83
S'\x80vb[\x89Wr?'
tRp1205
aasg4
g5
((lp1206
S'ENSG00000107984'
p1207
aS'ENSG00000198270'
p1208
aS'ENSG00000153786'
p1209
aS'ENSG00000165072'
p1210
aS'ENSG00000167555'
p1211
aS'ENSG00000136104'
p1212
aS'ENSG00000071967'
p1213
aS'ENSG00000167767'
p1214
aS'ENSG00000143355'
p1215
aS'ENSG00000030304'
p1216
aS'ENSG00000135750'
p1217
aS'ENSG00000116260'
p1218
aS'ENSG00000187151'
p1219
aS'ENSG00000142973'
p1220
aS'ENSG00000138036'
p1221
aS'ENSG00000110675'
p1222
aS'ENSG00000124440'
p1223
aS'ENSG00000185070'
p1224
aS'ENSG00000189350'
p1225
aS'ENSG00000167920'
p1226
aS'ENSG00000095917'
p1227
aS'ENSG00000144339'
p1228
aS'ENSG00000156469'
p1229
aS'ENSG00000154175'
p1230
aS'ENSG00000205221'
p1231
aS'ENSG00000146909'
p1232
aS'ENSG00000143850'
p1233
aS'ENSG00000196458'
p1234
aS'ENSG00000011465'
p1235
atRp1236
ssS'darkmagenta'
p1237
(dp1238
g77
(lp1239
(lp1240
S'ENSG00000186288'
p1241
aFinf
ag81
(g83
S'k\x07/\xa7\xe0\xe5t?'
tRp1242
ag81
(g83
S'\xe0\x17\xa7\xdd\x12\xbd\x94?'
tRp1243
aa(lp1244
S'ENSG00000106823'
p1245
aFinf
ag81
(g83
S'k\x07/\xa7\xe0\xe5t?'
tRp1246
ag81
(g83
S'\xe0\x17\xa7\xdd\x12\xbd\x94?'
tRp1247
aa(lp1248
S'ENSG00000220575'
p1249
aFinf
ag81
(g83
S'k\x07/\xa7\xe0\xe5t?'
tRp1250
ag81
(g83
S'\xe0\x17\xa7\xdd\x12\xbd\x94?'
tRp1251
aa(lp1252
S'ENSG00000162998'
p1253
ag81
(g83
S'\x00\x00\x00\x00\x008b@'
tRp1254
ag81
(g83
S']7Gv}=\x8f?'
tRp1255
ag81
(g83
S'\xe0\x17\xa7\xdd\x12\xbd\x94?'
tRp1256
aasg4
g5
((lp1257
S'ENSG00000186230'
p1258
aS'ENSG00000204396'
p1259
aS'ENSG00000013374'
p1260
aS'ENSG00000140400'
p1261
aS'ENSG00000108946'
p1262
aS'ENSG00000142530'
p1263
aS'ENSG00000164265'
p1264
aS'ENSG00000142102'
p1265
aS'ENSG00000255284'
p1266
aS'ENSG00000183971'
p1267
aS'ENSG00000204536'
p1268
aS'ENSG00000086991'
p1269
aS'ENSG00000119414'
p1270
aS'ENSG00000161180'
p1271
aS'ENSG00000177595'
p1272
aS'ENSG00000173137'
p1273
aS'ENSG00000167967'
p1274
aS'ENSG00000163762'
p1275
aS'ENSG00000100299'
p1276
atRp1277
ssS'indianred3'
p1278
(dp1279
g4
g5
((lp1280
S'ENSG00000106688'
p1281
aS'ENSG00000001461'
p1282
aS'ENSG00000001460'
p1283
aS'ENSG00000132563'
p1284
aS'ENSG00000253719'
p1285
aS'ENSG00000214562'
p1286
aS'ENSG00000035664'
p1287
aS'ENSG00000106608'
p1288
aS'ENSG00000137942'
p1289
aS'ENSG00000136542'
p1290
aS'ENSG00000123453'
p1291
aS'ENSG00000161791'
p1292
aS'ENSG00000137672'
p1293
aS'ENSG00000162882'
p1294
atRp1295
ssS'plum3'
p1296
(dp1297
g77
(lp1298
(lp1299
S'ENSG00000162522'
p1300
aFinf
ag81
(g83
S'k\x07/\xa7\xe0\xe5t?'
tRp1301
ag81
(g83
S'0\xa9YP\x19\x02\xa2?'
tRp1302
aasg4
g5
((lp1303
S'ENSG00000051620'
p1304
aS'ENSG00000142949'
p1305
aS'ENSG00000197768'
p1306
aS'ENSG00000182362'
p1307
aS'ENSG00000186283'
p1308
aS'ENSG00000133318'
p1309
aS'ENSG00000166123'
p1310
aS'ENSG00000004455'
p1311
aS'ENSG00000090661'
p1312
aS'ENSG00000168754'
p1313
aS'ENSG00000100075'
p1314
aS'ENSG00000079819'
p1315
aS'ENSG00000163933'
p1316
aS'ENSG00000167130'
p1317
aS'ENSG00000151552'
p1318
atRp1319
ssS'plum2'
p1320
(dp1321
g4
g5
((lp1322
S'ENSG00000173406'
p1323
aS'ENSG00000111816'
p1324
aS'ENSG00000135424'
p1325
aS'ENSG00000161542'
p1326
aS'ENSG00000197380'
p1327
aS'ENSG00000160049'
p1328
aS'ENSG00000227184'
p1329
aS'ENSG00000196151'
p1330
aS'ENSG00000116785'
p1331
aS'ENSG00000243710'
p1332
aS'ENSG00000164764'
p1333
aS'ENSG00000131778'
p1334
aS'ENSG00000165914'
p1335
aS'ENSG00000146555'
p1336
aS'ENSG00000144057'
p1337
aS'ENSG00000183527'
p1338
aS'ENSG00000139714'
p1339
atRp1340
ssS'plum1'
p1341
(dp1342
g77
(lp1343
(lp1344
S'ENSG00000166091'
p1345
aFinf
ag81
(g83
S'\xdc\t\x94\x89+\xdd{?'
tRp1346
ag81
(g83
S'\xe0~\tP\xb6\x94\x9b?'
tRp1347
aasg4
g5
((lp1348
S'ENSG00000113971'
p1349
aS'ENSG00000090432'
p1350
aS'ENSG00000160886'
p1351
aS'ENSG00000160323'
p1352
aS'ENSG00000033122'
p1353
aS'ENSG00000233822'
p1354
aS'ENSG00000164556'
p1355
aS'ENSG00000119227'
p1356
aS'ENSG00000184206'
p1357
aS'ENSG00000218739'
p1358
aS'ENSG00000101639'
p1359
aS'ENSG00000204709'
p1360
aS'ENSG00000130413'
p1361
aS'ENSG00000119943'
p1362
aS'ENSG00000242173'
p1363
aS'ENSG00000076344'
p1364
aS'ENSG00000159445'
p1365
aS'ENSG00000212864'
p1366
atRp1367
ssS'saddlebrown'
p1368
(dp1369
g77
(lp1370
(lp1371
S'ENSG00000260105'
p1372
aFinf
ag81
(g83
S'\xcd\t\x94\x89+\xddk?'
tRp1373
ag81
(g83
S'P\x8a\xc0V\x7f\xd5\xa2?'
tRp1374
aa(lp1375
S'ENSG00000136383'
p1376
aFinf
ag81
(g83
S'\xcd\t\x94\x89+\xddk?'
tRp1377
ag81
(g83
S'P\x8a\xc0V\x7f\xd5\xa2?'
tRp1378
aa(lp1379
S'ENSG00000160255'
p1380
aFinf
ag81
(g83
S'\xcd\t\x94\x89+\xddk?'
tRp1381
ag81
(g83
S'P\x8a\xc0V\x7f\xd5\xa2?'
tRp1382
aasg4
g5
((lp1383
S'ENSG00000161714'
p1384
aS'ENSG00000266714'
p1385
aS'ENSG00000104783'
p1386
aS'ENSG00000142856'
p1387
aS'ENSG00000178209'
p1388
aS'ENSG00000138175'
p1389
aS'ENSG00000254614'
p1390
aS'ENSG00000101000'
p1391
aS'ENSG00000096433'
p1392
aS'ENSG00000138411'
p1393
aS'ENSG00000169994'
p1394
aS'ENSG00000176208'
p1395
aS'ENSG00000178381'
p1396
aS'ENSG00000142002'
p1397
aS'ENSG00000162946'
p1398
aS'ENSG00000177303'
p1399
aS'ENSG00000171444'
p1400
aS'ENSG00000107020'
p1401
aS'ENSG00000110888'
p1402
aS'ENSG00000074657'
p1403
atRp1404
ssS'lightgoldenrodyellow'
p1405
(dp1406
g77
(lp1407
(lp1408
S'ENSG00000138311'
p1409
aFinf
ag81
(g83
S'\xbf\t\x94\x89+\xdd[?'
tRp1410
ag81
(g83
S'\x80\x94k\xc6\xc8\xdct?'
tRp1411
aa(lp1412
g350
aFinf
ag81
(g83
S'|\x06\x94\x89+\xdd{?'
tRp1413
ag81
(g83
S'@EzW\xe8\xc4\x8b?'
tRp1414
aa(lp1415
g354
aFinf
ag81
(g83
S'\xc4\x0b\x94\x89+\xdd\x8b?'
tRp1416
ag81
(g83
S'\xc0\x0b\x94\x89+\xdd\x8b?'
tRp1417
aasg4
g5
((lp1418
S'ENSG00000137494'
p1419
aS'ENSG00000160194'
p1420
aS'ENSG00000197798'
p1421
aS'ENSG00000172568'
p1422
aS'ENSG00000033050'
p1423
aS'ENSG00000137500'
p1424
aS'ENSG00000125485'
p1425
aS'ENSG00000167840'
p1426
atRp1427
ssS'lavender'
p1428
(dp1429
g77
(lp1430
(lp1431
S'ENSG00000050165'
p1432
ag81
(g83
S'\x00\x00\x00\x00\x000b@'
tRp1433
ag81
(g83
S'qF\xac\x99\n[\x91?'
tRp1434
ag81
(g83
S'0\x9f\xc4Y>\x98\xa9?'
tRp1435
aasg4
g5
((lp1436
S'ENSG00000158023'
p1437
aS'ENSG00000163938'
p1438
aS'ENSG00000182534'
p1439
aS'ENSG00000213672'
p1440
aS'ENSG00000117477'
p1441
aS'ENSG00000055044'
p1442
aS'ENSG00000183833'
p1443
aS'ENSG00000117481'
p1444
aS'ENSG00000175691'
p1445
aS'ENSG00000157103'
p1446
atRp1447
ssS'yellowgreen'
p1448
(dp1449
g77
(lp1450
(lp1451
S'ENSG00000261039'
p1452
aFinf
ag81
(g83
S'\xdc\t\x94\x89+\xdd{?'
tRp1453
ag81
(g83
S'\xc0HzW\xe8\xc4\x8b?'
tRp1454
aa(lp1455
S'ENSG00000188153'
p1456
ag81
(g83
S'9\x8e\xe38\x8e#P@'
tRp1457
ag81
(g83
S'j\xe2\xb3`\x9c\xa6\x9b?'
tRp1458
ag81
(g83
S'`\xe2\xb3`\x9c\xa6\x9b?'
tRp1459
aasg4
g5
((lp1460
S'ENSG00000183023'
p1461
aS'ENSG00000071246'
p1462
aS'ENSG00000091542'
p1463
aS'ENSG00000119630'
p1464
aS'ENSG00000124588'
p1465
aS'ENSG00000175170'
p1466
aS'ENSG00000138162'
p1467
aS'ENSG00000019991'
p1468
aS'ENSG00000183454'
p1469
aS'ENSG00000124191'
p1470
aS'ENSG00000256087'
p1471
aS'ENSG00000206013'
p1472
aS'ENSG00000124570'
p1473
aS'ENSG00000151067'
p1474
aS'ENSG00000203666'
p1475
aS'ENSG00000177627'
p1476
aS'ENSG00000180336'
p1477
aS'ENSG00000135766'
p1478
aS'ENSG00000088538'
p1479
atRp1480
ssS'orangered1'
p1481
(dp1482
g77
(lp1483
(lp1484
S'ENSG00000182168'
p1485
aFinf
ag81
(g83
S'\xbf\t\x94\x89+\xdd[?'
tRp1486
ag81
(g83
S'\x80\x94k\xc6\xc8\xdct?'
tRp1487
aasg4
g5
((lp1488
S'ENSG00000214087'
p1489
aS'ENSG00000197183'
p1490
aS'ENSG00000173065'
p1491
aS'ENSG00000115275'
p1492
aS'ENSG00000172006'
p1493
aS'ENSG00000124602'
p1494
aS'ENSG00000180938'
p1495
aS'ENSG00000176428'
p1496
aS'ENSG00000124207'
p1497
aS'ENSG00000176393'
p1498
aS'ENSG00000112541'
p1499
aS'ENSG00000105287'
p1500
aS'ENSG00000163682'
p1501
aS'ENSG00000106077'
p1502
atRp1503
ssS'royalblue3'
p1504
(dp1505
g77
(lp1506
(lp1507
S'ENSG00000112186'
p1508
aFinf
ag81
(g83
S'k\x07/\xa7\xe0\xe5t?'
tRp1509
ag81
(g83
S'\xe0\t\x90\xbat\xdb\x99?'
tRp1510
aa(lp1511
S'ENSG00000196972'
p1512
ag81
(g83
S'\x00\x00\x00\x00\x00@r@'
tRp1513
ag81
(g83
S'}s\x98|\xc3\xdc\x84?'
tRp1514
ag81
(g83
S'p\xf03\x94\xb5\x8b\xa4?'
tRp1515
aa(lp1516
S'ENSG00000198300'
p1517
ag81
(g83
S'\x00\x00\x00\x00\x00@r@'
tRp1518
ag81
(g83
S'}s\x98|\xc3\xdc\x84?'
tRp1519
ag81
(g83
S'p\xf03\x94\xb5\x8b\xa4?'
tRp1520
aasg4
g5
((lp1521
S'ENSG00000162409'
p1522
aS'ENSG00000160396'
p1523
aS'ENSG00000147416'
p1524
aS'ENSG00000126226'
p1525
aS'ENSG00000113593'
p1526
aS'ENSG00000243725'
p1527
aS'ENSG00000196678'
p1528
aS'ENSG00000169271'
p1529
aS'ENSG00000089486'
p1530
aS'ENSG00000134265'
p1531
aS'ENSG00000005379'
p1532
aS'ENSG00000165698'
p1533
atRp1534
ssS'royalblue2'
p1535
(dp1536
g4
g5
((lp1537
S'ENSG00000166450'
p1538
aS'ENSG00000198805'
p1539
aS'ENSG00000170379'
p1540
aS'ENSG00000089351'
p1541
aS'ENSG00000158865'
p1542
aS'ENSG00000144182'
p1543
aS'ENSG00000123609'
p1544
aS'ENSG00000049883'
p1545
aS'ENSG00000168152'
p1546
aS'ENSG00000123360'
p1547
atRp1548
ssS'blue'
p1549
(dp1550
g77
(lp1551
(lp1552
S'ENSG00000025708'
p1553
aFinf
ag81
(g83
S'5\x89\xfc5;j\x81?'
tRp1554
ag81
(g83
S'@\xe3\x8ei\xf1/\x8f?'
tRp1555
aa(lp1556
S'ENSG00000153551'
p1557
aFinf
ag81
(g83
S'|\x06\x94\x89+\xdd{?'
tRp1558
ag81
(g83
S'@\xe3\x8ei\xf1/\x8f?'
tRp1559
aa(lp1560
S'ENSG00000166825'
p1561
aFinf
ag81
(g83
S'V\x03/\xa7\xe0\xe5t?'
tRp1562
ag81
(g83
S'@\xe3\x8ei\xf1/\x8f?'
tRp1563
aasg4
g5
((lp1564
S'ENSG00000174226'
p1565
aS'ENSG00000178982'
p1566
aS'ENSG00000197958'
p1567
aS'ENSG00000167792'
p1568
aS'ENSG00000100380'
p1569
aS'ENSG00000115274'
p1570
aS'ENSG00000184779'
p1571
aS'ENSG00000214530'
p1572
aS'ENSG00000164346'
p1573
aS'ENSG00000168028'
p1574
aS'ENSG00000108278'
p1575
aS'ENSG00000115677'
p1576
aS'ENSG00000085231'
p1577
aS'ENSG00000172939'
p1578
aS'ENSG00000164610'
p1579
aS'ENSG00000162244'
p1580
aS'ENSG00000005156'
p1581
aS'ENSG00000165502'
p1582
aS'ENSG00000175390'
p1583
aS'ENSG00000142676'
p1584
aS'ENSG00000140988'
p1585
aS'ENSG00000161016'
p1586
aS'ENSG00000101444'
p1587
aS'ENSG00000166441'
p1588
aS'ENSG00000044090'
p1589
aS'ENSG00000171490'
p1590
aS'ENSG00000221983'
p1591
aS'ENSG00000265681'
p1592
aS'ENSG00000106153'
p1593
aS'ENSG00000133460'
p1594
aS'ENSG00000186468'
p1595
aS'ENSG00000167526'
p1596
aS'ENSG00000083845'
p1597
aS'ENSG00000204920'
p1598
aS'ENSG00000145425'
p1599
aS'ENSG00000115944'
p1600
aS'ENSG00000063046'
p1601
aS'ENSG00000143552'
p1602
aS'ENSG00000164615'
p1603
aS'ENSG00000148690'
p1604
aS'ENSG00000183172'
p1605
aS'ENSG00000170889'
p1606
aS'ENSG00000143947'
p1607
aS'ENSG00000114023'
p1608
aS'ENSG00000197345'
p1609
aS'ENSG00000109475'
p1610
aS'ENSG00000003249'
p1611
aS'ENSG00000174748'
p1612
aS'ENSG00000198755'
p1613
aS'ENSG00000122406'
p1614
aS'ENSG00000131899'
p1615
aS'ENSG00000043514'
p1616
aS'ENSG00000243284'
p1617
aS'ENSG00000196531'
p1618
atRp1619
ssS'honeydew'
p1620
(dp1621
g77
(lp1622
(lp1623
S'ENSG00000236609'
p1624
aFinf
ag81
(g83
S'\xcd\t\x94\x89+\xddk?'
tRp1625
ag81
(g83
S'\xe0.[\x94\x01L\x91?'
tRp1626
aa(lp1627
S'ENSG00000154856'
p1628
ag81
(g83
S'\x00\x00\x00\x00\x00@r@'
tRp1629
ag81
(g83
S'\x82k\x98|\xc3\xdc\x84?'
tRp1630
ag81
(g83
S'\xb0\xe83\x94\xb5\x8b\xa4?'
tRp1631
aasg4
g5
((lp1632
S'ENSG00000079785'
p1633
aS'ENSG00000025156'
p1634
aS'ENSG00000102595'
p1635
aS'ENSG00000099998'
p1636
aS'ENSG00000205339'
p1637
aS'ENSG00000109775'
p1638
aS'ENSG00000167799'
p1639
aS'ENSG00000116906'
p1640
aS'ENSG00000203667'
p1641
aS'ENSG00000125249'
p1642
aS'ENSG00000081307'
p1643
aS'ENSG00000128656'
p1644
aS'ENSG00000176531'
p1645
aS'ENSG00000104369'
p1646
atRp1647
ssS'cornflowerblue'
p1648
(dp1649
g4
g5
((lp1650
S'ENSG00000257218'
p1651
aS'ENSG00000176155'
p1652
aS'ENSG00000131508'
p1653
aS'ENSG00000166529'
p1654
aS'ENSG00000183397'
p1655
aS'ENSG00000143862'
p1656
aS'ENSG00000226524'
p1657
aS'ENSG00000146263'
p1658
aS'ENSG00000086570'
p1659
aS'ENSG00000152492'
p1660
aS'ENSG00000149089'
p1661
atRp1662
ssS'purple'
p1663
(dp1664
g77
(lp1665
(lp1666
S'ENSG00000169291'
p1667
aFinf
ag81
(g83
S'\x9cC&\xdc\xf3;P?'
tRp1668
ag81
(g83
S'\x806Q\xb3o\x0e\x9a?'
tRp1669
aa(lp1670
S'ENSG00000198844'
p1671
ag81
(g83
S'fffff&5@'
tRp1672
ag81
(g83
S'\x1f\x0e\xfd \x11\xc7W?'
tRp1673
ag81
(g83
S'\xf0\xbd\x06\xdd\x9dA\xa2?'
tRp1674
aasg4
g5
((lp1675
S'ENSG00000171115'
p1676
aS'ENSG00000104518'
p1677
aS'ENSG00000122512'
p1678
aS'ENSG00000185305'
p1679
aS'ENSG00000166265'
p1680
aS'ENSG00000130158'
p1681
aS'ENSG00000173269'
p1682
aS'ENSG00000110786'
p1683
aS'ENSG00000101276'
p1684
aS'ENSG00000185518'
p1685
aS'ENSG00000143603'
p1686
aS'ENSG00000105538'
p1687
aS'ENSG00000127954'
p1688
aS'ENSG00000130307'
p1689
aS'ENSG00000188738'
p1690
aS'ENSG00000130300'
p1691
aS'ENSG00000082175'
p1692
aS'ENSG00000112186'
p1693
aS'ENSG00000101187'
p1694
aS'ENSG00000116183'
p1695
aS'ENSG00000000938'
p1696
aS'ENSG00000145911'
p1697
aS'ENSG00000167874'
p1698
aS'ENSG00000172554'
p1699
aS'ENSG00000102755'
p1700
aS'ENSG00000153815'
p1701
atRp1702
ssS'palevioletred1'
p1703
(dp1704
g4
g5
((lp1705
S'ENSG00000160294'
p1706
aS'ENSG00000239704'
p1707
aS'ENSG00000154451'
p1708
aS'ENSG00000115523'
p1709
aS'ENSG00000218537'
p1710
aS'ENSG00000105374'
p1711
aS'ENSG00000100450'
p1712
aS'ENSG00000256660'
p1713
aS'ENSG00000099977'
p1714
aS'ENSG00000187105'
p1715
aS'ENSG00000091640'
p1716
aS'ENSG00000184674'
p1717
aS'ENSG00000172322'
p1718
atRp1719
ssS'palevioletred2'
p1720
(dp1721
g4
g5
((lp1722
S'ENSG00000103404'
p1723
aS'ENSG00000197496'
p1724
aS'ENSG00000108021'
p1725
aS'ENSG00000196268'
p1726
aS'ENSG00000176222'
p1727
aS'ENSG00000081052'
p1728
aS'ENSG00000204377'
p1729
aS'ENSG00000151135'
p1730
aS'ENSG00000115604'
p1731
aS'ENSG00000156603'
p1732
aS'ENSG00000172500'
p1733
aS'ENSG00000124587'
p1734
aS'ENSG00000047932'
p1735
aS'ENSG00000069667'
p1736
aS'ENSG00000152219'
p1737
atRp1738
ssS'palevioletred3'
p1739
(dp1740
g4
g5
((lp1741
S'ENSG00000176148'
p1742
aS'ENSG00000177646'
p1743
aS'ENSG00000169826'
p1744
aS'ENSG00000064225'
p1745
aS'ENSG00000160271'
p1746
aS'ENSG00000139292'
p1747
aS'ENSG00000008382'
p1748
aS'ENSG00000205740'
p1749
aS'ENSG00000076067'
p1750
aS'ENSG00000160305'
p1751
aS'ENSG00000130643'
p1752
aS'ENSG00000123415'
p1753
aS'ENSG00000181722'
p1754
aS'ENSG00000148803'
p1755
aS'ENSG00000139433'
p1756
aS'ENSG00000115353'
p1757
aS'ENSG00000137700'
p1758
atRp1759
ssS'coral3'
p1760
(dp1761
g77
(lp1762
(lp1763
S'ENSG00000174004'
p1764
aFinf
ag81
(g83
S'\xcd\t\x94\x89+\xddk?'
tRp1765
ag81
(g83
S'\x10M\xd1\xbf\xeb\x82\xa4?'
tRp1766
aa(lp1767
S'ENSG00000104998'
p1768
aFinf
ag81
(g83
S'\xcd\t\x94\x89+\xddk?'
tRp1769
ag81
(g83
S'\x10M\xd1\xbf\xeb\x82\xa4?'
tRp1770
aa(lp1771
S'ENSG00000268001'
p1772
aFinf
ag81
(g83
S'\xcd\t\x94\x89+\xddk?'
tRp1773
ag81
(g83
S'\x10M\xd1\xbf\xeb\x82\xa4?'
tRp1774
aa(lp1775
S'ENSG00000129465'
p1776
aFinf
ag81
(g83
S'\xcd\t\x94\x89+\xddk?'
tRp1777
ag81
(g83
S'\x10M\xd1\xbf\xeb\x82\xa4?'
tRp1778
aasg4
g5
((lp1779
S'ENSG00000057468'
p1780
aS'ENSG00000155066'
p1781
aS'ENSG00000259511'
p1782
aS'ENSG00000136271'
p1783
aS'ENSG00000167785'
p1784
aS'ENSG00000100580'
p1785
aS'ENSG00000150783'
p1786
aS'ENSG00000177082'
p1787
aS'ENSG00000099330'
p1788
aS'ENSG00000172890'
p1789
aS'ENSG00000188636'
p1790
aS'ENSG00000240764'
p1791
aS'ENSG00000119760'
p1792
aS'ENSG00000163041'
p1793
atRp1794
ssS'coral2'
p1795
(dp1796
g77
(lp1797
(lp1798
S'ENSG00000182902'
p1799
aFinf
ag81
(g83
S'\xcd\t\x94\x89+\xddk?'
tRp1800
ag81
(g83
S'\xe0.[\x94\x01L\x91?'
tRp1801
aa(lp1802
S'ENSG00000149527'
p1803
ag81
(g83
S'\x00\x00\x00\x00\x00H\x82@'
tRp1804
ag81
(g83
S'YW\xda\x17\x18\xd7{?'
tRp1805
ag81
(g83
S'\xc0\xd6$b\xc2\x8e\x9b?'
tRp1806
aa(lp1807
S'ENSG00000167286'
p1808
ag81
(g83
S'\x00\x00\x00\x00\x00@r@'
tRp1809
ag81
(g83
S'\x82k\x98|\xc3\xdc\x84?'
tRp1810
ag81
(g83
S'\xa0\xd3\xd0\xbe\xd0\xf9\x9e?'
tRp1811
aa(lp1812
S'ENSG00000127152'
p1813
ag81
(g83
S'\x00\x00\x00\x00\x00@r@'
tRp1814
ag81
(g83
S'\x82k\x98|\xc3\xdc\x84?'
tRp1815
ag81
(g83
S'\xa0\xd3\xd0\xbe\xd0\xf9\x9e?'
tRp1816
aa(lp1817
S'ENSG00000116824'
p1818
ag81
(g83
S'\x00\x00\x00\x00\x00@r@'
tRp1819
ag81
(g83
S'\x82k\x98|\xc3\xdc\x84?'
tRp1820
ag81
(g83
S'\xa0\xd3\xd0\xbe\xd0\xf9\x9e?'
tRp1821
aasg4
g5
((lp1822
S'ENSG00000183281'
p1823
aS'ENSG00000233024'
p1824
aS'ENSG00000148655'
p1825
aS'ENSG00000243955'
p1826
aS'ENSG00000142252'
p1827
aS'ENSG00000158113'
p1828
aS'ENSG00000185808'
p1829
aS'ENSG00000080603'
p1830
aS'ENSG00000136448'
p1831
aS'ENSG00000104381'
p1832
aS'ENSG00000100079'
p1833
aS'ENSG00000177302'
p1834
aS'ENSG00000204427'
p1835
aS'ENSG00000125375'
p1836
aS'ENSG00000120860'
p1837
aS'ENSG00000183793'
p1838
atRp1839
ssS'coral1'
p1840
(dp1841
g77
(lp1842
(lp1843
S'ENSG00000248441'
p1844
aFinf
ag81
(g83
S'\xa79C\xda\xaf\x161?'
tRp1845
ag81
(g83
S'\x00L\x0e\xb9[wg?'
tRp1846
aa(lp1847
S'ENSG00000076706'
p1848
ag81
(g83
S'\x00\x00\x00\x00\x00\xf0A@'
tRp1849
ag81
(g83
S'\x81j&\x1f\xec\xe3n?'
tRp1850
ag81
(g83
S' \xa1\xc8Fl\xfb\xa2?'
tRp1851
aasg4
g5
((lp1852
S'ENSG00000121769'
p1853
aS'ENSG00000188086'
p1854
aS'ENSG00000118729'
p1855
aS'ENSG00000204882'
p1856
aS'ENSG00000184451'
p1857
aS'ENSG00000144791'
p1858
aS'ENSG00000037757'
p1859
aS'ENSG00000198626'
p1860
aS'ENSG00000111404'
p1861
aS'ENSG00000143632'
p1862
aS'ENSG00000011083'
p1863
aS'ENSG00000182533'
p1864
aS'ENSG00000141161'
p1865
aS'ENSG00000073711'
p1866
aS'ENSG00000143028'
p1867
aS'ENSG00000143847'
p1868
atRp1869
ssS'mediumpurple'
p1870
(dp1871
g77
(lp1872
(lp1873
S'ENSG00000219073'
p1874
aFinf
ag81
(g83
S'\t\x83w\xa08a\x0e?'
tRp1875
ag81
(g83
S'\x00\xcc\xd0\xb7\xcb\xacH?'
tRp1876
aasg4
g5
((lp1877
S'ENSG00000135213'
p1878
aS'ENSG00000245888'
p1879
aS'ENSG00000086159'
p1880
aS'ENSG00000204954'
p1881
aS'ENSG00000197415'
p1882
aS'ENSG00000187021'
p1883
aS'ENSG00000101425'
p1884
aS'ENSG00000175535'
p1885
aS'ENSG00000134318'
p1886
aS'ENSG00000203859'
p1887
aS'ENSG00000237693'
p1888
aS'ENSG00000110244'
p1889
atRp1890
ssS'cornsilk'
p1891
(dp1892
g4
g5
((lp1893
S'ENSG00000100197'
p1894
aS'ENSG00000128710'
p1895
aS'ENSG00000161243'
p1896
aS'ENSG00000166321'
p1897
aS'ENSG00000108379'
p1898
aS'ENSG00000261794'
p1899
aS'ENSG00000206127'
p1900
aS'ENSG00000166664'
p1901
aS'ENSG00000175344'
p1902
atRp1903
ssS'indianred2'
p1904
(dp1905
g4
g5
((lp1906
S'ENSG00000161980'
p1907
aS'ENSG00000072832'
p1908
aS'ENSG00000197927'
p1909
aS'ENSG00000139190'
p1910
aS'ENSG00000138744'
p1911
aS'ENSG00000120948'
p1912
aS'ENSG00000174652'
p1913
aS'ENSG00000157379'
p1914
aS'ENSG00000108592'
p1915
aS'ENSG00000160633'
p1916
aS'ENSG00000100650'
p1917
aS'ENSG00000133226'
p1918
atRp1919
ssS'coral4'
p1920
(dp1921
g4
g5
((lp1922
S'ENSG00000189280'
p1923
aS'ENSG00000173818'
p1924
aS'ENSG00000125872'
p1925
aS'ENSG00000089006'
p1926
aS'ENSG00000115310'
p1927
aS'ENSG00000243566'
p1928
aS'ENSG00000145365'
p1929
aS'ENSG00000138796'
p1930
aS'ENSG00000176390'
p1931
aS'ENSG00000182230'
p1932
aS'ENSG00000156171'
p1933
aS'ENSG00000172992'
p1934
aS'ENSG00000123124'
p1935
atRp1936
ssS'lightblue2'
p1937
(dp1938
g4
g5
((lp1939
S'ENSG00000187193'
p1940
aS'ENSG00000183617'
p1941
aS'ENSG00000144488'
p1942
aS'ENSG00000163257'
p1943
aS'ENSG00000085832'
p1944
aS'ENSG00000175334'
p1945
aS'ENSG00000162714'
p1946
aS'ENSG00000116830'
p1947
aS'ENSG00000181031'
p1948
aS'ENSG00000163618'
p1949
atRp1950
ssS'lightblue3'
p1951
(dp1952
g4
g5
((lp1953
S'ENSG00000172543'
p1954
aS'ENSG00000160282'
p1955
aS'ENSG00000144597'
p1956
aS'ENSG00000010219'
p1957
aS'ENSG00000167914'
p1958
aS'ENSG00000197775'
p1959
aS'ENSG00000183098'
p1960
aS'ENSG00000160284'
p1961
aS'ENSG00000168658'
p1962
aS'ENSG00000206432'
p1963
aS'ENSG00000138750'
p1964
aS'ENSG00000106113'
p1965
atRp1966
ssS'lightblue1'
p1967
(dp1968
g77
(lp1969
(lp1970
S'ENSG00000142178'
p1971
aFinf
ag81
(g83
S'\xbf\t\x94\x89+\xdd[?'
tRp1972
ag81
(g83
S'\xc0;\xa9\xb8\x90\xfe\x92?'
tRp1973
aa(lp1974
S'ENSG00000069399'
p1975
aFinf
ag81
(g83
S'\xbf\t\x94\x89+\xdd[?'
tRp1976
ag81
(g83
S'\xc0;\xa9\xb8\x90\xfe\x92?'
tRp1977
aa(lp1978
g700
aFinf
ag81
(g83
S'V\x03/\xa7\xe0\xe5t?'
tRp1979
ag81
(g83
S'\xc0;\xa9\xb8\x90\xfe\x92?'
tRp1980
aa(lp1981
S'ENSG00000144655'
p1982
aFinf
ag81
(g83
S'\xbf\t\x94\x89+\xdd[?'
tRp1983
ag81
(g83
S'\xc0;\xa9\xb8\x90\xfe\x92?'
tRp1984
aa(lp1985
S'ENSG00000184557'
p1986
aFinf
ag81
(g83
S'\xbf\t\x94\x89+\xdd[?'
tRp1987
ag81
(g83
S'\xc0;\xa9\xb8\x90\xfe\x92?'
tRp1988
aa(lp1989
S'ENSG00000153234'
p1990
aFinf
ag81
(g83
S'V\x03/\xa7\xe0\xe5t?'
tRp1991
ag81
(g83
S'\xc0;\xa9\xb8\x90\xfe\x92?'
tRp1992
aa(lp1993
S'ENSG00000128016'
p1994
aFinf
ag81
(g83
S'\xbf\t\x94\x89+\xdd[?'
tRp1995
ag81
(g83
S'\xc0;\xa9\xb8\x90\xfe\x92?'
tRp1996
aa(lp1997
S'ENSG00000120279'
p1998
aFinf
ag81
(g83
S'\x07\x0f\x94\x89+\xddk?'
tRp1999
ag81
(g83
S'\xc0;\xa9\xb8\x90\xfe\x92?'
tRp2000
aa(lp2001
S'ENSG00000123358'
p2002
aFinf
ag81
(g83
S'\xbf\t\x94\x89+\xdd[?'
tRp2003
ag81
(g83
S'\xc0;\xa9\xb8\x90\xfe\x92?'
tRp2004
aa(lp2005
S'ENSG00000105835'
p2006
aFinf
ag81
(g83
S'\xbf\t\x94\x89+\xdd[?'
tRp2007
ag81
(g83
S'\xc0;\xa9\xb8\x90\xfe\x92?'
tRp2008
aa(lp2009
S'ENSG00000147113'
p2010
aFinf
ag81
(g83
S'\x1cG\xc8_\xb3\xa3\x96?'
tRp2011
ag81
(g83
S' G\xc8_\xb3\xa3\x96?'
tRp2012
aasg4
g5
((lp2013
S'ENSG00000106546'
p2014
aS'ENSG00000156273'
p2015
aS'ENSG00000213132'
p2016
aS'ENSG00000137193'
p2017
aS'ENSG00000164543'
p2018
aS'ENSG00000254685'
p2019
aS'ENSG00000162620'
p2020
aS'ENSG00000162704'
p2021
aS'ENSG00000137955'
p2022
atRp2023
ssS'lightslateblue'
p2024
(dp2025
g77
(lp2026
(lp2027
S'ENSG00000144227'
p2028
aFinf
ag81
(g83
S'\xcd\t\x94\x89+\xddk?'
tRp2029
ag81
(g83
S'\x80)\x87\xf0\t\xd1{?'
tRp2030
aa(lp2031
S'ENSG00000233360'
p2032
ag81
(g83
S'\x00\x00\x00\x00\x00H\x82@'
tRp2033
ag81
(g83
S'YW\xda\x17\x18\xd7{?'
tRp2034
ag81
(g83
S'\x80W\xda\x17\x18\xd7{?'
tRp2035
aasg4
g5
((lp2036
S'ENSG00000203942'
p2037
aS'ENSG00000197020'
p2038
aS'ENSG00000011132'
p2039
aS'ENSG00000150456'
p2040
aS'ENSG00000164039'
p2041
aS'ENSG00000170419'
p2042
aS'ENSG00000196456'
p2043
aS'ENSG00000075413'
p2044
aS'ENSG00000143149'
p2045
aS'ENSG00000163946'
p2046
aS'ENSG00000177694'
p2047
aS'ENSG00000161692'
p2048
aS'ENSG00000136243'
p2049
aS'ENSG00000165899'
p2050
atRp2051
ssS'lightblue4'
p2052
(dp2053
g4
g5
((lp2054
S'ENSG00000159147'
p2055
aS'ENSG00000205853'
p2056
aS'ENSG00000109667'
p2057
aS'ENSG00000172361'
p2058
aS'ENSG00000100938'
p2059
aS'ENSG00000143771'
p2060
aS'ENSG00000100376'
p2061
aS'ENSG00000105479'
p2062
aS'ENSG00000165555'
p2063
aS'ENSG00000146731'
p2064
aS'ENSG00000070495'
p2065
aS'ENSG00000152700'
p2066
aS'ENSG00000138346'
p2067
aS'ENSG00000114988'
p2068
atRp2069
ssS'lightsteelblue1'
p2070
(dp2071
g4
g5
((lp2072
S'ENSG00000241186'
p2073
aS'ENSG00000206069'
p2074
aS'ENSG00000100350'
p2075
aS'ENSG00000254087'
p2076
aS'ENSG00000100023'
p2077
aS'ENSG00000184967'
p2078
aS'ENSG00000071894'
p2079
aS'ENSG00000167461'
p2080
aS'ENSG00000130222'
p2081
aS'ENSG00000134909'
p2082
aS'ENSG00000137766'
p2083
aS'ENSG00000006114'
p2084
aS'ENSG00000103249'
p2085
aS'ENSG00000162066'
p2086
aS'ENSG00000105726'
p2087
aS'ENSG00000262246'
p2088
aS'ENSG00000108264'
p2089
aS'ENSG00000204463'
p2090
atRp2091
ssS'skyblue4'
p2092
(dp2093
g4
g5
((lp2094
S'ENSG00000140905'
p2095
aS'ENSG00000144792'
p2096
aS'ENSG00000124613'
p2097
aS'ENSG00000134532'
p2098
aS'ENSG00000138182'
p2099
aS'ENSG00000183060'
p2100
aS'ENSG00000040275'
p2101
aS'ENSG00000145861'
p2102
aS'ENSG00000109062'
p2103
aS'ENSG00000170775'
p2104
aS'ENSG00000239672'
p2105
aS'ENSG00000176371'
p2106
aS'ENSG00000189007'
p2107
aS'ENSG00000198363'
p2108
atRp2109
ssS'deepskyblue'
p2110
(dp2111
g77
(lp2112
(lp2113
S'ENSG00000230269'
p2114
aFinf
ag81
(g83
S'\xcd\t\x94\x89+\xddk?'
tRp2115
ag81
(g83
S'\x00\n\x94\x89+\xddk?'
tRp2116
aasg4
g5
((lp2117
S'ENSG00000186496'
p2118
aS'ENSG00000171798'
p2119
aS'ENSG00000109794'
p2120
aS'ENSG00000166965'
p2121
aS'ENSG00000164344'
p2122
aS'ENSG00000105642'
p2123
aS'ENSG00000145476'
p2124
aS'ENSG00000205464'
p2125
atRp2126
ssS'skyblue1'
p2127
(dp2128
g4
g5
((lp2129
S'ENSG00000153885'
p2130
aS'ENSG00000123191'
p2131
aS'ENSG00000112031'
p2132
aS'ENSG00000182141'
p2133
aS'ENSG00000183346'
p2134
aS'ENSG00000147576'
p2135
aS'ENSG00000225940'
p2136
aS'ENSG00000109854'
p2137
aS'ENSG00000151948'
p2138
aS'ENSG00000163464'
p2139
aS'ENSG00000188404'
p2140
aS'ENSG00000112303'
p2141
aS'ENSG00000067221'
p2142
aS'ENSG00000112195'
p2143
aS'ENSG00000219626'
p2144
aS'ENSG00000111752'
p2145
atRp2146
ssS'darkred'
p2147
(dp2148
g4
g5
((lp2149
S'ENSG00000042493'
p2150
aS'ENSG00000164520'
p2151
aS'ENSG00000185043'
p2152
aS'ENSG00000186409'
p2153
aS'ENSG00000143155'
p2154
aS'ENSG00000133067'
p2155
aS'ENSG00000124107'
p2156
aS'ENSG00000204169'
p2157
aS'ENSG00000115825'
p2158
aS'ENSG00000127951'
p2159
aS'ENSG00000018625'
p2160
aS'ENSG00000177508'
p2161
aS'ENSG00000135469'
p2162
aS'ENSG00000049540'
p2163
aS'ENSG00000102786'
p2164
aS'ENSG00000107957'
p2165
aS'ENSG00000215187'
p2166
aS'ENSG00000145979'
p2167
aS'ENSG00000180376'
p2168
aS'ENSG00000143147'
p2169
aS'ENSG00000173626'
p2170
aS'ENSG00000167272'
p2171
atRp2172
ssS'skyblue2'
p2173
(dp2174
g4
g5
((lp2175
S'ENSG00000125266'
p2176
aS'ENSG00000006606'
p2177
aS'ENSG00000100191'
p2178
aS'ENSG00000142632'
p2179
aS'ENSG00000100336'
p2180
aS'ENSG00000165985'
p2181
aS'ENSG00000107562'
p2182
aS'ENSG00000178038'
p2183
aS'ENSG00000137168'
p2184
aS'ENSG00000187676'
p2185
aS'ENSG00000148384'
p2186
aS'ENSG00000160961'
p2187
aS'ENSG00000095627'
p2188
aS'ENSG00000083097'
p2189
aS'ENSG00000198250'
p2190
aS'ENSG00000204147'
p2191
atRp2192
ssS'lavenderblush1'
p2193
(dp2194
g77
(lp2195
(lp2196
S'ENSG00000183018'
p2197
aFinf
ag81
(g83
S'\xbf\t\x94\x89+\xdd[?'
tRp2198
ag81
(g83
S'@\xfa%\xd8.\xcf\x84?'
tRp2199
aa(lp2200
S'ENSG00000172889'
p2201
aFinf
ag81
(g83
S'\x0e\x85a\x18\x86a\x88?'
tRp2202
ag81
(g83
S'\x804\xd2~\xfc-\xa1?'
tRp2203
aa(lp2204
S'ENSG00000179776'
p2205
aFinf
ag81
(g83
S'a\x07/\xa7\xe0\xe5\x84?'
tRp2206
ag81
(g83
S'\x804\xd2~\xfc-\xa1?'
tRp2207
aa(lp2208
g1671
aFinf
ag81
(g83
S'\xc4\x0b\x94\x89+\xdd\x8b?'
tRp2209
ag81
(g83
S'\x804\xd2~\xfc-\xa1?'
tRp2210
aa(lp2211
S'ENSG00000173269'
p2212
aFinf
ag81
(g83
S'|\x06\x94\x89+\xdd{?'
tRp2213
ag81
(g83
S'\x804\xd2~\xfc-\xa1?'
tRp2214
aa(lp2215
S'ENSG00000197245'
p2216
aFinf
ag81
(g83
S'|\x06\x94\x89+\xdd{?'
tRp2217
ag81
(g83
S'\x804\xd2~\xfc-\xa1?'
tRp2218
aasg4
g5
((lp2219
S'ENSG00000120992'
p2220
aS'ENSG00000166452'
p2221
aS'ENSG00000087152'
p2222
aS'ENSG00000149761'
p2223
aS'ENSG00000067836'
p2224
aS'ENSG00000171714'
p2225
aS'ENSG00000204186'
p2226
aS'ENSG00000048828'
p2227
aS'ENSG00000130520'
p2228
aS'ENSG00000197238'
p2229
aS'ENSG00000130511'
p2230
aS'ENSG00000164897'
p2231
aS'ENSG00000171551'
p2232
atRp2233
ssS'lavenderblush3'
p2234
(dp2235
g77
(lp2236
(lp2237
S'ENSG00000198695'
p2238
aFinf
ag81
(g83
S'\xcd\t\x94\x89+\xddk?'
tRp2239
ag81
(g83
S'P\xa8\x86\xbb\x9b&\xa1?'
tRp2240
aa(lp2241
S'ENSG00000198786'
p2242
aFinf
ag81
(g83
S'\xcd\t\x94\x89+\xddk?'
tRp2243
ag81
(g83
S'P\xa8\x86\xbb\x9b&\xa1?'
tRp2244
aasg4
g5
((lp2245
S'ENSG00000109118'
p2246
aS'ENSG00000223865'
p2247
aS'ENSG00000196126'
p2248
aS'ENSG00000179344'
p2249
aS'ENSG00000204564'
p2250
aS'ENSG00000174780'
p2251
aS'ENSG00000231389'
p2252
aS'ENSG00000179774'
p2253
aS'ENSG00000117834'
p2254
aS'ENSG00000125409'
p2255
aS'ENSG00000119899'
p2256
aS'ENSG00000086232'
p2257
aS'ENSG00000258289'
p2258
aS'ENSG00000242950'
p2259
aS'ENSG00000198502'
p2260
aS'ENSG00000196735'
p2261
atRp2262
ssS'lavenderblush2'
p2263
(dp2264
g77
(lp2265
(lp2266
S'ENSG00000158859'
p2267
ag81
(g83
S'\x00\x00\x00\x00\x00(r@'
tRp2268
ag81
(g83
S'\xd9\x1f:\x84\xc7\x021?'
tRp2269
ag81
(g83
S'\x00\xc0-\x8c\x81\x99k?'
tRp2270
aasg4
g5
((lp2271
S'ENSG00000188321'
p2272
aS'ENSG00000086062'
p2273
aS'ENSG00000196418'
p2274
aS'ENSG00000167565'
p2275
aS'ENSG00000154734'
p2276
aS'ENSG00000004799'
p2277
aS'ENSG00000112304'
p2278
aS'ENSG00000125735'
p2279
aS'ENSG00000143556'
p2280
aS'ENSG00000133874'
p2281
aS'ENSG00000166979'
p2282
aS'ENSG00000089335'
p2283
aS'ENSG00000095794'
p2284
aS'ENSG00000108551'
p2285
atRp2286
ssS'aliceblue'
p2287
(dp2288
g77
(lp2289
(lp2290
S'ENSG00000154589'
p2291
aFinf
ag81
(g83
S'\xbf\t\x94\x89+\xdd[?'
tRp2292
ag81
(g83
S'\x00e\x86k\xfe\xca{?'
tRp2293
aa(lp2294
S'ENSG00000132205'
p2295
aFinf
ag81
(g83
S'\xbf\t\x94\x89+\xdd[?'
tRp2296
ag81
(g83
S'\x00e\x86k\xfe\xca{?'
tRp2297
aa(lp2298
S'ENSG00000184922'
p2299
aFinf
ag81
(g83
S'\x07\x0f\x94\x89+\xddk?'
tRp2300
ag81
(g83
S'\x80.\x87\xf0\t\xd1{?'
tRp2301
aa(lp2302
S'ENSG00000213654'
p2303
aFinf
ag81
(g83
S'iL-B\xfe\x9a\x9d?'
tRp2304
ag81
(g83
S'`L-B\xfe\x9a\x9d?'
tRp2305
aasg4
g5
((lp2306
S'ENSG00000144746'
p2307
aS'ENSG00000162461'
p2308
aS'ENSG00000203705'
p2309
aS'ENSG00000243317'
p2310
aS'ENSG00000177683'
p2311
aS'ENSG00000225526'
p2312
aS'ENSG00000186575'
p2313
aS'ENSG00000124767'
p2314
aS'ENSG00000244165'
p2315
aS'ENSG00000118017'
p2316
aS'ENSG00000130517'
p2317
atRp2318
ssS'lightskyblue2'
p2319
(dp2320
g77
(lp2321
(lp2322
S'ENSG00000207764'
p2323
aFinf
ag81
(g83
S'\x07\x0f\x94\x89+\xddk?'
tRp2324
ag81
(g83
S'\x00\x0f\x94\x89+\xddk?'
tRp2325
aasg4
g5
((lp2326
S'ENSG00000165943'
p2327
aS'ENSG00000169885'
p2328
aS'ENSG00000112761'
p2329
aS'ENSG00000067208'
p2330
aS'ENSG00000203880'
p2331
aS'ENSG00000087903'
p2332
aS'ENSG00000139437'
p2333
aS'ENSG00000111850'
p2334
aS'ENSG00000157240'
p2335
atRp2336
ssS'lightskyblue3'
p2337
(dp2338
g4
g5
((lp2339
S'ENSG00000165782'
p2340
aS'ENSG00000133937'
p2341
aS'ENSG00000196616'
p2342
aS'ENSG00000164080'
p2343
aS'ENSG00000167644'
p2344
aS'ENSG00000135747'
p2345
aS'ENSG00000116698'
p2346
aS'ENSG00000103811'
p2347
aS'ENSG00000125898'
p2348
aS'ENSG00000187758'
p2349
atRp2350
ssS'blue1'
p2351
(dp2352
g4
g5
((lp2353
S'ENSG00000103642'
p2354
aS'ENSG00000115649'
p2355
aS'ENSG00000142082'
p2356
aS'ENSG00000011523'
p2357
aS'ENSG00000116039'
p2358
aS'ENSG00000145332'
p2359
aS'ENSG00000149262'
p2360
aS'ENSG00000119599'
p2361
aS'ENSG00000081026'
p2362
aS'ENSG00000152672'
p2363
atRp2364
ssS'blue3'
p2365
(dp2366
g4
g5
((lp2367
S'ENSG00000172613'
p2368
aS'ENSG00000064313'
p2369
aS'ENSG00000112685'
p2370
aS'ENSG00000198169'
p2371
aS'ENSG00000198646'
p2372
aS'ENSG00000099956'
p2373
aS'ENSG00000166938'
p2374
aS'ENSG00000119723'
p2375
aS'ENSG00000085465'
p2376
aS'ENSG00000020922'
p2377
aS'ENSG00000116198'
p2378
aS'ENSG00000157212'
p2379
atRp2380
ssS'blue2'
p2381
(dp2382
g77
(lp2383
(lp2384
S'ENSG00000103313'
p2385
aFinf
ag81
(g83
S'k\x07/\xa7\xe0\xe5t?'
tRp2386
ag81
(g83
S'\xd0>\xb7\nP\x87\xa4?'
tRp2387
aa(lp2388
S'ENSG00000119535'
p2389
aFinf
ag81
(g83
S'k\x07/\xa7\xe0\xe5t?'
tRp2390
ag81
(g83
S'\xd0>\xb7\nP\x87\xa4?'
tRp2391
aasg4
g5
((lp2392
S'ENSG00000172232'
p2393
aS'ENSG00000151632'
p2394
aS'ENSG00000166478'
p2395
aS'ENSG00000054282'
p2396
aS'ENSG00000196391'
p2397
aS'ENSG00000178852'
p2398
aS'ENSG00000135541'
p2399
aS'ENSG00000070269'
p2400
aS'ENSG00000196337'
p2401
aS'ENSG00000204351'
p2402
aS'ENSG00000143199'
p2403
aS'ENSG00000126790'
p2404
aS'ENSG00000174125'
p2405
aS'ENSG00000156990'
p2406
aS'ENSG00000103852'
p2407
atRp2408
ssS'blue4'
p2409
(dp2410
g77
(lp2411
(lp2412
S'ENSG00000109265'
p2413
aFinf
ag81
(g83
S'\xcd\t\x94\x89+\xddk?'
tRp2414
ag81
(g83
S'`6?\xd21"\x98?'
tRp2415
aa(lp2416
S'ENSG00000178401'
p2417
aFinf
ag81
(g83
S'\xcd\t\x94\x89+\xddk?'
tRp2418
ag81
(g83
S'`6?\xd21"\x98?'
tRp2419
aa(lp2420
S'ENSG00000107518'
p2421
aFinf
ag81
(g83
S'\xcd\t\x94\x89+\xddk?'
tRp2422
ag81
(g83
S'`6?\xd21"\x98?'
tRp2423
aa(lp2424
S'ENSG00000106852'
p2425
ag81
(g83
S'\x00\x00\x00\x00\x00H\x82@'
tRp2426
ag81
(g83
S'YW\xda\x17\x18\xd7{?'
tRp2427
ag81
(g83
S'\xc0\xd6$b\xc2\x8e\x9b?'
tRp2428
aasg4
g5
((lp2429
S'ENSG00000198131'
p2430
aS'ENSG00000106125'
p2431
aS'ENSG00000213214'
p2432
aS'ENSG00000142188'
p2433
aS'ENSG00000183049'
p2434
aS'ENSG00000050327'
p2435
aS'ENSG00000173226'
p2436
aS'ENSG00000068654'
p2437
aS'ENSG00000203760'
p2438
aS'ENSG00000137463'
p2439
aS'ENSG00000186212'
p2440
aS'ENSG00000163898'
p2441
aS'ENSG00000189134'
p2442
aS'ENSG00000106868'
p2443
atRp2444
ssS'lightskyblue4'
p2445
(dp2446
g4
g5
((lp2447
S'ENSG00000065665'
p2448
aS'ENSG00000143452'
p2449
aS'ENSG00000238083'
p2450
aS'ENSG00000189180'
p2451
aS'ENSG00000133704'
p2452
aS'ENSG00000005801'
p2453
aS'ENSG00000120071'
p2454
aS'ENSG00000164209'
p2455
aS'ENSG00000228696'
p2456
aS'ENSG00000151917'
p2457
aS'ENSG00000176681'
p2458
aS'ENSG00000185829'
p2459
atRp2460
ssS'plum4'
p2461
(dp2462
g77
(lp2463
(lp2464
S'ENSG00000188452'
p2465
aFinf
ag81
(g83
S'\xcd\t\x94\x89+\xddk?'
tRp2466
ag81
(g83
S'@l7\xda\xdb\xb8\x8b?'
tRp2467
aa(lp2468
S'ENSG00000133805'
p2469
aFinf
ag81
(g83
S'\xcd\t\x94\x89+\xddk?'
tRp2470
ag81
(g83
S'@l7\xda\xdb\xb8\x8b?'
tRp2471
aa(lp2472
g80
ag81
(g83
S'\x00\x00\x00\x00\x00H\x82@'
tRp2473
ag81
(g83
S'YW\xda\x17\x18\xd7{?'
tRp2474
ag81
(g83
S'\x80Dfy\xdf\xbe\x8b?'
tRp2475
aa(lp2476
g87
ag81
(g83
S'\x00\x00\x00\x00\x00@r@'
tRp2477
ag81
(g83
S'\x82k\x98|\xc3\xdc\x84?'
tRp2478
ag81
(g83
S'\x80Dfy\xdf\xbe\x8b?'
tRp2479
aasg4
g5
((lp2480
S'ENSG00000161981'
p2481
aS'ENSG00000180776'
p2482
aS'ENSG00000144674'
p2483
aS'ENSG00000149743'
p2484
aS'ENSG00000115464'
p2485
aS'ENSG00000070882'
p2486
aS'ENSG00000137877'
p2487
aS'ENSG00000169062'
p2488
aS'ENSG00000119938'
p2489
aS'ENSG00000224870'
p2490
aS'ENSG00000134375'
p2491
aS'ENSG00000133056'
p2492
aS'ENSG00000116539'
p2493
atRp2494
ssS'floralwhite'
p2495
(dp2496
g4
g5
((lp2497
S'ENSG00000125901'
p2498
aS'ENSG00000169228'
p2499
aS'ENSG00000175756'
p2500
aS'ENSG00000070423'
p2501
aS'ENSG00000128699'
p2502
aS'ENSG00000161904'
p2503
aS'ENSG00000241360'
p2504
aS'ENSG00000172469'
p2505
aS'ENSG00000182087'
p2506
aS'ENSG00000221978'
p2507
aS'ENSG00000197465'
p2508
aS'ENSG00000120451'
p2509
aS'ENSG00000165650'
p2510
aS'ENSG00000141759'
p2511
aS'ENSG00000062370'
p2512
aS'ENSG00000110696'
p2513
aS'ENSG00000125633'
p2514
aS'ENSG00000226742'
p2515
atRp2516
ssS'coral'
p2517
(dp2518
g4
g5
((lp2519
S'ENSG00000234745'
p2520
aS'ENSG00000119431'
p2521
aS'ENSG00000005436'
p2522
aS'ENSG00000069943'
p2523
aS'ENSG00000185664'
p2524
aS'ENSG00000103018'
p2525
aS'ENSG00000168661'
p2526
aS'ENSG00000240065'
p2527
aS'ENSG00000258405'
p2528
aS'ENSG00000186470'
p2529
aS'ENSG00000138780'
p2530
aS'ENSG00000171488'
p2531
aS'ENSG00000198454'
p2532
aS'ENSG00000204642'
p2533
atRp2534
ssS'whitesmoke'
p2535
(dp2536
g4
g5
((lp2537
S'ENSG00000185619'
p2538
aS'ENSG00000197150'
p2539
aS'ENSG00000189269'
p2540
aS'ENSG00000206530'
p2541
aS'ENSG00000213246'
p2542
aS'ENSG00000160226'
p2543
aS'ENSG00000075826'
p2544
aS'ENSG00000108465'
p2545
aS'ENSG00000162384'
p2546
aS'ENSG00000184465'
p2547
aS'ENSG00000136371'
p2548
atRp2549
ssS'paleturquoise4'
p2550
(dp2551
g4
g5
((lp2552
S'ENSG00000148719'
p2553
aS'ENSG00000163635'
p2554
aS'ENSG00000155085'
p2555
aS'ENSG00000213341'
p2556
aS'ENSG00000100441'
p2557
aS'ENSG00000198663'
p2558
aS'ENSG00000096070'
p2559
aS'ENSG00000188234'
p2560
aS'ENSG00000170100'
p2561
aS'ENSG00000118197'
p2562
atRp2563
ssS'firebrick3'
p2564
(dp2565
g77
(lp2566
(lp2567
S'ENSG00000157322'
p2568
aFinf
ag81
(g83
S'\xbf\t\x94\x89+\xdd[?'
tRp2569
ag81
(g83
S'\x00\n\x94\x89+\xdd[?'
tRp2570
aasg4
g5
((lp2571
S'ENSG00000049245'
p2572
aS'ENSG00000157335'
p2573
aS'ENSG00000181924'
p2574
aS'ENSG00000097096'
p2575
aS'ENSG00000196367'
p2576
aS'ENSG00000111671'
p2577
aS'ENSG00000205659'
p2578
aS'ENSG00000186951'
p2579
aS'ENSG00000159658'
p2580
aS'ENSG00000158483'
p2581
aS'ENSG00000100330'
p2582
aS'ENSG00000136828'
p2583
aS'ENSG00000137413'
p2584
aS'ENSG00000084676'
p2585
atRp2586
ssS'firebrick2'
p2587
(dp2588
g77
(lp2589
(lp2590
S'ENSG00000155659'
p2591
aFinf
ag81
(g83
S'\xcd\t\x94\x89+\xddk?'
tRp2592
ag81
(g83
S'P\xa8\x86\xbb\x9b&\xa1?'
tRp2593
aa(lp2594
S'ENSG00000049246'
p2595
aFinf
ag81
(g83
S'\xcd\t\x94\x89+\xddk?'
tRp2596
ag81
(g83
S'P\xa8\x86\xbb\x9b&\xa1?'
tRp2597
aa(lp2598
S'ENSG00000105516'
p2599
aFinf
ag81
(g83
S'\xcd\t\x94\x89+\xddk?'
tRp2600
ag81
(g83
S'P\xa8\x86\xbb\x9b&\xa1?'
tRp2601
aa(lp2602
S'ENSG00000177575'
p2603
aFinf
ag81
(g83
S'\xcd\t\x94\x89+\xddk?'
tRp2604
ag81
(g83
S'P\xa8\x86\xbb\x9b&\xa1?'
tRp2605
aasg4
g5
((lp2606
S'ENSG00000167941'
p2607
aS'ENSG00000119509'
p2608
aS'ENSG00000148296'
p2609
aS'ENSG00000129595'
p2610
aS'ENSG00000255833'
p2611
aS'ENSG00000138336'
p2612
aS'ENSG00000182307'
p2613
aS'ENSG00000133627'
p2614
aS'ENSG00000268885'
p2615
aS'ENSG00000105298'
p2616
aS'ENSG00000164626'
p2617
aS'ENSG00000114853'
p2618
atRp2619
ssS'darksalmon'
p2620
(dp2621
g4
g5
((lp2622
S'ENSG00000087076'
p2623
aS'ENSG00000013561'
p2624
aS'ENSG00000078043'
p2625
aS'ENSG00000105176'
p2626
aS'ENSG00000158186'
p2627
aS'ENSG00000167291'
p2628
aS'ENSG00000128829'
p2629
atRp2630
ssS'sienna3'
p2631
(dp2632
g4
g5
((lp2633
S'ENSG00000143373'
p2634
aS'ENSG00000007376'
p2635
aS'ENSG00000100902'
p2636
aS'ENSG00000139835'
p2637
aS'ENSG00000160685'
p2638
aS'ENSG00000181284'
p2639
aS'ENSG00000081870'
p2640
aS'ENSG00000138794'
p2641
aS'ENSG00000163444'
p2642
aS'ENSG00000138193'
p2643
aS'ENSG00000186086'
p2644
aS'ENSG00000129204'
p2645
aS'ENSG00000099849'
p2646
aS'ENSG00000205352'
p2647
aS'ENSG00000172785'
p2648
aS'ENSG00000054967'
p2649
aS'ENSG00000236104'
p2650
aS'ENSG00000169967'
p2651
aS'ENSG00000180035'
p2652
atRp2653
ssS'firebrick4'
p2654
(dp2655
g77
(lp2656
(lp2657
S'ENSG00000114790'
p2658
aFinf
ag81
(g83
S'\xbf\t\x94\x89+\xdd[?'
tRp2659
ag81
(g83
S'\xc0\xae[\xcf\x17[\x81?'
tRp2660
aa(lp2661
S'ENSG00000138771'
p2662
aFinf
ag81
(g83
S'\xbf\t\x94\x89+\xdd[?'
tRp2663
ag81
(g83
S'\xc0\xae[\xcf\x17[\x81?'
tRp2664
aa(lp2665
S'ENSG00000090530'
p2666
aFinf
ag81
(g83
S'\xbf\t\x94\x89+\xdd[?'
tRp2667
ag81
(g83
S'\xc0\xae[\xcf\x17[\x81?'
tRp2668
aa(lp2669
S'ENSG00000174808'
p2670
aFinf
ag81
(g83
S'\xbf\t\x94\x89+\xdd[?'
tRp2671
ag81
(g83
S'\xc0\xae[\xcf\x17[\x81?'
tRp2672
aa(lp2673
S'ENSG00000074527'
p2674
aFinf
ag81
(g83
S'\x0e\x85a\x18\x86a\x88?'
tRp2675
ag81
(g83
S'\x00\x85a\x18\x86a\x88?'
tRp2676
aasg4
g5
((lp2677
S'ENSG00000168038'
p2678
aS'ENSG00000184923'
p2679
aS'ENSG00000155393'
p2680
aS'ENSG00000256269'
p2681
aS'ENSG00000151445'
p2682
aS'ENSG00000029639'
p2683
aS'ENSG00000175322'
p2684
aS'ENSG00000152359'
p2685
aS'ENSG00000159720'
p2686
aS'ENSG00000166887'
p2687
aS'ENSG00000100280'
p2688
aS'ENSG00000154957'
p2689
aS'ENSG00000149328'
p2690
aS'ENSG00000125247'
p2691
aS'ENSG00000094914'
p2692
atRp2693
ssS'honeydew1'
p2694
(dp2695
g77
(lp2696
(lp2697
S'ENSG00000162892'
p2698
aFinf
ag81
(g83
S'k\x07/\xa7\xe0\xe5t?'
tRp2699
ag81
(g83
S'0\xa9YP\x19\x02\xa2?'
tRp2700
aa(lp2701
S'ENSG00000186377'
p2702
aFinf
ag81
(g83
S'k\x07/\xa7\xe0\xe5t?'
tRp2703
ag81
(g83
S'0\xa9YP\x19\x02\xa2?'
tRp2704
aa(lp2705
S'ENSG00000152078'
p2706
aFinf
ag81
(g83
S'k\x07/\xa7\xe0\xe5t?'
tRp2707
ag81
(g83
S'0\xa9YP\x19\x02\xa2?'
tRp2708
aasg4
g5
((lp2709
S'ENSG00000133962'
p2710
aS'ENSG00000144229'
p2711
aS'ENSG00000259363'
p2712
aS'ENSG00000185761'
p2713
aS'ENSG00000164509'
p2714
aS'ENSG00000044459'
p2715
aS'ENSG00000151612'
p2716
aS'ENSG00000172687'
p2717
aS'ENSG00000165929'
p2718
aS'ENSG00000113805'
p2719
aS'ENSG00000095485'
p2720
aS'ENSG00000268657'
p2721
aS'ENSG00000124406'
p2722
aS'ENSG00000152402'
p2723
aS'ENSG00000146386'
p2724
aS'ENSG00000150076'
p2725
atRp2726
ssS'lightsteelblue'
p2727
(dp2728
g77
(lp2729
(lp2730
S'ENSG00000175463'
p2731
ag81
(g83
S'\x00\x00\x00\x00\x00\xf0A@'
tRp2732
ag81
(g83
S'\xd2d&\x1f\xec\xe3n?'
tRp2733
ag81
(g83
S"P'\xe3E\xb3\x1d\xa1?"
tRp2734
aasg4
g5
((lp2735
S'ENSG00000157978'
p2736
aS'ENSG00000213402'
p2737
aS'ENSG00000167377'
p2738
aS'ENSG00000172575'
p2739
aS'ENSG00000196867'
p2740
aS'ENSG00000065413'
p2741
aS'ENSG00000172167'
p2742
aS'ENSG00000104814'
p2743
aS'ENSG00000254521'
p2744
aS'ENSG00000169220'
p2745
aS'ENSG00000213077'
p2746
aS'ENSG00000100796'
p2747
aS'ENSG00000163519'
p2748
aS'ENSG00000106948'
p2749
aS'ENSG00000149527'
p2750
atRp2751
ssS'dodgerblue4'
p2752
(dp2753
g77
(lp2754
(lp2755
S'ENSG00000011347'
p2756
aFinf
ag81
(g83
S'\xcd\t\x94\x89+\xddk?'
tRp2757
ag81
(g83
S'\xc0\t)\x15d\xd9\xa7?'
tRp2758
aa(lp2759
S'ENSG00000099954'
p2760
aFinf
ag81
(g83
S'\xcd\t\x94\x89+\xddk?'
tRp2761
ag81
(g83
S'\xc0\t)\x15d\xd9\xa7?'
tRp2762
aa(lp2763
S'ENSG00000128833'
p2764
aFinf
ag81
(g83
S'\xcd\t\x94\x89+\xddk?'
tRp2765
ag81
(g83
S'\xc0\t)\x15d\xd9\xa7?'
tRp2766
aa(lp2767
S'ENSG00000126217'
p2768
aFinf
ag81
(g83
S'\xcd\t\x94\x89+\xddk?'
tRp2769
ag81
(g83
S'\xc0\t)\x15d\xd9\xa7?'
tRp2770
aa(lp2771
S'ENSG00000092421'
p2772
aFinf
ag81
(g83
S'\xcd\t\x94\x89+\xddk?'
tRp2773
ag81
(g83
S'\xc0\t)\x15d\xd9\xa7?'
tRp2774
aasg4
g5
((lp2775
S'ENSG00000181045'
p2776
aS'ENSG00000185684'
p2777
aS'ENSG00000175854'
p2778
aS'ENSG00000037749'
p2779
aS'ENSG00000164929'
p2780
aS'ENSG00000073737'
p2781
aS'ENSG00000054654'
p2782
aS'ENSG00000005075'
p2783
aS'ENSG00000125388'
p2784
atRp2785
ssS'tomato4'
p2786
(dp2787
g77
(lp2788
(lp2789
S'ENSG00000104044'
p2790
ag81
(g83
S'\x00\x00\x00\x00\x00@r@'
tRp2791
ag81
(g83
S'}s\x98|\xc3\xdc\x84?'
tRp2792
ag81
(g83
S'`\xdf\xd0\xbe\xd0\xf9\x9e?'
tRp2793
aa(lp2794
g1456
ag81
(g83
S'\x00\x00\x00\x00\x00@X@'
tRp2795
ag81
(g83
S'$,\xf4\x1d\x91\xca\x94?'
tRp2796
ag81
(g83
S'@\xb63?\x88\x94\xa4?'
tRp2797
aasg4
g5
((lp2798
S'ENSG00000224383'
p2799
aS'ENSG00000133028'
p2800
aS'ENSG00000163576'
p2801
aS'ENSG00000035141'
p2802
aS'ENSG00000080166'
p2803
aS'ENSG00000128683'
p2804
aS'ENSG00000075420'
p2805
aS'ENSG00000069493'
p2806
atRp2807
ssS'yellow4'
p2808
(dp2809
g77
(lp2810
(lp2811
S'ENSG00000090659'
p2812
aFinf
ag81
(g83
S'\xca\x81\x14-U:\x02?'
tRp2813
ag81
(g83
S'\x00 \x91wAW\x1b?'
tRp2814
aa(lp2815
S'ENSG00000105609'
p2816
aFinf
ag81
(g83
S'\xca\x81\x14-U:\x02?'
tRp2817
ag81
(g83
S'\x00 \x91wAW\x1b?'
tRp2818
aa(lp2819
S'ENSG00000257017'
p2820
aFinf
ag81
(g83
S'\xdc\t\x94\x89+\xdd{?'
tRp2821
ag81
(g83
S'\x00\n\x94\x89+\xdd{?'
tRp2822
aasg4
g5
((lp2823
S'ENSG00000123843'
p2824
aS'ENSG00000177427'
p2825
aS'ENSG00000141401'
p2826
aS'ENSG00000121691'
p2827
aS'ENSG00000172987'
p2828
aS'ENSG00000101473'
p2829
aS'ENSG00000138061'
p2830
aS'ENSG00000197681'
p2831
aS'ENSG00000170571'
p2832
aS'ENSG00000101670'
p2833
aS'ENSG00000095321'
p2834
aS'ENSG00000189283'
p2835
aS'ENSG00000145965'
p2836
aS'ENSG00000136840'
p2837
aS'ENSG00000156795'
p2838
aS'ENSG00000182566'
p2839
atRp2840
ssS'greenyellow'
p2841
(dp2842
g77
(lp2843
(lp2844
S'ENSG00000167588'
p2845
ag81
(g83
S'\x00\x00\x00\x00\x00\xb8Z@'
tRp2846
ag81
(g83
S'\xc00\x10j\xca\x14G>'
tRp2847
ag81
(g83
S'\x00\x00\x00wIK\x8e>'
tRp2848
aa(lp2849
S'ENSG00000187288'
p2850
aFinf
ag81
(g83
S'\xbc\xc5\x10hKGA?'
tRp2851
ag81
(g83
S'@\xf5\x1a*\x82}\x85?'
tRp2852
aasg4
g5
((lp2853
S'ENSG00000131711'
p2854
aS'ENSG00000165730'
p2855
aS'ENSG00000171135'
p2856
aS'ENSG00000245848'
p2857
aS'ENSG00000185842'
p2858
aS'ENSG00000141295'
p2859
aS'ENSG00000115155'
p2860
aS'ENSG00000008323'
p2861
aS'ENSG00000119915'
p2862
aS'ENSG00000062485'
p2863
aS'ENSG00000147869'
p2864
aS'ENSG00000130810'
p2865
aS'ENSG00000156096'
p2866
aS'ENSG00000124253'
p2867
aS'ENSG00000173432'
p2868
aS'ENSG00000135917'
p2869
aS'ENSG00000131375'
p2870
aS'ENSG00000196917'
p2871
aS'ENSG00000178573'
p2872
aS'ENSG00000177465'
p2873
aS'ENSG00000131069'
p2874
aS'ENSG00000166435'
p2875
aS'ENSG00000157150'
p2876
aS'ENSG00000166819'
p2877
aS'ENSG00000168234'
p2878
atRp2879
ssS'tomato2'
p2880
(dp2881
g4
g5
((lp2882
S'ENSG00000198185'
p2883
aS'ENSG00000137364'
p2884
aS'ENSG00000138303'
p2885
aS'ENSG00000032742'
p2886
aS'ENSG00000105519'
p2887
aS'ENSG00000154252'
p2888
aS'ENSG00000139675'
p2889
aS'ENSG00000162729'
p2890
aS'ENSG00000123643'
p2891
aS'ENSG00000116857'
p2892
atRp2893
ssS'navajowhite4'
p2894
(dp2895
g77
(lp2896
(lp2897
S'ENSG00000173369'
p2898
aFinf
ag81
(g83
S'5\x89\xfc5;j\x81?'
tRp2899
ag81
(g83
S'@\x89\xfc5;j\x81?'
tRp2900
aasg4
g5
((lp2901
S'ENSG00000176261'
p2902
aS'ENSG00000255837'
p2903
aS'ENSG00000236624'
p2904
aS'ENSG00000212124'
p2905
aS'ENSG00000198874'
p2906
aS'ENSG00000212126'
p2907
aS'ENSG00000212127'
p2908
aS'ENSG00000239665'
p2909
aS'ENSG00000111215'
p2910
atRp2911
ssS'mediumorchid'
p2912
(dp2913
g77
(lp2914
(lp2915
S'ENSG00000185652'
p2916
aFinf
ag81
(g83
S'\xcd\t\x94\x89+\xddk?'
tRp2917
ag81
(g83
S' \x1b\xc5W\x97\xb8\x94?'
tRp2918
aa(lp2919
g1037
ag81
(g83
S'\x00\x00\x00\x00\x00H\x82@'
tRp2920
ag81
(g83
S'YW\xda\x17\x18\xd7{?'
tRp2921
ag81
(g83
S'`G!\x84J*\xa1?'
tRp2922
aa(lp2923
S'ENSG00000131620'
p2924
ag81
(g83
S'\xcd\xcc\xcc\xcc\xcc\xccL@'
tRp2925
ag81
(g83
S'\xb7\x1e\xb9@H\xfe\xa2?'
tRp2926
ag81
(g83
S'\xb0\xe83\x94\xb5\x8b\xa4?'
tRp2927
aa(lp2928
g1041
ag81
(g83
S'\x00\x00\x00\x00\x00@r@'
tRp2929
ag81
(g83
S'\x82k\x98|\xc3\xdc\x84?'
tRp2930
ag81
(g83
S'\xb0\xe83\x94\xb5\x8b\xa4?'
tRp2931
aa(lp2932
g1045
ag81
(g83
S'\x00\x00\x00\x00\x00@r@'
tRp2933
ag81
(g83
S'\x82k\x98|\xc3\xdc\x84?'
tRp2934
ag81
(g83
S'\xb0\xe83\x94\xb5\x8b\xa4?'
tRp2935
aa(lp2936
g1049
ag81
(g83
S'\xab\xaa\xaa\xaa\xaaJh@'
tRp2937
ag81
(g83
S'C\xe9f4\xf1\xca\x8b?'
tRp2938
ag81
(g83
S'\xb0\xe83\x94\xb5\x8b\xa4?'
tRp2939
aasg4
g5
((lp2940
S'ENSG00000170248'
p2941
aS'ENSG00000078053'
p2942
aS'ENSG00000166788'
p2943
aS'ENSG00000185838'
p2944
aS'ENSG00000115216'
p2945
aS'ENSG00000113552'
p2946
aS'ENSG00000100304'
p2947
aS'ENSG00000197563'
p2948
aS'ENSG00000171793'
p2949
aS'ENSG00000130638'
p2950
aS'ENSG00000023191'
p2951
aS'ENSG00000124574'
p2952
aS'ENSG00000269113'
p2953
aS'ENSG00000204632'
p2954
aS'ENSG00000105364'
p2955
aS'ENSG00000144559'
p2956
atRp2957
ssS'navajowhite1'
p2958
(dp2959
g77
(lp2960
(lp2961
S'ENSG00000137857'
p2962
aFinf
ag81
(g83
S'k\x07/\xa7\xe0\xe5t?'
tRp2963
ag81
(g83
S'\x80\x07/\xa7\xe0\xe5t?'
tRp2964
aasg4
g5
((lp2965
S'ENSG00000162929'
p2966
aS'ENSG00000164825'
p2967
aS'ENSG00000214946'
p2968
aS'ENSG00000104901'
p2969
aS'ENSG00000221829'
p2970
aS'ENSG00000183844'
p2971
aS'ENSG00000140254'
p2972
aS'ENSG00000187688'
p2973
aS'ENSG00000174194'
p2974
aS'ENSG00000183474'
p2975
aS'ENSG00000137857'
p2976
aS'ENSG00000127364'
p2977
aS'ENSG00000167325'
p2978
aS'ENSG00000140279'
p2979
atRp2980
ssS'navajowhite2'
p2981
(dp2982
g77
(lp2983
(lp2984
S'ENSG00000196557'
p2985
aFinf
ag81
(g83
S'\xcd\t\x94\x89+\xddk?'
tRp2986
ag81
(g83
S'\x00\x8d\xb4\x89\xb3\xd3\x84?'
tRp2987
aasg4
g5
((lp2988
S'ENSG00000176732'
p2989
aS'ENSG00000020181'
p2990
aS'ENSG00000188612'
p2991
aS'ENSG00000132031'
p2992
aS'ENSG00000152778'
p2993
aS'ENSG00000132781'
p2994
aS'ENSG00000228672'
p2995
aS'ENSG00000121318'
p2996
aS'ENSG00000164038'
p2997
aS'ENSG00000184584'
p2998
aS'ENSG00000138829'
p2999
aS'ENSG00000206559'
p3000
aS'ENSG00000013573'
p3001
aS'ENSG00000116176'
p3002
aS'ENSG00000134202'
p3003
aS'ENSG00000152475'
p3004
aS'ENSG00000164068'
p3005
atRp3006
ssS'mistyrose'
p3007
(dp3008
g4
g5
((lp3009
S'ENSG00000072736'
p3010
aS'ENSG00000180758'
p3011
aS'ENSG00000156574'
p3012
aS'ENSG00000142192'
p3013
aS'ENSG00000183255'
p3014
aS'ENSG00000111615'
p3015
aS'ENSG00000056736'
p3016
aS'ENSG00000198189'
p3017
aS'ENSG00000241978'
p3018
aS'ENSG00000110871'
p3019
aS'ENSG00000188511'
p3020
aS'ENSG00000157933'
p3021
aS'ENSG00000187987'
p3022
atRp3023
ssS'sienna'
p3024
(dp3025
g4
g5
((lp3026
S'ENSG00000233232'
p3027
aS'ENSG00000213889'
p3028
aS'ENSG00000158411'
p3029
aS'ENSG00000139187'
p3030
aS'ENSG00000125149'
p3031
aS'ENSG00000164885'
p3032
aS'ENSG00000204520'
p3033
aS'ENSG00000126858'
p3034
aS'ENSG00000004809'
p3035
atRp3036
ssS'lightcoral'
p3037
(dp3038
g77
(lp3039
(lp3040
S'ENSG00000164695'
p3041
aFinf
ag81
(g83
S'k\x07/\xa7\xe0\xe5t?'
tRp3042
ag81
(g83
S'@\xe9\x8ei\xf1/\x8f?'
tRp3043
aa(lp3044
S'ENSG00000164794'
p3045
aFinf
ag81
(g83
S'k\x07/\xa7\xe0\xe5t?'
tRp3046
ag81
(g83
S'@\xe9\x8ei\xf1/\x8f?'
tRp3047
aa(lp3048
S'ENSG00000167642'
p3049
ag81
(g83
S'\x00\x00\x00\x00\x00@X@'
tRp3050
ag81
(g83
S'$,\xf4\x1d\x91\xca\x94?'
tRp3051
ag81
(g83
S' ,\xf4\x1d\x91\xca\x94?'
tRp3052
aasg4
g5
((lp3053
S'ENSG00000106991'
p3054
aS'ENSG00000170615'
p3055
aS'ENSG00000111364'
p3056
aS'ENSG00000241043'
p3057
aS'ENSG00000180398'
p3058
aS'ENSG00000082014'
p3059
aS'ENSG00000106992'
p3060
aS'ENSG00000166813'
p3061
aS'ENSG00000064270'
p3062
aS'ENSG00000166971'
p3063
aS'ENSG00000172803'
p3064
aS'ENSG00000167528'
p3065
aS'ENSG00000105131'
p3066
aS'ENSG00000171596'
p3067
aS'ENSG00000140534'
p3068
atRp3069
ssS'orangered'
p3070
(dp3071
g4
g5
((lp3072
S'ENSG00000157873'
p3073
aS'ENSG00000198203'
p3074
aS'ENSG00000121716'
p3075
aS'ENSG00000197093'
p3076
aS'ENSG00000172594'
p3077
aS'ENSG00000121797'
p3078
aS'ENSG00000085514'
p3079
aS'ENSG00000189045'
p3080
aS'ENSG00000136918'
p3081
aS'ENSG00000204560'
p3082
aS'ENSG00000163686'
p3083
aS'ENSG00000130513'
p3084
aS'ENSG00000163624'
p3085
atRp3086
ssS'navajowhite'
p3087
(dp3088
g77
(lp3089
(lp3090
S'ENSG00000090382'
p3091
aFinf
ag81
(g83
S'\xcd\t\x94\x89+\xddk?'
tRp3092
ag81
(g83
S'\x10M\xd1\xbf\xeb\x82\xa4?'
tRp3093
aasg4
g5
((lp3094
S'ENSG00000129910'
p3095
aS'ENSG00000116151'
p3096
aS'ENSG00000204740'
p3097
aS'ENSG00000170209'
p3098
aS'ENSG00000168000'
p3099
aS'ENSG00000133739'
p3100
aS'ENSG00000232859'
p3101
aS'ENSG00000189306'
p3102
aS'ENSG00000124126'
p3103
aS'ENSG00000178952'
p3104
aS'ENSG00000223510'
p3105
aS'ENSG00000092036'
p3106
aS'ENSG00000115112'
p3107
atRp3108
ssS'pink3'
p3109
(dp3110
g4
g5
((lp3111
S'ENSG00000132589'
p3112
aS'ENSG00000153214'
p3113
aS'ENSG00000178927'
p3114
aS'ENSG00000184702'
p3115
aS'ENSG00000137166'
p3116
aS'ENSG00000172954'
p3117
aS'ENSG00000179954'
p3118
aS'ENSG00000102572'
p3119
aS'ENSG00000135744'
p3120
aS'ENSG00000157593'
p3121
aS'ENSG00000088854'
p3122
aS'ENSG00000213626'
p3123
aS'ENSG00000108352'
p3124
atRp3125
ssS'pink2'
p3126
(dp3127
g4
g5
((lp3128
S'ENSG00000182013'
p3129
aS'ENSG00000198945'
p3130
aS'ENSG00000006042'
p3131
aS'ENSG00000110080'
p3132
aS'ENSG00000093072'
p3133
aS'ENSG00000164588'
p3134
aS'ENSG00000172915'
p3135
aS'ENSG00000196275'
p3136
aS'ENSG00000105227'
p3137
aS'ENSG00000149260'
p3138
aS'ENSG00000173020'
p3139
atRp3140
ssS'burlywood'
p3141
(dp3142
g77
(lp3143
(lp3144
S'ENSG00000171611'
p3145
aFinf
ag81
(g83
S'k\x07/\xa7\xe0\xe5t?'
tRp3146
ag81
(g83
S'\xe0\x17\xa7\xdd\x12\xbd\x94?'
tRp3147
aa(lp3148
S'ENSG00000170909'
p3149
ag81
(g83
S'\x00\x00\x00\x00\x008b@'
tRp3150
ag81
(g83
S']7Gv}=\x8f?'
tRp3151
ag81
(g83
S'\x10:\xdae\x16\x13\xa7?'
tRp3152
aa(lp3153
S'ENSG00000164733'
p3154
ag81
(g83
S'\x00\x00\x00\x00\x008b@'
tRp3155
ag81
(g83
S']7Gv}=\x8f?'
tRp3156
ag81
(g83
S'\x10:\xdae\x16\x13\xa7?'
tRp3157
aasg4
g5
((lp3158
S'ENSG00000155749'
p3159
aS'ENSG00000166847'
p3160
aS'ENSG00000169495'
p3161
aS'ENSG00000143153'
p3162
aS'ENSG00000235098'
p3163
aS'ENSG00000242441'
p3164
aS'ENSG00000068781'
p3165
aS'ENSG00000144161'
p3166
atRp3167
ssS'royalblue'
p3168
(dp3169
g77
(lp3170
(lp3171
S'ENSG00000171557'
p3172
aFinf
ag81
(g83
S'\xc6\xa3\xae\xb1\xd9\xca\xe1>'
tRp3173
ag81
(g83
S'\x00\xb0\xab\x82\\v(?'
tRp3174
aasg4
g5
((lp3175
S'ENSG00000171564'
p3176
aS'ENSG00000138294'
p3177
aS'ENSG00000171560'
p3178
aS'ENSG00000204956'
p3179
aS'ENSG00000185614'
p3180
aS'ENSG00000088832'
p3181
aS'ENSG00000106853'
p3182
aS'ENSG00000168077'
p3183
aS'ENSG00000117601'
p3184
aS'ENSG00000163586'
p3185
aS'ENSG00000169605'
p3186
aS'ENSG00000186009'
p3187
aS'ENSG00000171557'
p3188
aS'ENSG00000198225'
p3189
aS'ENSG00000184428'
p3190
aS'ENSG00000120885'
p3191
aS'ENSG00000166535'
p3192
aS'ENSG00000118402'
p3193
aS'ENSG00000203784'
p3194
aS'ENSG00000136872'
p3195
aS'ENSG00000172482'
p3196
aS'ENSG00000105388'
p3197
atRp3198
ssS'blanchedalmond'
p3199
(dp3200
g77
(lp3201
(lp3202
S'ENSG00000167741'
p3203
aFinf
ag81
(g83
S'\xdc\t\x94\x89+\xdd{?'
tRp3204
ag81
(g83
S'\xa06\xd2~\xfc-\xa1?'
tRp3205
aa(lp3206
S'ENSG00000116299'
p3207
aFinf
ag81
(g83
S'\xdc\t\x94\x89+\xdd{?'
tRp3208
ag81
(g83
S'\xa06\xd2~\xfc-\xa1?'
tRp3209
aa(lp3210
S'ENSG00000257084'
p3211
ag81
(g83
S'\xab\xaa\xaa\xaa\xaaJh@'
tRp3212
ag81
(g83
S'\xda\xf1f4\xf1\xca\x8b?'
tRp3213
ag81
(g83
S'\xf0}0I\x1e\x90\xa4?'
tRp3214
aasg4
g5
((lp3215
S'ENSG00000135346'
p3216
aS'ENSG00000157322'
p3217
aS'ENSG00000165084'
p3218
aS'ENSG00000152192'
p3219
aS'ENSG00000197915'
p3220
aS'ENSG00000112584'
p3221
aS'ENSG00000234719'
p3222
aS'ENSG00000135525'
p3223
aS'ENSG00000101190'
p3224
atRp3225
ssS'white'
p3226
(dp3227
g4
g5
((lp3228
S'ENSG00000185860'
p3229
aS'ENSG00000166377'
p3230
aS'ENSG00000135931'
p3231
aS'ENSG00000135914'
p3232
aS'ENSG00000155561'
p3233
aS'ENSG00000183621'
p3234
aS'ENSG00000182218'
p3235
aS'ENSG00000137103'
p3236
aS'ENSG00000174231'
p3237
aS'ENSG00000244486'
p3238
aS'ENSG00000170290'
p3239
aS'ENSG00000105443'
p3240
aS'ENSG00000111670'
p3241
aS'ENSG00000078295'
p3242
aS'ENSG00000113360'
p3243
aS'ENSG00000171067'
p3244
aS'ENSG00000100599'
p3245
aS'ENSG00000186340'
p3246
aS'ENSG00000168461'
p3247
aS'ENSG00000258365'
p3248
atRp3249
ssS'tan4'
p3250
(dp3251
g4
g5
((lp3252
S'ENSG00000198732'
p3253
aS'ENSG00000112796'
p3254
aS'ENSG00000127337'
p3255
aS'ENSG00000162009'
p3256
aS'ENSG00000179673'
p3257
aS'ENSG00000073146'
p3258
aS'ENSG00000156103'
p3259
aS'ENSG00000124749'
p3260
aS'ENSG00000101350'
p3261
aS'ENSG00000170579'
p3262
aS'ENSG00000124249'
p3263
aS'ENSG00000143641'
p3264
aS'ENSG00000107731'
p3265
atRp3266
ssS'tan3'
p3267
(dp3268
g77
(lp3269
(lp3270
S'ENSG00000144857'
p3271
aFinf
ag81
(g83
S'\xbf\t\x94\x89+\xdd[?'
tRp3272
ag81
(g83
S'\xc0\xae[\xcf\x17[\x81?'
tRp3273
aa(lp3274
g884
aFinf
ag81
(g83
S'|\x06\x94\x89+\xdd{?'
tRp3275
ag81
(g83
S'`{\tP\xb6\x94\x9b?'
tRp3276
aa(lp3277
g894
aFinf
ag81
(g83
S'5\x89\xfc5;j\x81?'
tRp3278
ag81
(g83
S'`{\tP\xb6\x94\x9b?'
tRp3279
aa(lp3280
g889
aFinf
ag81
(g83
S'|\x06\x94\x89+\xdd{?'
tRp3281
ag81
(g83
S'`{\tP\xb6\x94\x9b?'
tRp3282
aa(lp3283
g1202
aFinf
ag81
(g83
S'\x1cG\xc8_\xb3\xa3\x96?'
tRp3284
ag81
(g83
S'`{\tP\xb6\x94\x9b?'
tRp3285
aasg4
g5
((lp3286
S'ENSG00000178222'
p3287
aS'ENSG00000170632'
p3288
aS'ENSG00000241852'
p3289
aS'ENSG00000109103'
p3290
aS'ENSG00000120913'
p3291
aS'ENSG00000219481'
p3292
aS'ENSG00000166444'
p3293
aS'ENSG00000092094'
p3294
aS'ENSG00000102898'
p3295
aS'ENSG00000059122'
p3296
aS'ENSG00000100744'
p3297
aS'ENSG00000177200'
p3298
atRp3299
ssS'tan2'
p3300
(dp3301
g4
g5
((lp3302
S'ENSG00000131386'
p3303
aS'ENSG00000181458'
p3304
aS'ENSG00000164241'
p3305
aS'ENSG00000149922'
p3306
aS'ENSG00000087245'
p3307
aS'ENSG00000101230'
p3308
aS'ENSG00000103723'
p3309
aS'ENSG00000183605'
p3310
aS'ENSG00000133083'
p3311
aS'ENSG00000171928'
p3312
atRp3313
ssS'tan1'
p3314
(dp3315
g77
(lp3316
(lp3317
S'ENSG00000105851'
p3318
aFinf
ag81
(g83
S'k\x07/\xa7\xe0\xe5t?'
tRp3319
ag81
(g83
S'0\xa9YP\x19\x02\xa2?'
tRp3320
aa(lp3321
S'ENSG00000169692'
p3322
aFinf
ag81
(g83
S'k\x07/\xa7\xe0\xe5t?'
tRp3323
ag81
(g83
S'0\xa9YP\x19\x02\xa2?'
tRp3324
aa(lp3325
S'ENSG00000070388'
p3326
aFinf
ag81
(g83
S'k\x07/\xa7\xe0\xe5t?'
tRp3327
ag81
(g83
S'0\xa9YP\x19\x02\xa2?'
tRp3328
aa(lp3329
S'ENSG00000082074'
p3330
ag81
(g83
S'\x00\x00\x00\x00\x00@r@'
tRp3331
ag81
(g83
S'}s\x98|\xc3\xdc\x84?'
tRp3332
ag81
(g83
S'p\xf03\x94\xb5\x8b\xa4?'
tRp3333
aasg4
g5
((lp3334
S'ENSG00000181631'
p3335
aS'ENSG00000106327'
p3336
aS'ENSG00000169313'
p3337
aS'ENSG00000157895'
p3338
aS'ENSG00000178685'
p3339
aS'ENSG00000185404'
p3340
aS'ENSG00000111832'
p3341
aS'ENSG00000146221'
p3342
atRp3343
ssS'tomato'
p3344
(dp3345
g77
(lp3346
(lp3347
g3149
ag81
(g83
S'\x00\x00\x00\x00\x00@\x92@'
tRp3348
ag81
(g83
S'\xffF\xce:\x89O\x0b?'
tRp3349
ag81
(g83
S'\x00\xa8\x81[\xa3\xe47?'
tRp3350
aa(lp3351
g3154
ag81
(g83
S'\x00\x00\x00\x00\x00@\x92@'
tRp3352
ag81
(g83
S'\xffF\xce:\x89O\x0b?'
tRp3353
ag81
(g83
S'\x00\xa8\x81[\xa3\xe47?'
tRp3354
aa(lp3355
g2303
ag81
(g83
S'\x00\x00\x00\x00\x00\x00S@'
tRp3356
ag81
(g83
S'\xbaL?\x12_\tc?'
tRp3357
ag81
(g83
S'\x80\x12f\xd0w\xaf\x87?'
tRp3358
aa(lp3359
S'ENSG00000183010'
p3360
aFinf
ag81
(g83
S'k\x07/\xa7\xe0\xe5t?'
tRp3361
ag81
(g83
S'\xe0\x17\xa7\xdd\x12\xbd\x94?'
tRp3362
aa(lp3363
S'ENSG00000135838'
p3364
ag81
(g83
S'\x00\x00\x00\x00\x00@r@'
tRp3365
ag81
(g83
S'}s\x98|\xc3\xdc\x84?'
tRp3366
ag81
(g83
S'\xe0\x17\xa7\xdd\x12\xbd\x94?'
tRp3367
aa(lp3368
S'ENSG00000126860'
p3369
aFinf
ag81
(g83
S'k\x07/\xa7\xe0\xe5t?'
tRp3370
ag81
(g83
S'\xe0\x17\xa7\xdd\x12\xbd\x94?'
tRp3371
aa(lp3372
S'ENSG00000131015'
p3373
aFinf
ag81
(g83
S'k\x07/\xa7\xe0\xe5t?'
tRp3374
ag81
(g83
S'\xe0\x17\xa7\xdd\x12\xbd\x94?'
tRp3375
aasg4
g5
((lp3376
S'ENSG00000147592'
p3377
aS'ENSG00000171806'
p3378
aS'ENSG00000121310'
p3379
aS'ENSG00000171103'
p3380
aS'ENSG00000131015'
p3381
aS'ENSG00000196263'
p3382
aS'ENSG00000167766'
p3383
aS'ENSG00000047621'
p3384
aS'ENSG00000128165'
p3385
aS'ENSG00000111981'
p3386
aS'ENSG00000110455'
p3387
aS'ENSG00000056558'
p3388
atRp3389
ssS'ivory'
p3390
(dp3391
g4
g5
((lp3392
S'ENSG00000128191'
p3393
aS'ENSG00000169740'
p3394
aS'ENSG00000099949'
p3395
aS'ENSG00000267508'
p3396
aS'ENSG00000177030'
p3397
aS'ENSG00000237765'
p3398
aS'ENSG00000136100'
p3399
aS'ENSG00000185917'
p3400
aS'ENSG00000002016'
p3401
aS'ENSG00000113597'
p3402
aS'ENSG00000108349'
p3403
aS'ENSG00000196693'
p3404
aS'ENSG00000154144'
p3405
aS'ENSG00000162623'
p3406
aS'ENSG00000204991'
p3407
aS'ENSG00000103479'
p3408
aS'ENSG00000172922'
p3409
aS'ENSG00000243444'
p3410
atRp3411
ssS'lightyellow'
p3412
(dp3413
g4
g5
((lp3414
S'ENSG00000132141'
p3415
aS'ENSG00000160741'
p3416
aS'ENSG00000184293'
p3417
aS'ENSG00000080298'
p3418
aS'ENSG00000175215'
p3419
aS'ENSG00000155744'
p3420
aS'ENSG00000185437'
p3421
aS'ENSG00000135070'
p3422
aS'ENSG00000113300'
p3423
aS'ENSG00000121858'
p3424
aS'ENSG00000136111'
p3425
aS'ENSG00000006075'
p3426
aS'ENSG00000182093'
p3427
aS'ENSG00000187231'
p3428
aS'ENSG00000090238'
p3429
aS'ENSG00000206344'
p3430
aS'ENSG00000124641'
p3431
aS'ENSG00000163683'
p3432
aS'ENSG00000101247'
p3433
aS'ENSG00000157578'
p3434
aS'ENSG00000157764'
p3435
aS'ENSG00000100614'
p3436
aS'ENSG00000173376'
p3437
atRp3438
ssS'lightgreen'
p3439
(dp3440
g4
g5
((lp3441
S'ENSG00000157827'
p3442
aS'ENSG00000138459'
p3443
aS'ENSG00000166263'
p3444
aS'ENSG00000085733'
p3445
aS'ENSG00000217702'
p3446
aS'ENSG00000145284'
p3447
aS'ENSG00000205572'
p3448
aS'ENSG00000040531'
p3449
aS'ENSG00000167721'
p3450
aS'ENSG00000243667'
p3451
aS'ENSG00000150753'
p3452
aS'ENSG00000123213'
p3453
aS'ENSG00000151665'
p3454
aS'ENSG00000113249'
p3455
aS'ENSG00000161036'
p3456
aS'ENSG00000204525'
p3457
aS'ENSG00000155100'
p3458
aS'ENSG00000120800'
p3459
aS'ENSG00000154040'
p3460
aS'ENSG00000170727'
p3461
aS'ENSG00000113838'
p3462
aS'ENSG00000067533'
p3463
aS'ENSG00000065457'
p3464
atRp3465
ssS'lightpink2'
p3466
(dp3467
g77
(lp3468
(lp3469
S'ENSG00000140022'
p3470
aFinf
ag81
(g83
S'k\x07/\xa7\xe0\xe5t?'
tRp3471
ag81
(g83
S'\xe0\t\x90\xbat\xdb\x99?'
tRp3472
aa(lp3473
S'ENSG00000170382'
p3474
aFinf
ag81
(g83
S'k\x07/\xa7\xe0\xe5t?'
tRp3475
ag81
(g83
S'\xe0\t\x90\xbat\xdb\x99?'
tRp3476
aa(lp3477
g2790
ag81
(g83
S'\x00\x00\x00\x00\x00@r@'
tRp3478
ag81
(g83
S'}s\x98|\xc3\xdc\x84?'
tRp3479
ag81
(g83
S'`\xdf\xd0\xbe\xd0\xf9\x9e?'
tRp3480
aa(lp3481
g1456
ag81
(g83
S'\x00\x00\x00\x00\x00@X@'
tRp3482
ag81
(g83
S'$,\xf4\x1d\x91\xca\x94?'
tRp3483
ag81
(g83
S'@\xb63?\x88\x94\xa4?'
tRp3484
aa(lp3485
g1049
ag81
(g83
S'\x00\x00\x00\x00\x00@X@'
tRp3486
ag81
(g83
S'$,\xf4\x1d\x91\xca\x94?'
tRp3487
ag81
(g83
S'@\xb63?\x88\x94\xa4?'
tRp3488
aasg4
g5
((lp3489
S'ENSG00000196208'
p3490
aS'ENSG00000173917'
p3491
aS'ENSG00000204421'
p3492
aS'ENSG00000034533'
p3493
aS'ENSG00000143387'
p3494
aS'ENSG00000065154'
p3495
aS'ENSG00000257704'
p3496
aS'ENSG00000197013'
p3497
aS'ENSG00000101460'
p3498
aS'ENSG00000114200'
p3499
aS'ENSG00000172061'
p3500
aS'ENSG00000182771'
p3501
aS'ENSG00000182022'
p3502
atRp3503
ssS'lightpink3'
p3504
(dp3505
g4
g5
((lp3506
S'ENSG00000173915'
p3507
aS'ENSG00000149480'
p3508
aS'ENSG00000142233'
p3509
aS'ENSG00000112695'
p3510
aS'ENSG00000156973'
p3511
aS'ENSG00000130244'
p3512
aS'ENSG00000251369'
p3513
aS'ENSG00000162572'
p3514
aS'ENSG00000164258'
p3515
aS'ENSG00000136449'
p3516
aS'ENSG00000106400'
p3517
aS'ENSG00000143515'
p3518
aS'ENSG00000171724'
p3519
aS'ENSG00000117226'
p3520
atRp3521
ssS'lightpink1'
p3522
(dp3523
g77
(lp3524
(lp3525
S'ENSG00000122679'
p3526
ag81
(g83
S'\x00\x00\x00\x00\x000r@'
tRp3527
ag81
(g83
S'\xbbxz\xda\xaa7+?'
tRp3528
ag81
(g83
S'\x00\x93\x8bQ\xc9cd?'
tRp3529
aasg4
g5
((lp3530
S'ENSG00000062598'
p3531
aS'ENSG00000010282'
p3532
aS'ENSG00000105568'
p3533
aS'ENSG00000165832'
p3534
aS'ENSG00000145824'
p3535
aS'ENSG00000128891'
p3536
aS'ENSG00000125775'
p3537
aS'ENSG00000122870'
p3538
aS'ENSG00000186998'
p3539
aS'ENSG00000134369'
p3540
aS'ENSG00000167311'
p3541
aS'ENSG00000170485'
p3542
atRp3543
ssS'darkgrey'
p3544
(dp3545
g77
(lp3546
(lp3547
S'ENSG00000101276'
p3548
aFinf
ag81
(g83
S'\xcd\t\x94\x89+\xddk?'
tRp3549
ag81
(g83
S'\xc0\t)\x15d\xd9\xa7?'
tRp3550
aa(lp3551
S'ENSG00000168309'
p3552
aFinf
ag81
(g83
S'\xcd\t\x94\x89+\xddk?'
tRp3553
ag81
(g83
S'\xc0\t)\x15d\xd9\xa7?'
tRp3554
aa(lp3555
S'ENSG00000132702'
p3556
aFinf
ag81
(g83
S'\xcd\t\x94\x89+\xddk?'
tRp3557
ag81
(g83
S'\xc0\t)\x15d\xd9\xa7?'
tRp3558
aasg4
g5
((lp3559
S'ENSG00000169660'
p3560
aS'ENSG00000115421'
p3561
aS'ENSG00000169612'
p3562
aS'ENSG00000125851'
p3563
aS'ENSG00000104731'
p3564
aS'ENSG00000162669'
p3565
aS'ENSG00000165055'
p3566
aS'ENSG00000169914'
p3567
aS'ENSG00000042429'
p3568
aS'ENSG00000136122'
p3569
aS'ENSG00000187554'
p3570
aS'ENSG00000040199'
p3571
aS'ENSG00000163406'
p3572
aS'ENSG00000175376'
p3573
aS'ENSG00000145088'
p3574
aS'ENSG00000149311'
p3575
aS'ENSG00000170703'
p3576
aS'ENSG00000197646'
p3577
aS'ENSG00000163161'
p3578
aS'ENSG00000156398'
p3579
aS'ENSG00000168395'
p3580
atRp3581
ssS'lightpink4'
p3582
(dp3583
g4
g5
((lp3584
S'ENSG00000065268'
p3585
aS'ENSG00000172409'
p3586
aS'ENSG00000086506'
p3587
aS'ENSG00000155957'
p3588
aS'ENSG00000086205'
p3589
aS'ENSG00000152439'
p3590
aS'ENSG00000143776'
p3591
aS'ENSG00000099984'
p3592
aS'ENSG00000099974'
p3593
aS'ENSG00000145331'
p3594
aS'ENSG00000139304'
p3595
aS'ENSG00000133433'
p3596
aS'ENSG00000132478'
p3597
aS'ENSG00000124659'
p3598
aS'ENSG00000167077'
p3599
aS'ENSG00000162981'
p3600
atRp3601
ssS'darkolivegreen1'
p3602
(dp3603
g77
(lp3604
(lp3605
S'ENSG00000166165'
p3606
aFinf
ag81
(g83
S'\x07\x0f\x94\x89+\xddk?'
tRp3607
ag81
(g83
S'\x00\x0f\x94\x89+\xddk?'
tRp3608
aasg4
g5
((lp3609
S'ENSG00000141582'
p3610
aS'ENSG00000151655'
p3611
aS'ENSG00000256229'
p3612
aS'ENSG00000180596'
p3613
aS'ENSG00000237440'
p3614
aS'ENSG00000181894'
p3615
aS'ENSG00000169174'
p3616
aS'ENSG00000242852'
p3617
aS'ENSG00000256771'
p3618
aS'ENSG00000180638'
p3619
aS'ENSG00000162222'
p3620
aS'ENSG00000188171'
p3621
atRp3622
ssS'antiquewhite'
p3623
(dp3624
g4
g5
((lp3625
S'ENSG00000125414'
p3626
aS'ENSG00000111046'
p3627
aS'ENSG00000137709'
p3628
aS'ENSG00000116748'
p3629
aS'ENSG00000109061'
p3630
aS'ENSG00000086967'
p3631
aS'ENSG00000165953'
p3632
aS'ENSG00000048462'
p3633
aS'ENSG00000186844'
p3634
atRp3635
ssS'darkorange2'
p3636
(dp3637
g77
(lp3638
(lp3639
S'ENSG00000170017'
p3640
aFinf
ag81
(g83
S'\xbf\t\x94\x89+\xdd[?'
tRp3641
ag81
(g83
S'\x00\x9a\r\xbd\x1a\xd7k?'
tRp3642
aa(lp3643
S'ENSG00000135324'
p3644
aFinf
ag81
(g83
S'|\x06\x94\x89+\xdd{?'
tRp3645
ag81
(g83
S'\x80\x06\x94\x89+\xdd{?'
tRp3646
aasg4
g5
((lp3647
S'ENSG00000159917'
p3648
aS'ENSG00000170175'
p3649
aS'ENSG00000129657'
p3650
aS'ENSG00000127399'
p3651
aS'ENSG00000156510'
p3652
aS'ENSG00000184838'
p3653
aS'ENSG00000151689'
p3654
aS'ENSG00000168778'
p3655
aS'ENSG00000054219'
p3656
aS'ENSG00000104889'
p3657
aS'ENSG00000119242'
p3658
aS'ENSG00000197363'
p3659
aS'ENSG00000116991'
p3660
aS'ENSG00000065621'
p3661
aS'ENSG00000159592'
p3662
aS'ENSG00000150776'
p3663
aS'ENSG00000095002'
p3664
aS'ENSG00000196535'
p3665
atRp3666
ssS'cornsilk2'
p3667
(dp3668
g4
g5
((lp3669
S'ENSG00000120669'
p3670
aS'ENSG00000268175'
p3671
aS'ENSG00000070087'
p3672
aS'ENSG00000106404'
p3673
aS'ENSG00000181333'
p3674
atRp3675
ssS'moccasin'
p3676
(dp3677
g4
g5
((lp3678
S'ENSG00000132874'
p3679
aS'ENSG00000172985'
p3680
aS'ENSG00000255874'
p3681
aS'ENSG00000188747'
p3682
aS'ENSG00000163320'
p3683
aS'ENSG00000144426'
p3684
aS'ENSG00000186453'
p3685
aS'ENSG00000158856'
p3686
aS'ENSG00000117151'
p3687
aS'ENSG00000235750'
p3688
aS'ENSG00000182117'
p3689
aS'ENSG00000140511'
p3690
atRp3691
ssS'chocolate1'
p3692
(dp3693
g77
(lp3694
(lp3695
S'ENSG00000116990'
p3696
aFinf
ag81
(g83
S'\xcd\t\x94\x89+\xddk?'
tRp3697
ag81
(g83
S'\xc0\t)\x15d\xd9\xa7?'
tRp3698
aa(lp3699
S'ENSG00000115896'
p3700
aFinf
ag81
(g83
S'\xcd\t\x94\x89+\xddk?'
tRp3701
ag81
(g83
S'\xc0\t)\x15d\xd9\xa7?'
tRp3702
aa(lp3703
S'ENSG00000136250'
p3704
ag81
(g83
S'\x00\x00\x00\x00\x00H\x82@'
tRp3705
ag81
(g83
S'YW\xda\x17\x18\xd7{?'
tRp3706
ag81
(g83
S'\xc0\t)\x15d\xd9\xa7?'
tRp3707
aa(lp3708
S'ENSG00000185436'
p3709
aFinf
ag81
(g83
S'\xcd\t\x94\x89+\xddk?'
tRp3710
ag81
(g83
S'\xc0\t)\x15d\xd9\xa7?'
tRp3711
aa(lp3712
S'ENSG00000042980'
p3713
aFinf
ag81
(g83
S'\xcd\t\x94\x89+\xddk?'
tRp3714
ag81
(g83
S'\xc0\t)\x15d\xd9\xa7?'
tRp3715
aa(lp3716
S'ENSG00000146904'
p3717
aFinf
ag81
(g83
S'\xcd\t\x94\x89+\xddk?'
tRp3718
ag81
(g83
S'\xc0\t)\x15d\xd9\xa7?'
tRp3719
aa(lp3720
S'ENSG00000197471'
p3721
aFinf
ag81
(g83
S'\xcd\t\x94\x89+\xddk?'
tRp3722
ag81
(g83
S'\xc0\t)\x15d\xd9\xa7?'
tRp3723
aa(lp3724
S'ENSG00000146411'
p3725
aFinf
ag81
(g83
S'\xcd\t\x94\x89+\xddk?'
tRp3726
ag81
(g83
S'\xc0\t)\x15d\xd9\xa7?'
tRp3727
aa(lp3728
S'ENSG00000161921'
p3729
aFinf
ag81
(g83
S'\xcd\t\x94\x89+\xddk?'
tRp3730
ag81
(g83
S'\xc0\t)\x15d\xd9\xa7?'
tRp3731
aa(lp3732
S'ENSG00000173334'
p3733
aFinf
ag81
(g83
S'\xcd\t\x94\x89+\xddk?'
tRp3734
ag81
(g83
S'\xc0\t)\x15d\xd9\xa7?'
tRp3735
aasg4
g5
((lp3736
S'ENSG00000179862'
p3737
aS'ENSG00000149798'
p3738
aS'ENSG00000185900'
p3739
aS'ENSG00000185338'
p3740
aS'ENSG00000175356'
p3741
aS'ENSG00000062524'
p3742
atRp3743
ssS'chocolate2'
p3744
(dp3745
g77
(lp3746
(lp3747
S'ENSG00000152932'
p3748
aFinf
ag81
(g83
S'\xcd\t\x94\x89+\xddk?'
tRp3749
ag81
(g83
S'@l7\xda\xdb\xb8\x8b?'
tRp3750
aa(lp3751
S'ENSG00000176720'
p3752
ag81
(g83
S'\x00\x00\x00\x00\x00H\x82@'
tRp3753
ag81
(g83
S'YW\xda\x17\x18\xd7{?'
tRp3754
ag81
(g83
S'\x00\xfc\xc96\x12\xbd\x94?'
tRp3755
aa(lp3756
g2425
ag81
(g83
S'\x00\x00\x00\x00\x00H\x82@'
tRp3757
ag81
(g83
S'YW\xda\x17\x18\xd7{?'
tRp3758
ag81
(g83
S'\x00\xfc\xc96\x12\xbd\x94?'
tRp3759
aa(lp3760
g2010
ag81
(g83
S'\xab\xaa\xaa\xaa\xaa\xeaG@'
tRp3761
ag81
(g83
S'I\xc3\xf5\xcauh\xa6?'
tRp3762
ag81
(g83
S'P\xc3\xf5\xcauh\xa6?'
tRp3763
aasg4
g5
((lp3764
S'ENSG00000176273'
p3765
aS'ENSG00000188878'
p3766
aS'ENSG00000125434'
p3767
aS'ENSG00000196498'
p3768
aS'ENSG00000117528'
p3769
aS'ENSG00000102996'
p3770
aS'ENSG00000104899'
p3771
aS'ENSG00000084733'
p3772
aS'ENSG00000213023'
p3773
aS'ENSG00000072071'
p3774
atRp3775
ssS'chocolate3'
p3776
(dp3777
g4
g5
((lp3778
S'ENSG00000138135'
p3779
aS'ENSG00000168481'
p3780
aS'ENSG00000196655'
p3781
aS'ENSG00000164308'
p3782
aS'ENSG00000213366'
p3783
aS'ENSG00000171847'
p3784
aS'ENSG00000184347'
p3785
aS'ENSG00000134201'
p3786
aS'ENSG00000134184'
p3787
aS'ENSG00000183783'
p3788
aS'ENSG00000170430'
p3789
atRp3790
ssS'chocolate4'
p3791
(dp3792
g4
g5
((lp3793
S'ENSG00000204516'
p3794
aS'ENSG00000168679'
p3795
aS'ENSG00000205571'
p3796
aS'ENSG00000084444'
p3797
aS'ENSG00000161395'
p3798
aS'ENSG00000220205'
p3799
aS'ENSG00000047849'
p3800
aS'ENSG00000110002'
p3801
aS'ENSG00000135929'
p3802
aS'ENSG00000021355'
p3803
aS'ENSG00000132670'
p3804
aS'ENSG00000203791'
p3805
aS'ENSG00000168724'
p3806
atRp3807
ssS'darkslateblue'
p3808
(dp3809
g4
g5
((lp3810
S'ENSG00000187122'
p3811
aS'ENSG00000177409'
p3812
aS'ENSG00000157601'
p3813
aS'ENSG00000134321'
p3814
aS'ENSG00000130943'
p3815
aS'ENSG00000170509'
p3816
aS'ENSG00000173193'
p3817
aS'ENSG00000185880'
p3818
aS'ENSG00000221947'
p3819
aS'ENSG00000110031'
p3820
aS'ENSG00000117228'
p3821
aS'ENSG00000119922'
p3822
aS'ENSG00000142405'
p3823
aS'ENSG00000181381'
p3824
aS'ENSG00000089127'
p3825
aS'ENSG00000126106'
p3826
aS'ENSG00000119917'
p3827
atRp3828
ssS'salmon1'
p3829
(dp3830
g4
g5
((lp3831
S'ENSG00000103202'
p3832
aS'ENSG00000213015'
p3833
aS'ENSG00000130703'
p3834
aS'ENSG00000132294'
p3835
aS'ENSG00000090487'
p3836
aS'ENSG00000089693'
p3837
aS'ENSG00000101158'
p3838
aS'ENSG00000138032'
p3839
aS'ENSG00000159377'
p3840
aS'ENSG00000086300'
p3841
aS'ENSG00000100983'
p3842
aS'ENSG00000166839'
p3843
aS'ENSG00000125814'
p3844
atRp3845
ssS'deeppink'
p3846
(dp3847
g77
(lp3848
(lp3849
S'ENSG00000249859'
p3850
aFinf
ag81
(g83
S'\xbf\t\x94\x89+\xdd[?'
tRp3851
ag81
(g83
S'\xc0\xae[\xcf\x17[\x81?'
tRp3852
aa(lp3853
S'ENSG00000062716'
p3854
aFinf
ag81
(g83
S'\xbf\t\x94\x89+\xdd[?'
tRp3855
ag81
(g83
S'\xc0\xae[\xcf\x17[\x81?'
tRp3856
aa(lp3857
S'ENSG00000207112'
p3858
aFinf
ag81
(g83
S'\xbf\t\x94\x89+\xdd[?'
tRp3859
ag81
(g83
S'\xc0\xae[\xcf\x17[\x81?'
tRp3860
aa(lp3861
S'ENSG00000170011'
p3862
aFinf
ag81
(g83
S'\xbf\t\x94\x89+\xdd[?'
tRp3863
ag81
(g83
S'\xc0\xae[\xcf\x17[\x81?'
tRp3864
aa(lp3865
S'ENSG00000115468'
p3866
aFinf
ag81
(g83
S'\xcc\x83\xfc5;j\x91?'
tRp3867
ag81
(g83
S'\xc0\x83\xfc5;j\x91?'
tRp3868
aasg4
g5
((lp3869
S'ENSG00000151657'
p3870
aS'ENSG00000092531'
p3871
aS'ENSG00000146085'
p3872
aS'ENSG00000178149'
p3873
aS'ENSG00000171763'
p3874
aS'ENSG00000168883'
p3875
aS'ENSG00000133661'
p3876
aS'ENSG00000175216'
p3877
aS'ENSG00000164219'
p3878
aS'ENSG00000144278'
p3879
aS'ENSG00000154719'
p3880
aS'ENSG00000241935'
p3881
aS'ENSG00000198933'
p3882
aS'ENSG00000167977'
p3883
atRp3884
ssS'plum'
p3885
(dp3886
g4
g5
((lp3887
S'ENSG00000197885'
p3888
aS'ENSG00000183828'
p3889
aS'ENSG00000181016'
p3890
aS'ENSG00000141279'
p3891
aS'ENSG00000188467'
p3892
aS'ENSG00000104497'
p3893
aS'ENSG00000006744'
p3894
aS'ENSG00000222012'
p3895
aS'ENSG00000188906'
p3896
aS'ENSG00000149269'
p3897
aS'ENSG00000197353'
p3898
aS'ENSG00000164327'
p3899
aS'ENSG00000170486'
p3900
aS'ENSG00000186868'
p3901
aS'ENSG00000198590'
p3902
aS'ENSG00000148688'
p3903
atRp3904
ssS'thistle'
p3905
(dp3906
g4
g5
((lp3907
S'ENSG00000081721'
p3908
aS'ENSG00000179071'
p3909
aS'ENSG00000144455'
p3910
aS'ENSG00000078674'
p3911
aS'ENSG00000086102'
p3912
aS'ENSG00000171298'
p3913
aS'ENSG00000196072'
p3914
aS'ENSG00000196214'
p3915
aS'ENSG00000187664'
p3916
aS'ENSG00000126456'
p3917
aS'ENSG00000164091'
p3918
aS'ENSG00000140043'
p3919
aS'ENSG00000146054'
p3920
aS'ENSG00000134077'
p3921
aS'ENSG00000125630'
p3922
atRp3923
ssS'violet'
p3924
(dp3925
g4
g5
((lp3926
S'ENSG00000198130'
p3927
aS'ENSG00000172247'
p3928
aS'ENSG00000204839'
p3929
aS'ENSG00000139410'
p3930
aS'ENSG00000213123'
p3931
aS'ENSG00000176834'
p3932
aS'ENSG00000130518'
p3933
aS'ENSG00000125834'
p3934
aS'ENSG00000167703'
p3935
aS'ENSG00000125534'
p3936
aS'ENSG00000181915'
p3937
aS'ENSG00000089847'
p3938
aS'ENSG00000119737'
p3939
aS'ENSG00000139620'
p3940
aS'ENSG00000144231'
p3941
aS'ENSG00000179698'
p3942
aS'ENSG00000134779'
p3943
aS'ENSG00000215251'
p3944
aS'ENSG00000173480'
p3945
atRp3946
ssS'red1'
p3947
(dp3948
g77
(lp3949
(lp3950
S'ENSG00000141526'
p3951
aFinf
ag81
(g83
S'\xbf\t\x94\x89+\xdd[?'
tRp3952
ag81
(g83
S'`$\xe7)\x1dK\xa0?'
tRp3953
aasg4
g5
((lp3954
S'ENSG00000196378'
p3955
aS'ENSG00000250565'
p3956
aS'ENSG00000011422'
p3957
aS'ENSG00000151893'
p3958
aS'ENSG00000128805'
p3959
aS'ENSG00000125618'
p3960
aS'ENSG00000142669'
p3961
aS'ENSG00000051128'
p3962
atRp3963
ssS'maroon'
p3964
(dp3965
g4
g5
((lp3966
S'ENSG00000116213'
p3967
aS'ENSG00000204967'
p3968
aS'ENSG00000180113'
p3969
aS'ENSG00000205133'
p3970
aS'ENSG00000164414'
p3971
aS'ENSG00000104361'
p3972
aS'ENSG00000215252'
p3973
aS'ENSG00000184517'
p3974
aS'ENSG00000089234'
p3975
aS'ENSG00000120519'
p3976
aS'ENSG00000140600'
p3977
aS'ENSG00000108963'
p3978
aS'ENSG00000167236'
p3979
aS'ENSG00000028839'
p3980
aS'ENSG00000142675'
p3981
aS'ENSG00000118961'
p3982
aS'ENSG00000213339'
p3983
atRp3984
ssS'lightcyan1'
p3985
(dp3986
g77
(lp3987
(lp3988
S'ENSG00000105290'
p3989
aFinf
ag81
(g83
S'\xcd\t\x94\x89+\xddk?'
tRp3990
ag81
(g83
S'\x00\x8d\xb4\x89\xb3\xd3\x84?'
tRp3991
aa(lp3992
g350
ag81
(g83
S'\xab\xaa\xaa\xaa\xaaJh@'
tRp3993
ag81
(g83
S'C\xe9f4\xf1\xca\x8b?'
tRp3994
ag81
(g83
S'\x80n=8\xaa\x9a\x9b?'
tRp3995
aa(lp3996
g354
ag81
(g83
S'\xdb\xb6m\xdb\xb6\xadT@'
tRp3997
ag81
(g83
S'\x1c \x80m\xa3\xb2\x9b?'
tRp3998
ag81
(g83
S'  \x80m\xa3\xb2\x9b?'
tRp3999
aasg4
g5
((lp4000
S'ENSG00000111490'
p4001
aS'ENSG00000171502'
p4002
aS'ENSG00000188976'
p4003
aS'ENSG00000106263'
p4004
aS'ENSG00000198168'
p4005
aS'ENSG00000163930'
p4006
aS'ENSG00000129933'
p4007
aS'ENSG00000100029'
p4008
aS'ENSG00000107164'
p4009
aS'ENSG00000174891'
p4010
aS'ENSG00000141562'
p4011
aS'ENSG00000038532'
p4012
aS'ENSG00000165752'
p4013
aS'ENSG00000144741'
p4014
aS'ENSG00000167965'
p4015
aS'ENSG00000164880'
p4016
aS'ENSG00000174521'
p4017
aS'ENSG00000008838'
p4018
atRp4019
ssS'magenta'
p4020
(dp4021
g4
g5
((lp4022
S'ENSG00000174446'
p4023
aS'ENSG00000136003'
p4024
aS'ENSG00000162664'
p4025
aS'ENSG00000173660'
p4026
aS'ENSG00000130311'
p4027
aS'ENSG00000164405'
p4028
aS'ENSG00000131495'
p4029
aS'ENSG00000104863'
p4030
aS'ENSG00000241468'
p4031
aS'ENSG00000171503'
p4032
aS'ENSG00000154518'
p4033
aS'ENSG00000178449'
p4034
aS'ENSG00000007062'
p4035
aS'ENSG00000119013'
p4036
aS'ENSG00000145494'
p4037
aS'ENSG00000171903'
p4038
aS'ENSG00000130770'
p4039
aS'ENSG00000130724'
p4040
aS'ENSG00000189043'
p4041
aS'ENSG00000103121'
p4042
aS'ENSG00000120805'
p4043
aS'ENSG00000182154'
p4044
aS'ENSG00000133103'
p4045
aS'ENSG00000267855'
p4046
aS'ENSG00000198258'
p4047
aS'ENSG00000184752'
p4048
atRp4049
ssS'mistyrose3'
p4050
(dp4051
g4
g5
((lp4052
S'ENSG00000105699'
p4053
aS'ENSG00000053524'
p4054
aS'ENSG00000145217'
p4055
aS'ENSG00000146707'
p4056
aS'ENSG00000132879'
p4057
aS'ENSG00000116663'
p4058
aS'ENSG00000141971'
p4059
aS'ENSG00000188372'
p4060
atRp4061
ssS'pink'
p4062
(dp4063
g4
g5
((lp4064
S'ENSG00000149084'
p4065
aS'ENSG00000118690'
p4066
aS'ENSG00000144362'
p4067
aS'ENSG00000170745'
p4068
aS'ENSG00000165115'
p4069
aS'ENSG00000110328'
p4070
aS'ENSG00000101447'
p4071
aS'ENSG00000211455'
p4072
aS'ENSG00000013016'
p4073
aS'ENSG00000104228'
p4074
aS'ENSG00000111696'
p4075
aS'ENSG00000174007'
p4076
aS'ENSG00000198680'
p4077
aS'ENSG00000160469'
p4078
aS'ENSG00000147813'
p4079
aS'ENSG00000117519'
p4080
aS'ENSG00000157833'
p4081
aS'ENSG00000169071'
p4082
aS'ENSG00000166352'
p4083
aS'ENSG00000087008'
p4084
aS'ENSG00000101452'
p4085
aS'ENSG00000109738'
p4086
aS'ENSG00000134463'
p4087
aS'ENSG00000119638'
p4088
aS'ENSG00000149292'
p4089
aS'ENSG00000138639'
p4090
aS'ENSG00000119280'
p4091
atRp4092
ssS'palevioletred'
p4093
(dp4094
g77
(lp4095
(lp4096
S'ENSG00000174059'
p4097
aFinf
ag81
(g83
S'k\x07/\xa7\xe0\xe5t?'
tRp4098
ag81
(g83
S'\xe0\t\x90\xbat\xdb\x99?'
tRp4099
aa(lp4100
S'ENSG00000105538'
p4101
ag81
(g83
S'\x00\x00\x00\x00\x008b@'
tRp4102
ag81
(g83
S']7Gv}=\x8f?'
tRp4103
ag81
(g83
S'p\xf03\x94\xb5\x8b\xa4?'
tRp4104
aa(lp4105
S'ENSG00000154133'
p4106
ag81
(g83
S'\x00\x00\x00\x00\x00@r@'
tRp4107
ag81
(g83
S'}s\x98|\xc3\xdc\x84?'
tRp4108
ag81
(g83
S'p\xf03\x94\xb5\x8b\xa4?'
tRp4109
aa(lp4110
S'ENSG00000100065'
p4111
ag81
(g83
S'\x00\x00\x00\x00\x00@r@'
tRp4112
ag81
(g83
S'}s\x98|\xc3\xdc\x84?'
tRp4113
ag81
(g83
S'p\xf03\x94\xb5\x8b\xa4?'
tRp4114
aa(lp4115
S'ENSG00000251322'
p4116
ag81
(g83
S'\x00\x00\x00\x00\x00\x00M@'
tRp4117
ag81
(g83
S'\xcd\x84\t\x0c\x9e\x14\x9f?'
tRp4118
ag81
(g83
S'p\xf03\x94\xb5\x8b\xa4?'
tRp4119
aasg4
g5
((lp4120
S'ENSG00000198838'
p4121
aS'ENSG00000096872'
p4122
aS'ENSG00000148926'
p4123
aS'ENSG00000152527'
p4124
aS'ENSG00000198648'
p4125
aS'ENSG00000109472'
p4126
aS'ENSG00000239264'
p4127
aS'ENSG00000083123'
p4128
aS'ENSG00000183423'
p4129
aS'ENSG00000164506'
p4130
aS'ENSG00000169507'
p4131
aS'ENSG00000178623'
p4132
atRp4133
ssS'slateblue'
p4134
(dp4135
g77
(lp4136
(lp4137
S'ENSG00000101695'
p4138
aFinf
ag81
(g83
S'k\x07/\xa7\xe0\xe5t?'
tRp4139
ag81
(g83
S'0\xa9YP\x19\x02\xa2?'
tRp4140
aa(lp4141
S'ENSG00000187116'
p4142
aFinf
ag81
(g83
S'k\x07/\xa7\xe0\xe5t?'
tRp4143
ag81
(g83
S'0\xa9YP\x19\x02\xa2?'
tRp4144
aa(lp4145
S'ENSG00000159164'
p4146
aFinf
ag81
(g83
S'k\x07/\xa7\xe0\xe5t?'
tRp4147
ag81
(g83
S'0\xa9YP\x19\x02\xa2?'
tRp4148
aa(lp4149
S'ENSG00000204161'
p4150
aFinf
ag81
(g83
S'k\x07/\xa7\xe0\xe5t?'
tRp4151
ag81
(g83
S'0\xa9YP\x19\x02\xa2?'
tRp4152
aasg4
g5
((lp4153
S'ENSG00000198515'
p4154
aS'ENSG00000135587'
p4155
aS'ENSG00000130177'
p4156
aS'ENSG00000171109'
p4157
aS'ENSG00000041988'
p4158
aS'ENSG00000116954'
p4159
aS'ENSG00000159579'
p4160
aS'ENSG00000162877'
p4161
aS'ENSG00000206560'
p4162
aS'ENSG00000158109'
p4163
aS'ENSG00000179242'
p4164
aS'ENSG00000188199'
p4165
aS'ENSG00000197301'
p4166
atRp4167
ssS'sienna4'
p4168
(dp4169
g77
(lp4170
(lp4171
S'ENSG00000236502'
p4172
ag81
(g83
S'\x00\x00\x00\x00\x00@r@'
tRp4173
ag81
(g83
S'\x82k\x98|\xc3\xdc\x84?'
tRp4174
ag81
(g83
S'\xa0\xd3\xd0\xbe\xd0\xf9\x9e?'
tRp4175
aa(lp4176
S'ENSG00000122786'
p4177
ag81
(g83
S'\xab\xaa\xaa\xaa\xaaJh@'
tRp4178
ag81
(g83
S'C\xe9f4\xf1\xca\x8b?'
tRp4179
ag81
(g83
S'\xa0\xd3\xd0\xbe\xd0\xf9\x9e?'
tRp4180
aasg4
g5
((lp4181
S'ENSG00000123610'
p4182
aS'ENSG00000117505'
p4183
aS'ENSG00000107554'
p4184
aS'ENSG00000132692'
p4185
aS'ENSG00000110987'
p4186
aS'ENSG00000112759'
p4187
aS'ENSG00000183628'
p4188
aS'ENSG00000143067'
p4189
aS'ENSG00000225614'
p4190
aS'ENSG00000111799'
p4191
aS'ENSG00000105750'
p4192
aS'ENSG00000196544'
p4193
aS'ENSG00000112062'
p4194
aS'ENSG00000099290'
p4195
atRp4196
ssS'darkorange'
p4197
(dp4198
g77
(lp4199
(lp4200
S'ENSG00000105369'
p4201
aFinf
ag81
(g83
S"(\\\x18#'\xe7\xc4>"
tRp4202
ag81
(g83
S'\x00\xc0\x14\x93vT\x10?'
tRp4203
aa(lp4204
S'ENSG00000156738'
p4205
aFinf
ag81
(g83
S"(\\\x18#'\xe7\xc4>"
tRp4206
ag81
(g83
S'\x00\xc0\x14\x93vT\x10?'
tRp4207
aasg4
g5
((lp4208
S'ENSG00000069849'
p4209
aS'ENSG00000269404'
p4210
aS'ENSG00000198794'
p4211
aS'ENSG00000105369'
p4212
aS'ENSG00000196935'
p4213
aS'ENSG00000241106'
p4214
aS'ENSG00000153898'
p4215
aS'ENSG00000119866'
p4216
aS'ENSG00000159267'
p4217
aS'ENSG00000132837'
p4218
aS'ENSG00000184613'
p4219
aS'ENSG00000177455'
p4220
aS'ENSG00000185149'
p4221
aS'ENSG00000141560'
p4222
aS'ENSG00000154864'
p4223
aS'ENSG00000118513'
p4224
aS'ENSG00000083454'
p4225
aS'ENSG00000012124'
p4226
aS'ENSG00000127585'
p4227
aS'ENSG00000176749'
p4228
atRp4229
ssS'powderblue'
p4230
(dp4231
g77
(lp4232
(lp4233
S'ENSG00000173898'
p4234
aFinf
ag81
(g83
S'\xcd\t\x94\x89+\xddk?'
tRp4235
ag81
(g83
S'\x00\n\x94\x89+\xddk?'
tRp4236
aasg4
g5
((lp4237
S'ENSG00000088448'
p4238
aS'ENSG00000152926'
p4239
aS'ENSG00000213462'
p4240
aS'ENSG00000156076'
p4241
aS'ENSG00000244731'
p4242
aS'ENSG00000185128'
p4243
aS'ENSG00000130684'
p4244
aS'ENSG00000073849'
p4245
aS'ENSG00000111321'
p4246
aS'ENSG00000172938'
p4247
aS'ENSG00000048544'
p4248
aS'ENSG00000105281'
p4249
atRp4250
ssS'mistyrose4'
p4251
(dp4252
g77
(lp4253
(lp4254
S'ENSG00000118729'
p4255
ag81
(g83
S'I\x92$I\x92\xa4d@'
tRp4256
ag81
(g83
S'y\xcdp\x84\xd1WD?'
tRp4257
ag81
(g83
S'\x00\xb2;\xe0\xa3?\x84?'
tRp4258
aasg4
g5
((lp4259
S'ENSG00000109466'
p4260
aS'ENSG00000139182'
p4261
aS'ENSG00000120254'
p4262
aS'ENSG00000075643'
p4263
aS'ENSG00000151208'
p4264
aS'ENSG00000095637'
p4265
aS'ENSG00000232237'
p4266
aS'ENSG00000103037'
p4267
aS'ENSG00000134809'
p4268
aS'ENSG00000075673'
p4269
atRp4270
ssS'lightcyan'
p4271
(dp4272
g77
(lp4273
(lp4274
S'ENSG00000108018'
p4275
ag81
(g83
S'UUUUU\xb5g@'
tRp4276
ag81
(g83
S'\xc4\xff\xf1}E\xa3\x9a='
tRp4277
ag81
(g83
S'\x00\x00\x00\x00<P\xe2='
tRp4278
aa(lp4279
S'ENSG00000065361'
p4280
ag81
(g83
S'UUUUU\xd5W@'
tRp4281
ag81
(g83
S'\x86\x04\xb5\xf4`\xfd\x89>'
tRp4282
ag81
(g83
S'\x00\x00\x86vE\x0e\xd1>'
tRp4283
aa(lp4284
S'ENSG00000215018'
p4285
ag81
(g83
S'\x1c\xc7q\x1c\xc7\xf1O@'
tRp4286
ag81
(g83
S'\xbc\x00\xee<\xdd\xb0^?'
tRp4287
ag81
(g83
S'@\x89\x14\xe2 \xd8\xa2?'
tRp4288
aa(lp4289
S'ENSG00000070731'
p4290
ag81
(g83
S'\x1c\xc7q\x1c\xc7\xf1O@'
tRp4291
ag81
(g83
S'\xbc\x00\xee<\xdd\xb0^?'
tRp4292
ag81
(g83
S'@\x89\x14\xe2 \xd8\xa2?'
tRp4293
aa(lp4294
S'ENSG00000158887'
p4295
ag81
(g83
S'\x1c\xc7q\x1c\xc7\xf1O@'
tRp4296
ag81
(g83
S'\xbc\x00\xee<\xdd\xb0^?'
tRp4297
ag81
(g83
S'@\x89\x14\xe2 \xd8\xa2?'
tRp4298
aa(lp4299
S'ENSG00000175161'
p4300
ag81
(g83
S'\x1c\xc7q\x1c\xc7\xf1O@'
tRp4301
ag81
(g83
S'\xbc\x00\xee<\xdd\xb0^?'
tRp4302
ag81
(g83
S'@\x89\x14\xe2 \xd8\xa2?'
tRp4303
aa(lp4304
S'ENSG00000180660'
p4305
ag81
(g83
S'\x1c\xc7q\x1c\xc7\xf1O@'
tRp4306
ag81
(g83
S'\xbc\x00\xee<\xdd\xb0^?'
tRp4307
ag81
(g83
S'@\x89\x14\xe2 \xd8\xa2?'
tRp4308
aa(lp4309
S'ENSG00000204323'
p4310
ag81
(g83
S'\x1c\xc7q\x1c\xc7\xf1O@'
tRp4311
ag81
(g83
S'\xbc\x00\xee<\xdd\xb0^?'
tRp4312
ag81
(g83
S'@\x89\x14\xe2 \xd8\xa2?'
tRp4313
aa(lp4314
S'ENSG00000187699'
p4315
ag81
(g83
S'\x1c\xc7q\x1c\xc7\xf1O@'
tRp4316
ag81
(g83
S'\xbc\x00\xee<\xdd\xb0^?'
tRp4317
ag81
(g83
S'@\x89\x14\xe2 \xd8\xa2?'
tRp4318
aa(lp4319
S'ENSG00000167614'
p4320
ag81
(g83
S'&\xb4\x97\xd0^BE@'
tRp4321
ag81
(g83
S'\xcd\x1f\xb0\x02ZPi?'
tRp4322
ag81
(g83
S' Lb7\xc30\xa4?'
tRp4323
aa(lp4324
S'ENSG00000164007'
p4325
ag81
(g83
S'&\xb4\x97\xd0^BE@'
tRp4326
ag81
(g83
S'\xcd\x1f\xb0\x02ZPi?'
tRp4327
ag81
(g83
S' Lb7\xc30\xa4?'
tRp4328
aa(lp4329
S'ENSG00000133477'
p4330
ag81
(g83
S'&\xb4\x97\xd0^BE@'
tRp4331
ag81
(g83
S'\xcd\x1f\xb0\x02ZPi?'
tRp4332
ag81
(g83
S' Lb7\xc30\xa4?'
tRp4333
aasg4
g5
((lp4334
S'ENSG00000104320'
p4335
aS'ENSG00000206052'
p4336
aS'ENSG00000188487'
p4337
aS'ENSG00000071991'
p4338
aS'ENSG00000118322'
p4339
aS'ENSG00000155816'
p4340
aS'ENSG00000128928'
p4341
aS'ENSG00000184226'
p4342
aS'ENSG00000150471'
p4343
aS'ENSG00000144115'
p4344
aS'ENSG00000162951'
p4345
aS'ENSG00000162631'
p4346
aS'ENSG00000163486'
p4347
aS'ENSG00000128039'
p4348
aS'ENSG00000121039'
p4349
aS'ENSG00000170075'
p4350
aS'ENSG00000240563'
p4351
aS'ENSG00000182628'
p4352
aS'ENSG00000119900'
p4353
aS'ENSG00000136531'
p4354
aS'ENSG00000182919'
p4355
aS'ENSG00000186417'
p4356
aS'ENSG00000179915'
p4357
aS'ENSG00000188167'
p4358
atRp4359
ssS'sienna1'
p4360
(dp4361
g4
g5
((lp4362
S'ENSG00000115339'
p4363
aS'ENSG00000185924'
p4364
aS'ENSG00000146521'
p4365
aS'ENSG00000181754'
p4366
aS'ENSG00000163001'
p4367
aS'ENSG00000137094'
p4368
aS'ENSG00000175066'
p4369
aS'ENSG00000115844'
p4370
aS'ENSG00000082512'
p4371
aS'ENSG00000041982'
p4372
aS'ENSG00000153291'
p4373
atRp4374
ssS'midnightblue'
p4375
(dp4376
g4
g5
((lp4377
S'ENSG00000087253'
p4378
aS'ENSG00000100445'
p4379
aS'ENSG00000110107'
p4380
aS'ENSG00000110660'
p4381
aS'ENSG00000222046'
p4382
aS'ENSG00000184949'
p4383
aS'ENSG00000100038'
p4384
aS'ENSG00000165271'
p4385
aS'ENSG00000163902'
p4386
aS'ENSG00000186567'
p4387
aS'ENSG00000129347'
p4388
aS'ENSG00000100147'
p4389
aS'ENSG00000120322'
p4390
aS'ENSG00000103168'
p4391
aS'ENSG00000006282'
p4392
aS'ENSG00000198208'
p4393
aS'ENSG00000132740'
p4394
aS'ENSG00000108556'
p4395
aS'ENSG00000165684'
p4396
aS'ENSG00000141519'
p4397
aS'ENSG00000058453'
p4398
aS'ENSG00000145912'
p4399
aS'ENSG00000108588'
p4400
aS'ENSG00000135124'
p4401
aS'ENSG00000258366'
p4402
atRp4403
ssS'paleturquoise'
p4404
(dp4405
g77
(lp4406
(lp4407
S'ENSG00000102010'
p4408
aFinf
ag81
(g83
S'\xcd\t\x94\x89+\xddk?'
tRp4409
ag81
(g83
S'@l7\xda\xdb\xb8\x8b?'
tRp4410
aa(lp4411
S'ENSG00000174175'
p4412
aFinf
ag81
(g83
S'\xcd\t\x94\x89+\xddk?'
tRp4413
ag81
(g83
S'@l7\xda\xdb\xb8\x8b?'
tRp4414
aa(lp4415
S'ENSG00000162367'
p4416
aFinf
ag81
(g83
S'\xcd\t\x94\x89+\xddk?'
tRp4417
ag81
(g83
S'@l7\xda\xdb\xb8\x8b?'
tRp4418
aa(lp4419
g2201
ag81
(g83
S'\xab\xaa\xaa\xaa\xaa*X@'
tRp4420
ag81
(g83
S'\xd8\xa8R\x03\xa0A\x98?'
tRp4421
ag81
(g83
S'\xe0\xa8R\x03\xa0A\x98?'
tRp4422
aasg4
g5
((lp4423
S'ENSG00000145293'
p4424
aS'ENSG00000108984'
p4425
aS'ENSG00000135406'
p4426
aS'ENSG00000044574'
p4427
aS'ENSG00000129003'
p4428
aS'ENSG00000034239'
p4429
aS'ENSG00000064115'
p4430
aS'ENSG00000179218'
p4431
aS'ENSG00000140691'
p4432
aS'ENSG00000163703'
p4433
aS'ENSG00000180481'
p4434
aS'ENSG00000144152'
p4435
aS'ENSG00000184164'
p4436
aS'ENSG00000121064'
p4437
aS'ENSG00000197182'
p4438
aS'ENSG00000125731'
p4439
aS'ENSG00000128918'
p4440
aS'ENSG00000182858'
p4441
aS'ENSG00000121073'
p4442
atRp4443
ssS'purple2'
p4444
(dp4445
g77
(lp4446
(lp4447
S'ENSG00000203706'
p4448
aFinf
ag81
(g83
S'\xbf\t\x94\x89+\xdd[?'
tRp4449
ag81
(g83
S'\x00\x9a\r\xbd\x1a\xd7k?'
tRp4450
aa(lp4451
g1253
aFinf
ag81
(g83
S'V\x03/\xa7\xe0\xe5t?'
tRp4452
ag81
(g83
S'\x80\x03/\xa7\xe0\xe5t?'
tRp4453
aasg4
g5
((lp4454
S'ENSG00000127463'
p4455
aS'ENSG00000101251'
p4456
aS'ENSG00000198818'
p4457
aS'ENSG00000153774'
p4458
aS'ENSG00000147912'
p4459
aS'ENSG00000100591'
p4460
aS'ENSG00000119616'
p4461
aS'ENSG00000109270'
p4462
aS'ENSG00000166183'
p4463
aS'ENSG00000134153'
p4464
atRp4465
ssS'orangered3'
p4466
(dp4467
g77
(lp4468
(lp4469
S'ENSG00000143119'
p4470
ag81
(g83
S'6\x94\xd7P^CF@'
tRp4471
ag81
(g83
S'\x18\xf1\xb8\xe9\x9e\x7f<?'
tRp4472
ag81
(g83
S"\x80\xe2'mN\xf1\x7f?"
tRp4473
aa(lp4474
S'ENSG00000122122'
p4475
ag81
(g83
S'xxxxx88@'
tRp4476
ag81
(g83
S'\xb0\x89\xfa\xe2\xebEa?'
tRp4477
ag81
(g83
S'\x90\xe3\x95g\xde\x0b\xa2?'
tRp4478
aasg4
g5
((lp4479
S'ENSG00000084072'
p4480
aS'ENSG00000111481'
p4481
aS'ENSG00000167747'
p4482
aS'ENSG00000164366'
p4483
aS'ENSG00000268926'
p4484
aS'ENSG00000172578'
p4485
aS'ENSG00000196372'
p4486
aS'ENSG00000182853'
p4487
aS'ENSG00000157823'
p4488
aS'ENSG00000173391'
p4489
aS'ENSG00000089250'
p4490
aS'ENSG00000155542'
p4491
aS'ENSG00000135778'
p4492
aS'ENSG00000013523'
p4493
aS'ENSG00000161921'
p4494
atRp4495
ssS'deeppink2'
p4496
(dp4497
g4
g5
((lp4498
S'ENSG00000197140'
p4499
aS'ENSG00000110074'
p4500
aS'ENSG00000243708'
p4501
aS'ENSG00000118096'
p4502
aS'ENSG00000100285'
p4503
aS'ENSG00000117174'
p4504
aS'ENSG00000066427'
p4505
aS'ENSG00000234465'
p4506
aS'ENSG00000188707'
p4507
aS'ENSG00000021488'
p4508
atRp4509
ssS'deeppink1'
p4510
(dp4511
g77
(lp4512
(lp4513
S'ENSG00000187068'
p4514
aFinf
ag81
(g83
S'k\x07/\xa7\xe0\xe5t?'
tRp4515
ag81
(g83
S"\xc0Xm\x12'\xf3\x9e?"
tRp4516
aasg4
g5
((lp4517
S'ENSG00000164106'
p4518
aS'ENSG00000088882'
p4519
aS'ENSG00000116157'
p4520
aS'ENSG00000103353'
p4521
aS'ENSG00000175595'
p4522
aS'ENSG00000138315'
p4523
aS'ENSG00000116406'
p4524
aS'ENSG00000178980'
p4525
aS'ENSG00000254535'
p4526
aS'ENSG00000168275'
p4527
aS'ENSG00000130529'
p4528
aS'ENSG00000112146'
p4529
atRp4530
ssS'orangered4'
p4531
(dp4532
g4
g5
((lp4533
S'ENSG00000011376'
p4534
aS'ENSG00000160325'
p4535
aS'ENSG00000135976'
p4536
aS'ENSG00000197226'
p4537
aS'ENSG00000257949'
p4538
aS'ENSG00000146457'
p4539
aS'ENSG00000197386'
p4540
aS'ENSG00000161513'
p4541
aS'ENSG00000076924'
p4542
aS'ENSG00000185088'
p4543
aS'ENSG00000070047'
p4544
aS'ENSG00000053900'
p4545
aS'ENSG00000164338'
p4546
aS'ENSG00000152404'
p4547
aS'ENSG00000041802'
p4548
aS'ENSG00000075234'
p4549
aS'ENSG00000181026'
p4550
aS'ENSG00000161328'
p4551
atRp4552
ssS'thistle3'
p4553
(dp4554
g77
(lp4555
(lp4556
S'ENSG00000165495'
p4557
ag81
(g83
S'\x00\x00\x00\x00\x00@r@'
tRp4558
ag81
(g83
S'\x82k\x98|\xc3\xdc\x84?'
tRp4559
ag81
(g83
S'\x80k\x98|\xc3\xdc\x84?'
tRp4560
aasg4
g5
((lp4561
S'ENSG00000166896'
p4562
aS'ENSG00000167105'
p4563
aS'ENSG00000138050'
p4564
aS'ENSG00000182931'
p4565
aS'ENSG00000187010'
p4566
aS'ENSG00000181240'
p4567
aS'ENSG00000267710'
p4568
aS'ENSG00000049449'
p4569
aS'ENSG00000232629'
p4570
aS'ENSG00000237541'
p4571
aS'ENSG00000166796'
p4572
aS'ENSG00000146833'
p4573
aS'ENSG00000106628'
p4574
aS'ENSG00000144908'
p4575
aS'ENSG00000169629'
p4576
atRp4577
ssS'thistle2'
p4578
(dp4579
g77
(lp4580
(lp4581
S'ENSG00000112303'
p4582
aFinf
ag81
(g83
S'V\x03/\xa7\xe0\xe5t?'
tRp4583
ag81
(g83
S'\x80\x03/\xa7\xe0\xe5t?'
tRp4584
aasg4
g5
((lp4585
S'ENSG00000170903'
p4586
aS'ENSG00000173535'
p4587
aS'ENSG00000146453'
p4588
aS'ENSG00000153201'
p4589
aS'ENSG00000179119'
p4590
aS'ENSG00000174373'
p4591
aS'ENSG00000179021'
p4592
aS'ENSG00000168795'
p4593
aS'ENSG00000026103'
p4594
aS'ENSG00000205106'
p4595
aS'ENSG00000267796'
p4596
aS'ENSG00000127993'
p4597
aS'ENSG00000058729'
p4598
aS'ENSG00000137871'
p4599
aS'ENSG00000082258'
p4600
aS'ENSG00000100483'
p4601
aS'ENSG00000078808'
p4602
atRp4603
ssS'thistle1'
p4604
(dp4605
g77
(lp4606
(lp4607
S'ENSG00000182013'
p4608
aFinf
ag81
(g83
S'k\x07/\xa7\xe0\xe5t?'
tRp4609
ag81
(g83
S'@\xe9\x8ei\xf1/\x8f?'
tRp4610
aasg4
g5
((lp4611
S'ENSG00000163617'
p4612
aS'ENSG00000183439'
p4613
aS'ENSG00000186501'
p4614
aS'ENSG00000104884'
p4615
aS'ENSG00000011143'
p4616
aS'ENSG00000123983'
p4617
aS'ENSG00000240230'
p4618
aS'ENSG00000119946'
p4619
aS'ENSG00000155530'
p4620
aS'ENSG00000015676'
p4621
aS'ENSG00000137944'
p4622
aS'ENSG00000168026'
p4623
aS'ENSG00000163239'
p4624
aS'ENSG00000153406'
p4625
aS'ENSG00000167972'
p4626
aS'ENSG00000140104'
p4627
aS'ENSG00000139722'
p4628
atRp4629
ssS'sienna2'
p4630
(dp4631
g4
g5
((lp4632
S'ENSG00000065809'
p4633
aS'ENSG00000125877'
p4634
aS'ENSG00000128973'
p4635
aS'ENSG00000078902'
p4636
aS'ENSG00000131668'
p4637
aS'ENSG00000038210'
p4638
aS'ENSG00000148824'
p4639
aS'ENSG00000102858'
p4640
aS'ENSG00000216895'
p4641
aS'ENSG00000198931'
p4642
aS'ENSG00000141934'
p4643
aS'ENSG00000213221'
p4644
aS'ENSG00000099904'
p4645
atRp4646
ssS'salmon'
p4647
(dp4648
g77
(lp4649
(lp4650
g1049
aFinf
ag81
(g83
S'|\x06\x94\x89+\xdd{?'
tRp4651
ag81
(g83
S'\x80\x06\x94\x89+\xdd{?'
tRp4652
aasg4
g5
((lp4653
S'ENSG00000149231'
p4654
aS'ENSG00000149212'
p4655
aS'ENSG00000120008'
p4656
aS'ENSG00000166509'
p4657
aS'ENSG00000080345'
p4658
aS'ENSG00000168036'
p4659
aS'ENSG00000032219'
p4660
aS'ENSG00000242110'
p4661
aS'ENSG00000254531'
p4662
aS'ENSG00000134285'
p4663
aS'ENSG00000100106'
p4664
aS'ENSG00000204634'
p4665
aS'ENSG00000186716'
p4666
aS'ENSG00000138376'
p4667
aS'ENSG00000181004'
p4668
aS'ENSG00000079257'
p4669
aS'ENSG00000168291'
p4670
aS'ENSG00000177103'
p4671
aS'ENSG00000109436'
p4672
aS'ENSG00000196247'
p4673
aS'ENSG00000134744'
p4674
aS'ENSG00000039319'
p4675
aS'ENSG00000033178'
p4676
aS'ENSG00000101384'
p4677
aS'ENSG00000186153'
p4678
atRp4679
ssS'thistle4'
p4680
(dp4681
g4
g5
((lp4682
S'ENSG00000140157'
p4683
aS'ENSG00000144848'
p4684
aS'ENSG00000205078'
p4685
aS'ENSG00000183570'
p4686
aS'ENSG00000103111'
p4687
aS'ENSG00000177764'
p4688
aS'ENSG00000111254'
p4689
aS'ENSG00000146530'
p4690
aS'ENSG00000204060'
p4691
aS'ENSG00000186765'
p4692
aS'ENSG00000127415'
p4693
aS'ENSG00000139725'
p4694
aS'ENSG00000165171'
p4695
atRp4696
ssS'pink1'
p4697
(dp4698
g77
(lp4699
(lp4700
S'ENSG00000144218'
p4701
aFinf
ag81
(g83
S'\xd3\x81\x14-U:\xf2>'
tRp4702
ag81
(g83
S'\x00p\xd8[\xa6\x0f)?'
tRp4703
aa(lp4704
S'ENSG00000172348'
p4705
ag81
(g83
S'\x00\x00\x00\x00\x008\x82@'
tRp4706
ag81
(g83
S'\xdc\xdc\xfd\xb1\x92G\x1b?'
tRp4707
ag81
(g83
S'\x004\xcd\x94\xb0\nQ?'
tRp4708
aa(lp4709
S'ENSG00000162989'
p4710
ag81
(g83
S'\x00\x00\x00\x00\x008\x82@'
tRp4711
ag81
(g83
S'\xdc\xdc\xfd\xb1\x92G\x1b?'
tRp4712
ag81
(g83
S'\x004\xcd\x94\xb0\nQ?'
tRp4713
aa(lp4714
S'ENSG00000117016'
p4715
ag81
(g83
S'\x00\x00\x00\x00\x008\x82@'
tRp4716
ag81
(g83
S'\xdc\xdc\xfd\xb1\x92G\x1b?'
tRp4717
ag81
(g83
S'\x004\xcd\x94\xb0\nQ?'
tRp4718
aa(lp4719
S'ENSG00000169282'
p4720
ag81
(g83
S'\x00\x00\x00\x00\x008\x82@'
tRp4721
ag81
(g83
S'\xdc\xdc\xfd\xb1\x92G\x1b?'
tRp4722
ag81
(g83
S'\x004\xcd\x94\xb0\nQ?'
tRp4723
aa(lp4724
g297
ag81
(g83
S'\x00\x00\x00\x00\x00\x00`@'
tRp4725
ag81
(g83
S'N\xe8\x95\x02$\x02O?'
tRp4726
ag81
(g83
S'\x00\x83\xfe\xdb\x893w?'
tRp4727
aa(lp4728
S'ENSG00000064042'
p4729
ag81
(g83
S'\x00\x00\x00\x00\x00\x00V@'
tRp4730
ag81
(g83
S'\x02!\xa2Tzv]?'
tRp4731
ag81
(g83
S'\x80wp\xf8\x1fY\x82?'
tRp4732
aa(lp4733
S'ENSG00000103316'
p4734
aFinf
ag81
(g83
S'k\x07/\xa7\xe0\xe5t?'
tRp4735
ag81
(g83
S'\xe0\x17\xa7\xdd\x12\xbd\x94?'
tRp4736
aa(lp4737
S'ENSG00000137693'
p4738
ag81
(g83
S'5\xc2rO#,C@'
tRp4739
ag81
(g83
S'\xfb\x93-\x8f(\x02\x80?'
tRp4740
ag81
(g83
S' \xc7~\xefO\xd3\x97?'
tRp4741
aa(lp4742
S'ENSG00000177133'
p4743
ag81
(g83
S'\x00\x00\x00\x00\x00@r@'
tRp4744
ag81
(g83
S'}s\x98|\xc3\xdc\x84?'
tRp4745
ag81
(g83
S' \xc7~\xefO\xd3\x97?'
tRp4746
aasg4
g5
((lp4747
S'ENSG00000066248'
p4748
aS'ENSG00000167487'
p4749
aS'ENSG00000023839'
p4750
aS'ENSG00000197969'
p4751
aS'ENSG00000197863'
p4752
aS'ENSG00000179772'
p4753
aS'ENSG00000101665'
p4754
aS'ENSG00000187398'
p4755
aS'ENSG00000105649'
p4756
atRp4757
ssS'mediumpurple1'
p4758
(dp4759
g4
g5
((lp4760
S'ENSG00000166869'
p4761
aS'ENSG00000105401'
p4762
aS'ENSG00000184900'
p4763
aS'ENSG00000147687'
p4764
aS'ENSG00000179979'
p4765
aS'ENSG00000172340'
p4766
aS'ENSG00000005486'
p4767
aS'ENSG00000073584'
p4768
aS'ENSG00000129187'
p4769
aS'ENSG00000143418'
p4770
aS'ENSG00000153936'
p4771
aS'ENSG00000168159'
p4772
aS'ENSG00000101052'
p4773
aS'ENSG00000182986'
p4774
atRp4775
ssS'mediumpurple2'
p4776
(dp4777
g77
(lp4778
(lp4779
g4475
ag81
(g83
S'\xad\xb5\xd6Zk\xadA@'
tRp4780
ag81
(g83
S'\x05s\xf3\xc9*r\xc9>'
tRp4781
ag81
(g83
S'\x00\x80|\x01\x02\xe1\x13?'
tRp4782
aa(lp4783
S'ENSG00000160883'
p4784
aFinf
ag81
(g83
S'\xc7\xc2\x9e\xc3\x7fW+?'
tRp4785
ag81
(g83
S'\x00\x02\x8b\xd6\x0cut?'
tRp4786
aa(lp4787
S'ENSG00000123338'
p4788
ag81
(g83
S'\xee|?5^\xba1@'
tRp4789
ag81
(g83
S'ao\xa4\x17\xe0\xb5@?'
tRp4790
ag81
(g83
S'\x00\x88b\xa3\x12\xe3\x87?'
tRp4791
aasg4
g5
((lp4792
S'ENSG00000136250'
p4793
aS'ENSG00000127084'
p4794
aS'ENSG00000064547'
p4795
aS'ENSG00000139537'
p4796
aS'ENSG00000167851'
p4797
aS'ENSG00000085265'
p4798
aS'ENSG00000142794'
p4799
aS'ENSG00000101307'
p4800
aS'ENSG00000101188'
p4801
aS'ENSG00000094975'
p4802
aS'ENSG00000167720'
p4803
aS'ENSG00000125637'
p4804
aS'ENSG00000090382'
p4805
aS'ENSG00000110934'
p4806
aS'ENSG00000175857'
p4807
atRp4808
ssS'mediumpurple3'
p4809
(dp4810
g4
g5
((lp4811
S'ENSG00000177483'
p4812
aS'ENSG00000121236'
p4813
aS'ENSG00000142156'
p4814
aS'ENSG00000064703'
p4815
aS'ENSG00000141956'
p4816
aS'ENSG00000164118'
p4817
aS'ENSG00000130164'
p4818
aS'ENSG00000165323'
p4819
aS'ENSG00000169894'
p4820
aS'ENSG00000077238'
p4821
aS'ENSG00000140553'
p4822
aS'ENSG00000135596'
p4823
aS'ENSG00000214595'
p4824
aS'ENSG00000163040'
p4825
aS'ENSG00000003436'
p4826
aS'ENSG00000124212'
p4827
aS'ENSG00000163431'
p4828
aS'ENSG00000154511'
p4829
atRp4830
ssS'mediumpurple4'
p4831
(dp4832
g4
g5
((lp4833
S'ENSG00000141527'
p4834
aS'ENSG00000137210'
p4835
aS'ENSG00000050130'
p4836
aS'ENSG00000113621'
p4837
aS'ENSG00000132639'
p4838
aS'ENSG00000089177'
p4839
aS'ENSG00000214309'
p4840
aS'ENSG00000143314'
p4841
aS'ENSG00000175768'
p4842
aS'ENSG00000125734'
p4843
aS'ENSG00000079150'
p4844
aS'ENSG00000168701'
p4845
aS'ENSG00000168385'
p4846
aS'ENSG00000137135'
p4847
atRp4848
ssS'pink4'
p4849
(dp4850
g4
g5
((lp4851
S'ENSG00000140873'
p4852
aS'ENSG00000154079'
p4853
aS'ENSG00000177294'
p4854
aS'ENSG00000189157'
p4855
aS'ENSG00000143126'
p4856
aS'ENSG00000158428'
p4857
aS'ENSG00000114698'
p4858
aS'ENSG00000110906'
p4859
aS'ENSG00000180233'
p4860
aS'ENSG00000164649'
p4861
aS'ENSG00000105755'
p4862
aS'ENSG00000151498'
p4863
aS'ENSG00000196476'
p4864
aS'ENSG00000197705'
p4865
atRp4866
ssS'paleturquoise3'
p4867
(dp4868
g77
(lp4869
(lp4870
S'ENSG00000135678'
p4871
aFinf
ag81
(g83
S'\xbf\t\x94\x89+\xdd[?'
tRp4872
ag81
(g83
S'\xc0\x9f\xe9\x1aq"\x8f?'
tRp4873
aa(lp4874
S'ENSG00000179593'
p4875
aFinf
ag81
(g83
S'\xbf\t\x94\x89+\xdd[?'
tRp4876
ag81
(g83
S'\xc0\x9f\xe9\x1aq"\x8f?'
tRp4877
aa(lp4878
S'ENSG00000135298'
p4879
aFinf
ag81
(g83
S'V\x03/\xa7\xe0\xe5t?'
tRp4880
ag81
(g83
S'\xc0\xa5YP\x19\x02\xa2?'
tRp4881
aa(lp4882
S'ENSG00000112297'
p4883
aFinf
ag81
(g83
S'V\x03/\xa7\xe0\xe5t?'
tRp4884
ag81
(g83
S'\xc0\xa5YP\x19\x02\xa2?'
tRp4885
aa(lp4886
S'ENSG00000105737'
p4887
aFinf
ag81
(g83
S'V\x03/\xa7\xe0\xe5t?'
tRp4888
ag81
(g83
S'\xc0\xa5YP\x19\x02\xa2?'
tRp4889
aa(lp4890
S'ENSG00000106785'
p4891
aFinf
ag81
(g83
S'V\x03/\xa7\xe0\xe5t?'
tRp4892
ag81
(g83
S'\xc0\xa5YP\x19\x02\xa2?'
tRp4893
aa(lp4894
S'ENSG00000174672'
p4895
aFinf
ag81
(g83
S'V\x03/\xa7\xe0\xe5t?'
tRp4896
ag81
(g83
S'\xc0\xa5YP\x19\x02\xa2?'
tRp4897
aa(lp4898
g2303
aFinf
ag81
(g83
S'iL-B\xfe\x9a\x9d?'
tRp4899
ag81
(g83
S'\xc0\xa5YP\x19\x02\xa2?'
tRp4900
aa(lp4901
S'ENSG00000134516'
p4902
aFinf
ag81
(g83
S'\xd7\x8e\xc6\xfa\xd0X\x8f?'
tRp4903
ag81
(g83
S'\xc0\xa5YP\x19\x02\xa2?'
tRp4904
aasg4
g5
((lp4905
S'ENSG00000105971'
p4906
aS'ENSG00000214078'
p4907
aS'ENSG00000100347'
p4908
aS'ENSG00000113812'
p4909
aS'ENSG00000144504'
p4910
aS'ENSG00000100220'
p4911
aS'ENSG00000152240'
p4912
aS'ENSG00000130377'
p4913
atRp4914
ssS'khaki4'
p4915
(dp4916
g4
g5
((lp4917
S'ENSG00000169181'
p4918
aS'ENSG00000198842'
p4919
aS'ENSG00000005471'
p4920
aS'ENSG00000130414'
p4921
aS'ENSG00000164978'
p4922
aS'ENSG00000116783'
p4923
aS'ENSG00000034713'
p4924
atRp4925
ssS'darkolivegreen4'
p4926
(dp4927
g77
(lp4928
(lp4929
g4557
aFinf
ag81
(g83
S'V\x03/\xa7\xe0\xe5t?'
tRp4930
ag81
(g83
S'\x80\x03/\xa7\xe0\xe5t?'
tRp4931
aasg4
g5
((lp4932
S'ENSG00000148290'
p4933
aS'ENSG00000186235'
p4934
aS'ENSG00000141404'
p4935
aS'ENSG00000117280'
p4936
aS'ENSG00000198633'
p4937
aS'ENSG00000104613'
p4938
aS'ENSG00000128989'
p4939
aS'ENSG00000158163'
p4940
aS'ENSG00000111450'
p4941
aS'ENSG00000138111'
p4942
aS'ENSG00000141569'
p4943
aS'ENSG00000116199'
p4944
aS'ENSG00000183891'
p4945
aS'ENSG00000146409'
p4946
aS'ENSG00000164334'
p4947
atRp4948
ssS'darkseagreen4'
p4949
(dp4950
g77
(lp4951
(lp4952
S'ENSG00000246022'
p4953
ag81
(g83
S'\xab\xaa\xaa\xaa\xaaJh@'
tRp4954
ag81
(g83
S'C\xe9f4\xf1\xca\x8b?'
tRp4955
ag81
(g83
S'\x80n=8\xaa\x9a\x9b?'
tRp4956
aa(lp4957
S'ENSG00000144908'
p4958
ag81
(g83
S'\xab\xaa\xaa\xaa\xaaJh@'
tRp4959
ag81
(g83
S'C\xe9f4\xf1\xca\x8b?'
tRp4960
ag81
(g83
S'\x80n=8\xaa\x9a\x9b?'
tRp4961
aasg4
g5
((lp4962
S'ENSG00000183426'
p4963
aS'ENSG00000122390'
p4964
aS'ENSG00000197965'
p4965
aS'ENSG00000168288'
p4966
aS'ENSG00000138134'
p4967
aS'ENSG00000178913'
p4968
aS'ENSG00000132963'
p4969
aS'ENSG00000070388'
p4970
aS'ENSG00000106617'
p4971
aS'ENSG00000166260'
p4972
aS'ENSG00000137996'
p4973
aS'ENSG00000130816'
p4974
aS'ENSG00000018189'
p4975
aS'ENSG00000138381'
p4976
aS'ENSG00000144230'
p4977
aS'ENSG00000061794'
p4978
atRp4979
ssS'darkseagreen3'
p4980
(dp4981
g4
g5
((lp4982
S'ENSG00000148484'
p4983
aS'ENSG00000106733'
p4984
aS'ENSG00000126458'
p4985
aS'ENSG00000115364'
p4986
aS'ENSG00000174775'
p4987
aS'ENSG00000099785'
p4988
aS'ENSG00000189366'
p4989
aS'ENSG00000180953'
p4990
aS'ENSG00000130270'
p4991
aS'ENSG00000105404'
p4992
aS'ENSG00000086666'
p4993
aS'ENSG00000111775'
p4994
aS'ENSG00000140264'
p4995
aS'ENSG00000106392'
p4996
atRp4997
ssS'darkseagreen2'
p4998
(dp4999
g77
(lp5000
(lp5001
S'ENSG00000092054'
p5002
aFinf
ag81
(g83
S'\t\x83w\xa08a\x0e?'
tRp5003
ag81
(g83
S'\x00\xacb\xf9~\xfbB?'
tRp5004
aasg4
g5
((lp5005
S'ENSG00000197580'
p5006
aS'ENSG00000196236'
p5007
aS'ENSG00000205678'
p5008
aS'ENSG00000105497'
p5009
aS'ENSG00000198729'
p5010
aS'ENSG00000174606'
p5011
aS'ENSG00000181418'
p5012
aS'ENSG00000078814'
p5013
aS'ENSG00000031691'
p5014
aS'ENSG00000149531'
p5015
aS'ENSG00000112530'
p5016
aS'ENSG00000154415'
p5017
aS'ENSG00000143740'
p5018
atRp5019
ssS'darkseagreen1'
p5020
(dp5021
g4
g5
((lp5022
S'ENSG00000160752'
p5023
aS'ENSG00000196189'
p5024
aS'ENSG00000185792'
p5025
aS'ENSG00000198089'
p5026
aS'ENSG00000187166'
p5027
aS'ENSG00000087085'
p5028
aS'ENSG00000083520'
p5029
aS'ENSG00000079459'
p5030
aS'ENSG00000160285'
p5031
aS'ENSG00000188786'
p5032
aS'ENSG00000235878'
p5033
atRp5034
ssS'darkolivegreen2'
p5035
(dp5036
g4
g5
((lp5037
S'ENSG00000120647'
p5038
aS'ENSG00000105618'
p5039
aS'ENSG00000118873'
p5040
aS'ENSG00000183431'
p5041
aS'ENSG00000141252'
p5042
aS'ENSG00000108666'
p5043
aS'ENSG00000170264'
p5044
aS'ENSG00000167670'
p5045
aS'ENSG00000172728'
p5046
aS'ENSG00000174953'
p5047
aS'ENSG00000133997'
p5048
aS'ENSG00000075131'
p5049
aS'ENSG00000165490'
p5050
aS'ENSG00000164989'
p5051
atRp5052
ssS'lavenderblush'
p5053
(dp5054
g4
g5
((lp5055
S'ENSG00000214253'
p5056
aS'ENSG00000185624'
p5057
aS'ENSG00000196355'
p5058
aS'ENSG00000139405'
p5059
aS'ENSG00000120910'
p5060
aS'ENSG00000166130'
p5061
aS'ENSG00000075303'
p5062
aS'ENSG00000165895'
p5063
aS'ENSG00000165659'
p5064
aS'ENSG00000135686'
p5065
aS'ENSG00000170647'
p5066
atRp5067
ssS'salmon2'
p5068
(dp5069
g4
g5
((lp5070
S'ENSG00000254852'
p5071
aS'ENSG00000166762'
p5072
aS'ENSG00000132681'
p5073
aS'ENSG00000182670'
p5074
aS'ENSG00000153989'
p5075
aS'ENSG00000157637'
p5076
aS'ENSG00000173272'
p5077
aS'ENSG00000143631'
p5078
aS'ENSG00000197858'
p5079
aS'ENSG00000162585'
p5080
aS'ENSG00000126522'
p5081
aS'ENSG00000134291'
p5082
aS'ENSG00000235162'
p5083
aS'ENSG00000128185'
p5084
aS'ENSG00000139055'
p5085
atRp5086
ssS'salmon4'
p5087
(dp5088
g77
(lp5089
(lp5090
S'ENSG00000168481'
p5091
aFinf
ag81
(g83
S'k\x07/\xa7\xe0\xe5t?'
tRp5092
ag81
(g83
S"\xc0Xm\x12'\xf3\x9e?"
tRp5093
aa(lp5094
S'ENSG00000174130'
p5095
ag81
(g83
S'\x00\x00\x00\x00\x00@r@'
tRp5096
ag81
(g83
S'}s\x98|\xc3\xdc\x84?'
tRp5097
ag81
(g83
S'\xe0\xb8X5R\x8d\xa9?'
tRp5098
aa(lp5099
S'ENSG00000271605'
p5100
ag81
(g83
S'\x00\x00\x00\x00\x00@r@'
tRp5101
ag81
(g83
S'}s\x98|\xc3\xdc\x84?'
tRp5102
ag81
(g83
S'\xe0\xb8X5R\x8d\xa9?'
tRp5103
aa(lp5104
S'ENSG00000187486'
p5105
ag81
(g83
S'\x00\x00\x00\x00\x00@r@'
tRp5106
ag81
(g83
S'}s\x98|\xc3\xdc\x84?'
tRp5107
ag81
(g83
S'\xe0\xb8X5R\x8d\xa9?'
tRp5108
aa(lp5109
g3606
ag81
(g83
S'\x00\x00\x00\x00\x00@r@'
tRp5110
ag81
(g83
S'}s\x98|\xc3\xdc\x84?'
tRp5111
ag81
(g83
S'\xe0\xb8X5R\x8d\xa9?'
tRp5112
aasg4
g5
((lp5113
S'ENSG00000119636'
p5114
aS'ENSG00000162994'
p5115
aS'ENSG00000033100'
p5116
aS'ENSG00000124116'
p5117
aS'ENSG00000186111'
p5118
aS'ENSG00000164251'
p5119
aS'ENSG00000186350'
p5120
aS'ENSG00000101457'
p5121
aS'ENSG00000242612'
p5122
aS'ENSG00000166507'
p5123
aS'ENSG00000101224'
p5124
aS'ENSG00000164972'
p5125
aS'ENSG00000174840'
p5126
aS'ENSG00000156983'
p5127
aS'ENSG00000080493'
p5128
aS'ENSG00000134905'
p5129
aS'ENSG00000213995'
p5130
atRp5131
ssS'linen'
p5132
(dp5133
g4
g5
((lp5134
S'ENSG00000080815'
p5135
aS'ENSG00000120265'
p5136
aS'ENSG00000139192'
p5137
aS'ENSG00000141127'
p5138
aS'ENSG00000131238'
p5139
aS'ENSG00000001036'
p5140
aS'ENSG00000117450'
p5141
aS'ENSG00000124783'
p5142
atRp5143
ssS'green'
p5144
(dp5145
g77
(lp5146
(lp5147
g3866
aFinf
ag81
(g83
S'\xcc\x83\xfc5;j\x91?'
tRp5148
ag81
(g83
S'\xc0\x83\xfc5;j\x91?'
tRp5149
aasg4
g5
((lp5150
S'ENSG00000174442'
p5151
aS'ENSG00000114956'
p5152
aS'ENSG00000221923'
p5153
aS'ENSG00000245317'
p5154
aS'ENSG00000185651'
p5155
aS'ENSG00000006695'
p5156
aS'ENSG00000125912'
p5157
aS'ENSG00000185298'
p5158
aS'ENSG00000100425'
p5159
aS'ENSG00000103932'
p5160
aS'ENSG00000178078'
p5161
aS'ENSG00000197562'
p5162
aS'ENSG00000072958'
p5163
aS'ENSG00000170011'
p5164
aS'ENSG00000119541'
p5165
aS'ENSG00000120159'
p5166
aS'ENSG00000021574'
p5167
aS'ENSG00000184470'
p5168
aS'ENSG00000099814'
p5169
aS'ENSG00000176715'
p5170
aS'ENSG00000164535'
p5171
aS'ENSG00000127580'
p5172
aS'ENSG00000130348'
p5173
aS'ENSG00000103671'
p5174
aS'ENSG00000035687'
p5175
aS'ENSG00000101181'
p5176
aS'ENSG00000148396'
p5177
aS'ENSG00000014138'
p5178
aS'ENSG00000089159'
p5179
aS'ENSG00000173039'
p5180
aS'ENSG00000107521'
p5181
aS'ENSG00000103245'
p5182
aS'ENSG00000189339'
p5183
atRp5184
ssS'blueviolet'
p5185
(dp5186
g4
g5
((lp5187
S'ENSG00000215845'
p5188
aS'ENSG00000014164'
p5189
aS'ENSG00000173517'
p5190
aS'ENSG00000172986'
p5191
aS'ENSG00000185666'
p5192
aS'ENSG00000125046'
p5193
aS'ENSG00000188643'
p5194
aS'ENSG00000183386'
p5195
aS'ENSG00000213923'
p5196
aS'ENSG00000163545'
p5197
aS'ENSG00000196460'
p5198
aS'ENSG00000069712'
p5199
aS'ENSG00000108854'
p5200
aS'ENSG00000197362'
p5201
atRp5202
ssS'brown2'
p5203
(dp5204
g4
g5
((lp5205
S'ENSG00000120688'
p5206
aS'ENSG00000079974'
p5207
aS'ENSG00000125686'
p5208
aS'ENSG00000173166'
p5209
aS'ENSG00000167118'
p5210
aS'ENSG00000175581'
p5211
aS'ENSG00000170390'
p5212
aS'ENSG00000170222'
p5213
aS'ENSG00000136819'
p5214
aS'ENSG00000125818'
p5215
aS'ENSG00000103550'
p5216
aS'ENSG00000143951'
p5217
aS'ENSG00000121350'
p5218
aS'ENSG00000197157'
p5219
aS'ENSG00000137513'
p5220
atRp5221
ssS'brown3'
p5222
(dp5223
g4
g5
((lp5224
S'ENSG00000023228'
p5225
aS'ENSG00000172270'
p5226
aS'ENSG00000146242'
p5227
aS'ENSG00000231925'
p5228
aS'ENSG00000126088'
p5229
aS'ENSG00000163281'
p5230
aS'ENSG00000172661'
p5231
aS'ENSG00000125450'
p5232
aS'ENSG00000204618'
p5233
aS'ENSG00000165678'
p5234
atRp5235
ssS'brown1'
p5236
(dp5237
g4
g5
((lp5238
S'ENSG00000141140'
p5239
aS'ENSG00000149256'
p5240
aS'ENSG00000075975'
p5241
aS'ENSG00000121410'
p5242
aS'ENSG00000102910'
p5243
aS'ENSG00000100554'
p5244
aS'ENSG00000174586'
p5245
aS'ENSG00000126602'
p5246
aS'ENSG00000188573'
p5247
aS'ENSG00000116791'
p5248
aS'ENSG00000127526'
p5249
aS'ENSG00000101361'
p5250
atRp5251
ssS'steelblue'
p5252
(dp5253
g4
g5
((lp5254
S'ENSG00000184227'
p5255
aS'ENSG00000125124'
p5256
aS'ENSG00000196415'
p5257
aS'ENSG00000269699'
p5258
aS'ENSG00000136877'
p5259
aS'ENSG00000221953'
p5260
aS'ENSG00000189067'
p5261
aS'ENSG00000170322'
p5262
aS'ENSG00000166582'
p5263
aS'ENSG00000087237'
p5264
aS'ENSG00000173638'
p5265
aS'ENSG00000204653'
p5266
aS'ENSG00000108474'
p5267
aS'ENSG00000196196'
p5268
aS'ENSG00000135953'
p5269
aS'ENSG00000138600'
p5270
aS'ENSG00000117335'
p5271
aS'ENSG00000111581'
p5272
aS'ENSG00000171044'
p5273
aS'ENSG00000159023'
p5274
atRp5275
ssS'brown4'
p5276
(dp5277
g77
(lp5278
(lp5279
S'ENSG00000169403'
p5280
aFinf
ag81
(g83
S'\xbf\t\x94\x89+\xdd[?'
tRp5281
ag81
(g83
S'\xc0\xae[\xcf\x17[\x81?'
tRp5282
aa(lp5283
S'ENSG00000145428'
p5284
aFinf
ag81
(g83
S'\xbf\t\x94\x89+\xdd[?'
tRp5285
ag81
(g83
S'\xc0\xae[\xcf\x17[\x81?'
tRp5286
aasg4
g5
((lp5287
S'ENSG00000171148'
p5288
aS'ENSG00000233927'
p5289
aS'ENSG00000197045'
p5290
aS'ENSG00000130312'
p5291
aS'ENSG00000143157'
p5292
aS'ENSG00000169635'
p5293
aS'ENSG00000108064'
p5294
aS'ENSG00000169738'
p5295
aS'ENSG00000151704'
p5296
aS'ENSG00000269396'
p5297
aS'ENSG00000243477'
p5298
aS'ENSG00000126070'
p5299
aS'ENSG00000157326'
p5300
aS'ENSG00000135926'
p5301
aS'ENSG00000198035'
p5302
aS'ENSG00000203546'
p5303
aS'ENSG00000171451'
p5304
aS'ENSG00000074696'
p5305
atRp5306
ss.