(dp1
S'yellow'
p2
(dp3
S'driver_genes'
p4
(lp5
(lp6
S'ENSG00000154451'
p7
acnumpy.core.multiarray
scalar
p8
(cnumpy
dtype
p9
(S'f8'
I0
I1
tRp10
(I3
S'<'
NNNI-1
I-1
I0
tbS'\x00\x00\x00\x00\x00\x90r@'
tRp11
ag8
(g10
S'\xbc\xe5\xaf\xc3\xc4\x19\xdb>'
tRp12
ag8
(g10
S'\x00\xd0&C\xd3\xb8@?'
tRp13
aa(lp14
S'ENSG00000089127'
p15
ag8
(g10
S'\x00\x00\x00\x00\x00\x90r@'
tRp16
ag8
(g10
S'\xbc\xe5\xaf\xc3\xc4\x19\xdb>'
tRp17
ag8
(g10
S'\x00\xd0&C\xd3\xb8@?'
tRp18
aa(lp19
S'ENSG00000111331'
p20
ag8
(g10
S'\x00\x00\x00\x00\x00\x90r@'
tRp21
ag8
(g10
S'\xbc\xe5\xaf\xc3\xc4\x19\xdb>'
tRp22
ag8
(g10
S'\x00\xd0&C\xd3\xb8@?'
tRp23
aa(lp24
S'ENSG00000111335'
p25
ag8
(g10
S'\x00\x00\x00\x00\x00\x90r@'
tRp26
ag8
(g10
S'\xbc\xe5\xaf\xc3\xc4\x19\xdb>'
tRp27
ag8
(g10
S'\x00\xd0&C\xd3\xb8@?'
tRp28
aa(lp29
S'ENSG00000108381'
p30
ag8
(g10
S'\x8c.\xba\xe8\xa2\x8bb@'
tRp31
ag8
(g10
S'\xadN\x93^\x9b\xcf\xf0>'
tRp32
ag8
(g10
S'\x00.\xa1\x83L\xb0S?'
tRp33
aa(lp34
S'ENSG00000150636'
p35
ag8
(g10
S'\x8c.\xba\xe8\xa2\x8bb@'
tRp36
ag8
(g10
S'\xadN\x93^\x9b\xcf\xf0>'
tRp37
ag8
(g10
S'\x00.\xa1\x83L\xb0S?'
tRp38
aa(lp39
S'ENSG00000106333'
p40
ag8
(g10
S't\xd1E\x17]\xb4X@'
tRp41
ag8
(g10
S'\xe7\x91pKX\xaf\x00?'
tRp42
ag8
(g10
S'\x00|\x8c\xe0l\x02c?'
tRp43
aa(lp44
S'ENSG00000100196'
p45
ag8
(g10
S'\xa3\x8b.\xba\xe8\x82R@'
tRp46
ag8
(g10
S'\xb7\x85dX\xce\xfa\x0c?'
tRp47
ag8
(g10
S'\x80=\xe1}\xe6Dp?'
tRp48
aa(lp49
S'ENSG00000224729'
p50
ag8
(g10
S'\x17]t\xd1E\x97M@'
tRp51
ag8
(g10
S'r\xd0{\x88\x88\x02\x17?'
tRp52
ag8
(g10
S'\x80\xae3c\xc6ry?'
tRp53
aa(lp54
S'ENSG00000119922'
p55
aFinf
ag8
(g10
S'|\x93R\x04\x11\x97#?'
tRp56
ag8
(g10
S'\xc0\xc00a\nQ\x85?'
tRp57
aa(lp58
S'ENSG00000133106'
p59
ag8
(g10
S'\x00\x00\x00\x00\x00\xb0f@'
tRp60
ag8
(g10
S'\xe6c+;\xfd+=?'
tRp61
ag8
(g10
S'\xe0\x7f\xdd\x8a\xc6\xfa\x9e?'
tRp62
aasS'module_genes'
p63
c__builtin__
set
p64
((lp65
S'ENSG00000256043'
p66
aS'ENSG00000176732'
p67
aS'ENSG00000099998'
p68
aS'ENSG00000112110'
p69
aS'ENSG00000245680'
p70
aS'ENSG00000100911'
p71
aS'ENSG00000221963'
p72
aS'ENSG00000165949'
p73
aS'ENSG00000168404'
p74
aS'ENSG00000188313'
p75
aS'ENSG00000136514'
p76
aS'ENSG00000136932'
p77
aS'ENSG00000108771'
p78
aS'ENSG00000089127'
p79
aS'ENSG00000137628'
p80
aS'ENSG00000204642'
p81
aS'ENSG00000013288'
p82
aS'ENSG00000008517'
p83
aS'ENSG00000134321'
p84
aS'ENSG00000115267'
p85
aS'ENSG00000100075'
p86
aS'ENSG00000204267'
p87
aS'ENSG00000133106'
p88
aS'ENSG00000135899'
p89
aS'ENSG00000185745'
p90
aS'ENSG00000234745'
p91
aS'ENSG00000177409'
p92
aS'ENSG00000174514'
p93
aS'ENSG00000157601'
p94
aS'ENSG00000142089'
p95
aS'ENSG00000130303'
p96
aS'ENSG00000025708'
p97
aS'ENSG00000117228'
p98
aS'ENSG00000183486'
p99
aS'ENSG00000125826'
p100
aS'ENSG00000140853'
p101
aS'ENSG00000178685'
p102
aS'ENSG00000010030'
p103
aS'ENSG00000124508'
p104
aS'ENSG00000168394'
p105
aS'ENSG00000100342'
p106
aS'ENSG00000185507'
p107
aS'ENSG00000173193'
p108
aS'ENSG00000182179'
p109
aS'ENSG00000130348'
p110
aS'ENSG00000112763'
p111
aS'ENSG00000185885'
p112
aS'ENSG00000168961'
p113
aS'ENSG00000185880'
p114
aS'ENSG00000115232'
p115
aS'ENSG00000137965'
p116
aS'ENSG00000136147'
p117
aS'ENSG00000132109'
p118
atRp119
ssS'darkolivegreen'
p120
(dp121
g63
g64
((lp122
S'ENSG00000055163'
p123
aS'ENSG00000108091'
p124
aS'ENSG00000149554'
p125
aS'ENSG00000164327'
p126
aS'ENSG00000134897'
p127
aS'ENSG00000130176'
p128
aS'ENSG00000166130'
p129
aS'ENSG00000136068'
p130
aS'ENSG00000172403'
p131
aS'ENSG00000136718'
p132
aS'ENSG00000135776'
p133
aS'ENSG00000150938'
p134
aS'ENSG00000187735'
p135
aS'ENSG00000136908'
p136
aS'ENSG00000128591'
p137
aS'ENSG00000140443'
p138
aS'ENSG00000151239'
p139
aS'ENSG00000111696'
p140
aS'ENSG00000179295'
p141
aS'ENSG00000107771'
p142
aS'ENSG00000112214'
p143
aS'ENSG00000109171'
p144
aS'ENSG00000137094'
p145
aS'ENSG00000120868'
p146
aS'ENSG00000069974'
p147
aS'ENSG00000150054'
p148
aS'ENSG00000113441'
p149
aS'ENSG00000044459'
p150
aS'ENSG00000133706'
p151
aS'ENSG00000135074'
p152
aS'ENSG00000123243'
p153
aS'ENSG00000137124'
p154
aS'ENSG00000121067'
p155
aS'ENSG00000143753'
p156
atRp157
ssS'grey60'
p158
(dp159
g4
(lp160
(lp161
S'ENSG00000129946'
p162
aFinf
ag8
(g10
S'\xf9\x0e\xa5\xc0l\xe1\xdc>'
tRp163
ag8
(g10
S'\x00Hs<j@Q?'
tRp164
aasg63
g64
((lp165
S'ENSG00000149575'
p166
aS'ENSG00000197971'
p167
aS'ENSG00000070808'
p168
aS'ENSG00000104722'
p169
aS'ENSG00000115138'
p170
aS'ENSG00000169862'
p171
aS'ENSG00000175318'
p172
aS'ENSG00000159409'
p173
aS'ENSG00000204644'
p174
aS'ENSG00000164089'
p175
aS'ENSG00000168280'
p176
aS'ENSG00000157005'
p177
aS'ENSG00000115266'
p178
aS'ENSG00000067715'
p179
aS'ENSG00000204228'
p180
aS'ENSG00000117707'
p181
aS'ENSG00000162552'
p182
aS'ENSG00000189007'
p183
aS'ENSG00000155980'
p184
aS'ENSG00000136011'
p185
aS'ENSG00000136267'
p186
aS'ENSG00000186487'
p187
aS'ENSG00000089199'
p188
aS'ENSG00000188322'
p189
aS'ENSG00000107742'
p190
aS'ENSG00000204315'
p191
aS'ENSG00000101489'
p192
aS'ENSG00000107819'
p193
aS'ENSG00000196220'
p194
aS'ENSG00000204655'
p195
aS'ENSG00000132692'
p196
aS'ENSG00000104112'
p197
aS'ENSG00000183186'
p198
aS'ENSG00000162728'
p199
aS'ENSG00000179292'
p200
aS'ENSG00000163013'
p201
aS'ENSG00000163032'
p202
aS'ENSG00000197177'
p203
aS'ENSG00000172995'
p204
atRp205
ssS'green4'
p206
(dp207
g4
(lp208
(lp209
S'ENSG00000206337'
p210
aFinf
ag8
(g10
S'\x1d\x85\xb9v`\xae]?'
tRp211
ag8
(g10
S'\x80\xa2\xd8s_~\x8d?'
tRp212
aa(lp213
S'ENSG00000240065'
p214
aFinf
ag8
(g10
S'r\xe03J\xfc\x8cr?'
tRp215
ag8
(g10
S' .\xfa\xecS\x03\xa0?'
tRp216
aasg63
g64
((lp217
S'ENSG00000259803'
p218
aS'ENSG00000162461'
p219
aS'ENSG00000132623'
p220
aS'ENSG00000205560'
p221
aS'ENSG00000188895'
p222
aS'ENSG00000164828'
p223
aS'ENSG00000100288'
p224
aS'ENSG00000142102'
p225
aS'ENSG00000126746'
p226
aS'ENSG00000165661'
p227
aS'ENSG00000049167'
p228
aS'ENSG00000161551'
p229
atRp230
ssS'sienna4'
p231
(dp232
g63
g64
((lp233
S'ENSG00000023041'
p234
aS'ENSG00000090339'
p235
aS'ENSG00000198355'
p236
aS'ENSG00000108846'
p237
aS'ENSG00000214530'
p238
aS'ENSG00000137507'
p239
aS'ENSG00000028137'
p240
aS'ENSG00000100441'
p241
aS'ENSG00000112992'
p242
aS'ENSG00000187922'
p243
aS'ENSG00000111339'
p244
aS'ENSG00000168309'
p245
aS'ENSG00000163734'
p246
aS'ENSG00000125810'
p247
aS'ENSG00000172602'
p248
aS'ENSG00000182993'
p249
aS'ENSG00000153815'
p250
atRp251
ssS'magenta4'
p252
(dp253
g4
(lp254
(lp255
S'ENSG00000092607'
p256
ag8
(g10
S'\xc7q\x1c\xc7q\xdc=@'
tRp257
ag8
(g10
S'\x91y\xb9\xbc,\xedt?'
tRp258
ag8
(g10
S'`\xc1>sJ\x08\xa2?'
tRp259
aa(lp260
S'ENSG00000250451'
p261
ag8
(g10
S'\x00\x00\x00\x00\x00\x809@'
tRp262
ag8
(g10
S':\xe1\xa0\x03\xdc\xcd{?'
tRp263
ag8
(g10
S'0\xd5\xcb\xbf\x9d\x80\xa4?'
tRp264
aasg63
g64
((lp265
S'ENSG00000184908'
p266
aS'ENSG00000092820'
p267
aS'ENSG00000112562'
p268
aS'ENSG00000176971'
p269
aS'ENSG00000162878'
p270
aS'ENSG00000138092'
p271
aS'ENSG00000163806'
p272
aS'ENSG00000151327'
p273
aS'ENSG00000094963'
p274
aS'ENSG00000135299'
p275
aS'ENSG00000103319'
p276
aS'ENSG00000213639'
p277
aS'ENSG00000086991'
p278
aS'ENSG00000142733'
p279
aS'ENSG00000135929'
p280
aS'ENSG00000108823'
p281
aS'ENSG00000170745'
p282
aS'ENSG00000142303'
p283
atRp284
ssS'mediumorchid'
p285
(dp286
g4
(lp287
(lp288
S'ENSG00000117154'
p289
aFinf
ag8
(g10
S'|\x7f\xb9v`\xaeM?'
tRp290
ag8
(g10
S'\xc0\x80\xe7\xa5H\xd8\x97?'
tRp291
aasg63
g64
((lp292
S'ENSG00000050405'
p293
aS'ENSG00000151414'
p294
aS'ENSG00000129933'
p295
aS'ENSG00000006715'
p296
aS'ENSG00000170727'
p297
aS'ENSG00000123066'
p298
aS'ENSG00000141380'
p299
aS'ENSG00000162174'
p300
aS'ENSG00000120913'
p301
aS'ENSG00000112561'
p302
aS'ENSG00000163960'
p303
aS'ENSG00000104320'
p304
aS'ENSG00000145982'
p305
aS'ENSG00000164823'
p306
aS'ENSG00000170634'
p307
aS'ENSG00000117410'
p308
aS'ENSG00000173905'
p309
aS'ENSG00000198208'
p310
aS'ENSG00000099889'
p311
aS'ENSG00000078140'
p312
aS'ENSG00000129197'
p313
aS'ENSG00000185344'
p314
aS'ENSG00000005436'
p315
atRp316
ssS'yellow2'
p317
(dp318
g63
g64
((lp319
S'ENSG00000120907'
p320
aS'ENSG00000159164'
p321
aS'ENSG00000149582'
p322
aS'ENSG00000167815'
p323
aS'ENSG00000172175'
p324
aS'ENSG00000107242'
p325
aS'ENSG00000087263'
p326
aS'ENSG00000072415'
p327
aS'ENSG00000099330'
p328
aS'ENSG00000187866'
p329
aS'ENSG00000095564'
p330
atRp331
ssS'black'
p332
(dp333
g63
g64
((lp334
S'ENSG00000125648'
p335
aS'ENSG00000171469'
p336
aS'ENSG00000165637'
p337
aS'ENSG00000204628'
p338
aS'ENSG00000164615'
p339
aS'ENSG00000167972'
p340
aS'ENSG00000165526'
p341
aS'ENSG00000135472'
p342
aS'ENSG00000253598'
p343
aS'ENSG00000187942'
p344
aS'ENSG00000101444'
p345
aS'ENSG00000130414'
p346
aS'ENSG00000186184'
p347
aS'ENSG00000132970'
p348
aS'ENSG00000154265'
p349
aS'ENSG00000115307'
p350
aS'ENSG00000137876'
p351
aS'ENSG00000100216'
p352
aS'ENSG00000151353'
p353
aS'ENSG00000114416'
p354
aS'ENSG00000257008'
p355
aS'ENSG00000143028'
p356
aS'ENSG00000070770'
p357
aS'ENSG00000137054'
p358
aS'ENSG00000162650'
p359
aS'ENSG00000111328'
p360
aS'ENSG00000026025'
p361
aS'ENSG00000115944'
p362
aS'ENSG00000184428'
p363
aS'ENSG00000115419'
p364
aS'ENSG00000108578'
p365
aS'ENSG00000182628'
p366
aS'ENSG00000111144'
p367
aS'ENSG00000090621'
p368
aS'ENSG00000139514'
p369
aS'ENSG00000135372'
p370
aS'ENSG00000144895'
p371
aS'ENSG00000144218'
p372
aS'ENSG00000085788'
p373
aS'ENSG00000143140'
p374
aS'ENSG00000159461'
p375
aS'ENSG00000174177'
p376
aS'ENSG00000105088'
p377
aS'ENSG00000004142'
p378
aS'ENSG00000104231'
p379
aS'ENSG00000128245'
p380
atRp381
ssS'orange'
p382
(dp383
g63
g64
((lp384
S'ENSG00000173641'
p385
aS'ENSG00000197894'
p386
aS'ENSG00000125505'
p387
aS'ENSG00000172954'
p388
aS'ENSG00000164024'
p389
aS'ENSG00000170892'
p390
aS'ENSG00000100504'
p391
aS'ENSG00000120837'
p392
aS'ENSG00000197879'
p393
aS'ENSG00000182704'
p394
aS'ENSG00000079739'
p395
aS'ENSG00000104388'
p396
aS'ENSG00000082805'
p397
aS'ENSG00000151458'
p398
aS'ENSG00000112041'
p399
aS'ENSG00000100211'
p400
aS'ENSG00000169136'
p401
aS'ENSG00000171385'
p402
aS'ENSG00000112796'
p403
aS'ENSG00000166997'
p404
aS'ENSG00000001561'
p405
aS'ENSG00000219481'
p406
aS'ENSG00000166272'
p407
aS'ENSG00000162542'
p408
aS'ENSG00000130045'
p409
aS'ENSG00000137571'
p410
aS'ENSG00000213626'
p411
aS'ENSG00000155438'
p412
aS'ENSG00000144649'
p413
aS'ENSG00000115216'
p414
aS'ENSG00000163811'
p415
aS'ENSG00000172061'
p416
aS'ENSG00000170903'
p417
aS'ENSG00000158163'
p418
aS'ENSG00000116641'
p419
aS'ENSG00000164830'
p420
atRp421
ssS'brown'
p422
(dp423
g63
g64
((lp424
S'ENSG00000107862'
p425
aS'ENSG00000160741'
p426
aS'ENSG00000125787'
p427
aS'ENSG00000162517'
p428
aS'ENSG00000139278'
p429
aS'ENSG00000064547'
p430
aS'ENSG00000122218'
p431
aS'ENSG00000166228'
p432
aS'ENSG00000142197'
p433
aS'ENSG00000138674'
p434
aS'ENSG00000079150'
p435
aS'ENSG00000044090'
p436
aS'ENSG00000074695'
p437
aS'ENSG00000102882'
p438
aS'ENSG00000086015'
p439
aS'ENSG00000136710'
p440
aS'ENSG00000141696'
p441
aS'ENSG00000102531'
p442
aS'ENSG00000090615'
p443
aS'ENSG00000171812'
p444
aS'ENSG00000182827'
p445
aS'ENSG00000148396'
p446
aS'ENSG00000149932'
p447
aS'ENSG00000126934'
p448
aS'ENSG00000140577'
p449
aS'ENSG00000179889'
p450
aS'ENSG00000171148'
p451
aS'ENSG00000066455'
p452
aS'ENSG00000172500'
p453
aS'ENSG00000198380'
p454
aS'ENSG00000142552'
p455
aS'ENSG00000078808'
p456
aS'ENSG00000173457'
p457
aS'ENSG00000111816'
p458
aS'ENSG00000115677'
p459
aS'ENSG00000112514'
p460
aS'ENSG00000051009'
p461
aS'ENSG00000176986'
p462
aS'ENSG00000105723'
p463
aS'ENSG00000172270'
p464
aS'ENSG00000175115'
p465
aS'ENSG00000135525'
p466
aS'ENSG00000090372'
p467
aS'ENSG00000174851'
p468
aS'ENSG00000112977'
p469
aS'ENSG00000012061'
p470
aS'ENSG00000129562'
p471
aS'ENSG00000239704'
p472
aS'ENSG00000152284'
p473
aS'ENSG00000197442'
p474
aS'ENSG00000004776'
p475
aS'ENSG00000139636'
p476
aS'ENSG00000103404'
p477
aS'ENSG00000129270'
p478
aS'ENSG00000163110'
p479
aS'ENSG00000106638'
p480
aS'ENSG00000168374'
p481
aS'ENSG00000157483'
p482
aS'ENSG00000197712'
p483
atRp484
ssS'turquoise'
p485
(dp486
g63
g64
((lp487
S'ENSG00000159915'
p488
aS'ENSG00000172247'
p489
aS'ENSG00000123739'
p490
aS'ENSG00000257218'
p491
aS'ENSG00000026297'
p492
aS'ENSG00000161904'
p493
aS'ENSG00000176022'
p494
aS'ENSG00000101439'
p495
aS'ENSG00000171853'
p496
aS'ENSG00000204060'
p497
aS'ENSG00000185730'
p498
aS'ENSG00000177666'
p499
aS'ENSG00000164610'
p500
aS'ENSG00000175756'
p501
aS'ENSG00000188290'
p502
aS'ENSG00000141933'
p503
aS'ENSG00000140905'
p504
aS'ENSG00000127774'
p505
aS'ENSG00000213015'
p506
aS'ENSG00000146858'
p507
aS'ENSG00000189227'
p508
aS'ENSG00000170604'
p509
aS'ENSG00000179965'
p510
aS'ENSG00000163794'
p511
aS'ENSG00000130881'
p512
aS'ENSG00000168056'
p513
aS'ENSG00000220008'
p514
aS'ENSG00000214309'
p515
aS'ENSG00000142694'
p516
aS'ENSG00000125458'
p517
aS'ENSG00000051523'
p518
aS'ENSG00000099866'
p519
aS'ENSG00000131844'
p520
aS'ENSG00000167136'
p521
aS'ENSG00000170955'
p522
aS'ENSG00000126464'
p523
aS'ENSG00000258429'
p524
aS'ENSG00000152082'
p525
aS'ENSG00000123179'
p526
aS'ENSG00000103254'
p527
aS'ENSG00000188779'
p528
aS'ENSG00000157322'
p529
aS'ENSG00000100294'
p530
aS'ENSG00000182087'
p531
aS'ENSG00000167733'
p532
aS'ENSG00000254470'
p533
aS'ENSG00000130731'
p534
aS'ENSG00000223496'
p535
aS'ENSG00000180096'
p536
aS'ENSG00000086232'
p537
aS'ENSG00000142409'
p538
aS'ENSG00000152475'
p539
aS'ENSG00000214026'
p540
aS'ENSG00000264278'
p541
aS'ENSG00000051382'
p542
aS'ENSG00000197530'
p543
aS'ENSG00000178922'
p544
aS'ENSG00000109775'
p545
aS'ENSG00000173272'
p546
aS'ENSG00000169021'
p547
aS'ENSG00000182154'
p548
aS'ENSG00000181444'
p549
aS'ENSG00000131584'
p550
aS'ENSG00000101460'
p551
aS'ENSG00000142544'
p552
aS'ENSG00000135334'
p553
aS'ENSG00000127415'
p554
aS'ENSG00000130748'
p555
aS'ENSG00000170949'
p556
aS'ENSG00000168040'
p557
aS'ENSG00000160999'
p558
aS'ENSG00000100599'
p559
aS'ENSG00000133250'
p560
atRp561
ssS'antiquewhite2'
p562
(dp563
g4
(lp564
(lp565
S'ENSG00000158516'
p566
aFinf
ag8
(g10
S'.\xc3\xe9\xc8J\x15\x02?'
tRp567
ag8
(g10
S'\x00,FE\x18\x14B?'
tRp568
aa(lp569
S'ENSG00000179674'
p570
ag8
(g10
S'\x9a\x99\x99\x99\x999K@'
tRp571
ag8
(g10
S'\xcd\xc2\x0fQ\xe8\xd1X?'
tRp572
ag8
(g10
S' W\xc5\xae\x08\x06\x97?'
tRp573
aa(lp574
S'ENSG00000241388'
p575
ag8
(g10
S'\x9a\x99\x99\x99\x999K@'
tRp576
ag8
(g10
S'\xcd\xc2\x0fQ\xe8\xd1X?'
tRp577
ag8
(g10
S' W\xc5\xae\x08\x06\x97?'
tRp578
aasg63
g64
((lp579
S'ENSG00000133678'
p580
aS'ENSG00000182511'
p581
aS'ENSG00000114204'
p582
aS'ENSG00000076344'
p583
aS'ENSG00000185559'
p584
aS'ENSG00000160882'
p585
aS'ENSG00000164266'
p586
aS'ENSG00000167759'
p587
aS'ENSG00000003249'
p588
aS'ENSG00000185615'
p589
aS'ENSG00000187021'
p590
aS'ENSG00000138111'
p591
aS'ENSG00000091704'
p592
aS'ENSG00000242173'
p593
aS'ENSG00000165474'
p594
aS'ENSG00000137962'
p595
aS'ENSG00000231852'
p596
atRp597
ssS'antiquewhite1'
p598
(dp599
g63
g64
((lp600
S'ENSG00000183570'
p601
aS'ENSG00000128683'
p602
aS'ENSG00000106789'
p603
aS'ENSG00000071909'
p604
aS'ENSG00000222033'
p605
aS'ENSG00000081923'
p606
aS'ENSG00000144369'
p607
aS'ENSG00000204334'
p608
aS'ENSG00000204335'
p609
aS'ENSG00000128294'
p610
aS'ENSG00000153246'
p611
atRp612
ssS'antiquewhite4'
p613
(dp614
g4
(lp615
(lp616
S'ENSG00000183044'
p617
ag8
(g10
S'\x9a\x99\x99\x99\x99yd@'
tRp618
ag8
(g10
S'E\xe7\xba \x16!\xe2>'
tRp619
ag8
(g10
S'\x00&@\xb5Z\xf5S?'
tRp620
aa(lp621
S'ENSG00000184489'
p622
ag8
(g10
S'ffffff{@'
tRp623
ag8
(g10
S'\xd4C\x18$\xef\n\x1b?'
tRp624
ag8
(g10
S'\x00\xa1s\x90\xed]\x8d?'
tRp625
aa(lp626
S'ENSG00000119630'
p627
ag8
(g10
S'ffffff{@'
tRp628
ag8
(g10
S'\xd4C\x18$\xef\n\x1b?'
tRp629
ag8
(g10
S'\x00\xa1s\x90\xed]\x8d?'
tRp630
aa(lp631
S'ENSG00000167941'
p632
ag8
(g10
S'ffffff{@'
tRp633
ag8
(g10
S'\xd4C\x18$\xef\n\x1b?'
tRp634
ag8
(g10
S'\x00\xa1s\x90\xed]\x8d?'
tRp635
aa(lp636
S'ENSG00000234438'
p637
ag8
(g10
S'ffffff{@'
tRp638
ag8
(g10
S'\xd4C\x18$\xef\n\x1b?'
tRp639
ag8
(g10
S'\x00\xa1s\x90\xed]\x8d?'
tRp640
aa(lp641
S'ENSG00000185100'
p642
ag8
(g10
S'ffffff{@'
tRp643
ag8
(g10
S'\xd4C\x18$\xef\n\x1b?'
tRp644
ag8
(g10
S'\x00\xa1s\x90\xed]\x8d?'
tRp645
aa(lp646
S'ENSG00000099250'
p647
ag8
(g10
S'\x00\x00\x00\x00\x00VI@'
tRp648
ag8
(g10
S'f\x18\xc22\x01\x06#?'
tRp649
ag8
(g10
S'`m\xf6\xc4\xb4\xde\x93?'
tRp650
aasg63
g64
((lp651
S'ENSG00000130702'
p652
aS'ENSG00000105650'
p653
aS'ENSG00000141959'
p654
aS'ENSG00000085733'
p655
aS'ENSG00000120708'
p656
aS'ENSG00000141639'
p657
aS'ENSG00000179314'
p658
aS'ENSG00000185100'
p659
aS'ENSG00000104067'
p660
aS'ENSG00000140538'
p661
aS'ENSG00000177879'
p662
aS'ENSG00000088205'
p663
aS'ENSG00000143847'
p664
aS'ENSG00000184702'
p665
aS'ENSG00000166086'
p666
aS'ENSG00000082684'
p667
aS'ENSG00000104490'
p668
aS'ENSG00000065485'
p669
aS'ENSG00000181458'
p670
aS'ENSG00000184990'
p671
aS'ENSG00000145782'
p672
aS'ENSG00000196739'
p673
aS'ENSG00000188629'
p674
aS'ENSG00000105220'
p675
atRp676
ssS'indianred4'
p677
(dp678
g4
(lp679
(lp680
S'ENSG00000005073'
p681
ag8
(g10
S'\x00\x00\x00\x00\x00\xd0f@'
tRp682
ag8
(g10
S'\xf5\xfb\xfa\x1fZ\x070?'
tRp683
ag8
(g10
S'\x00\xe3\xf4\xd8\xaa\xffo?'
tRp684
aa(lp685
S'ENSG00000240990'
p686
ag8
(g10
S'\x00\x00\x00\x00\x00\x18a@'
tRp687
ag8
(g10
S'\xe93\xb2\xf5\x1d\xfc7?'
tRp688
ag8
(g10
S'\x00s\x1f\xd8\xa2mv?'
tRp689
aasg63
g64
((lp690
S'ENSG00000119771'
p691
aS'ENSG00000047188'
p692
aS'ENSG00000124422'
p693
aS'ENSG00000128908'
p694
aS'ENSG00000206052'
p695
aS'ENSG00000129480'
p696
aS'ENSG00000105483'
p697
aS'ENSG00000143248'
p698
aS'ENSG00000109436'
p699
aS'ENSG00000163378'
p700
aS'ENSG00000105894'
p701
aS'ENSG00000179399'
p702
aS'ENSG00000105341'
p703
aS'ENSG00000069011'
p704
aS'ENSG00000173376'
p705
aS'ENSG00000121075'
p706
aS'ENSG00000143850'
p707
aS'ENSG00000146223'
p708
aS'ENSG00000137203'
p709
aS'ENSG00000141867'
p710
atRp711
ssS'bisque4'
p712
(dp713
g4
(lp714
(lp715
S'ENSG00000151892'
p716
aFinf
ag8
(g10
S'\xaa\x7f\xb9v`\xae]?'
tRp717
ag8
(g10
S'\x80\x9c\xd8s_~\x8d?'
tRp718
aa(lp719
S'ENSG00000186160'
p720
aFinf
ag8
(g10
S'\xaa\x7f\xb9v`\xae]?'
tRp721
ag8
(g10
S'\x80\x9c\xd8s_~\x8d?'
tRp722
aasg63
g64
((lp723
S'ENSG00000132141'
p724
aS'ENSG00000143382'
p725
aS'ENSG00000073849'
p726
aS'ENSG00000142657'
p727
aS'ENSG00000205726'
p728
aS'ENSG00000175155'
p729
aS'ENSG00000115993'
p730
aS'ENSG00000163785'
p731
aS'ENSG00000152763'
p732
aS'ENSG00000107104'
p733
aS'ENSG00000204104'
p734
aS'ENSG00000092871'
p735
aS'ENSG00000169116'
p736
aS'ENSG00000100336'
p737
aS'ENSG00000122756'
p738
aS'ENSG00000142002'
p739
aS'ENSG00000186205'
p740
aS'ENSG00000133104'
p741
aS'ENSG00000163145'
p742
aS'ENSG00000112218'
p743
aS'ENSG00000164576'
p744
aS'ENSG00000243444'
p745
aS'ENSG00000113407'
p746
aS'ENSG00000058091'
p747
aS'ENSG00000140022'
p748
aS'ENSG00000070214'
p749
aS'ENSG00000115350'
p750
aS'ENSG00000241978'
p751
atRp752
ssS'cyan'
p753
(dp754
g63
g64
((lp755
S'ENSG00000197958'
p756
aS'ENSG00000105202'
p757
aS'ENSG00000130313'
p758
aS'ENSG00000170275'
p759
aS'ENSG00000116251'
p760
aS'ENSG00000084092'
p761
aS'ENSG00000126878'
p762
aS'ENSG00000143543'
p763
aS'ENSG00000182871'
p764
aS'ENSG00000175390'
p765
aS'ENSG00000174780'
p766
aS'ENSG00000181264'
p767
aS'ENSG00000071127'
p768
aS'ENSG00000189180'
p769
aS'ENSG00000128989'
p770
aS'ENSG00000173638'
p771
aS'ENSG00000100316'
p772
aS'ENSG00000198242'
p773
aS'ENSG00000186468'
p774
aS'ENSG00000167526'
p775
aS'ENSG00000186994'
p776
aS'ENSG00000100129'
p777
aS'ENSG00000065427'
p778
aS'ENSG00000174100'
p779
aS'ENSG00000166333'
p780
aS'ENSG00000063046'
p781
aS'ENSG00000100395'
p782
aS'ENSG00000104529'
p783
aS'ENSG00000128274'
p784
aS'ENSG00000206344'
p785
aS'ENSG00000105373'
p786
aS'ENSG00000188522'
p787
aS'ENSG00000112320'
p788
aS'ENSG00000145936'
p789
aS'ENSG00000126247'
p790
aS'ENSG00000168028'
p791
aS'ENSG00000139168'
p792
aS'ENSG00000149823'
p793
aS'ENSG00000167671'
p794
aS'ENSG00000115561'
p795
aS'ENSG00000149273'
p796
atRp797
ssS'skyblue'
p798
(dp799
g63
g64
((lp800
S'ENSG00000159131'
p801
aS'ENSG00000064703'
p802
aS'ENSG00000197619'
p803
aS'ENSG00000186017'
p804
aS'ENSG00000177683'
p805
aS'ENSG00000105732'
p806
aS'ENSG00000198492'
p807
aS'ENSG00000215045'
p808
aS'ENSG00000253710'
p809
aS'ENSG00000144048'
p810
aS'ENSG00000119401'
p811
aS'ENSG00000111012'
p812
aS'ENSG00000166188'
p813
aS'ENSG00000143622'
p814
aS'ENSG00000189241'
p815
aS'ENSG00000141568'
p816
aS'ENSG00000119318'
p817
aS'ENSG00000163481'
p818
aS'ENSG00000167447'
p819
aS'ENSG00000175213'
p820
aS'ENSG00000173281'
p821
aS'ENSG00000143771'
p822
aS'ENSG00000132823'
p823
aS'ENSG00000137547'
p824
aS'ENSG00000137656'
p825
aS'ENSG00000145365'
p826
aS'ENSG00000100532'
p827
aS'ENSG00000179021'
p828
aS'ENSG00000176399'
p829
aS'ENSG00000173848'
p830
aS'ENSG00000171169'
p831
aS'ENSG00000099949'
p832
aS'ENSG00000180035'
p833
aS'ENSG00000139437'
p834
aS'ENSG00000163870'
p835
atRp836
ssS'darkturquoise'
p837
(dp838
g63
g64
((lp839
S'ENSG00000221886'
p840
aS'ENSG00000116062'
p841
aS'ENSG00000131504'
p842
aS'ENSG00000198093'
p843
aS'ENSG00000100207'
p844
aS'ENSG00000162241'
p845
aS'ENSG00000204977'
p846
aS'ENSG00000108424'
p847
aS'ENSG00000127311'
p848
aS'ENSG00000143373'
p849
aS'ENSG00000164754'
p850
aS'ENSG00000121864'
p851
aS'ENSG00000187815'
p852
aS'ENSG00000113638'
p853
aS'ENSG00000107362'
p854
aS'ENSG00000139620'
p855
aS'ENSG00000146477'
p856
aS'ENSG00000106780'
p857
aS'ENSG00000076242'
p858
aS'ENSG00000179454'
p859
aS'ENSG00000160712'
p860
aS'ENSG00000165512'
p861
aS'ENSG00000102445'
p862
aS'ENSG00000106608'
p863
aS'ENSG00000172845'
p864
aS'ENSG00000134375'
p865
aS'ENSG00000005379'
p866
aS'ENSG00000101247'
p867
aS'ENSG00000127666'
p868
aS'ENSG00000151135'
p869
aS'ENSG00000130921'
p870
aS'ENSG00000133740'
p871
aS'ENSG00000186889'
p872
aS'ENSG00000173442'
p873
aS'ENSG00000162607'
p874
aS'ENSG00000120370'
p875
aS'ENSG00000142686'
p876
atRp877
ssS'darkgreen'
p878
(dp879
g63
g64
((lp880
S'ENSG00000136271'
p881
aS'ENSG00000144792'
p882
aS'ENSG00000243678'
p883
aS'ENSG00000162244'
p884
aS'ENSG00000108443'
p885
aS'ENSG00000255284'
p886
aS'ENSG00000111450'
p887
aS'ENSG00000177600'
p888
aS'ENSG00000198931'
p889
aS'ENSG00000176473'
p890
aS'ENSG00000164587'
p891
aS'ENSG00000127952'
p892
aS'ENSG00000074054'
p893
aS'ENSG00000166441'
p894
aS'ENSG00000196422'
p895
aS'ENSG00000099917'
p896
aS'ENSG00000117748'
p897
aS'ENSG00000122678'
p898
aS'ENSG00000083845'
p899
aS'ENSG00000110075'
p900
aS'ENSG00000133121'
p901
aS'ENSG00000166313'
p902
aS'ENSG00000198160'
p903
aS'ENSG00000115966'
p904
aS'ENSG00000123119'
p905
aS'ENSG00000119844'
p906
aS'ENSG00000111678'
p907
aS'ENSG00000170889'
p908
aS'ENSG00000089154'
p909
aS'ENSG00000183617'
p910
aS'ENSG00000161016'
p911
aS'ENSG00000138495'
p912
aS'ENSG00000135108'
p913
aS'ENSG00000180376'
p914
aS'ENSG00000062650'
p915
aS'ENSG00000025293'
p916
aS'ENSG00000130255'
p917
atRp918
ssS'darkviolet'
p919
(dp920
g4
(lp921
(lp922
S'ENSG00000064205'
p923
aFinf
ag8
(g10
S'x\x1b\x0bY\xc8Bf?'
tRp924
ag8
(g10
S'@\x82\xb7\x8e\x98+\x86?'
tRp925
aa(lp926
S'ENSG00000198467'
p927
aFinf
ag8
(g10
S'x\x1b\x0bY\xc8Bf?'
tRp928
ag8
(g10
S'@\x82\xb7\x8e\x98+\x86?'
tRp929
aa(lp930
S'ENSG00000140416'
p931
aFinf
ag8
(g10
S'\x8c^UUUU\x95?'
tRp932
ag8
(g10
S'\xc0z\x1c\xc7q\x1c\xa5?'
tRp933
aasg63
g64
((lp934
S'ENSG00000153214'
p935
aS'ENSG00000152520'
p936
aS'ENSG00000197122'
p937
aS'ENSG00000119632'
p938
aS'ENSG00000072195'
p939
aS'ENSG00000115271'
p940
aS'ENSG00000198087'
p941
aS'ENSG00000171791'
p942
aS'ENSG00000213593'
p943
aS'ENSG00000130669'
p944
aS'ENSG00000159692'
p945
aS'ENSG00000127220'
p946
aS'ENSG00000100320'
p947
aS'ENSG00000157259'
p948
aS'ENSG00000088766'
p949
aS'ENSG00000101363'
p950
aS'ENSG00000028203'
p951
aS'ENSG00000124788'
p952
aS'ENSG00000139624'
p953
atRp954
ssS'red'
p955
(dp956
g4
(lp957
(lp958
S'ENSG00000126785'
p959
aFinf
ag8
(g10
S'\xb1\x1f\x0bY\xc8Bv?'
tRp960
ag8
(g10
S' \x8f\xcbD~\x14\x96?'
tRp961
aa(lp962
g647
aFinf
ag8
(g10
S'\xc6\x1c~F\x89\x9f\x91?'
tRp963
ag8
(g10
S' \x8f\xcbD~\x14\x96?'
tRp964
aa(lp965
S'ENSG00000267107'
p966
aFinf
ag8
(g10
S'{\x90\xb9v`\xae}?'
tRp967
ag8
(g10
S' \x8f\xcbD~\x14\x96?'
tRp968
aa(lp969
S'ENSG00000198844'
p970
aFinf
ag8
(g10
S'\xd6X\xe2g\x94\xf8y?'
tRp971
ag8
(g10
S' \x8f\xcbD~\x14\x96?'
tRp972
aasg63
g64
((lp973
S'ENSG00000111432'
p974
aS'ENSG00000165733'
p975
aS'ENSG00000134899'
p976
aS'ENSG00000177646'
p977
aS'ENSG00000015479'
p978
aS'ENSG00000204843'
p979
aS'ENSG00000007080'
p980
aS'ENSG00000165525'
p981
aS'ENSG00000113141'
p982
aS'ENSG00000077380'
p983
aS'ENSG00000126214'
p984
aS'ENSG00000100014'
p985
aS'ENSG00000076924'
p986
aS'ENSG00000248712'
p987
aS'ENSG00000059691'
p988
aS'ENSG00000140553'
p989
aS'ENSG00000184014'
p990
aS'ENSG00000132376'
p991
aS'ENSG00000100764'
p992
aS'ENSG00000108592'
p993
aS'ENSG00000119139'
p994
aS'ENSG00000150753'
p995
aS'ENSG00000172985'
p996
aS'ENSG00000105058'
p997
aS'ENSG00000163166'
p998
aS'ENSG00000106290'
p999
aS'ENSG00000060069'
p1000
aS'ENSG00000065154'
p1001
aS'ENSG00000164609'
p1002
aS'ENSG00000163961'
p1003
aS'ENSG00000103671'
p1004
aS'ENSG00000136628'
p1005
aS'ENSG00000163468'
p1006
aS'ENSG00000111203'
p1007
aS'ENSG00000034677'
p1008
aS'ENSG00000175467'
p1009
aS'ENSG00000145833'
p1010
aS'ENSG00000168724'
p1011
aS'ENSG00000136819'
p1012
aS'ENSG00000139651'
p1013
aS'ENSG00000174720'
p1014
aS'ENSG00000146067'
p1015
aS'ENSG00000140521'
p1016
aS'ENSG00000101161'
p1017
aS'ENSG00000150760'
p1018
aS'ENSG00000112130'
p1019
atRp1020
ssS'darkmagenta'
p1021
(dp1022
g4
(lp1023
(lp1024
S'ENSG00000113263'
p1025
aFinf
ag8
(g10
S'|\x7f\xb9v`\xaeM?'
tRp1026
ag8
(g10
S'`\xaa\xe8o\xf3\x1e\xa3?'
tRp1027
aasg63
g64
((lp1028
S'ENSG00000196967'
p1029
aS'ENSG00000165819'
p1030
aS'ENSG00000136100'
p1031
aS'ENSG00000180988'
p1032
aS'ENSG00000175376'
p1033
aS'ENSG00000103381'
p1034
aS'ENSG00000242498'
p1035
aS'ENSG00000204604'
p1036
aS'ENSG00000164631'
p1037
aS'ENSG00000146757'
p1038
aS'ENSG00000253719'
p1039
aS'ENSG00000135974'
p1040
aS'ENSG00000170677'
p1041
aS'ENSG00000198315'
p1042
aS'ENSG00000198105'
p1043
aS'ENSG00000172663'
p1044
aS'ENSG00000132485'
p1045
aS'ENSG00000197928'
p1046
aS'ENSG00000104852'
p1047
aS'ENSG00000105726'
p1048
aS'ENSG00000111875'
p1049
aS'ENSG00000163728'
p1050
aS'ENSG00000165102'
p1051
aS'ENSG00000213516'
p1052
aS'ENSG00000081019'
p1053
aS'ENSG00000167615'
p1054
aS'ENSG00000118482'
p1055
aS'ENSG00000156738'
p1056
aS'ENSG00000140471'
p1057
aS'ENSG00000100201'
p1058
aS'ENSG00000160570'
p1059
aS'ENSG00000196476'
p1060
aS'ENSG00000118690'
p1061
atRp1062
ssS'indianred3'
p1063
(dp1064
g63
g64
((lp1065
S'ENSG00000134851'
p1066
aS'ENSG00000151632'
p1067
aS'ENSG00000153064'
p1068
aS'ENSG00000137713'
p1069
aS'ENSG00000119402'
p1070
aS'ENSG00000152910'
p1071
aS'ENSG00000008394'
p1072
aS'ENSG00000079974'
p1073
aS'ENSG00000165995'
p1074
aS'ENSG00000172901'
p1075
aS'ENSG00000196139'
p1076
aS'ENSG00000174899'
p1077
aS'ENSG00000187134'
p1078
aS'ENSG00000184402'
p1079
aS'ENSG00000116690'
p1080
atRp1081
ssS'plum3'
p1082
(dp1083
g4
(lp1084
(lp1085
S'ENSG00000179388'
p1086
aFinf
ag8
(g10
S'\x19\xdfx\x9c\x9e\xaa\xd4>'
tRp1087
ag8
(g10
S'\x00@\xa0\xcdz\xff\x1e?'
tRp1088
aasg63
g64
((lp1089
S'ENSG00000005882'
p1090
aS'ENSG00000143507'
p1091
aS'ENSG00000179119'
p1092
aS'ENSG00000174791'
p1093
aS'ENSG00000253251'
p1094
aS'ENSG00000142867'
p1095
aS'ENSG00000111707'
p1096
aS'ENSG00000133704'
p1097
aS'ENSG00000178386'
p1098
aS'ENSG00000100580'
p1099
aS'ENSG00000122035'
p1100
aS'ENSG00000241644'
p1101
aS'ENSG00000125740'
p1102
aS'ENSG00000075711'
p1103
aS'ENSG00000122877'
p1104
aS'ENSG00000148672'
p1105
aS'ENSG00000160888'
p1106
aS'ENSG00000116478'
p1107
aS'ENSG00000121289'
p1108
atRp1109
ssS'plum2'
p1110
(dp1111
g63
g64
((lp1112
S'ENSG00000235376'
p1113
aS'ENSG00000167100'
p1114
aS'ENSG00000165757'
p1115
aS'ENSG00000145681'
p1116
aS'ENSG00000128829'
p1117
aS'ENSG00000066248'
p1118
aS'ENSG00000139200'
p1119
aS'ENSG00000089123'
p1120
aS'ENSG00000156535'
p1121
aS'ENSG00000168077'
p1122
aS'ENSG00000145794'
p1123
aS'ENSG00000124802'
p1124
aS'ENSG00000169174'
p1125
aS'ENSG00000181195'
p1126
aS'ENSG00000137496'
p1127
aS'ENSG00000135919'
p1128
aS'ENSG00000120885'
p1129
aS'ENSG00000095713'
p1130
aS'ENSG00000144278'
p1131
aS'ENSG00000126860'
p1132
aS'ENSG00000167861'
p1133
aS'ENSG00000158062'
p1134
aS'ENSG00000164038'
p1135
aS'ENSG00000114126'
p1136
aS'ENSG00000155265'
p1137
aS'ENSG00000250305'
p1138
aS'ENSG00000168350'
p1139
atRp1140
ssS'plum1'
p1141
(dp1142
g4
(lp1143
(lp1144
S'ENSG00000104415'
p1145
aFinf
ag8
(g10
S'\xaa\x7f\xb9v`\xae]?'
tRp1146
ag8
(g10
S'\xc0\xf5\x8f\x12S\x15\x9f?'
tRp1147
aasg63
g64
((lp1148
S'ENSG00000138069'
p1149
aS'ENSG00000131471'
p1150
aS'ENSG00000117758'
p1151
aS'ENSG00000106799'
p1152
aS'ENSG00000100284'
p1153
aS'ENSG00000169905'
p1154
aS'ENSG00000132388'
p1155
aS'ENSG00000104824'
p1156
aS'ENSG00000075292'
p1157
aS'ENSG00000087077'
p1158
aS'ENSG00000249915'
p1159
aS'ENSG00000164294'
p1160
aS'ENSG00000073921'
p1161
aS'ENSG00000069248'
p1162
aS'ENSG00000165934'
p1163
aS'ENSG00000171105'
p1164
aS'ENSG00000130202'
p1165
aS'ENSG00000002834'
p1166
aS'ENSG00000107779'
p1167
aS'ENSG00000108510'
p1168
aS'ENSG00000185722'
p1169
aS'ENSG00000249679'
p1170
aS'ENSG00000002919'
p1171
aS'ENSG00000185420'
p1172
aS'ENSG00000141905'
p1173
aS'ENSG00000133818'
p1174
aS'ENSG00000100889'
p1175
aS'ENSG00000119414'
p1176
aS'ENSG00000101608'
p1177
aS'ENSG00000033627'
p1178
aS'ENSG00000136146'
p1179
aS'ENSG00000064666'
p1180
atRp1181
ssS'saddlebrown'
p1182
(dp1183
g63
g64
((lp1184
S'ENSG00000108953'
p1185
aS'ENSG00000152234'
p1186
aS'ENSG00000197043'
p1187
aS'ENSG00000106355'
p1188
aS'ENSG00000014641'
p1189
aS'ENSG00000073578'
p1190
aS'ENSG00000125746'
p1191
aS'ENSG00000103544'
p1192
aS'ENSG00000165678'
p1193
aS'ENSG00000023228'
p1194
aS'ENSG00000140398'
p1195
aS'ENSG00000126215'
p1196
aS'ENSG00000089220'
p1197
aS'ENSG00000196878'
p1198
aS'ENSG00000168092'
p1199
aS'ENSG00000125779'
p1200
aS'ENSG00000151503'
p1201
aS'ENSG00000089597'
p1202
aS'ENSG00000101104'
p1203
aS'ENSG00000135469'
p1204
aS'ENSG00000119718'
p1205
aS'ENSG00000022277'
p1206
aS'ENSG00000101361'
p1207
aS'ENSG00000100412'
p1208
aS'ENSG00000101365'
p1209
aS'ENSG00000144231'
p1210
aS'ENSG00000164111'
p1211
aS'ENSG00000250479'
p1212
aS'ENSG00000198837'
p1213
aS'ENSG00000171824'
p1214
aS'ENSG00000198563'
p1215
aS'ENSG00000100220'
p1216
aS'ENSG00000116489'
p1217
aS'ENSG00000132341'
p1218
aS'ENSG00000110955'
p1219
atRp1220
ssS'orangered1'
p1221
(dp1222
g63
g64
((lp1223
S'ENSG00000116604'
p1224
aS'ENSG00000124733'
p1225
aS'ENSG00000172456'
p1226
aS'ENSG00000109794'
p1227
aS'ENSG00000143458'
p1228
aS'ENSG00000132840'
p1229
aS'ENSG00000174738'
p1230
aS'ENSG00000165055'
p1231
aS'ENSG00000159314'
p1232
aS'ENSG00000145246'
p1233
aS'ENSG00000145692'
p1234
aS'ENSG00000132837'
p1235
aS'ENSG00000083099'
p1236
aS'ENSG00000163864'
p1237
aS'ENSG00000175334'
p1238
aS'ENSG00000163510'
p1239
aS'ENSG00000175084'
p1240
atRp1241
ssS'yellowgreen'
p1242
(dp1243
g63
g64
((lp1244
S'ENSG00000072310'
p1245
aS'ENSG00000131473'
p1246
aS'ENSG00000006831'
p1247
aS'ENSG00000169710'
p1248
aS'ENSG00000138413'
p1249
aS'ENSG00000079459'
p1250
aS'ENSG00000139304'
p1251
aS'ENSG00000109084'
p1252
aS'ENSG00000149485'
p1253
aS'ENSG00000186340'
p1254
aS'ENSG00000160339'
p1255
aS'ENSG00000116133'
p1256
aS'ENSG00000132256'
p1257
aS'ENSG00000160285'
p1258
aS'ENSG00000104549'
p1259
aS'ENSG00000110921'
p1260
aS'ENSG00000139428'
p1261
aS'ENSG00000134824'
p1262
aS'ENSG00000154229'
p1263
aS'ENSG00000081760'
p1264
aS'ENSG00000122490'
p1265
aS'ENSG00000132196'
p1266
aS'ENSG00000117152'
p1267
aS'ENSG00000052802'
p1268
aS'ENSG00000235878'
p1269
aS'ENSG00000131069'
p1270
aS'ENSG00000160326'
p1271
aS'ENSG00000166471'
p1272
aS'ENSG00000149809'
p1273
aS'ENSG00000117632'
p1274
aS'ENSG00000109929'
p1275
aS'ENSG00000141458'
p1276
atRp1277
ssS'thistle'
p1278
(dp1279
g63
g64
((lp1280
S'ENSG00000159307'
p1281
aS'ENSG00000132681'
p1282
aS'ENSG00000182533'
p1283
aS'ENSG00000185875'
p1284
aS'ENSG00000061455'
p1285
aS'ENSG00000149212'
p1286
aS'ENSG00000171793'
p1287
aS'ENSG00000140691'
p1288
aS'ENSG00000095777'
p1289
aS'ENSG00000136247'
p1290
aS'ENSG00000117114'
p1291
aS'ENSG00000162302'
p1292
aS'ENSG00000077522'
p1293
aS'ENSG00000182552'
p1294
aS'ENSG00000255529'
p1295
aS'ENSG00000066382'
p1296
aS'ENSG00000168916'
p1297
aS'ENSG00000170854'
p1298
aS'ENSG00000204103'
p1299
atRp1300
ssS'violet'
p1301
(dp1302
g63
g64
((lp1303
S'ENSG00000124222'
p1304
aS'ENSG00000012779'
p1305
aS'ENSG00000137462'
p1306
aS'ENSG00000134222'
p1307
aS'ENSG00000179058'
p1308
aS'ENSG00000171051'
p1309
aS'ENSG00000170525'
p1310
aS'ENSG00000160255'
p1311
aS'ENSG00000142512'
p1312
aS'ENSG00000122025'
p1313
aS'ENSG00000164941'
p1314
aS'ENSG00000167523'
p1315
aS'ENSG00000141349'
p1316
aS'ENSG00000163162'
p1317
aS'ENSG00000142188'
p1318
aS'ENSG00000204839'
p1319
aS'ENSG00000116731'
p1320
aS'ENSG00000179639'
p1321
aS'ENSG00000115590'
p1322
aS'ENSG00000179593'
p1323
aS'ENSG00000018280'
p1324
aS'ENSG00000000938'
p1325
aS'ENSG00000014164'
p1326
aS'ENSG00000069424'
p1327
aS'ENSG00000134463'
p1328
aS'ENSG00000095383'
p1329
aS'ENSG00000167775'
p1330
aS'ENSG00000183955'
p1331
aS'ENSG00000204130'
p1332
aS'ENSG00000115604'
p1333
aS'ENSG00000121440'
p1334
aS'ENSG00000174282'
p1335
aS'ENSG00000081237'
p1336
aS'ENSG00000105501'
p1337
atRp1338
ssS'blue'
p1339
(dp1340
g63
g64
((lp1341
S'ENSG00000175575'
p1342
aS'ENSG00000148484'
p1343
aS'ENSG00000130340'
p1344
aS'ENSG00000065000'
p1345
aS'ENSG00000203485'
p1346
aS'ENSG00000106415'
p1347
aS'ENSG00000105771'
p1348
aS'ENSG00000105568'
p1349
aS'ENSG00000103275'
p1350
aS'ENSG00000162576'
p1351
aS'ENSG00000164713'
p1352
aS'ENSG00000185043'
p1353
aS'ENSG00000143420'
p1354
aS'ENSG00000109089'
p1355
aS'ENSG00000177888'
p1356
aS'ENSG00000091039'
p1357
aS'ENSG00000104946'
p1358
aS'ENSG00000070413'
p1359
aS'ENSG00000157107'
p1360
aS'ENSG00000105556'
p1361
aS'ENSG00000213676'
p1362
aS'ENSG00000025772'
p1363
aS'ENSG00000100350'
p1364
aS'ENSG00000072958'
p1365
aS'ENSG00000184203'
p1366
aS'ENSG00000204619'
p1367
aS'ENSG00000006530'
p1368
aS'ENSG00000099956'
p1369
aS'ENSG00000150316'
p1370
aS'ENSG00000073584'
p1371
aS'ENSG00000054282'
p1372
aS'ENSG00000165280'
p1373
aS'ENSG00000122417'
p1374
aS'ENSG00000139644'
p1375
aS'ENSG00000137076'
p1376
aS'ENSG00000075785'
p1377
aS'ENSG00000004059'
p1378
aS'ENSG00000145868'
p1379
aS'ENSG00000072135'
p1380
aS'ENSG00000103066'
p1381
aS'ENSG00000183020'
p1382
aS'ENSG00000131558'
p1383
aS'ENSG00000140948'
p1384
aS'ENSG00000111652'
p1385
aS'ENSG00000131374'
p1386
aS'ENSG00000129925'
p1387
aS'ENSG00000136381'
p1388
aS'ENSG00000164332'
p1389
aS'ENSG00000079313'
p1390
aS'ENSG00000171067'
p1391
aS'ENSG00000070540'
p1392
aS'ENSG00000087365'
p1393
aS'ENSG00000125818'
p1394
aS'ENSG00000141985'
p1395
aS'ENSG00000108784'
p1396
aS'ENSG00000132670'
p1397
aS'ENSG00000196209'
p1398
aS'ENSG00000118729'
p1399
aS'ENSG00000140299'
p1400
aS'ENSG00000147535'
p1401
aS'ENSG00000138639'
p1402
aS'ENSG00000167632'
p1403
aS'ENSG00000179134'
p1404
aS'ENSG00000175582'
p1405
aS'ENSG00000068305'
p1406
aS'ENSG00000119242'
p1407
aS'ENSG00000088832'
p1408
aS'ENSG00000104885'
p1409
aS'ENSG00000131653'
p1410
aS'ENSG00000168461'
p1411
aS'ENSG00000081189'
p1412
aS'ENSG00000039523'
p1413
atRp1414
ssS'honeydew'
p1415
(dp1416
g4
(lp1417
(lp1418
S'ENSG00000106018'
p1419
aFinf
ag8
(g10
S'\xaa\x7f\xb9v`\xae]?'
tRp1420
ag8
(g10
S'\x00(u\x85~\xa7m?'
tRp1421
aa(lp1422
S'ENSG00000206549'
p1423
aFinf
ag8
(g10
S'\xaa\x7f\xb9v`\xae]?'
tRp1424
ag8
(g10
S'\x00(u\x85~\xa7m?'
tRp1425
aasg63
g64
((lp1426
S'ENSG00000162391'
p1427
aS'ENSG00000162390'
p1428
aS'ENSG00000130653'
p1429
aS'ENSG00000143442'
p1430
aS'ENSG00000126432'
p1431
aS'ENSG00000160199'
p1432
aS'ENSG00000090013'
p1433
aS'ENSG00000151689'
p1434
aS'ENSG00000165912'
p1435
aS'ENSG00000241962'
p1436
aS'ENSG00000184313'
p1437
aS'ENSG00000006534'
p1438
aS'ENSG00000185414'
p1439
aS'ENSG00000120915'
p1440
aS'ENSG00000184381'
p1441
aS'ENSG00000138430'
p1442
aS'ENSG00000213221'
p1443
aS'ENSG00000162882'
p1444
atRp1445
ssS'purple'
p1446
(dp1447
g4
(lp1448
(lp1449
S'ENSG00000135245'
p1450
ag8
(g10
S'ffffff{@'
tRp1451
ag8
(g10
S'\xd4C\x18$\xef\n\x1b?'
tRp1452
ag8
(g10
S'\x80\xf9\xbc{\xab\r}?'
tRp1453
aa(lp1454
S'ENSG00000066468'
p1455
ag8
(g10
S'\x00\x00\x00\x00\x00`k@'
tRp1456
ag8
(g10
S'\xb3(\x8f\xc1\xfc\xf5*?'
tRp1457
ag8
(g10
S'@\xfb\xac\x89\x0es\x8c?'
tRp1458
aa(lp1459
S'ENSG00000112715'
p1460
ag8
(g10
S'\xbc\xbb\xbb\xbb\xbb;b@'
tRp1461
ag8
(g10
S'v\x83\xfb}?f6?'
tRp1462
ag8
(g10
S'@|\xf5\xce\xd4/\x97?'
tRp1463
aa(lp1464
S'ENSG00000124939'
p1465
ag8
(g10
S'33333S[@'
tRp1466
ag8
(g10
S'\x96s\xfda\xaa\xbf@?'
tRp1467
ag8
(g10
S'P\x04\xb6\x94\xff\xfc\xa0?'
tRp1468
aasg63
g64
((lp1469
S'ENSG00000176974'
p1470
aS'ENSG00000115738'
p1471
aS'ENSG00000179833'
p1472
aS'ENSG00000174684'
p1473
aS'ENSG00000123999'
p1474
aS'ENSG00000151882'
p1475
aS'ENSG00000188483'
p1476
aS'ENSG00000184731'
p1477
aS'ENSG00000113790'
p1478
aS'ENSG00000011083'
p1479
aS'ENSG00000119938'
p1480
aS'ENSG00000123124'
p1481
aS'ENSG00000139116'
p1482
aS'ENSG00000167565'
p1483
aS'ENSG00000111276'
p1484
aS'ENSG00000091542'
p1485
aS'ENSG00000140332'
p1486
aS'ENSG00000134107'
p1487
aS'ENSG00000177971'
p1488
aS'ENSG00000141582'
p1489
aS'ENSG00000164683'
p1490
aS'ENSG00000114315'
p1491
aS'ENSG00000172009'
p1492
aS'ENSG00000126804'
p1493
aS'ENSG00000129484'
p1494
aS'ENSG00000107816'
p1495
aS'ENSG00000144476'
p1496
aS'ENSG00000105298'
p1497
aS'ENSG00000059804'
p1498
aS'ENSG00000164252'
p1499
aS'ENSG00000111581'
p1500
aS'ENSG00000198909'
p1501
aS'ENSG00000134109'
p1502
aS'ENSG00000153066'
p1503
aS'ENSG00000157036'
p1504
aS'ENSG00000127129'
p1505
aS'ENSG00000119203'
p1506
aS'ENSG00000023608'
p1507
aS'ENSG00000101665'
p1508
aS'ENSG00000197557'
p1509
aS'ENSG00000267857'
p1510
aS'ENSG00000158042'
p1511
aS'ENSG00000164850'
p1512
aS'ENSG00000169105'
p1513
atRp1514
ssS'palevioletred1'
p1515
(dp1516
g63
g64
((lp1517
S'ENSG00000139970'
p1518
aS'ENSG00000184436'
p1519
aS'ENSG00000050130'
p1520
aS'ENSG00000181619'
p1521
aS'ENSG00000196704'
p1522
aS'ENSG00000100592'
p1523
aS'ENSG00000151838'
p1524
aS'ENSG00000126790'
p1525
aS'ENSG00000139436'
p1526
aS'ENSG00000163508'
p1527
aS'ENSG00000137414'
p1528
aS'ENSG00000066651'
p1529
aS'ENSG00000170915'
p1530
atRp1531
ssS'palevioletred2'
p1532
(dp1533
g4
(lp1534
(lp1535
S'ENSG00000127951'
p1536
aFinf
ag8
(g10
S'x\x1b\x0bY\xc8Bf?'
tRp1537
ag8
(g10
S'\x80\xf9r\x04\xc1\x99}?'
tRp1538
aa(lp1539
S'ENSG00000168546'
p1540
aFinf
ag8
(g10
S'\x1d\x85\xb9v`\xae]?'
tRp1541
ag8
(g10
S'\x80\xf9r\x04\xc1\x99}?'
tRp1542
aa(lp1543
S'ENSG00000260807'
p1544
aFinf
ag8
(g10
S'\x1d\x85\xb9v`\xae]?'
tRp1545
ag8
(g10
S'\x80\xf9r\x04\xc1\x99}?'
tRp1546
aa(lp1547
S'ENSG00000185634'
p1548
aFinf
ag8
(g10
S'\xc6\x1c~F\x89\x9f\x91?'
tRp1549
ag8
(g10
S'\xc0\x1c~F\x89\x9f\x91?'
tRp1550
aasg63
g64
((lp1551
S'ENSG00000197603'
p1552
aS'ENSG00000197857'
p1553
aS'ENSG00000136098'
p1554
aS'ENSG00000183808'
p1555
aS'ENSG00000138050'
p1556
aS'ENSG00000184988'
p1557
aS'ENSG00000162341'
p1558
aS'ENSG00000171970'
p1559
aS'ENSG00000125772'
p1560
aS'ENSG00000198551'
p1561
aS'ENSG00000181896'
p1562
aS'ENSG00000005513'
p1563
aS'ENSG00000166398'
p1564
aS'ENSG00000141569'
p1565
aS'ENSG00000140350'
p1566
aS'ENSG00000197054'
p1567
aS'ENSG00000135686'
p1568
aS'ENSG00000140391'
p1569
aS'ENSG00000065978'
p1570
atRp1571
ssS'palevioletred3'
p1572
(dp1573
g4
(lp1574
(lp1575
g686
ag8
(g10
S'\xb7m\xdb\xb6m{S@'
tRp1576
ag8
(g10
S'7\xfa\xb5$\xae\x92L?'
tRp1577
ag8
(g10
S'\x80:\x84\x19Y7\x95?'
tRp1578
aasg63
g64
((lp1579
S'ENSG00000074201'
p1580
aS'ENSG00000183036'
p1581
aS'ENSG00000162437'
p1582
aS'ENSG00000124191'
p1583
aS'ENSG00000196167'
p1584
aS'ENSG00000166341'
p1585
aS'ENSG00000172915'
p1586
aS'ENSG00000164466'
p1587
aS'ENSG00000171314'
p1588
aS'ENSG00000150471'
p1589
aS'ENSG00000132563'
p1590
aS'ENSG00000180263'
p1591
aS'ENSG00000143768'
p1592
aS'ENSG00000164944'
p1593
aS'ENSG00000196159'
p1594
aS'ENSG00000253293'
p1595
aS'ENSG00000172986'
p1596
aS'ENSG00000179841'
p1597
aS'ENSG00000075651'
p1598
aS'ENSG00000070193'
p1599
aS'ENSG00000105976'
p1600
aS'ENSG00000169218'
p1601
aS'ENSG00000005073'
p1602
aS'ENSG00000135333'
p1603
aS'ENSG00000151612'
p1604
aS'ENSG00000117155'
p1605
atRp1606
ssS'coral3'
p1607
(dp1608
g63
g64
((lp1609
S'ENSG00000141150'
p1610
aS'ENSG00000115641'
p1611
aS'ENSG00000198842'
p1612
aS'ENSG00000134265'
p1613
aS'ENSG00000066654'
p1614
aS'ENSG00000183549'
p1615
aS'ENSG00000122376'
p1616
aS'ENSG00000134709'
p1617
aS'ENSG00000131370'
p1618
aS'ENSG00000005189'
p1619
aS'ENSG00000102858'
p1620
aS'ENSG00000196678'
p1621
aS'ENSG00000184160'
p1622
aS'ENSG00000159899'
p1623
aS'ENSG00000166743'
p1624
aS'ENSG00000005187'
p1625
aS'ENSG00000134917'
p1626
atRp1627
ssS'coral2'
p1628
(dp1629
g4
(lp1630
(lp1631
S'ENSG00000236841'
p1632
ag8
(g10
S'UUUUU\xe5v@'
tRp1633
ag8
(g10
S"\x88Vk'\x0b\xa4}?"
tRp1634
ag8
(g10
S'\x00\x8cA\x8a\x96\x88\x8d?'
tRp1635
aasg63
g64
((lp1636
S'ENSG00000164932'
p1637
aS'ENSG00000196196'
p1638
aS'ENSG00000064225'
p1639
aS'ENSG00000183230'
p1640
aS'ENSG00000152078'
p1641
aS'ENSG00000096968'
p1642
aS'ENSG00000240682'
p1643
aS'ENSG00000170011'
p1644
aS'ENSG00000105821'
p1645
aS'ENSG00000147642'
p1646
aS'ENSG00000137073'
p1647
aS'ENSG00000160392'
p1648
aS'ENSG00000151789'
p1649
aS'ENSG00000122547'
p1650
aS'ENSG00000069188'
p1651
aS'ENSG00000184811'
p1652
aS'ENSG00000183579'
p1653
aS'ENSG00000170390'
p1654
aS'ENSG00000120158'
p1655
aS'ENSG00000164978'
p1656
aS'ENSG00000161896'
p1657
aS'ENSG00000112137'
p1658
aS'ENSG00000072840'
p1659
atRp1660
ssS'coral1'
p1661
(dp1662
g4
(lp1663
(lp1664
S'ENSG00000231389'
p1665
ag8
(g10
S'\x00\x00\x00\x00\x000\x81@'
tRp1666
ag8
(g10
S'\x06\x15d\xb1\x9d=v?'
tRp1667
ag8
(g10
S'\x00\xee\xeb\x81(.\x86?'
tRp1668
aa(lp1669
S'ENSG00000019582'
p1670
ag8
(g10
S'\x00\x00\x00\x00\x000\x81@'
tRp1671
ag8
(g10
S'\x06\x15d\xb1\x9d=v?'
tRp1672
ag8
(g10
S'\x00\xee\xeb\x81(.\x86?'
tRp1673
aasg63
g64
((lp1674
S'ENSG00000101343'
p1675
aS'ENSG00000223865'
p1676
aS'ENSG00000237541'
p1677
aS'ENSG00000026950'
p1678
aS'ENSG00000143158'
p1679
aS'ENSG00000231389'
p1680
aS'ENSG00000140598'
p1681
aS'ENSG00000148834'
p1682
aS'ENSG00000188343'
p1683
aS'ENSG00000010610'
p1684
aS'ENSG00000232629'
p1685
aS'ENSG00000158457'
p1686
aS'ENSG00000173418'
p1687
aS'ENSG00000073605'
p1688
aS'ENSG00000179344'
p1689
aS'ENSG00000148908'
p1690
aS'ENSG00000198502'
p1691
aS'ENSG00000063438'
p1692
aS'ENSG00000204257'
p1693
aS'ENSG00000204252'
p1694
aS'ENSG00000134504'
p1695
aS'ENSG00000196126'
p1696
aS'ENSG00000196735'
p1697
aS'ENSG00000186074'
p1698
atRp1699
ssS'mediumpurple'
p1700
(dp1701
g63
g64
((lp1702
S'ENSG00000100554'
p1703
aS'ENSG00000122390'
p1704
aS'ENSG00000100360'
p1705
aS'ENSG00000054116'
p1706
aS'ENSG00000099974'
p1707
aS'ENSG00000133433'
p1708
aS'ENSG00000160117'
p1709
aS'ENSG00000134825'
p1710
aS'ENSG00000099984'
p1711
atRp1712
ssS'indianred2'
p1713
(dp1714
g4
(lp1715
(lp1716
S'ENSG00000117724'
p1717
aFinf
ag8
(g10
S'\xbb\x1f\x0bY\xc8Bf?'
tRp1718
ag8
(g10
S"\x80xu\xf1'\x95\x90?"
tRp1719
aa(lp1720
S'ENSG00000171596'
p1721
aFinf
ag8
(g10
S'\xbb\x1f\x0bY\xc8Bf?'
tRp1722
ag8
(g10
S"\x80xu\xf1'\x95\x90?"
tRp1723
aa(lp1724
S'ENSG00000137804'
p1725
aFinf
ag8
(g10
S'\xbb\x1f\x0bY\xc8Bf?'
tRp1726
ag8
(g10
S"\x80xu\xf1'\x95\x90?"
tRp1727
aa(lp1728
S'ENSG00000131747'
p1729
ag8
(g10
S'ffffff[@'
tRp1730
ag8
(g10
S'}maN\xbc\x9e\x90?'
tRp1731
ag8
(g10
S' i:0\x14\x87\xa8?'
tRp1732
aa(lp1733
S'ENSG00000156970'
p1734
ag8
(g10
S'ffffff[@'
tRp1735
ag8
(g10
S'}maN\xbc\x9e\x90?'
tRp1736
ag8
(g10
S' i:0\x14\x87\xa8?'
tRp1737
aa(lp1738
S'ENSG00000169679'
p1739
ag8
(g10
S'ffffff[@'
tRp1740
ag8
(g10
S'}maN\xbc\x9e\x90?'
tRp1741
ag8
(g10
S' i:0\x14\x87\xa8?'
tRp1742
aasg63
g64
((lp1743
S'ENSG00000088298'
p1744
aS'ENSG00000101000'
p1745
aS'ENSG00000197345'
p1746
aS'ENSG00000196917'
p1747
aS'ENSG00000005059'
p1748
aS'ENSG00000109072'
p1749
aS'ENSG00000111665'
p1750
aS'ENSG00000111664'
p1751
aS'ENSG00000168488'
p1752
atRp1753
ssS'coral4'
p1754
(dp1755
g63
g64
((lp1756
S'ENSG00000197822'
p1757
aS'ENSG00000233024'
p1758
aS'ENSG00000205572'
p1759
aS'ENSG00000205571'
p1760
aS'ENSG00000076321'
p1761
aS'ENSG00000124380'
p1762
aS'ENSG00000158161'
p1763
aS'ENSG00000172062'
p1764
aS'ENSG00000196456'
p1765
aS'ENSG00000183474'
p1766
aS'ENSG00000145736'
p1767
atRp1768
ssS'lightblue3'
p1769
(dp1770
g63
g64
((lp1771
S'ENSG00000185340'
p1772
aS'ENSG00000172613'
p1773
aS'ENSG00000179331'
p1774
aS'ENSG00000206077'
p1775
aS'ENSG00000188818'
p1776
aS'ENSG00000162636'
p1777
aS'ENSG00000111554'
p1778
aS'ENSG00000171368'
p1779
aS'ENSG00000172671'
p1780
atRp1781
ssS'lightslateblue'
p1782
(dp1783
g4
(lp1784
(lp1785
S'ENSG00000143036'
p1786
aFinf
ag8
(g10
S'|\x7f\xb9v`\xaeM?'
tRp1787
ag8
(g10
S'\x00\x80\xb9v`\xaeM?'
tRp1788
aasg63
g64
((lp1789
S'ENSG00000144580'
p1790
aS'ENSG00000172197'
p1791
aS'ENSG00000104883'
p1792
aS'ENSG00000151893'
p1793
aS'ENSG00000198720'
p1794
aS'ENSG00000132313'
p1795
aS'ENSG00000197775'
p1796
aS'ENSG00000187630'
p1797
aS'ENSG00000100359'
p1798
aS'ENSG00000143067'
p1799
aS'ENSG00000182108'
p1800
aS'ENSG00000157326'
p1801
aS'ENSG00000128039'
p1802
aS'ENSG00000121900'
p1803
aS'ENSG00000132305'
p1804
aS'ENSG00000136560'
p1805
atRp1806
ssS'lightblue4'
p1807
(dp1808
g4
(lp1809
(lp1810
S'ENSG00000183023'
p1811
aFinf
ag8
(g10
S'\xb1\x1f\x0bY\xc8Bv?'
tRp1812
ag8
(g10
S'\x80\x1f\x0bY\xc8Bv?'
tRp1813
aasg63
g64
((lp1814
S'ENSG00000141391'
p1815
aS'ENSG00000167754'
p1816
aS'ENSG00000257545'
p1817
aS'ENSG00000196182'
p1818
aS'ENSG00000102466'
p1819
aS'ENSG00000136052'
p1820
aS'ENSG00000186470'
p1821
aS'ENSG00000198542'
p1822
aS'ENSG00000102452'
p1823
aS'ENSG00000166501'
p1824
aS'ENSG00000140945'
p1825
aS'ENSG00000067141'
p1826
aS'ENSG00000119661'
p1827
aS'ENSG00000102886'
p1828
aS'ENSG00000108587'
p1829
atRp1830
ssS'lightsteelblue1'
p1831
(dp1832
g63
g64
((lp1833
S'ENSG00000038219'
p1834
aS'ENSG00000174373'
p1835
aS'ENSG00000100815'
p1836
aS'ENSG00000129422'
p1837
aS'ENSG00000144674'
p1838
aS'ENSG00000129003'
p1839
aS'ENSG00000112159'
p1840
aS'ENSG00000132549'
p1841
aS'ENSG00000154305'
p1842
aS'ENSG00000120256'
p1843
aS'ENSG00000133069'
p1844
aS'ENSG00000171530'
p1845
aS'ENSG00000267848'
p1846
aS'ENSG00000160294'
p1847
aS'ENSG00000127481'
p1848
aS'ENSG00000103657'
p1849
aS'ENSG00000173064'
p1850
aS'ENSG00000160299'
p1851
aS'ENSG00000128739'
p1852
aS'ENSG00000138688'
p1853
aS'ENSG00000151914'
p1854
aS'ENSG00000029364'
p1855
aS'ENSG00000066933'
p1856
aS'ENSG00000198198'
p1857
aS'ENSG00000133059'
p1858
aS'ENSG00000106636'
p1859
aS'ENSG00000127914'
p1860
aS'ENSG00000072121'
p1861
aS'ENSG00000123636'
p1862
aS'ENSG00000115446'
p1863
atRp1864
ssS'skyblue4'
p1865
(dp1866
g63
g64
((lp1867
S'ENSG00000168116'
p1868
aS'ENSG00000172409'
p1869
aS'ENSG00000214338'
p1870
aS'ENSG00000065609'
p1871
aS'ENSG00000151320'
p1872
aS'ENSG00000189367'
p1873
aS'ENSG00000154277'
p1874
aS'ENSG00000105866'
p1875
aS'ENSG00000104381'
p1876
aS'ENSG00000111666'
p1877
aS'ENSG00000094975'
p1878
aS'ENSG00000174151'
p1879
aS'ENSG00000137845'
p1880
aS'ENSG00000165861'
p1881
aS'ENSG00000054793'
p1882
aS'ENSG00000068745'
p1883
aS'ENSG00000151233'
p1884
atRp1885
ssS'skyblue1'
p1886
(dp1887
g63
g64
((lp1888
S'ENSG00000189171'
p1889
aS'ENSG00000170271'
p1890
aS'ENSG00000082516'
p1891
aS'ENSG00000144677'
p1892
aS'ENSG00000155508'
p1893
aS'ENSG00000118246'
p1894
aS'ENSG00000151849'
p1895
aS'ENSG00000179604'
p1896
aS'ENSG00000097046'
p1897
aS'ENSG00000162616'
p1898
aS'ENSG00000132357'
p1899
aS'ENSG00000175224'
p1900
aS'ENSG00000173145'
p1901
aS'ENSG00000037474'
p1902
aS'ENSG00000163565'
p1903
aS'ENSG00000114988'
p1904
aS'ENSG00000148120'
p1905
aS'ENSG00000158411'
p1906
aS'ENSG00000120549'
p1907
aS'ENSG00000162236'
p1908
aS'ENSG00000170291'
p1909
aS'ENSG00000018699'
p1910
atRp1911
ssS'darkred'
p1912
(dp1913
g63
g64
((lp1914
S'ENSG00000019549'
p1915
aS'ENSG00000185630'
p1916
aS'ENSG00000124171'
p1917
aS'ENSG00000205212'
p1918
aS'ENSG00000176641'
p1919
aS'ENSG00000067221'
p1920
aS'ENSG00000136828'
p1921
aS'ENSG00000129282'
p1922
aS'ENSG00000136802'
p1923
aS'ENSG00000165507'
p1924
aS'ENSG00000185803'
p1925
aS'ENSG00000168209'
p1926
aS'ENSG00000174718'
p1927
aS'ENSG00000152749'
p1928
aS'ENSG00000106665'
p1929
aS'ENSG00000163820'
p1930
aS'ENSG00000072832'
p1931
aS'ENSG00000106605'
p1932
aS'ENSG00000167642'
p1933
aS'ENSG00000143641'
p1934
aS'ENSG00000124145'
p1935
aS'ENSG00000119138'
p1936
aS'ENSG00000072364'
p1937
aS'ENSG00000198324'
p1938
aS'ENSG00000153714'
p1939
aS'ENSG00000004799'
p1940
aS'ENSG00000172201'
p1941
aS'ENSG00000166925'
p1942
aS'ENSG00000129038'
p1943
aS'ENSG00000162836'
p1944
aS'ENSG00000107372'
p1945
aS'ENSG00000117174'
p1946
aS'ENSG00000163659'
p1947
aS'ENSG00000129277'
p1948
aS'ENSG00000158483'
p1949
aS'ENSG00000135093'
p1950
aS'ENSG00000143498'
p1951
atRp1952
ssS'skyblue2'
p1953
(dp1954
g63
g64
((lp1955
S'ENSG00000256223'
p1956
aS'ENSG00000138670'
p1957
aS'ENSG00000160695'
p1958
aS'ENSG00000204186'
p1959
aS'ENSG00000213588'
p1960
aS'ENSG00000069849'
p1961
aS'ENSG00000178033'
p1962
aS'ENSG00000185432'
p1963
aS'ENSG00000180008'
p1964
aS'ENSG00000213523'
p1965
aS'ENSG00000213995'
p1966
aS'ENSG00000177432'
p1967
aS'ENSG00000141580'
p1968
aS'ENSG00000066379'
p1969
aS'ENSG00000124466'
p1970
aS'ENSG00000116752'
p1971
aS'ENSG00000132906'
p1972
aS'ENSG00000100422'
p1973
aS'ENSG00000147894'
p1974
aS'ENSG00000114125'
p1975
aS'ENSG00000146373'
p1976
aS'ENSG00000169359'
p1977
atRp1978
ssS'lightskyblue4'
p1979
(dp1980
g63
g64
((lp1981
S'ENSG00000141433'
p1982
aS'ENSG00000172236'
p1983
aS'ENSG00000165646'
p1984
aS'ENSG00000041353'
p1985
aS'ENSG00000110713'
p1986
aS'ENSG00000095917'
p1987
aS'ENSG00000165650'
p1988
aS'ENSG00000156232'
p1989
aS'ENSG00000140287'
p1990
atRp1991
ssS'lavenderblush3'
p1992
(dp1993
g4
(lp1994
(lp1995
S'ENSG00000148773'
p1996
aFinf
ag8
(g10
S'+\xc5x\xc0\x18\x13\xd0='
tRp1997
ag8
(g10
S'\x00\x00\x00\x00{\x15">'
tRp1998
aa(lp1999
g1729
ag8
(g10
S'%I\x92$IZ\x88@'
tRp2000
ag8
(g10
S'I\x88g\xab\xe1\xfb\xf7='
tRp2001
ag8
(g10
S'\x00\x00\x00\xa0~;J>'
tRp2002
aa(lp2003
g1734
ag8
(g10
S'%I\x92$IZ\x88@'
tRp2004
ag8
(g10
S'I\x88g\xab\xe1\xfb\xf7='
tRp2005
ag8
(g10
S'\x00\x00\x00\xa0~;J>'
tRp2006
aa(lp2007
g1739
ag8
(g10
S'%I\x92$IZ\x88@'
tRp2008
ag8
(g10
S'I\x88g\xab\xe1\xfb\xf7='
tRp2009
ag8
(g10
S'\x00\x00\x00\xa0~;J>'
tRp2010
aasg63
g64
((lp2011
S'ENSG00000136824'
p2012
aS'ENSG00000164611'
p2013
aS'ENSG00000151725'
p2014
aS'ENSG00000013810'
p2015
aS'ENSG00000164109'
p2016
aS'ENSG00000007968'
p2017
aS'ENSG00000125319'
p2018
aS'ENSG00000076003'
p2019
aS'ENSG00000104738'
p2020
aS'ENSG00000156970'
p2021
aS'ENSG00000197299'
p2022
aS'ENSG00000129195'
p2023
aS'ENSG00000140104'
p2024
aS'ENSG00000122952'
p2025
aS'ENSG00000165244'
p2026
aS'ENSG00000065320'
p2027
aS'ENSG00000134690'
p2028
aS'ENSG00000179750'
p2029
aS'ENSG00000123975'
p2030
aS'ENSG00000113811'
p2031
aS'ENSG00000161888'
p2032
aS'ENSG00000143320'
p2033
aS'ENSG00000140525'
p2034
aS'ENSG00000137804'
p2035
aS'ENSG00000165480'
p2036
aS'ENSG00000237649'
p2037
atRp2038
ssS'lavenderblush2'
p2039
(dp2040
g4
(lp2041
(lp2042
S'ENSG00000066336'
p2043
ag8
(g10
S'\xf0 \xbe\x83\xf8\x0e4@'
tRp2044
ag8
(g10
S'\xeauQ\xf7\x95\xaf\xee>'
tRp2045
ag8
(g10
S'\x00``\x05X\x0cF?'
tRp2046
aa(lp2047
S'ENSG00000123329'
p2048
ag8
(g10
S'\x1e\x1e\x1e\x1e\x1e\x1e3@'
tRp2049
ag8
(g10
S'?\x90s\x9e\x9c?\xf4>'
tRp2050
ag8
(g10
S'\x00,r\xb0[vL?'
tRp2051
aa(lp2052
S'ENSG00000175489'
p2053
ag8
(g10
S'Y\x1f\x1a\xebC\xa3P@'
tRp2054
ag8
(g10
S'\xf3\x00\x1f\x1e|R\x10?'
tRp2055
ag8
(g10
S'\x00\xd1oh\xbbif?'
tRp2056
aa(lp2057
S'ENSG00000136167'
p2058
ag8
(g10
S'\xd7u]\xd7u]0@'
tRp2059
ag8
(g10
S'\xa7\x85H$\x13\xe9#?'
tRp2060
ag8
(g10
S'\x00@Z\xfec\xabz?'
tRp2061
aa(lp2062
S'ENSG00000066294'
p2063
ag8
(g10
S'\xc9\xc8\xc8\xc8\xc8\xc84@'
tRp2064
ag8
(g10
S'%\x03\x9f\xceng,?'
tRp2065
ag8
(g10
S'\xc0?dr\xbd\x8e\x82?'
tRp2066
aa(lp2067
S'ENSG00000101336'
p2068
ag8
(g10
S'B\x1d\xd4A\x1d\xd4>@'
tRp2069
ag8
(g10
S'\xe3mE\xb1\xd0\xb3:?'
tRp2070
ag8
(g10
S'@\xdcAY\xb2\xf7\x90?'
tRp2071
aa(lp2072
S'ENSG00000166927'
p2073
ag8
(g10
S'oz\xd3\x9b\xde\xf43@'
tRp2074
ag8
(g10
S'\xf8\xc28\xfeiwT?'
tRp2075
ag8
(g10
S'\xd0l\x02\xe4:\xf8\xa8?'
tRp2076
aa(lp2077
S'ENSG00000110077'
p2078
ag8
(g10
S'oz\xd3\x9b\xde\xf43@'
tRp2079
ag8
(g10
S'\xf8\xc28\xfeiwT?'
tRp2080
ag8
(g10
S'\xd0l\x02\xe4:\xf8\xa8?'
tRp2081
aa(lp2082
S'ENSG00000121807'
p2083
ag8
(g10
S'oz\xd3\x9b\xde\xf43@'
tRp2084
ag8
(g10
S'\xf8\xc28\xfeiwT?'
tRp2085
ag8
(g10
S'\xd0l\x02\xe4:\xf8\xa8?'
tRp2086
aasg63
g64
((lp2087
S'ENSG00000170571'
p2088
aS'ENSG00000120586'
p2089
aS'ENSG00000166927'
p2090
aS'ENSG00000147443'
p2091
aS'ENSG00000186818'
p2092
aS'ENSG00000166928'
p2093
aS'ENSG00000169313'
p2094
aS'ENSG00000110079'
p2095
aS'ENSG00000187474'
p2096
aS'ENSG00000161640'
p2097
aS'ENSG00000183748'
p2098
aS'ENSG00000169413'
p2099
aS'ENSG00000177675'
p2100
aS'ENSG00000105383'
p2101
aS'ENSG00000115956'
p2102
aS'ENSG00000174004'
p2103
aS'ENSG00000167850'
p2104
aS'ENSG00000124491'
p2105
atRp2106
ssS'skyblue3'
p2107
(dp2108
g63
g64
((lp2109
S'ENSG00000175315'
p2110
aS'ENSG00000166881'
p2111
aS'ENSG00000196418'
p2112
aS'ENSG00000103018'
p2113
aS'ENSG00000167552'
p2114
aS'ENSG00000104356'
p2115
aS'ENSG00000104964'
p2116
aS'ENSG00000133812'
p2117
aS'ENSG00000133943'
p2118
aS'ENSG00000088854'
p2119
aS'ENSG00000184787'
p2120
aS'ENSG00000186522'
p2121
aS'ENSG00000214063'
p2122
aS'ENSG00000004766'
p2123
aS'ENSG00000178971'
p2124
aS'ENSG00000123416'
p2125
aS'ENSG00000161265'
p2126
aS'ENSG00000188636'
p2127
aS'ENSG00000162734'
p2128
aS'ENSG00000188229'
p2129
aS'ENSG00000186020'
p2130
aS'ENSG00000111731'
p2131
aS'ENSG00000196152'
p2132
aS'ENSG00000012048'
p2133
aS'ENSG00000159592'
p2134
aS'ENSG00000182718'
p2135
aS'ENSG00000104756'
p2136
aS'ENSG00000100027'
p2137
aS'ENSG00000132510'
p2138
aS'ENSG00000147416'
p2139
aS'ENSG00000267796'
p2140
aS'ENSG00000103249'
p2141
atRp2142
ssS'blue3'
p2143
(dp2144
g4
(lp2145
(lp2146
S'ENSG00000145192'
p2147
aFinf
ag8
(g10
S'\xbb\x1f\x0bY\xc8Bf?'
tRp2148
ag8
(g10
S'\xe0`e4\xe0\x0c\x96?'
tRp2149
aa(lp2150
S'ENSG00000157131'
p2151
aFinf
ag8
(g10
S'\xbb\x1f\x0bY\xc8Bf?'
tRp2152
ag8
(g10
S'\xe0`e4\xe0\x0c\x96?'
tRp2153
aa(lp2154
S'ENSG00000101323'
p2155
aFinf
ag8
(g10
S'\xbb\x1f\x0bY\xc8Bf?'
tRp2156
ag8
(g10
S'\xe0`e4\xe0\x0c\x96?'
tRp2157
aa(lp2158
S'ENSG00000137857'
p2159
ag8
(g10
S'\x00\x00\x00\x00\x000\x81@'
tRp2160
ag8
(g10
S'\x06\x15d\xb1\x9d=v?'
tRp2161
ag8
(g10
S'@\xaa\x17U&\x80\x9b?'
tRp2162
aa(lp2163
S'ENSG00000110245'
p2164
ag8
(g10
S'\x00\x00\x00\x00\x000\x81@'
tRp2165
ag8
(g10
S'\x06\x15d\xb1\x9d=v?'
tRp2166
ag8
(g10
S'@\xaa\x17U&\x80\x9b?'
tRp2167
aa(lp2168
S'ENSG00000163631'
p2169
ag8
(g10
S'\x00\x00\x00\x00\x000\x81@'
tRp2170
ag8
(g10
S'\x06\x15d\xb1\x9d=v?'
tRp2171
ag8
(g10
S'@\xaa\x17U&\x80\x9b?'
tRp2172
aa(lp2173
S'ENSG00000170153'
p2174
ag8
(g10
S'\x00\x00\x00\x00\x000\x81@'
tRp2175
ag8
(g10
S'\x06\x15d\xb1\x9d=v?'
tRp2176
ag8
(g10
S'@\xaa\x17U&\x80\x9b?'
tRp2177
aa(lp2178
S'ENSG00000091583'
p2179
ag8
(g10
S'\x00\x00\x00\x00\x000\x81@'
tRp2180
ag8
(g10
S'\x06\x15d\xb1\x9d=v?'
tRp2181
ag8
(g10
S'@\xaa\x17U&\x80\x9b?'
tRp2182
aasg63
g64
((lp2183
S'ENSG00000015413'
p2184
aS'ENSG00000136872'
p2185
aS'ENSG00000261701'
p2186
aS'ENSG00000142515'
p2187
aS'ENSG00000095209'
p2188
aS'ENSG00000140830'
p2189
aS'ENSG00000257017'
p2190
aS'ENSG00000172482'
p2191
aS'ENSG00000117601'
p2192
atRp2193
ssS'blue2'
p2194
(dp2195
g4
(lp2196
(lp2197
S'ENSG00000130300'
p2198
ag8
(g10
S'\x00\x00\x00\x00\x00\x1cQ@'
tRp2199
ag8
(g10
S'\xa9\x0c|7K\x05\x97?'
tRp2200
ag8
(g10
S'\xa0\x0c|7K\x05\x97?'
tRp2201
aasg63
g64
((lp2202
S'ENSG00000091592'
p2203
aS'ENSG00000165185'
p2204
aS'ENSG00000145283'
p2205
aS'ENSG00000078295'
p2206
aS'ENSG00000164647'
p2207
aS'ENSG00000105792'
p2208
aS'ENSG00000105793'
p2209
aS'ENSG00000116785'
p2210
aS'ENSG00000138036'
p2211
aS'ENSG00000102760'
p2212
aS'ENSG00000162687'
p2213
aS'ENSG00000118997'
p2214
aS'ENSG00000000971'
p2215
aS'ENSG00000116198'
p2216
aS'ENSG00000157214'
p2217
aS'ENSG00000243244'
p2218
aS'ENSG00000180881'
p2219
aS'ENSG00000181656'
p2220
aS'ENSG00000035664'
p2221
atRp2222
ssS'blue4'
p2223
(dp2224
g63
g64
((lp2225
S'ENSG00000011295'
p2226
aS'ENSG00000099377'
p2227
aS'ENSG00000001461'
p2228
aS'ENSG00000001460'
p2229
aS'ENSG00000173947'
p2230
aS'ENSG00000099365'
p2231
aS'ENSG00000167646'
p2232
aS'ENSG00000131238'
p2233
aS'ENSG00000130812'
p2234
aS'ENSG00000174292'
p2235
aS'ENSG00000137501'
p2236
aS'ENSG00000117602'
p2237
aS'ENSG00000143512'
p2238
aS'ENSG00000141837'
p2239
atRp2240
ssS'lavenderblush1'
p2241
(dp2242
g63
g64
((lp2243
S'ENSG00000120324'
p2244
aS'ENSG00000165698'
p2245
aS'ENSG00000196963'
p2246
aS'ENSG00000138175'
p2247
aS'ENSG00000105849'
p2248
aS'ENSG00000253731'
p2249
aS'ENSG00000183495'
p2250
aS'ENSG00000255408'
p2251
aS'ENSG00000179299'
p2252
aS'ENSG00000165695'
p2253
aS'ENSG00000103021'
p2254
aS'ENSG00000113248'
p2255
atRp2256
ssS'plum4'
p2257
(dp2258
g63
g64
((lp2259
S'ENSG00000231672'
p2260
aS'ENSG00000133962'
p2261
aS'ENSG00000181396'
p2262
aS'ENSG00000269430'
p2263
aS'ENSG00000026103'
p2264
aS'ENSG00000119720'
p2265
aS'ENSG00000132972'
p2266
aS'ENSG00000141425'
p2267
aS'ENSG00000160226'
p2268
aS'ENSG00000165929'
p2269
aS'ENSG00000173960'
p2270
aS'ENSG00000187764'
p2271
aS'ENSG00000160233'
p2272
aS'ENSG00000268657'
p2273
atRp2274
ssS'floralwhite'
p2275
(dp2276
g63
g64
((lp2277
S'ENSG00000186111'
p2278
aS'ENSG00000165832'
p2279
aS'ENSG00000118579'
p2280
aS'ENSG00000087448'
p2281
aS'ENSG00000203791'
p2282
aS'ENSG00000072401'
p2283
aS'ENSG00000133597'
p2284
aS'ENSG00000129515'
p2285
aS'ENSG00000172977'
p2286
aS'ENSG00000078804'
p2287
aS'ENSG00000170876'
p2288
aS'ENSG00000112276'
p2289
aS'ENSG00000188026'
p2290
aS'ENSG00000116871'
p2291
aS'ENSG00000133265'
p2292
aS'ENSG00000130311'
p2293
aS'ENSG00000172987'
p2294
aS'ENSG00000160685'
p2295
aS'ENSG00000119946'
p2296
aS'ENSG00000162076'
p2297
aS'ENSG00000066427'
p2298
aS'ENSG00000198898'
p2299
aS'ENSG00000140416'
p2300
aS'ENSG00000132570'
p2301
aS'ENSG00000151247'
p2302
aS'ENSG00000149596'
p2303
aS'ENSG00000154174'
p2304
aS'ENSG00000213160'
p2305
atRp2306
ssS'coral'
p2307
(dp2308
g4
(lp2309
(lp2310
S'ENSG00000184557'
p2311
ag8
(g10
S'_\xf1\x15_\xf1UW@'
tRp2312
ag8
(g10
S'\x98\xa8\xccv\xed\xc2\xfe>'
tRp2313
ag8
(g10
S'\x00\xd8\xdf\x94\xbb~X?'
tRp2314
aa(lp2315
S'ENSG00000069399'
p2316
ag8
(g10
S'\x17]t\xd1E\x97M@'
tRp2317
ag8
(g10
S'\xb3\xbf{\x88\x88\x02\x17?'
tRp2318
ag8
(g10
S'\x00\x16\xd1\xb1\x18\xf0q?'
tRp2319
aa(lp2320
S'ENSG00000090339'
p2321
ag8
(g10
S'\x9a\x99\x99\x99\x99\x19K@'
tRp2322
ag8
(g10
S'\x1f\xec\xce8\xf3\xa9\x1c?'
tRp2323
ag8
(g10
S'\x80\xf8\xa8^f\xe3u?'
tRp2324
aa(lp2325
S'ENSG00000136244'
p2326
ag8
(g10
S'\x00\x00\x00\x00\x00\xc0V@'
tRp2327
ag8
(g10
S"'\x88\x0f\x02\x07GF?"
tRp2328
ag8
(g10
S'P\xf5\x012\xa4q\xa0?'
tRp2329
aa(lp2330
S'ENSG00000114529'
p2331
ag8
(g10
S'\x17l\xc1\x16l\xc17@'
tRp2332
ag8
(g10
S']\xc0\x99\xb7\x86\\N?'
tRp2333
ag8
(g10
S'`\xe0\x99=\xfb\xd3\xa5?'
tRp2334
aa(lp2335
S'ENSG00000185015'
p2336
ag8
(g10
S'\x17l\xc1\x16l\xc17@'
tRp2337
ag8
(g10
S']\xc0\x99\xb7\x86\\N?'
tRp2338
ag8
(g10
S'`\xe0\x99=\xfb\xd3\xa5?'
tRp2339
aasg63
g64
((lp2340
S'ENSG00000168216'
p2341
aS'ENSG00000065559'
p2342
aS'ENSG00000123610'
p2343
aS'ENSG00000175426'
p2344
aS'ENSG00000050327'
p2345
aS'ENSG00000144867'
p2346
aS'ENSG00000117594'
p2347
aS'ENSG00000101134'
p2348
aS'ENSG00000060982'
p2349
aS'ENSG00000131979'
p2350
aS'ENSG00000160785'
p2351
aS'ENSG00000105509'
p2352
aS'ENSG00000162631'
p2353
aS'ENSG00000086062'
p2354
aS'ENSG00000104415'
p2355
aS'ENSG00000093000'
p2356
aS'ENSG00000134809'
p2357
aS'ENSG00000132383'
p2358
atRp2359
ssS'firebrick3'
p2360
(dp2361
g4
(lp2362
(lp2363
S'ENSG00000215218'
p2364
aFinf
ag8
(g10
S'\xdb\x8a\xb9v`\xaem?'
tRp2365
ag8
(g10
S' i\xd4R\xbf\xb0\x99?'
tRp2366
aa(lp2367
S'ENSG00000178568'
p2368
aFinf
ag8
(g10
S'\xdb\x8a\xb9v`\xaem?'
tRp2369
ag8
(g10
S' i\xd4R\xbf\xb0\x99?'
tRp2370
aa(lp2371
S'ENSG00000148053'
p2372
aFinf
ag8
(g10
S'\xb1\x1f\x0bY\xc8Bv?'
tRp2373
ag8
(g10
S'\xa0\xd7k\x04x\x86\x9b?'
tRp2374
aa(lp2375
S'ENSG00000169282'
p2376
aFinf
ag8
(g10
S'nQ\xc8B\x16\xb2\x80?'
tRp2377
ag8
(g10
S'\x80\x18\x07\x14\x1b~\xa0?'
tRp2378
aasg63
g64
((lp2379
S'ENSG00000132702'
p2380
aS'ENSG00000144451'
p2381
aS'ENSG00000171467'
p2382
aS'ENSG00000164253'
p2383
aS'ENSG00000117139'
p2384
aS'ENSG00000176978'
p2385
aS'ENSG00000116017'
p2386
aS'ENSG00000197355'
p2387
aS'ENSG00000148803'
p2388
aS'ENSG00000155846'
p2389
aS'ENSG00000089094'
p2390
aS'ENSG00000107281'
p2391
aS'ENSG00000111863'
p2392
aS'ENSG00000198933'
p2393
aS'ENSG00000066027'
p2394
atRp2395
ssS'lightcyan'
p2396
(dp2397
g63
g64
((lp2398
S'ENSG00000072182'
p2399
aS'ENSG00000039560'
p2400
aS'ENSG00000122375'
p2401
aS'ENSG00000165895'
p2402
aS'ENSG00000140396'
p2403
aS'ENSG00000108469'
p2404
aS'ENSG00000118514'
p2405
aS'ENSG00000082293'
p2406
aS'ENSG00000180287'
p2407
aS'ENSG00000110328'
p2408
aS'ENSG00000158987'
p2409
aS'ENSG00000153317'
p2410
aS'ENSG00000111110'
p2411
aS'ENSG00000100234'
p2412
aS'ENSG00000163393'
p2413
aS'ENSG00000069020'
p2414
aS'ENSG00000112419'
p2415
aS'ENSG00000154678'
p2416
aS'ENSG00000167525'
p2417
aS'ENSG00000204305'
p2418
aS'ENSG00000165495'
p2419
aS'ENSG00000065833'
p2420
aS'ENSG00000218336'
p2421
aS'ENSG00000173517'
p2422
aS'ENSG00000196526'
p2423
aS'ENSG00000151388'
p2424
aS'ENSG00000113361'
p2425
aS'ENSG00000143924'
p2426
aS'ENSG00000118407'
p2427
aS'ENSG00000204403'
p2428
aS'ENSG00000099250'
p2429
aS'ENSG00000176095'
p2430
aS'ENSG00000197555'
p2431
aS'ENSG00000101282'
p2432
aS'ENSG00000184384'
p2433
aS'ENSG00000220201'
p2434
aS'ENSG00000147655'
p2435
aS'ENSG00000144115'
p2436
aS'ENSG00000170647'
p2437
atRp2438
ssS'sienna3'
p2439
(dp2440
g4
(lp2441
(lp2442
S'ENSG00000155657'
p2443
ag8
(g10
S'r\x1c\xc7q\x1c\x07^@'
tRp2444
ag8
(g10
S'\xf4\xdal\xc7\xba\xa0p>'
tRp2445
ag8
(g10
S'\x00\x00\xa2(\xc7/\xe2>'
tRp2446
aa(lp2447
S'ENSG00000104879'
p2448
aFinf
ag8
(g10
S'\x13\x86\xf8\x02\x0ea\xd5>'
tRp2449
ag8
(g10
S'\x00\xb4\x9f7N5G?'
tRp2450
aa(lp2451
S'ENSG00000163092'
p2452
aFinf
ag8
(g10
S'\x13\x86\xf8\x02\x0ea\xd5>'
tRp2453
ag8
(g10
S'\x00\xb4\x9f7N5G?'
tRp2454
aa(lp2455
S'ENSG00000105048'
p2456
aFinf
ag8
(g10
S'\xbb\x9c\xd7J\x82s4?'
tRp2457
ag8
(g10
S'\x80\xc5\xf9\x99_n\xa5?'
tRp2458
aa(lp2459
S'ENSG00000172399'
p2460
aFinf
ag8
(g10
S'\xbb\x9c\xd7J\x82s4?'
tRp2461
ag8
(g10
S'\x80\xc5\xf9\x99_n\xa5?'
tRp2462
aa(lp2463
S'ENSG00000183091'
p2464
aFinf
ag8
(g10
S'\xbb\x9c\xd7J\x82s4?'
tRp2465
ag8
(g10
S'\x80\xc5\xf9\x99_n\xa5?'
tRp2466
aasg63
g64
((lp2467
S'ENSG00000203867'
p2468
aS'ENSG00000214872'
p2469
aS'ENSG00000167476'
p2470
aS'ENSG00000163380'
p2471
aS'ENSG00000138347'
p2472
aS'ENSG00000138100'
p2473
aS'ENSG00000136717'
p2474
aS'ENSG00000154415'
p2475
aS'ENSG00000183091'
p2476
aS'ENSG00000101210'
p2477
aS'ENSG00000196091'
p2478
aS'ENSG00000267976'
p2479
aS'ENSG00000177238'
p2480
aS'ENSG00000165799'
p2481
aS'ENSG00000132429'
p2482
aS'ENSG00000140986'
p2483
aS'ENSG00000081248'
p2484
aS'ENSG00000143318'
p2485
aS'ENSG00000159516'
p2486
aS'ENSG00000133454'
p2487
aS'ENSG00000128694'
p2488
aS'ENSG00000010282'
p2489
aS'ENSG00000155657'
p2490
aS'ENSG00000108515'
p2491
aS'ENSG00000131969'
p2492
aS'ENSG00000143365'
p2493
aS'ENSG00000158286'
p2494
aS'ENSG00000146926'
p2495
aS'ENSG00000101306'
p2496
aS'ENSG00000170290'
p2497
aS'ENSG00000143632'
p2498
aS'ENSG00000186765'
p2499
atRp2500
ssS'firebrick4'
p2501
(dp2502
g4
(lp2503
(lp2504
S'ENSG00000148357'
p2505
ag8
(g10
S'\x9a\x99\x99\x99\x99\xf9:@'
tRp2506
ag8
(g10
S'\x82Q\xb1E\xea\x8fA?'
tRp2507
ag8
(g10
S'\x80(1 i\x15\x9b?'
tRp2508
aasg63
g64
((lp2509
S'ENSG00000173406'
p2510
aS'ENSG00000134668'
p2511
aS'ENSG00000176490'
p2512
aS'ENSG00000249992'
p2513
aS'ENSG00000182218'
p2514
aS'ENSG00000166923'
p2515
aS'ENSG00000184349'
p2516
aS'ENSG00000197147'
p2517
aS'ENSG00000153993'
p2518
aS'ENSG00000171596'
p2519
aS'ENSG00000055118'
p2520
aS'ENSG00000176595'
p2521
aS'ENSG00000169071'
p2522
aS'ENSG00000144730'
p2523
aS'ENSG00000203760'
p2524
aS'ENSG00000138944'
p2525
aS'ENSG00000132394'
p2526
aS'ENSG00000198920'
p2527
aS'ENSG00000170873'
p2528
aS'ENSG00000165061'
p2529
atRp2530
ssS'honeydew1'
p2531
(dp2532
g63
g64
((lp2533
S'ENSG00000117500'
p2534
aS'ENSG00000171503'
p2535
aS'ENSG00000122483'
p2536
aS'ENSG00000178537'
p2537
aS'ENSG00000138029'
p2538
aS'ENSG00000123360'
p2539
aS'ENSG00000182902'
p2540
aS'ENSG00000141401'
p2541
aS'ENSG00000121691'
p2542
aS'ENSG00000171747'
p2543
aS'ENSG00000140374'
p2544
aS'ENSG00000072778'
p2545
aS'ENSG00000172059'
p2546
aS'ENSG00000175348'
p2547
aS'ENSG00000116209'
p2548
aS'ENSG00000147853'
p2549
aS'ENSG00000122971'
p2550
aS'ENSG00000134317'
p2551
aS'ENSG00000186806'
p2552
aS'ENSG00000110318'
p2553
aS'ENSG00000167772'
p2554
aS'ENSG00000106615'
p2555
aS'ENSG00000140534'
p2556
aS'ENSG00000166821'
p2557
aS'ENSG00000119471'
p2558
atRp2559
ssS'lightsteelblue'
p2560
(dp2561
g4
(lp2562
(lp2563
S'ENSG00000142347'
p2564
aFinf
ag8
(g10
S'\x16\xff\xd4~\xa1uQ>'
tRp2565
ag8
(g10
S'\x00\x00\x80\xb3,\x02\xae>'
tRp2566
aa(lp2567
S'ENSG00000119535'
p2568
aFinf
ag8
(g10
S'\x16\xff\xd4~\xa1uQ>'
tRp2569
ag8
(g10
S'\x00\x00\x80\xb3,\x02\xae>'
tRp2570
aa(lp2571
S'ENSG00000180353'
p2572
ag8
(g10
S'\x9a\x99\x99\x99\x999{@'
tRp2573
ag8
(g10
S'E\x1e\xc0\xd1g\xaau>'
tRp2574
ag8
(g10
S'\x00\x00<\x82\x1b\xf1\xd1>'
tRp2575
aa(lp2576
S'ENSG00000012779'
p2577
ag8
(g10
S'333333k@'
tRp2578
ag8
(g10
S'\xa6*W\x91\x89!\x90>'
tRp2579
ag8
(g10
S'\x00\x00\xa4\x04u6\xea>'
tRp2580
aa(lp2581
S'ENSG00000141506'
p2582
ag8
(g10
S'333333k@'
tRp2583
ag8
(g10
S'\xa6*W\x91\x89!\x90>'
tRp2584
ag8
(g10
S'\x00\x00\xa4\x04u6\xea>'
tRp2585
aa(lp2586
S'ENSG00000090376'
p2587
ag8
(g10
S'\xde\xdd\xdd\xdd\xdd\x1db@'
tRp2588
ag8
(g10
S'e\x8c\x835\xb9\xae\xa2>'
tRp2589
ag8
(g10
S'\x00\x80\xe1J\xe70\xfd>'
tRp2590
aa(lp2591
S'ENSG00000115590'
p2592
ag8
(g10
S'\xde\xdd\xdd\xdd\xdd\x1db@'
tRp2593
ag8
(g10
S'e\x8c\x835\xb9\xae\xa2>'
tRp2594
ag8
(g10
S'\x00\x80\xe1J\xe70\xfd>'
tRp2595
aa(lp2596
S'ENSG00000180448'
p2597
ag8
(g10
S'33333\xb3U@'
tRp2598
ag8
(g10
S'\xd3\xca>r\xf8\x91\xc0>'
tRp2599
ag8
(g10
S'\x00\xc0\xac\x0e\xa9\xda\x18?'
tRp2600
aa(lp2601
S'ENSG00000081237'
p2602
ag8
(g10
S'\x9e\x12\xe4)A\x9eC@'
tRp2603
ag8
(g10
S'\x85\xc3\xfe\x0c_y\xf5>'
tRp2604
ag8
(g10
S'\x000\xf3Jv\x86O?'
tRp2605
aa(lp2606
g2043
ag8
(g10
S"\x92\xe5\xf0\x1bY\x0e'@"
tRp2607
ag8
(g10
S'D\xc67A`\xd9\xfd>'
tRp2608
ag8
(g10
S'\x00\xe2\x8a\x04\xb9pU?'
tRp2609
aa(lp2610
g2048
ag8
(g10
S'lE\xd0pR\xf7%@'
tRp2611
ag8
(g10
S'\x92\x91 Z\x90H\x04?'
tRp2612
ag8
(g10
S'\x00\x06>\xd8\xd4\x7f\\?'
tRp2613
aa(lp2614
S'ENSG00000015285'
p2615
ag8
(g10
S'<zel\xbf\xa3!@'
tRp2616
ag8
(g10
S'l \xe8\xf8\x95\xe7/?'
tRp2617
ag8
(g10
S'\x00Gr\xb8\xed\xd1\x85?'
tRp2618
aa(lp2619
S'ENSG00000132357'
p2620
ag8
(g10
S'DDDDD\xc41@'
tRp2621
ag8
(g10
S'\xbf\xc44\xf1\xd4K2?'
tRp2622
ag8
(g10
S'\x00\xb7\x91\xcf#q\x88?'
tRp2623
aa(lp2624
S'ENSG00000147168'
p2625
ag8
(g10
S'\x0e\x88\x0c\xf7*\x986@'
tRp2626
ag8
(g10
S'\xb4K\xb2$j\x14K?'
tRp2627
ag8
(g10
S'\xc0w\xed\xa1*y\xa1?'
tRp2628
aasg63
g64
((lp2629
S'ENSG00000160883'
p2630
aS'ENSG00000077984'
p2631
aS'ENSG00000164047'
p2632
aS'ENSG00000203710'
p2633
aS'ENSG00000238243'
p2634
aS'ENSG00000118520'
p2635
aS'ENSG00000131355'
p2636
aS'ENSG00000104921'
p2637
aS'ENSG00000116701'
p2638
aS'ENSG00000101307'
p2639
aS'ENSG00000147454'
p2640
aS'ENSG00000181690'
p2641
aS'ENSG00000093134'
p2642
aS'ENSG00000112303'
p2643
aS'ENSG00000113088'
p2644
aS'ENSG00000112195'
p2645
aS'ENSG00000163220'
p2646
aS'ENSG00000104918'
p2647
aS'ENSG00000112299'
p2648
aS'ENSG00000206177'
p2649
atRp2650
ssS'yellow4'
p2651
(dp2652
g63
g64
((lp2653
S'ENSG00000072210'
p2654
aS'ENSG00000112378'
p2655
aS'ENSG00000093167'
p2656
aS'ENSG00000067208'
p2657
aS'ENSG00000170469'
p2658
aS'ENSG00000180537'
p2659
aS'ENSG00000142494'
p2660
aS'ENSG00000255374'
p2661
aS'ENSG00000233232'
p2662
aS'ENSG00000115109'
p2663
aS'ENSG00000163909'
p2664
aS'ENSG00000159228'
p2665
aS'ENSG00000081177'
p2666
aS'ENSG00000151693'
p2667
aS'ENSG00000166900'
p2668
aS'ENSG00000075975'
p2669
aS'ENSG00000197170'
p2670
aS'ENSG00000112837'
p2671
aS'ENSG00000163348'
p2672
aS'ENSG00000184371'
p2673
aS'ENSG00000157927'
p2674
aS'ENSG00000133030'
p2675
atRp2676
ssS'greenyellow'
p2677
(dp2678
g63
g64
((lp2679
S'ENSG00000118804'
p2680
aS'ENSG00000167695'
p2681
aS'ENSG00000219607'
p2682
aS'ENSG00000161277'
p2683
aS'ENSG00000124225'
p2684
aS'ENSG00000155189'
p2685
aS'ENSG00000119950'
p2686
aS'ENSG00000162433'
p2687
aS'ENSG00000197930'
p2688
aS'ENSG00000084093'
p2689
aS'ENSG00000175105'
p2690
aS'ENSG00000177706'
p2691
aS'ENSG00000222040'
p2692
aS'ENSG00000243927'
p2693
aS'ENSG00000141750'
p2694
aS'ENSG00000138119'
p2695
aS'ENSG00000232013'
p2696
aS'ENSG00000164849'
p2697
aS'ENSG00000103148'
p2698
aS'ENSG00000159658'
p2699
aS'ENSG00000198925'
p2700
aS'ENSG00000118971'
p2701
aS'ENSG00000112511'
p2702
aS'ENSG00000095739'
p2703
aS'ENSG00000152952'
p2704
aS'ENSG00000069998'
p2705
aS'ENSG00000003056'
p2706
aS'ENSG00000104973'
p2707
aS'ENSG00000183111'
p2708
aS'ENSG00000135766'
p2709
aS'ENSG00000119715'
p2710
aS'ENSG00000178802'
p2711
aS'ENSG00000134333'
p2712
aS'ENSG00000163950'
p2713
aS'ENSG00000178163'
p2714
aS'ENSG00000106804'
p2715
aS'ENSG00000162989'
p2716
aS'ENSG00000168333'
p2717
aS'ENSG00000184517'
p2718
aS'ENSG00000106392'
p2719
aS'ENSG00000160209'
p2720
aS'ENSG00000108582'
p2721
aS'ENSG00000151498'
p2722
aS'ENSG00000136999'
p2723
atRp2724
ssS'magenta3'
p2725
(dp2726
g63
g64
((lp2727
S'ENSG00000103876'
p2728
aS'ENSG00000133858'
p2729
aS'ENSG00000120333'
p2730
aS'ENSG00000139190'
p2731
aS'ENSG00000105321'
p2732
aS'ENSG00000171792'
p2733
aS'ENSG00000120948'
p2734
aS'ENSG00000125246'
p2735
aS'ENSG00000136715'
p2736
aS'ENSG00000162613'
p2737
aS'ENSG00000005238'
p2738
aS'ENSG00000089902'
p2739
aS'ENSG00000138081'
p2740
atRp2741
ssS'navajowhite1'
p2742
(dp2743
g4
(lp2744
(lp2745
S'ENSG00000106809'
p2746
ag8
(g10
S'UUUUU\xd5f@'
tRp2747
ag8
(g10
S'\xcb\x84\x19\x1d\x7f\xe6\x89?'
tRp2748
ag8
(g10
S'\xc0\x84\x19\x1d\x7f\xe6\x89?'
tRp2749
aasg63
g64
((lp2750
S'ENSG00000188488'
p2751
aS'ENSG00000075884'
p2752
aS'ENSG00000149218'
p2753
aS'ENSG00000106565'
p2754
aS'ENSG00000007237'
p2755
aS'ENSG00000175130'
p2756
aS'ENSG00000115306'
p2757
aS'ENSG00000145335'
p2758
aS'ENSG00000163131'
p2759
aS'ENSG00000172938'
p2760
aS'ENSG00000072682'
p2761
aS'ENSG00000178882'
p2762
aS'ENSG00000090382'
p2763
aS'ENSG00000048544'
p2764
aS'ENSG00000124780'
p2765
aS'ENSG00000160593'
p2766
aS'ENSG00000128272'
p2767
aS'ENSG00000002933'
p2768
atRp2769
ssS'navajowhite2'
p2770
(dp2771
g4
(lp2772
(lp2773
S'ENSG00000116833'
p2774
aFinf
ag8
(g10
S'\xf53${\x9d\x9a&?'
tRp2775
ag8
(g10
S"\x80^\x8d'M\xb9\x92?"
tRp2776
aasg63
g64
((lp2777
S'ENSG00000113319'
p2778
aS'ENSG00000165810'
p2779
aS'ENSG00000138792'
p2780
aS'ENSG00000132170'
p2781
aS'ENSG00000103811'
p2782
aS'ENSG00000177098'
p2783
aS'ENSG00000007202'
p2784
aS'ENSG00000129667'
p2785
aS'ENSG00000172159'
p2786
aS'ENSG00000188517'
p2787
aS'ENSG00000106484'
p2788
aS'ENSG00000069122'
p2789
aS'ENSG00000152953'
p2790
aS'ENSG00000162444'
p2791
aS'ENSG00000118308'
p2792
aS'ENSG00000003137'
p2793
aS'ENSG00000166342'
p2794
aS'ENSG00000161021'
p2795
aS'ENSG00000152689'
p2796
aS'ENSG00000137672'
p2797
aS'ENSG00000157150'
p2798
aS'ENSG00000145911'
p2799
aS'ENSG00000134817'
p2800
aS'ENSG00000149328'
p2801
aS'ENSG00000182851'
p2802
aS'ENSG00000185963'
p2803
atRp2804
ssS'lightcoral'
p2805
(dp2806
g63
g64
((lp2807
S'ENSG00000198185'
p2808
aS'ENSG00000203691'
p2809
aS'ENSG00000143815'
p2810
aS'ENSG00000102189'
p2811
aS'ENSG00000054267'
p2812
aS'ENSG00000177302'
p2813
aS'ENSG00000149743'
p2814
aS'ENSG00000165801'
p2815
aS'ENSG00000177200'
p2816
aS'ENSG00000100139'
p2817
aS'ENSG00000137693'
p2818
aS'ENSG00000134744'
p2819
aS'ENSG00000162623'
p2820
aS'ENSG00000136536'
p2821
aS'ENSG00000108292'
p2822
aS'ENSG00000204634'
p2823
aS'ENSG00000182307'
p2824
aS'ENSG00000116128'
p2825
aS'ENSG00000124782'
p2826
aS'ENSG00000242485'
p2827
atRp2828
ssS'orangered'
p2829
(dp2830
g63
g64
((lp2831
S'ENSG00000127947'
p2832
aS'ENSG00000215790'
p2833
aS'ENSG00000248333'
p2834
aS'ENSG00000129657'
p2835
aS'ENSG00000182944'
p2836
aS'ENSG00000171262'
p2837
aS'ENSG00000008128'
p2838
aS'ENSG00000172660'
p2839
aS'ENSG00000115053'
p2840
aS'ENSG00000189339'
p2841
atRp2842
ssS'navajowhite'
p2843
(dp2844
g4
(lp2845
(lp2846
S'ENSG00000181092'
p2847
aFinf
ag8
(g10
S'.\xc3\xe9\xc8J\x15\x02?'
tRp2848
ag8
(g10
S'\x00\xc8"d\x80Ch?'
tRp2849
aasg63
g64
((lp2850
S'ENSG00000135917'
p2851
aS'ENSG00000091513'
p2852
aS'ENSG00000187288'
p2853
aS'ENSG00000169692'
p2854
aS'ENSG00000133317'
p2855
aS'ENSG00000141295'
p2856
aS'ENSG00000184601'
p2857
aS'ENSG00000179921'
p2858
aS'ENSG00000120049'
p2859
aS'ENSG00000100077'
p2860
aS'ENSG00000062282'
p2861
aS'ENSG00000167676'
p2862
aS'ENSG00000181234'
p2863
atRp2864
ssS'pink3'
p2865
(dp2866
g63
g64
((lp2867
S'ENSG00000196378'
p2868
aS'ENSG00000197959'
p2869
aS'ENSG00000139405'
p2870
aS'ENSG00000184227'
p2871
aS'ENSG00000242612'
p2872
aS'ENSG00000101189'
p2873
aS'ENSG00000164465'
p2874
aS'ENSG00000089050'
p2875
aS'ENSG00000187105'
p2876
aS'ENSG00000119673'
p2877
atRp2878
ssS'mistyrose'
p2879
(dp2880
g63
g64
((lp2881
S'ENSG00000114547'
p2882
aS'ENSG00000163206'
p2883
aS'ENSG00000213471'
p2884
aS'ENSG00000161798'
p2885
aS'ENSG00000084234'
p2886
aS'ENSG00000163467'
p2887
aS'ENSG00000171931'
p2888
aS'ENSG00000124678'
p2889
aS'ENSG00000174527'
p2890
aS'ENSG00000130377'
p2891
aS'ENSG00000203784'
p2892
atRp2893
ssS'royalblue'
p2894
(dp2895
g63
g64
((lp2896
S'ENSG00000121769'
p2897
aS'ENSG00000178982'
p2898
aS'ENSG00000197157'
p2899
aS'ENSG00000135390'
p2900
aS'ENSG00000205189'
p2901
aS'ENSG00000169925'
p2902
aS'ENSG00000176108'
p2903
aS'ENSG00000023191'
p2904
aS'ENSG00000124795'
p2905
aS'ENSG00000165502'
p2906
aS'ENSG00000175416'
p2907
aS'ENSG00000104969'
p2908
aS'ENSG00000213465'
p2909
aS'ENSG00000113716'
p2910
aS'ENSG00000242372'
p2911
aS'ENSG00000221983'
p2912
aS'ENSG00000265681'
p2913
aS'ENSG00000105258'
p2914
aS'ENSG00000172493'
p2915
aS'ENSG00000161203'
p2916
aS'ENSG00000159479'
p2917
aS'ENSG00000130755'
p2918
aS'ENSG00000104522'
p2919
aS'ENSG00000177548'
p2920
aS'ENSG00000107223'
p2921
aS'ENSG00000188846'
p2922
aS'ENSG00000178966'
p2923
aS'ENSG00000073050'
p2924
aS'ENSG00000104979'
p2925
aS'ENSG00000108107'
p2926
aS'ENSG00000111961'
p2927
aS'ENSG00000175170'
p2928
aS'ENSG00000125967'
p2929
aS'ENSG00000059573'
p2930
aS'ENSG00000146122'
p2931
aS'ENSG00000105404'
p2932
aS'ENSG00000064490'
p2933
aS'ENSG00000110492'
p2934
atRp2935
ssS'white'
p2936
(dp2937
g4
(lp2938
(lp2939
g647
aFinf
ag8
(g10
S'\xc8\xaa[C\xf5g2?'
tRp2940
ag8
(g10
S'\x00\xc8\xa7.\xf9eR?'
tRp2941
aa(lp2942
g617
ag8
(g10
S'\xdb\xb6m\xdb\xb6\x8dc@'
tRp2943
ag8
(g10
S'n\x05\x03\x13D\x96\x8d?'
tRp2944
ag8
(g10
S'\x80XO\xd2Qz\xa0?'
tRp2945
aa(lp2946
S'ENSG00000154856'
p2947
ag8
(g10
S'\xcd\xcc\xcc\xcc\xcclk@'
tRp2948
ag8
(g10
S'\x04^\xe9\xb5\xdd5\x86?'
tRp2949
ag8
(g10
S'\x80XO\xd2Qz\xa0?'
tRp2950
aa(lp2951
S'ENSG00000169660'
p2952
ag8
(g10
S'\n\xd7\xa3p=\x8aE@'
tRp2953
ag8
(g10
S'\x88\x05\xd5l\xb7\xd7\xa7?'
tRp2954
ag8
(g10
S'\x80\x05\xd5l\xb7\xd7\xa7?'
tRp2955
aasg63
g64
((lp2956
S'ENSG00000170088'
p2957
aS'ENSG00000075234'
p2958
aS'ENSG00000146085'
p2959
aS'ENSG00000197594'
p2960
aS'ENSG00000147576'
p2961
aS'ENSG00000083123'
p2962
aS'ENSG00000169738'
p2963
aS'ENSG00000169490'
p2964
aS'ENSG00000126522'
p2965
aS'ENSG00000182551'
p2966
aS'ENSG00000108465'
p2967
aS'ENSG00000137992'
p2968
aS'ENSG00000177156'
p2969
aS'ENSG00000128928'
p2970
aS'ENSG00000031691'
p2971
aS'ENSG00000144659'
p2972
aS'ENSG00000169689'
p2973
aS'ENSG00000155111'
p2974
aS'ENSG00000181192'
p2975
aS'ENSG00000176894'
p2976
aS'ENSG00000164904'
p2977
aS'ENSG00000188732'
p2978
aS'ENSG00000105607'
p2979
aS'ENSG00000161267'
p2980
aS'ENSG00000124374'
p2981
aS'ENSG00000183044'
p2982
aS'ENSG00000126821'
p2983
aS'ENSG00000205659'
p2984
aS'ENSG00000083720'
p2985
aS'ENSG00000100417'
p2986
aS'ENSG00000119711'
p2987
aS'ENSG00000100983'
p2988
aS'ENSG00000100714'
p2989
aS'ENSG00000100116'
p2990
aS'ENSG00000158201'
p2991
atRp2992
ssS'tan4'
p2993
(dp2994
g63
g64
((lp2995
S'ENSG00000110719'
p2996
aS'ENSG00000189350'
p2997
aS'ENSG00000170248'
p2998
aS'ENSG00000177370'
p2999
aS'ENSG00000101004'
p3000
aS'ENSG00000156876'
p3001
aS'ENSG00000184260'
p3002
aS'ENSG00000182606'
p3003
aS'ENSG00000168274'
p3004
aS'ENSG00000198518'
p3005
aS'ENSG00000183558'
p3006
aS'ENSG00000085840'
p3007
aS'ENSG00000037042'
p3008
aS'ENSG00000158373'
p3009
atRp3010
ssS'ivory'
p3011
(dp3012
g4
(lp3013
(lp3014
S'ENSG00000182218'
p3015
ag8
(g10
S'\x00\x00\x00\x00\x00(q@'
tRp3016
ag8
(g10
S'\xba\xd1r\xdd_\x84\x82?'
tRp3017
ag8
(g10
S'`\xae\xe4\tw\x86\x9b?'
tRp3018
aa(lp3019
S'ENSG00000128482'
p3020
ag8
(g10
S'\x00\x00\x00\x00\x00$a@'
tRp3021
ag8
(g10
S']\rV)\xab\xb9\x8b?'
tRp3022
ag8
(g10
S'\xe0G\x1d\x1d\xa0\x89\x9b?'
tRp3023
aa(lp3024
S'ENSG00000144730'
p3025
ag8
(g10
S'UUUUU\xd5V@'
tRp3026
ag8
(g10
S'\xdc\xbe"\x033s\x92?'
tRp3027
ag8
(g10
S'\xe0G\x1d\x1d\xa0\x89\x9b?'
tRp3028
aasg63
g64
((lp3029
S'ENSG00000140836'
p3030
aS'ENSG00000118900'
p3031
aS'ENSG00000100814'
p3032
aS'ENSG00000163191'
p3033
aS'ENSG00000184949'
p3034
aS'ENSG00000153885'
p3035
aS'ENSG00000197852'
p3036
aS'ENSG00000174903'
p3037
aS'ENSG00000162999'
p3038
aS'ENSG00000146267'
p3039
aS'ENSG00000163866'
p3040
aS'ENSG00000089327'
p3041
aS'ENSG00000173153'
p3042
aS'ENSG00000114745'
p3043
aS'ENSG00000132669'
p3044
aS'ENSG00000096433'
p3045
aS'ENSG00000170190'
p3046
aS'ENSG00000110395'
p3047
aS'ENSG00000142669'
p3048
aS'ENSG00000095303'
p3049
aS'ENSG00000119655'
p3050
aS'ENSG00000183049'
p3051
aS'ENSG00000135702'
p3052
aS'ENSG00000187068'
p3053
aS'ENSG00000146109'
p3054
aS'ENSG00000185567'
p3055
aS'ENSG00000137103'
p3056
aS'ENSG00000146701'
p3057
aS'ENSG00000197245'
p3058
atRp3059
ssS'lightgreen'
p3060
(dp3061
g63
g64
((lp3062
S'ENSG00000104880'
p3063
aS'ENSG00000086475'
p3064
aS'ENSG00000144824'
p3065
aS'ENSG00000110700'
p3066
aS'ENSG00000108294'
p3067
aS'ENSG00000165672'
p3068
aS'ENSG00000231500'
p3069
aS'ENSG00000087302'
p3070
aS'ENSG00000137154'
p3071
aS'ENSG00000139684'
p3072
aS'ENSG00000184304'
p3073
aS'ENSG00000114391'
p3074
aS'ENSG00000110906'
p3075
aS'ENSG00000135596'
p3076
aS'ENSG00000142534'
p3077
aS'ENSG00000188243'
p3078
aS'ENSG00000118181'
p3079
aS'ENSG00000118292'
p3080
aS'ENSG00000153827'
p3081
aS'ENSG00000174021'
p3082
aS'ENSG00000105193'
p3083
aS'ENSG00000008988'
p3084
aS'ENSG00000075420'
p3085
aS'ENSG00000177303'
p3086
aS'ENSG00000142937'
p3087
aS'ENSG00000136810'
p3088
aS'ENSG00000148290'
p3089
aS'ENSG00000167863'
p3090
aS'ENSG00000112306'
p3091
aS'ENSG00000109475'
p3092
aS'ENSG00000198246'
p3093
aS'ENSG00000133703'
p3094
aS'ENSG00000152601'
p3095
aS'ENSG00000198755'
p3096
aS'ENSG00000132128'
p3097
aS'ENSG00000163349'
p3098
aS'ENSG00000102870'
p3099
aS'ENSG00000196683'
p3100
atRp3101
ssS'lightpink2'
p3102
(dp3103
g63
g64
((lp3104
S'ENSG00000111348'
p3105
aS'ENSG00000173391'
p3106
aS'ENSG00000175984'
p3107
aS'ENSG00000163814'
p3108
aS'ENSG00000095970'
p3109
aS'ENSG00000112799'
p3110
aS'ENSG00000105248'
p3111
aS'ENSG00000142583'
p3112
aS'ENSG00000168824'
p3113
aS'ENSG00000105617'
p3114
aS'ENSG00000095585'
p3115
aS'ENSG00000118785'
p3116
aS'ENSG00000165685'
p3117
atRp3118
ssS'lightpink3'
p3119
(dp3120
g4
(lp3121
(lp3122
S'ENSG00000167261'
p3123
aFinf
ag8
(g10
S'\x9c\x7f\xb9v`\xaem?'
tRp3124
ag8
(g10
S'@\x94\x1af?^\xa9?'
tRp3125
aasg63
g64
((lp3126
S'ENSG00000253368'
p3127
aS'ENSG00000138041'
p3128
aS'ENSG00000186204'
p3129
aS'ENSG00000187266'
p3130
aS'ENSG00000168958'
p3131
aS'ENSG00000141577'
p3132
aS'ENSG00000132793'
p3133
aS'ENSG00000169026'
p3134
aS'ENSG00000121068'
p3135
aS'ENSG00000173409'
p3136
aS'ENSG00000152207'
p3137
aS'ENSG00000151208'
p3138
aS'ENSG00000153029'
p3139
aS'ENSG00000189129'
p3140
aS'ENSG00000205517'
p3141
aS'ENSG00000006740'
p3142
aS'ENSG00000187013'
p3143
aS'ENSG00000164080'
p3144
atRp3145
ssS'darkgrey'
p3146
(dp3147
g63
g64
((lp3148
S'ENSG00000198130'
p3149
aS'ENSG00000112367'
p3150
aS'ENSG00000120265'
p3151
aS'ENSG00000122958'
p3152
aS'ENSG00000079950'
p3153
aS'ENSG00000176386'
p3154
aS'ENSG00000213859'
p3155
aS'ENSG00000148660'
p3156
aS'ENSG00000015532'
p3157
aS'ENSG00000144635'
p3158
aS'ENSG00000071246'
p3159
aS'ENSG00000166912'
p3160
aS'ENSG00000196372'
p3161
aS'ENSG00000099810'
p3162
aS'ENSG00000006451'
p3163
aS'ENSG00000070950'
p3164
aS'ENSG00000158470'
p3165
aS'ENSG00000161714'
p3166
aS'ENSG00000135930'
p3167
aS'ENSG00000198089'
p3168
aS'ENSG00000138801'
p3169
aS'ENSG00000070831'
p3170
aS'ENSG00000006744'
p3171
aS'ENSG00000115840'
p3172
aS'ENSG00000131788'
p3173
aS'ENSG00000168291'
p3174
aS'ENSG00000136875'
p3175
aS'ENSG00000205302'
p3176
aS'ENSG00000179598'
p3177
aS'ENSG00000123836'
p3178
aS'ENSG00000138756'
p3179
aS'ENSG00000099953'
p3180
aS'ENSG00000123240'
p3181
aS'ENSG00000125304'
p3182
aS'ENSG00000174611'
p3183
aS'ENSG00000138641'
p3184
aS'ENSG00000069329'
p3185
atRp3186
ssS'lightpink4'
p3187
(dp3188
g63
g64
((lp3189
S'ENSG00000138735'
p3190
aS'ENSG00000113558'
p3191
aS'ENSG00000136048'
p3192
aS'ENSG00000010810'
p3193
aS'ENSG00000110046'
p3194
aS'ENSG00000106991'
p3195
aS'ENSG00000073969'
p3196
aS'ENSG00000083067'
p3197
aS'ENSG00000166171'
p3198
aS'ENSG00000067369'
p3199
aS'ENSG00000203778'
p3200
aS'ENSG00000070718'
p3201
aS'ENSG00000071575'
p3202
aS'ENSG00000167601'
p3203
aS'ENSG00000100968'
p3204
aS'ENSG00000100644'
p3205
aS'ENSG00000114279'
p3206
aS'ENSG00000065717'
p3207
aS'ENSG00000117519'
p3208
aS'ENSG00000116885'
p3209
aS'ENSG00000079257'
p3210
aS'ENSG00000175662'
p3211
aS'ENSG00000119636'
p3212
aS'ENSG00000136854'
p3213
aS'ENSG00000225968'
p3214
aS'ENSG00000165899'
p3215
atRp3216
ssS'darkolivegreen1'
p3217
(dp3218
g4
(lp3219
(lp3220
g2602
ag8
(g10
S'\xdb\xb6m\xdb\xb6mS@'
tRp3221
ag8
(g10
S'\xa1\xc6W4E\xa6\x9b?'
tRp3222
ag8
(g10
S'\xa0\xc6W4E\xa6\x9b?'
tRp3223
aasg63
g64
((lp3224
S'ENSG00000172716'
p3225
aS'ENSG00000164220'
p3226
aS'ENSG00000178789'
p3227
aS'ENSG00000183726'
p3228
aS'ENSG00000104361'
p3229
aS'ENSG00000113810'
p3230
aS'ENSG00000213186'
p3231
aS'ENSG00000172123'
p3232
aS'ENSG00000154760'
p3233
atRp3234
ssS'darkorange2'
p3235
(dp3236
g63
g64
((lp3237
S'ENSG00000133111'
p3238
aS'ENSG00000137218'
p3239
aS'ENSG00000165030'
p3240
aS'ENSG00000185650'
p3241
aS'ENSG00000153140'
p3242
aS'ENSG00000139112'
p3243
aS'ENSG00000119508'
p3244
aS'ENSG00000134533'
p3245
aS'ENSG00000154734'
p3246
aS'ENSG00000016864'
p3247
aS'ENSG00000198538'
p3248
aS'ENSG00000167333'
p3249
aS'ENSG00000137135'
p3250
aS'ENSG00000121053'
p3251
aS'ENSG00000105649'
p3252
aS'ENSG00000103257'
p3253
aS'ENSG00000054598'
p3254
aS'ENSG00000096654'
p3255
aS'ENSG00000164808'
p3256
aS'ENSG00000104643'
p3257
aS'ENSG00000116514'
p3258
aS'ENSG00000148841'
p3259
aS'ENSG00000130844'
p3260
aS'ENSG00000134444'
p3261
aS'ENSG00000175970'
p3262
aS'ENSG00000141452'
p3263
aS'ENSG00000146278'
p3264
aS'ENSG00000138617'
p3265
atRp3266
ssS'darkolivegreen2'
p3267
(dp3268
g4
(lp3269
(lp3270
S'ENSG00000261437'
p3271
ag8
(g10
S';\xa8\x83:\xa8\x037@'
tRp3272
ag8
(g10
S'\x054\x9c=\xa9IL?'
tRp3273
ag8
(g10
S'\xa0\xfb\xe8&E\r\x9b?'
tRp3274
aasg63
g64
((lp3275
S'ENSG00000198794'
p3276
aS'ENSG00000176153'
p3277
aS'ENSG00000106541'
p3278
aS'ENSG00000115221'
p3279
aS'ENSG00000166126'
p3280
aS'ENSG00000171431'
p3281
aS'ENSG00000119888'
p3282
aS'ENSG00000039068'
p3283
aS'ENSG00000125618'
p3284
aS'ENSG00000042832'
p3285
aS'ENSG00000179178'
p3286
aS'ENSG00000124935'
p3287
aS'ENSG00000181885'
p3288
aS'ENSG00000076864'
p3289
aS'ENSG00000171219'
p3290
atRp3291
ssS'chocolate4'
p3292
(dp3293
g63
g64
((lp3294
S'ENSG00000106125'
p3295
aS'ENSG00000185829'
p3296
aS'ENSG00000175711'
p3297
aS'ENSG00000092470'
p3298
aS'ENSG00000108379'
p3299
aS'ENSG00000100364'
p3300
aS'ENSG00000183569'
p3301
aS'ENSG00000238083'
p3302
aS'ENSG00000120071'
p3303
aS'ENSG00000228696'
p3304
aS'ENSG00000176681'
p3305
atRp3306
ssS'darkslateblue'
p3307
(dp3308
g4
(lp3309
(lp3310
S'ENSG00000125851'
p3311
ag8
(g10
S'jk\xfc\xdd<B6@'
tRp3312
ag8
(g10
S'\x17\xcc\x81\xfe\x07A\xce>'
tRp3313
ag8
(g10
S'\x00\xb8\x01\x08\xff,;?'
tRp3314
aa(lp3315
S'ENSG00000179915'
p3316
ag8
(g10
S'jk\xfc\xdd<B6@'
tRp3317
ag8
(g10
S'\x17\xcc\x81\xfe\x07A\xce>'
tRp3318
ag8
(g10
S'\x00\xb8\x01\x08\xff,;?'
tRp3319
aa(lp3320
S'ENSG00000206579'
p3321
ag8
(g10
S'\x05\xb3\xa4\x1c\x10\x19>@'
tRp3322
ag8
(g10
S'\xe9\xdd\xc8*\x08\xeb\x08?'
tRp3323
ag8
(g10
S'\x80c\x13\xe9\x86\xf0u?'
tRp3324
aa(lp3325
S'ENSG00000198910'
p3326
ag8
(g10
S'\xb7m\xdb\xb6m[S@'
tRp3327
ag8
(g10
S'{?\x89\xb2D\xfa\x0e?'
tRp3328
ag8
(g10
S'\x80^\x1a\x90G\x04{?'
tRp3329
aasg63
g64
((lp3330
S'ENSG00000115665'
p3331
aS'ENSG00000135298'
p3332
aS'ENSG00000111962'
p3333
aS'ENSG00000177453'
p3334
aS'ENSG00000144847'
p3335
aS'ENSG00000175161'
p3336
aS'ENSG00000126500'
p3337
aS'ENSG00000100038'
p3338
aS'ENSG00000160191'
p3339
aS'ENSG00000125851'
p3340
aS'ENSG00000162951'
p3341
aS'ENSG00000099954'
p3342
aS'ENSG00000070731'
p3343
aS'ENSG00000183960'
p3344
aS'ENSG00000165863'
p3345
aS'ENSG00000154654'
p3346
aS'ENSG00000164418'
p3347
aS'ENSG00000112782'
p3348
aS'ENSG00000115504'
p3349
aS'ENSG00000181449'
p3350
aS'ENSG00000269948'
p3351
aS'ENSG00000139354'
p3352
aS'ENSG00000141576'
p3353
aS'ENSG00000160307'
p3354
aS'ENSG00000149294'
p3355
aS'ENSG00000114200'
p3356
aS'ENSG00000165868'
p3357
atRp3358
ssS'deeppink'
p3359
(dp3360
g4
(lp3361
(lp3362
S'ENSG00000075618'
p3363
ag8
(g10
S'\x00\x00\x00\x00\x000\x81@'
tRp3364
ag8
(g10
S'\x99\x0cd\xb1\x9d=v?'
tRp3365
ag8
(g10
S'\xb0\xe5C\xc0}%\xa3?'
tRp3366
aa(lp3367
S'ENSG00000185361'
p3368
ag8
(g10
S'UUUUU\xe5v@'
tRp3369
ag8
(g10
S"2\\k'\x0b\xa4}?"
tRp3370
ag8
(g10
S'\xb0\x16)\x00\x10\xd5\xa5?'
tRp3371
aasg63
g64
((lp3372
S'ENSG00000004399'
p3373
aS'ENSG00000009413'
p3374
aS'ENSG00000108523'
p3375
aS'ENSG00000161010'
p3376
aS'ENSG00000132000'
p3377
aS'ENSG00000143258'
p3378
aS'ENSG00000113721'
p3379
aS'ENSG00000124749'
p3380
aS'ENSG00000158864'
p3381
aS'ENSG00000152669'
p3382
aS'ENSG00000056972'
p3383
aS'ENSG00000126775'
p3384
aS'ENSG00000131437'
p3385
aS'ENSG00000116984'
p3386
atRp3387
ssS'plum'
p3388
(dp3389
g4
(lp3390
(lp3391
S'ENSG00000198286'
p3392
aFinf
ag8
(g10
S'\xaa\x7f\xb9v`\xae]?'
tRp3393
ag8
(g10
S'@\x11\xb3s\x01H\x9d?'
tRp3394
aasg63
g64
((lp3395
S'ENSG00000178115'
p3396
aS'ENSG00000186399'
p3397
aS'ENSG00000213658'
p3398
aS'ENSG00000096996'
p3399
aS'ENSG00000140983'
p3400
aS'ENSG00000169682'
p3401
aS'ENSG00000151006'
p3402
aS'ENSG00000165424'
p3403
aS'ENSG00000132382'
p3404
aS'ENSG00000261247'
p3405
aS'ENSG00000056558'
p3406
aS'ENSG00000022567'
p3407
aS'ENSG00000161395'
p3408
aS'ENSG00000164082'
p3409
aS'ENSG00000206127'
p3410
aS'ENSG00000240771'
p3411
aS'ENSG00000142330'
p3412
aS'ENSG00000177383'
p3413
aS'ENSG00000145241'
p3414
aS'ENSG00000094914'
p3415
aS'ENSG00000181061'
p3416
atRp3417
ssS'maroon'
p3418
(dp3419
g63
g64
((lp3420
S'ENSG00000038210'
p3421
aS'ENSG00000117407'
p3422
aS'ENSG00000121766'
p3423
aS'ENSG00000153012'
p3424
aS'ENSG00000166263'
p3425
aS'ENSG00000186951'
p3426
aS'ENSG00000119729'
p3427
aS'ENSG00000272573'
p3428
aS'ENSG00000137699'
p3429
aS'ENSG00000152583'
p3430
aS'ENSG00000135956'
p3431
aS'ENSG00000173727'
p3432
aS'ENSG00000123472'
p3433
aS'ENSG00000128699'
p3434
aS'ENSG00000111341'
p3435
aS'ENSG00000102606'
p3436
aS'ENSG00000175264'
p3437
aS'ENSG00000055955'
p3438
aS'ENSG00000125637'
p3439
aS'ENSG00000065308'
p3440
aS'ENSG00000203685'
p3441
aS'ENSG00000116396'
p3442
aS'ENSG00000109771'
p3443
aS'ENSG00000197696'
p3444
aS'ENSG00000166716'
p3445
aS'ENSG00000135744'
p3446
atRp3447
ssS'lightcyan1'
p3448
(dp3449
g63
g64
((lp3450
S'ENSG00000149577'
p3451
aS'ENSG00000152219'
p3452
aS'ENSG00000173918'
p3453
aS'ENSG00000143819'
p3454
aS'ENSG00000182208'
p3455
aS'ENSG00000126351'
p3456
aS'ENSG00000168575'
p3457
aS'ENSG00000004660'
p3458
aS'ENSG00000162998'
p3459
aS'ENSG00000080573'
p3460
aS'ENSG00000143416'
p3461
aS'ENSG00000169783'
p3462
aS'ENSG00000101079'
p3463
aS'ENSG00000139767'
p3464
aS'ENSG00000072952'
p3465
aS'ENSG00000156219'
p3466
aS'ENSG00000127955'
p3467
aS'ENSG00000131196'
p3468
aS'ENSG00000173705'
p3469
aS'ENSG00000132005'
p3470
aS'ENSG00000111404'
p3471
aS'ENSG00000164764'
p3472
aS'ENSG00000036672'
p3473
aS'ENSG00000171202'
p3474
aS'ENSG00000140750'
p3475
aS'ENSG00000170802'
p3476
aS'ENSG00000198948'
p3477
aS'ENSG00000204178'
p3478
aS'ENSG00000198523'
p3479
aS'ENSG00000169515'
p3480
atRp3481
ssS'magenta'
p3482
(dp3483
g4
(lp3484
(lp3485
S'ENSG00000169291'
p3486
ag8
(g10
S'\xd6\xb9\xf2\x80d\x9d/@'
tRp3487
ag8
(g10
S'\x88t\x80\x82\x87\xc38?'
tRp3488
ag8
(g10
S'\xa0\xed\xd9\xbbI\x7f\x9e?'
tRp3489
aa(lp3490
S'ENSG00000148488'
p3491
aFinf
ag8
(g10
S'mlA\xd4F\xdd8?'
tRp3492
ag8
(g10
S'\xa0\xed\xd9\xbbI\x7f\x9e?'
tRp3493
aa(lp3494
S'ENSG00000163239'
p3495
ag8
(g10
S'\xc7q\x1c\xc7q\x9c-@'
tRp3496
ag8
(g10
S'\x16k\xbd\x01c\x8c>?'
tRp3497
ag8
(g10
S'\x90Z\x93\xc9\x06I\xa2?'
tRp3498
aasg63
g64
((lp3499
S'ENSG00000171115'
p3500
aS'ENSG00000198700'
p3501
aS'ENSG00000168993'
p3502
aS'ENSG00000215012'
p3503
aS'ENSG00000152192'
p3504
aS'ENSG00000120156'
p3505
aS'ENSG00000170542'
p3506
aS'ENSG00000079156'
p3507
aS'ENSG00000130158'
p3508
aS'ENSG00000153233'
p3509
aS'ENSG00000049759'
p3510
aS'ENSG00000164283'
p3511
aS'ENSG00000143603'
p3512
aS'ENSG00000135363'
p3513
aS'ENSG00000167644'
p3514
aS'ENSG00000162738'
p3515
aS'ENSG00000173597'
p3516
aS'ENSG00000125378'
p3517
aS'ENSG00000153294'
p3518
aS'ENSG00000107736'
p3519
aS'ENSG00000204301'
p3520
aS'ENSG00000115380'
p3521
aS'ENSG00000179144'
p3522
aS'ENSG00000215845'
p3523
aS'ENSG00000173706'
p3524
aS'ENSG00000110427'
p3525
aS'ENSG00000074370'
p3526
aS'ENSG00000137573'
p3527
aS'ENSG00000170537'
p3528
aS'ENSG00000170989'
p3529
aS'ENSG00000154783'
p3530
aS'ENSG00000128918'
p3531
aS'ENSG00000158825'
p3532
aS'ENSG00000160588'
p3533
aS'ENSG00000158769'
p3534
aS'ENSG00000110799'
p3535
aS'ENSG00000143341'
p3536
aS'ENSG00000104059'
p3537
aS'ENSG00000164393'
p3538
aS'ENSG00000144063'
p3539
aS'ENSG00000174175'
p3540
aS'ENSG00000130433'
p3541
aS'ENSG00000103034'
p3542
aS'ENSG00000138772'
p3543
atRp3544
ssS'tan'
p3545
(dp3546
g4
(lp3547
(lp3548
S'ENSG00000131620'
p3549
ag8
(g10
S'\x00\x00\x00\x00\x00\x18\x81@'
tRp3550
ag8
(g10
S'\x17\x8f\xef2\x12\x1a\xb9>'
tRp3551
ag8
(g10
S'\x00\xe0A\xb6\x9fF*?'
tRp3552
aa(lp3553
S'ENSG00000179136'
p3554
ag8
(g10
S'\x00\x00\x00\x00\x00\x18\x81@'
tRp3555
ag8
(g10
S'\x17\x8f\xef2\x12\x1a\xb9>'
tRp3556
ag8
(g10
S'\x00\xe0A\xb6\x9fF*?'
tRp3557
aa(lp3558
S'ENSG00000106819'
p3559
ag8
(g10
S'\x00\x00\x00\x00\x00\x18\x81@'
tRp3560
ag8
(g10
S'\x17\x8f\xef2\x12\x1a\xb9>'
tRp3561
ag8
(g10
S'\x00\xe0A\xb6\x9fF*?'
tRp3562
aa(lp3563
S'ENSG00000224116'
p3564
ag8
(g10
S'\x00\x00\x00\x00\x00\x14q@'
tRp3565
ag8
(g10
S'v\xb3\x00F\xbe?\xcf>'
tRp3566
ag8
(g10
S'\x00 3PA\xf9??'
tRp3567
aa(lp3568
S'ENSG00000130045'
p3569
ag8
(g10
S'\x00\x00\x00\x00\x00\x14q@'
tRp3570
ag8
(g10
S'v\xb3\x00F\xbe?\xcf>'
tRp3571
ag8
(g10
S'\x00 3PA\xf9??'
tRp3572
aa(lp3573
S'ENSG00000154027'
p3574
ag8
(g10
S'\x00\x00\x00\x00\x00\xc0f@'
tRp3575
ag8
(g10
S'\x8f\xf1\x99d\x04\x1f\xdf>'
tRp3576
ag8
(g10
S'\x00\xa8\xfb\xa3rYO?'
tRp3577
aa(lp3578
S'ENSG00000142632'
p3579
ag8
(g10
S'\x00\x00\x00\x00\x00\xc0f@'
tRp3580
ag8
(g10
S'\x8f\xf1\x99d\x04\x1f\xdf>'
tRp3581
ag8
(g10
S'\x00\xa8\xfb\xa3rYO?'
tRp3582
aa(lp3583
S'ENSG00000185860'
p3584
ag8
(g10
S'\x00\x00\x00\x00\x00\xc0f@'
tRp3585
ag8
(g10
S'\x8f\xf1\x99d\x04\x1f\xdf>'
tRp3586
ag8
(g10
S'\x00\xa8\xfb\xa3rYO?'
tRp3587
aa(lp3588
S'ENSG00000166448'
p3589
ag8
(g10
S'\x00\x00\x00\x00\x00\x0ca@'
tRp3590
ag8
(g10
S'0_;\xe3\x9b\x1e\xeb>'
tRp3591
ag8
(g10
S'\x00X\x85/\x9c\xacZ?'
tRp3592
aa(lp3593
S'ENSG00000150687'
p3594
ag8
(g10
S'\x00\x00\x00\x00\x00\xb0V@'
tRp3595
ag8
(g10
S'"\xbb\xc9\xd4\x83#\x00?'
tRp3596
ag8
(g10
S'\x00i\x0b\xf7\xfbuo?'
tRp3597
aa(lp3598
S'ENSG00000129038'
p3599
ag8
(g10
S'\x00\x00\x00\x00\x00\xb0V@'
tRp3600
ag8
(g10
S'"\xbb\xc9\xd4\x83#\x00?'
tRp3601
ag8
(g10
S'\x00i\x0b\xf7\xfbuo?'
tRp3602
aa(lp3603
S'ENSG00000196353'
p3604
ag8
(g10
S'\x00\x00\x00\x00\x00\xfcP@'
tRp3605
ag8
(g10
S'\xecH\xdc\x00\x14q\x0f?'
tRp3606
ag8
(g10
S'\x00\r\xce:o\x1a~?'
tRp3607
aa(lp3608
S'ENSG00000127241'
p3609
ag8
(g10
S'\x00\x00\x00\x00\x00\xfcP@'
tRp3610
ag8
(g10
S'\xecH\xdc\x00\x14q\x0f?'
tRp3611
ag8
(g10
S'\x00\r\xce:o\x1a~?'
tRp3612
aa(lp3613
S'ENSG00000107518'
p3614
ag8
(g10
S'\x00\x00\x00\x00\x00\xfcP@'
tRp3615
ag8
(g10
S'\xecH\xdc\x00\x14q\x0f?'
tRp3616
ag8
(g10
S'\x00\r\xce:o\x1a~?'
tRp3617
aa(lp3618
S'ENSG00000175600'
p3619
ag8
(g10
S'\xab\xaa\xaa\xaa\xaa*N@'
tRp3620
ag8
(g10
S'\xc3\xcb*i\n\xe0\x14?'
tRp3621
ag8
(g10
S'\x80\xc8\x1a\xc5_z\x83?'
tRp3622
aa(lp3623
S'ENSG00000078098'
p3624
ag8
(g10
S'\xab\xaa\xaa\xaa\xaa*N@'
tRp3625
ag8
(g10
S'\xc3\xcb*i\n\xe0\x14?'
tRp3626
ag8
(g10
S'\x80\xc8\x1a\xc5_z\x83?'
tRp3627
aa(lp3628
S'ENSG00000138395'
p3629
ag8
(g10
S'\xab\xaa\xaa\xaa\xaa*N@'
tRp3630
ag8
(g10
S'\xc3\xcb*i\n\xe0\x14?'
tRp3631
ag8
(g10
S'\x80\xc8\x1a\xc5_z\x83?'
tRp3632
aa(lp3633
S'ENSG00000128045'
p3634
ag8
(g10
S'\x00\x00\x00\x00\x00 K@'
tRp3635
ag8
(g10
S'\xa5W\\\x19\xbe\x06\x1b?'
tRp3636
ag8
(g10
S'@\xe7\xe0\xf3~\x8e\x88?'
tRp3637
aa(lp3638
S'ENSG00000259426'
p3639
ag8
(g10
S'\x00\x00\x00\x00\x00 K@'
tRp3640
ag8
(g10
S'\xa5W\\\x19\xbe\x06\x1b?'
tRp3641
ag8
(g10
S'@\xe7\xe0\xf3~\x8e\x88?'
tRp3642
aa(lp3643
S'ENSG00000137819'
p3644
ag8
(g10
S'\x00\x00\x00\x00\x00 K@'
tRp3645
ag8
(g10
S'\xa5W\\\x19\xbe\x06\x1b?'
tRp3646
ag8
(g10
S'@\xe7\xe0\xf3~\x8e\x88?'
tRp3647
aa(lp3648
S'ENSG00000119699'
p3649
ag8
(g10
S'\x92$I\x92$\x89s@'
tRp3650
ag8
(g10
S"q<\x80\xfe\xbd&'?"
tRp3651
ag8
(g10
S' \xb2\x1fA,j\x94?'
tRp3652
aa(lp3653
S'ENSG00000175592'
p3654
ag8
(g10
S'\x92$I\x92$\x89s@'
tRp3655
ag8
(g10
S"q<\x80\xfe\xbd&'?"
tRp3656
ag8
(g10
S' \xb2\x1fA,j\x94?'
tRp3657
aa(lp3658
S'ENSG00000092969'
p3659
ag8
(g10
S'\x92$I\x92$\x89s@'
tRp3660
ag8
(g10
S"q<\x80\xfe\xbd&'?"
tRp3661
ag8
(g10
S' \xb2\x1fA,j\x94?'
tRp3662
aa(lp3663
S'ENSG00000173227'
p3664
ag8
(g10
S'\xec\xc4N\xec\xc4\xceD@'
tRp3665
ag8
(g10
S'L\xa8x\xfbw"*?'
tRp3666
ag8
(g10
S'@p5\x00\xb9j\x96?'
tRp3667
aa(lp3668
S'ENSG00000113578'
p3669
ag8
(g10
S'\xdb\xb6m\xdb\xb6MC@'
tRp3670
ag8
(g10
S'J~\x91\x98\xbd\x9a/?'
tRp3671
ag8
(g10
S'@L\xf8\xd4e\xce\x9a?'
tRp3672
aa(lp3673
S'ENSG00000137267'
p3674
ag8
(g10
S'\xdb\xb6m\xdb\xb6MC@'
tRp3675
ag8
(g10
S'J~\x91\x98\xbd\x9a/?'
tRp3676
ag8
(g10
S'@L\xf8\xd4e\xce\x9a?'
tRp3677
aa(lp3678
S'ENSG00000115457'
p3679
ag8
(g10
S'\x00\x00\x00\x00\x00\x00B@'
tRp3680
ag8
(g10
S'3\x8f\xb9Tz\xe22?'
tRp3681
ag8
(g10
S'\xa0\xcb\xee\xae\xaea\x9f?'
tRp3682
aa(lp3683
S'ENSG00000106034'
p3684
ag8
(g10
S'\x00\x00\x00\x00\x00\x00B@'
tRp3685
ag8
(g10
S'3\x8f\xb9Tz\xe22?'
tRp3686
ag8
(g10
S'\xa0\xcb\xee\xae\xaea\x9f?'
tRp3687
aa(lp3688
S'ENSG00000186310'
p3689
ag8
(g10
S'\x00\x00\x00\x00\x00\x00B@'
tRp3690
ag8
(g10
S'3\x8f\xb9Tz\xe22?'
tRp3691
ag8
(g10
S'\xa0\xcb\xee\xae\xaea\x9f?'
tRp3692
aa(lp3693
S'ENSG00000102452'
p3694
ag8
(g10
S'\x00\x00\x00\x00\x00\x00B@'
tRp3695
ag8
(g10
S'3\x8f\xb9Tz\xe22?'
tRp3696
ag8
(g10
S'\xa0\xcb\xee\xae\xaea\x9f?'
tRp3697
aa(lp3698
S'ENSG00000137285'
p3699
ag8
(g10
S'\x00\x00\x00\x00\x00\x00B@'
tRp3700
ag8
(g10
S'3\x8f\xb9Tz\xe22?'
tRp3701
ag8
(g10
S'\xa0\xcb\xee\xae\xaea\x9f?'
tRp3702
aa(lp3703
g1548
ag8
(g10
S'\x00\x00\x00\x00\x00\xdc@@'
tRp3704
ag8
(g10
S'\xbb#\x81\xb5QU6?'
tRp3705
ag8
(g10
S'\xe0\xd3_U\x9b\xa9\xa1?'
tRp3706
aa(lp3707
S'ENSG00000172403'
p3708
ag8
(g10
S'\x00\x00\x00\x00\x00\xdc@@'
tRp3709
ag8
(g10
S'\xbb#\x81\xb5QU6?'
tRp3710
ag8
(g10
S'\xe0\xd3_U\x9b\xa9\xa1?'
tRp3711
aa(lp3712
S'ENSG00000006453'
p3713
ag8
(g10
S'\x00\x00\x00\x00\x00\xdc@@'
tRp3714
ag8
(g10
S'\xbb#\x81\xb5QU6?'
tRp3715
ag8
(g10
S'\xe0\xd3_U\x9b\xa9\xa1?'
tRp3716
aa(lp3717
S'ENSG00000246985'
p3718
ag8
(g10
S'I\x92$I\x92\x84c@'
tRp3719
ag8
(g10
S'CaM\xec\xa3\r7?'
tRp3720
ag8
(g10
S'P\n\x06\xeaI\xb3\xa1?'
tRp3721
aa(lp3722
S'ENSG00000120833'
p3723
ag8
(g10
S'I\x92$I\x92\x84c@'
tRp3724
ag8
(g10
S'CaM\xec\xa3\r7?'
tRp3725
ag8
(g10
S'P\n\x06\xeaI\xb3\xa1?'
tRp3726
aa(lp3727
S'ENSG00000136997'
p3728
ag8
(g10
S'I\x92$I\x92\x84c@'
tRp3729
ag8
(g10
S'CaM\xec\xa3\r7?'
tRp3730
ag8
(g10
S'P\n\x06\xeaI\xb3\xa1?'
tRp3731
aa(lp3732
S'ENSG00000101000'
p3733
ag8
(g10
S'I\x92$I\x92\x84c@'
tRp3734
ag8
(g10
S'CaM\xec\xa3\r7?'
tRp3735
ag8
(g10
S'P\n\x06\xeaI\xb3\xa1?'
tRp3736
aa(lp3737
S'ENSG00000127533'
p3738
ag8
(g10
S'I\x92$I\x92\x84c@'
tRp3739
ag8
(g10
S'CaM\xec\xa3\r7?'
tRp3740
ag8
(g10
S'P\n\x06\xeaI\xb3\xa1?'
tRp3741
aa(lp3742
S'ENSG00000118729'
p3743
ag8
(g10
S'\xb5\xb4\xb4\xb4\xb4\xb4?@'
tRp3744
ag8
(g10
S'\xfe\\\xecW\x91*:?'
tRp3745
ag8
(g10
S'@ \xb3lq\x0f\xa3?'
tRp3746
aa(lp3747
S'ENSG00000198947'
p3748
ag8
(g10
S'\xb5\xb4\xb4\xb4\xb4\xb4?@'
tRp3749
ag8
(g10
S'\xfe\\\xecW\x91*:?'
tRp3750
ag8
(g10
S'@ \xb3lq\x0f\xa3?'
tRp3751
aa(lp3752
S'ENSG00000170545'
p3753
ag8
(g10
S'\xb5\xb4\xb4\xb4\xb4\xb4?@'
tRp3754
ag8
(g10
S'\xfe\\\xecW\x91*:?'
tRp3755
ag8
(g10
S'@ \xb3lq\x0f\xa3?'
tRp3756
aa(lp3757
S'ENSG00000196411'
p3758
ag8
(g10
S'\xab\xaa\xaa\xaa\xaa\xea=@'
tRp3759
ag8
(g10
S"\x9f\x8a\xba'\xcff>?"
tRp3760
ag8
(g10
S'PI\n#se\xa5?'
tRp3761
aa(lp3762
S'ENSG00000129465'
p3763
ag8
(g10
S'\xab\xaa\xaa\xaa\xaa\xea=@'
tRp3764
ag8
(g10
S"\x9f\x8a\xba'\xcff>?"
tRp3765
ag8
(g10
S'PI\n#se\xa5?'
tRp3766
aa(lp3767
S'ENSG00000106823'
p3768
ag8
(g10
S'\r\xe55\x94\xd7P<@'
tRp3769
ag8
(g10
S'!\xa3/eE\x87A?'
tRp3770
ag8
(g10
S'\xb0\xe2RdX\x12\xa8?'
tRp3771
aa(lp3772
S'ENSG00000102755'
p3773
ag8
(g10
S'\r\xe55\x94\xd7P<@'
tRp3774
ag8
(g10
S'!\xa3/eE\x87A?'
tRp3775
ag8
(g10
S'\xb0\xe2RdX\x12\xa8?'
tRp3776
aasg63
g64
((lp3777
S'ENSG00000074527'
p3778
aS'ENSG00000124831'
p3779
aS'ENSG00000136436'
p3780
aS'ENSG00000159873'
p3781
aS'ENSG00000133466'
p3782
aS'ENSG00000136274'
p3783
aS'ENSG00000125629'
p3784
aS'ENSG00000109062'
p3785
aS'ENSG00000176105'
p3786
aS'ENSG00000108468'
p3787
aS'ENSG00000172399'
p3788
aS'ENSG00000140403'
p3789
aS'ENSG00000144229'
p3790
aS'ENSG00000151929'
p3791
aS'ENSG00000198626'
p3792
aS'ENSG00000064655'
p3793
aS'ENSG00000077254'
p3794
aS'ENSG00000162522'
p3795
aS'ENSG00000149115'
p3796
aS'ENSG00000086061'
p3797
aS'ENSG00000153989'
p3798
aS'ENSG00000130779'
p3799
aS'ENSG00000184465'
p3800
aS'ENSG00000092969'
p3801
aS'ENSG00000080824'
p3802
aS'ENSG00000136895'
p3803
aS'ENSG00000132002'
p3804
aS'ENSG00000154380'
p3805
aS'ENSG00000198873'
p3806
aS'ENSG00000105983'
p3807
aS'ENSG00000139793'
p3808
aS'ENSG00000118762'
p3809
aS'ENSG00000173218'
p3810
aS'ENSG00000156265'
p3811
aS'ENSG00000108187'
p3812
aS'ENSG00000129116'
p3813
aS'ENSG00000006327'
p3814
aS'ENSG00000100325'
p3815
aS'ENSG00000187513'
p3816
aS'ENSG00000204356'
p3817
aS'ENSG00000144619'
p3818
aS'ENSG00000178057'
p3819
aS'ENSG00000088899'
p3820
aS'ENSG00000180190'
p3821
atRp3822
ssS'pink'
p3823
(dp3824
g63
g64
((lp3825
S'ENSG00000168621'
p3826
aS'ENSG00000162961'
p3827
aS'ENSG00000174886'
p3828
aS'ENSG00000172590'
p3829
aS'ENSG00000241468'
p3830
aS'ENSG00000138326'
p3831
aS'ENSG00000041357'
p3832
aS'ENSG00000140950'
p3833
aS'ENSG00000125743'
p3834
aS'ENSG00000117691'
p3835
aS'ENSG00000005243'
p3836
aS'ENSG00000005075'
p3837
aS'ENSG00000178449'
p3838
aS'ENSG00000189043'
p3839
aS'ENSG00000161281'
p3840
aS'ENSG00000156411'
p3841
aS'ENSG00000182004'
p3842
aS'ENSG00000134248'
p3843
aS'ENSG00000163125'
p3844
aS'ENSG00000143198'
p3845
aS'ENSG00000184076'
p3846
aS'ENSG00000132432'
p3847
aS'ENSG00000183011'
p3848
aS'ENSG00000185088'
p3849
aS'ENSG00000188612'
p3850
aS'ENSG00000168653'
p3851
aS'ENSG00000147669'
p3852
aS'ENSG00000126267'
p3853
aS'ENSG00000133983'
p3854
aS'ENSG00000123992'
p3855
aS'ENSG00000173163'
p3856
aS'ENSG00000128463'
p3857
aS'ENSG00000214253'
p3858
aS'ENSG00000230055'
p3859
aS'ENSG00000100632'
p3860
aS'ENSG00000174917'
p3861
aS'ENSG00000141741'
p3862
aS'ENSG00000164258'
p3863
aS'ENSG00000241837'
p3864
aS'ENSG00000163382'
p3865
aS'ENSG00000138802'
p3866
aS'ENSG00000170906'
p3867
aS'ENSG00000127922'
p3868
aS'ENSG00000123268'
p3869
aS'ENSG00000184752'
p3870
atRp3871
ssS'slateblue'
p3872
(dp3873
g63
g64
((lp3874
S'ENSG00000169203'
p3875
aS'ENSG00000198064'
p3876
aS'ENSG00000010219'
p3877
aS'ENSG00000100804'
p3878
aS'ENSG00000189298'
p3879
aS'ENSG00000254206'
p3880
aS'ENSG00000234719'
p3881
aS'ENSG00000243716'
p3882
aS'ENSG00000101052'
p3883
aS'ENSG00000148400'
p3884
aS'ENSG00000063176'
p3885
atRp3886
ssS'firebrick2'
p3887
(dp3888
g63
g64
((lp3889
S'ENSG00000164172'
p3890
aS'ENSG00000168765'
p3891
aS'ENSG00000147364'
p3892
aS'ENSG00000088727'
p3893
aS'ENSG00000268182'
p3894
aS'ENSG00000134201'
p3895
aS'ENSG00000134202'
p3896
aS'ENSG00000110888'
p3897
aS'ENSG00000134184'
p3898
atRp3899
ssS'darkorange'
p3900
(dp3901
g63
g64
((lp3902
S'ENSG00000007520'
p3903
aS'ENSG00000171298'
p3904
aS'ENSG00000168661'
p3905
aS'ENSG00000110108'
p3906
aS'ENSG00000035403'
p3907
aS'ENSG00000248487'
p3908
aS'ENSG00000100258'
p3909
aS'ENSG00000141384'
p3910
aS'ENSG00000149480'
p3911
aS'ENSG00000250565'
p3912
aS'ENSG00000120910'
p3913
aS'ENSG00000197858'
p3914
aS'ENSG00000063978'
p3915
aS'ENSG00000111880'
p3916
aS'ENSG00000239697'
p3917
aS'ENSG00000132274'
p3918
aS'ENSG00000133243'
p3919
aS'ENSG00000104324'
p3920
aS'ENSG00000196935'
p3921
aS'ENSG00000054611'
p3922
aS'ENSG00000167460'
p3923
aS'ENSG00000170577'
p3924
aS'ENSG00000243646'
p3925
aS'ENSG00000141759'
p3926
aS'ENSG00000113269'
p3927
aS'ENSG00000170515'
p3928
aS'ENSG00000226742'
p3929
aS'ENSG00000168807'
p3930
aS'ENSG00000147471'
p3931
aS'ENSG00000154727'
p3932
aS'ENSG00000115234'
p3933
aS'ENSG00000106144'
p3934
aS'ENSG00000075399'
p3935
aS'ENSG00000138594'
p3936
aS'ENSG00000136235'
p3937
aS'ENSG00000103227'
p3938
atRp3939
ssS'powderblue'
p3940
(dp3941
g63
g64
((lp3942
S'ENSG00000256436'
p3943
aS'ENSG00000255837'
p3944
aS'ENSG00000091157'
p3945
aS'ENSG00000104218'
p3946
aS'ENSG00000188573'
p3947
aS'ENSG00000212124'
p3948
aS'ENSG00000212127'
p3949
aS'ENSG00000111215'
p3950
atRp3951
ssS'midnightblue'
p3952
(dp3953
g63
g64
((lp3954
S'ENSG00000168495'
p3955
aS'ENSG00000170214'
p3956
aS'ENSG00000169715'
p3957
aS'ENSG00000155085'
p3958
aS'ENSG00000101353'
p3959
aS'ENSG00000154945'
p3960
aS'ENSG00000167182'
p3961
aS'ENSG00000163431'
p3962
aS'ENSG00000177119'
p3963
aS'ENSG00000187193'
p3964
aS'ENSG00000168758'
p3965
aS'ENSG00000186446'
p3966
aS'ENSG00000198435'
p3967
aS'ENSG00000114790'
p3968
aS'ENSG00000144136'
p3969
aS'ENSG00000249087'
p3970
aS'ENSG00000086544'
p3971
aS'ENSG00000125144'
p3972
aS'ENSG00000052749'
p3973
aS'ENSG00000111361'
p3974
aS'ENSG00000153721'
p3975
aS'ENSG00000105982'
p3976
aS'ENSG00000125945'
p3977
aS'ENSG00000205364'
p3978
aS'ENSG00000177990'
p3979
aS'ENSG00000108551'
p3980
aS'ENSG00000213047'
p3981
aS'ENSG00000153207'
p3982
aS'ENSG00000205362'
p3983
aS'ENSG00000185033'
p3984
aS'ENSG00000204392'
p3985
aS'ENSG00000111224'
p3986
aS'ENSG00000093183'
p3987
aS'ENSG00000118600'
p3988
aS'ENSG00000126246'
p3989
aS'ENSG00000160208'
p3990
aS'ENSG00000021355'
p3991
aS'ENSG00000113838'
p3992
aS'ENSG00000183309'
p3993
aS'ENSG00000147419'
p3994
atRp3995
ssS'paleturquoise'
p3996
(dp3997
g4
(lp3998
(lp3999
S'ENSG00000148344'
p4000
ag8
(g10
S'\x9a\x99\x99\x99\x99\x19[@'
tRp4001
ag8
(g10
S"\xc0\xe9\\'\x8b\xe0l>"
tRp4002
ag8
(g10
S'\x00\x00\xe0\xa3\x1d\x14\xd4>'
tRp4003
aa(lp4004
S'ENSG00000011465'
p4005
ag8
(g10
S'%I\x92$IRS@'
tRp4006
ag8
(g10
S'@\xd1\xb8\x9agX\x86>'
tRp4007
ag8
(g10
S'\x00\x00\xa6\xdf\x7f\xb9\xee>'
tRp4008
aa(lp4009
S'ENSG00000184232'
p4010
ag8
(g10
S'\x00\x00\x00\x00\x00\xe4P@'
tRp4011
ag8
(g10
S'\xbd\xa1\xe1\x90r\x04\x92>'
tRp4012
ag8
(g10
S'\x00\x00!5\xf9}\xf8>'
tRp4013
aa(lp4014
S'ENSG00000008517'
p4015
ag8
(g10
S'\x00\x00\x00\x00\x00\xe4P@'
tRp4016
ag8
(g10
S'\xbd\xa1\xe1\x90r\x04\x92>'
tRp4017
ag8
(g10
S'\x00\x00!5\xf9}\xf8>'
tRp4018
aa(lp4019
S'ENSG00000119714'
p4020
ag8
(g10
S'\x00\x00\x00\x00\x00\xe4P@'
tRp4021
ag8
(g10
S'\xbd\xa1\xe1\x90r\x04\x92>'
tRp4022
ag8
(g10
S'\x00\x00!5\xf9}\xf8>'
tRp4023
aa(lp4024
S'ENSG00000100027'
p4025
ag8
(g10
S'\x00\x00\x00\x00\x00\xe4P@'
tRp4026
ag8
(g10
S'\xbd\xa1\xe1\x90r\x04\x92>'
tRp4027
ag8
(g10
S'\x00\x00!5\xf9}\xf8>'
tRp4028
aa(lp4029
S'ENSG00000144908'
p4030
ag8
(g10
S'\x9a\x99\x99\x99\x99\xf9J@'
tRp4031
ag8
(g10
S'\x7f\xefo)\x81\xb3\xa4>'
tRp4032
ag8
(g10
S'\x00\xc0\xcf\x00\x9f\xd8\n?'
tRp4033
aa(lp4034
S'ENSG00000070388'
p4035
ag8
(g10
S'\x00\x00\x00\x00\x00\x80H@'
tRp4036
ag8
(g10
S'\xae\xa0\xc7\xa5\x97\xe1\xad>'
tRp4037
ag8
(g10
S'\x00\xa0V\xe7W$\x13?'
tRp4038
aa(lp4039
S'ENSG00000099840'
p4040
ag8
(g10
S'\x00\x00\x00\x00\x00pF@'
tRp4041
ag8
(g10
S'\xe0M\x92\x11\x1f\x01\xb5>'
tRp4042
ag8
(g10
S'\x00@\x06\x14\x14\x95\x1a?'
tRp4043
aa(lp4044
S'ENSG00000172348'
p4045
ag8
(g10
S'%I\x92$I2C@'
tRp4046
ag8
(g10
S'\xac\x97vFEo\xc3>'
tRp4047
ag8
(g10
S'\x00@\xe6\xe7\x84J(?'
tRp4048
aa(lp4049
S'ENSG00000177363'
p4050
ag8
(g10
S'\xb6oX\xfb\x86\xb5S@'
tRp4051
ag8
(g10
S'SQ\xce\xc4W\x83\xc6>'
tRp4052
ag8
(g10
S'\x00\xa0S\xbba\xc9+?'
tRp4053
aa(lp4054
S'ENSG00000141753'
p4055
ag8
(g10
S'\x88\x87\x87\x87\x87\x87?@'
tRp4056
ag8
(g10
S'\xaff\xa4G\x83\x81\xd5>'
tRp4057
ag8
(g10
S'\x00@W\xf4\x844:?'
tRp4058
aa(lp4059
g2952
ag8
(g10
S'\xdb\xb6m\xdb\xb6m9@'
tRp4060
ag8
(g10
S'0\x91`.\xd4\x0b\xea>'
tRp4061
ag8
(g10
S'\x00x>VrRO?'
tRp4062
aa(lp4063
S'ENSG00000161544'
p4064
ag8
(g10
S'\x9a\x99\x99\x99\x99\x19K@'
tRp4065
ag8
(g10
S'`\x06\xcf8\xf3\xa9\x1c?'
tRp4066
ag8
(g10
S'\x00\x1e\x9fD\x17\xf3\x80?'
tRp4067
aa(lp4068
S'ENSG00000154065'
p4069
ag8
(g10
S'\x00\x00\x00\x00\x00\x90F@'
tRp4070
ag8
(g10
S'\x83\x9f\x11\xbboR%?'
tRp4071
ag8
(g10
S'\x80\xe6\x13\xa2A\xd6\x88?'
tRp4072
aa(lp4073
S'ENSG00000177374'
p4074
ag8
(g10
S'\x00\x00\x00\x00\x00\x90F@'
tRp4075
ag8
(g10
S'\x83\x9f\x11\xbboR%?'
tRp4076
ag8
(g10
S'\x80\xe6\x13\xa2A\xd6\x88?'
tRp4077
aa(lp4078
S'ENSG00000161958'
p4079
ag8
(g10
S'\x00\x00\x00\x00\x00\xe4@@'
tRp4080
ag8
(g10
S'\xbb"\x18\xc1\x94\x994?'
tRp4081
ag8
(g10
S'@:\x05o\x9d;\x97?'
tRp4082
aa(lp4083
S'ENSG00000099960'
p4084
ag8
(g10
S'\x00\x00\x00\x00\x00\xe4@@'
tRp4085
ag8
(g10
S'\xbb"\x18\xc1\x94\x994?'
tRp4086
ag8
(g10
S'@:\x05o\x9d;\x97?'
tRp4087
aa(lp4088
S'ENSG00000055118'
p4089
ag8
(g10
S'\x00\x00\x00\x00\x00\x00>@'
tRp4090
ag8
(g10
S'\xfa\x82 \xcf\xe2=;?'
tRp4091
ag8
(g10
S'`,$T*\xc9\x9d?'
tRp4092
aa(lp4093
S'ENSG00000152689'
p4094
ag8
(g10
S'\x00\x00\x00\x00\x00\x00>@'
tRp4095
ag8
(g10
S'\xfa\x82 \xcf\xe2=;?'
tRp4096
ag8
(g10
S'`,$T*\xc9\x9d?'
tRp4097
aa(lp4098
S'ENSG00000187151'
p4099
ag8
(g10
S'\xc5N\xec\xc4N\xecd@'
tRp4100
ag8
(g10
S'8\xe8Hm\xd4\xd1@?'
tRp4101
ag8
(g10
S'\xb0M\xf3\xa1 \xd2\xa1?'
tRp4102
aa(lp4103
S'ENSG00000187942'
p4104
ag8
(g10
S'\xc5N\xec\xc4N\xecd@'
tRp4105
ag8
(g10
S'8\xe8Hm\xd4\xd1@?'
tRp4106
ag8
(g10
S'\xb0M\xf3\xa1 \xd2\xa1?'
tRp4107
aa(lp4108
S'ENSG00000172247'
p4109
ag8
(g10
S'\xc5N\xec\xc4N\xecd@'
tRp4110
ag8
(g10
S'8\xe8Hm\xd4\xd1@?'
tRp4111
ag8
(g10
S'\xb0M\xf3\xa1 \xd2\xa1?'
tRp4112
aa(lp4113
S'ENSG00000197614'
p4114
ag8
(g10
S'\xc5N\xec\xc4N\xecd@'
tRp4115
ag8
(g10
S'8\xe8Hm\xd4\xd1@?'
tRp4116
ag8
(g10
S'\xb0M\xf3\xa1 \xd2\xa1?'
tRp4117
aa(lp4118
S'ENSG00000068615'
p4119
ag8
(g10
S'ZZZZZZ$@'
tRp4120
ag8
(g10
S'`~\x85\x13\xf3\xb8B?'
tRp4121
ag8
(g10
S'\x00\xc0F_\xe5\xab\xa2?'
tRp4122
aasg63
g64
((lp4123
S'ENSG00000105464'
p4124
aS'ENSG00000006128'
p4125
aS'ENSG00000141076'
p4126
aS'ENSG00000177363'
p4127
aS'ENSG00000203837'
p4128
aS'ENSG00000197956'
p4129
aS'ENSG00000161800'
p4130
aS'ENSG00000080345'
p4131
aS'ENSG00000164161'
p4132
aS'ENSG00000105989'
p4133
aS'ENSG00000198040'
p4134
aS'ENSG00000182389'
p4135
aS'ENSG00000142227'
p4136
aS'ENSG00000057608'
p4137
aS'ENSG00000163827'
p4138
aS'ENSG00000109814'
p4139
aS'ENSG00000181513'
p4140
aS'ENSG00000197747'
p4141
aS'ENSG00000124212'
p4142
aS'ENSG00000151445'
p4143
aS'ENSG00000196154'
p4144
aS'ENSG00000197766'
p4145
aS'ENSG00000164530'
p4146
aS'ENSG00000163520'
p4147
aS'ENSG00000185070'
p4148
aS'ENSG00000166734'
p4149
aS'ENSG00000163132'
p4150
aS'ENSG00000123384'
p4151
aS'ENSG00000099864'
p4152
aS'ENSG00000054965'
p4153
aS'ENSG00000130517'
p4154
aS'ENSG00000196666'
p4155
aS'ENSG00000153814'
p4156
aS'ENSG00000241839'
p4157
atRp4158
ssS'yellow3'
p4159
(dp4160
g63
g64
((lp4161
S'ENSG00000138172'
p4162
aS'ENSG00000096872'
p4163
aS'ENSG00000119048'
p4164
aS'ENSG00000239305'
p4165
aS'ENSG00000126353'
p4166
aS'ENSG00000167258'
p4167
aS'ENSG00000100034'
p4168
aS'ENSG00000129518'
p4169
aS'ENSG00000140943'
p4170
aS'ENSG00000183655'
p4171
aS'ENSG00000236882'
p4172
aS'ENSG00000134769'
p4173
aS'ENSG00000173221'
p4174
aS'ENSG00000168610'
p4175
aS'ENSG00000084652'
p4176
aS'ENSG00000067182'
p4177
aS'ENSG00000136861'
p4178
atRp4179
ssS'orangered3'
p4180
(dp4181
g4
(lp4182
(lp4183
S'ENSG00000230630'
p4184
ag8
(g10
S'\x00\x00\x00\x00\x00 \x81@'
tRp4185
ag8
(g10
S'`J\xc0\x82\x1b\xe2\xad>'
tRp4186
ag8
(g10
S'\x00\x00\xd4\xfbuz\xf5>'
tRp4187
aa(lp4188
S'ENSG00000091986'
p4189
ag8
(g10
S'\x00\x00\x00\x00\x00\xaay@'
tRp4190
ag8
(g10
S'\x91;}\xf9\xb4\x1c\xba>'
tRp4191
ag8
(g10
S'\x00\x00\x861\xa9\xf3\x01?'
tRp4192
aa(lp4193
S'ENSG00000111799'
p4194
aFinf
ag8
(g10
S'\xea\xb9d\x82\xd98\xf1>'
tRp4195
ag8
(g10
S'\x00\xc8\xb03\xaa\x996?'
tRp4196
aa(lp4197
S'ENSG00000142798'
p4198
ag8
(g10
S'\x1c\xc7q\x1c\xc7qn@'
tRp4199
ag8
(g10
S'\xb5Lz\xde\x18i%?'
tRp4200
ag8
(g10
S'\x00T\xc2\xef\xbf\xb8j?'
tRp4201
aa(lp4202
S'ENSG00000108821'
p4203
ag8
(g10
S'\x1c\xc7q\x1c\xc7qn@'
tRp4204
ag8
(g10
S'\xb5Lz\xde\x18i%?'
tRp4205
ag8
(g10
S'\x00T\xc2\xef\xbf\xb8j?'
tRp4206
aasg63
g64
((lp4207
S'ENSG00000113719'
p4208
aS'ENSG00000142798'
p4209
aS'ENSG00000164692'
p4210
aS'ENSG00000112031'
p4211
aS'ENSG00000142173'
p4212
aS'ENSG00000113140'
p4213
aS'ENSG00000011028'
p4214
aS'ENSG00000168938'
p4215
aS'ENSG00000148337'
p4216
aS'ENSG00000196376'
p4217
aS'ENSG00000011638'
p4218
aS'ENSG00000130635'
p4219
aS'ENSG00000142156'
p4220
aS'ENSG00000167881'
p4221
aS'ENSG00000150403'
p4222
aS'ENSG00000250067'
p4223
aS'ENSG00000239900'
p4224
aS'ENSG00000108821'
p4225
aS'ENSG00000141504'
p4226
aS'ENSG00000176871'
p4227
aS'ENSG00000135862'
p4228
atRp4229
ssS'deeppink1'
p4230
(dp4231
g63
g64
((lp4232
S'ENSG00000167757'
p4233
aS'ENSG00000141579'
p4234
aS'ENSG00000178363'
p4235
aS'ENSG00000115884'
p4236
aS'ENSG00000088002'
p4237
aS'ENSG00000164306'
p4238
aS'ENSG00000159455'
p4239
aS'ENSG00000136155'
p4240
atRp4241
ssS'orangered4'
p4242
(dp4243
g63
g64
((lp4244
S'ENSG00000121236'
p4245
aS'ENSG00000110060'
p4246
aS'ENSG00000214944'
p4247
aS'ENSG00000196104'
p4248
aS'ENSG00000076685'
p4249
aS'ENSG00000110172'
p4250
aS'ENSG00000153253'
p4251
aS'ENSG00000006468'
p4252
aS'ENSG00000184226'
p4253
aS'ENSG00000080224'
p4254
aS'ENSG00000168772'
p4255
aS'ENSG00000185352'
p4256
aS'ENSG00000048052'
p4257
aS'ENSG00000197991'
p4258
aS'ENSG00000187391'
p4259
aS'ENSG00000169507'
p4260
aS'ENSG00000120251'
p4261
aS'ENSG00000180828'
p4262
aS'ENSG00000079841'
p4263
aS'ENSG00000214655'
p4264
aS'ENSG00000109158'
p4265
aS'ENSG00000148143'
p4266
aS'ENSG00000127324'
p4267
aS'ENSG00000198963'
p4268
aS'ENSG00000141431'
p4269
aS'ENSG00000168743'
p4270
aS'ENSG00000157570'
p4271
aS'ENSG00000166960'
p4272
aS'ENSG00000138193'
p4273
aS'ENSG00000046889'
p4274
aS'ENSG00000244694'
p4275
atRp4276
ssS'thistle3'
p4277
(dp4278
g4
(lp4279
(lp4280
S'ENSG00000135472'
p4281
aFinf
ag8
(g10
S'x\x1b\x0bY\xc8Bf?'
tRp4282
ag8
(g10
S'\x808\x9e)\n;v?'
tRp4283
aa(lp4284
S'ENSG00000099864'
p4285
aFinf
ag8
(g10
S'x\x1b\x0bY\xc8Bf?'
tRp4286
ag8
(g10
S'\x808\x9e)\n;v?'
tRp4287
aasg63
g64
((lp4288
S'ENSG00000243477'
p4289
aS'ENSG00000128789'
p4290
aS'ENSG00000161542'
p4291
aS'ENSG00000169826'
p4292
aS'ENSG00000151148'
p4293
aS'ENSG00000178105'
p4294
aS'ENSG00000156253'
p4295
aS'ENSG00000095261'
p4296
aS'ENSG00000087053'
p4297
aS'ENSG00000198715'
p4298
aS'ENSG00000154124'
p4299
aS'ENSG00000156689'
p4300
aS'ENSG00000181830'
p4301
aS'ENSG00000130299'
p4302
aS'ENSG00000156261'
p4303
aS'ENSG00000104983'
p4304
aS'ENSG00000106976'
p4305
aS'ENSG00000142687'
p4306
aS'ENSG00000094916'
p4307
atRp4308
ssS'thistle2'
p4309
(dp4310
g4
(lp4311
(lp4312
S'ENSG00000203867'
p4313
ag8
(g10
S'fffffFk@'
tRp4314
ag8
(g10
S'\xd5a\x80\xf0\xf1.5?'
tRp4315
ag8
(g10
S" \x80\xfd'\xdb$\x9a?"
tRp4316
aa(lp4317
S'ENSG00000156463'
p4318
ag8
(g10
S'fffffFk@'
tRp4319
ag8
(g10
S'\xd5a\x80\xf0\xf1.5?'
tRp4320
ag8
(g10
S" \x80\xfd'\xdb$\x9a?"
tRp4321
aasg63
g64
((lp4322
S'ENSG00000188747'
p4323
aS'ENSG00000171798'
p4324
aS'ENSG00000129596'
p4325
aS'ENSG00000102554'
p4326
aS'ENSG00000110042'
p4327
aS'ENSG00000269891'
p4328
aS'ENSG00000182870'
p4329
aS'ENSG00000198915'
p4330
aS'ENSG00000215712'
p4331
aS'ENSG00000073614'
p4332
aS'ENSG00000175893'
p4333
aS'ENSG00000213390'
p4334
aS'ENSG00000137877'
p4335
aS'ENSG00000012124'
p4336
aS'ENSG00000148218'
p4337
aS'ENSG00000170075'
p4338
aS'ENSG00000141127'
p4339
aS'ENSG00000136383'
p4340
aS'ENSG00000125869'
p4341
aS'ENSG00000134716'
p4342
aS'ENSG00000214402'
p4343
aS'ENSG00000145934'
p4344
aS'ENSG00000146147'
p4345
aS'ENSG00000105695'
p4346
aS'ENSG00000179913'
p4347
aS'ENSG00000057294'
p4348
aS'ENSG00000163347'
p4349
atRp4350
ssS'thistle1'
p4351
(dp4352
g63
g64
((lp4353
S'ENSG00000163075'
p4354
aS'ENSG00000183155'
p4355
aS'ENSG00000226479'
p4356
aS'ENSG00000125520'
p4357
aS'ENSG00000165449'
p4358
aS'ENSG00000198060'
p4359
aS'ENSG00000220205'
p4360
aS'ENSG00000214046'
p4361
aS'ENSG00000138744'
p4362
aS'ENSG00000135617'
p4363
aS'ENSG00000130529'
p4364
aS'ENSG00000134779'
p4365
aS'ENSG00000197124'
p4366
aS'ENSG00000138078'
p4367
aS'ENSG00000163602'
p4368
aS'ENSG00000145919'
p4369
aS'ENSG00000108387'
p4370
aS'ENSG00000132842'
p4371
aS'ENSG00000113522'
p4372
aS'ENSG00000125534'
p4373
aS'ENSG00000164070'
p4374
aS'ENSG00000234444'
p4375
aS'ENSG00000149599'
p4376
aS'ENSG00000025039'
p4377
aS'ENSG00000198830'
p4378
aS'ENSG00000139410'
p4379
aS'ENSG00000129353'
p4380
atRp4381
ssS'sienna2'
p4382
(dp4383
g63
g64
((lp4384
S'ENSG00000131044'
p4385
aS'ENSG00000149600'
p4386
aS'ENSG00000157303'
p4387
aS'ENSG00000187164'
p4388
aS'ENSG00000063127'
p4389
aS'ENSG00000242441'
p4390
aS'ENSG00000234127'
p4391
aS'ENSG00000068781'
p4392
aS'ENSG00000183527'
p4393
aS'ENSG00000151552'
p4394
atRp4395
ssS'salmon'
p4396
(dp4397
g63
g64
((lp4398
S'ENSG00000167797'
p4399
aS'ENSG00000029725'
p4400
aS'ENSG00000086619'
p4401
aS'ENSG00000184840'
p4402
aS'ENSG00000085415'
p4403
aS'ENSG00000090520'
p4404
aS'ENSG00000184779'
p4405
aS'ENSG00000141294'
p4406
aS'ENSG00000170085'
p4407
aS'ENSG00000136731'
p4408
aS'ENSG00000155660'
p4409
aS'ENSG00000155666'
p4410
aS'ENSG00000086598'
p4411
aS'ENSG00000114850'
p4412
aS'ENSG00000187650'
p4413
aS'ENSG00000157637'
p4414
aS'ENSG00000198042'
p4415
aS'ENSG00000179218'
p4416
aS'ENSG00000168754'
p4417
aS'ENSG00000198746'
p4418
aS'ENSG00000126217'
p4419
aS'ENSG00000136152'
p4420
aS'ENSG00000129128'
p4421
aS'ENSG00000121073'
p4422
aS'ENSG00000143870'
p4423
aS'ENSG00000163902'
p4424
aS'ENSG00000090863'
p4425
aS'ENSG00000163703'
p4426
aS'ENSG00000084207'
p4427
aS'ENSG00000269514'
p4428
aS'ENSG00000113282'
p4429
aS'ENSG00000166598'
p4430
aS'ENSG00000120805'
p4431
aS'ENSG00000120725'
p4432
aS'ENSG00000197980'
p4433
aS'ENSG00000184164'
p4434
aS'ENSG00000102580'
p4435
aS'ENSG00000188352'
p4436
aS'ENSG00000197361'
p4437
aS'ENSG00000128228'
p4438
aS'ENSG00000066855'
p4439
atRp4440
ssS'thistle4'
p4441
(dp4442
g63
g64
((lp4443
S'ENSG00000109065'
p4444
aS'ENSG00000135540'
p4445
aS'ENSG00000089041'
p4446
aS'ENSG00000183431'
p4447
aS'ENSG00000157992'
p4448
aS'ENSG00000080845'
p4449
aS'ENSG00000183386'
p4450
aS'ENSG00000204967'
p4451
aS'ENSG00000143570'
p4452
aS'ENSG00000105355'
p4453
aS'ENSG00000163239'
p4454
aS'ENSG00000204084'
p4455
aS'ENSG00000183520'
p4456
aS'ENSG00000166839'
p4457
atRp4458
ssS'mediumpurple1'
p4459
(dp4460
g4
(lp4461
(lp4462
S'ENSG00000114805'
p4463
ag8
(g10
S'\x00\x00\x00\x00\x00`k@'
tRp4464
ag8
(g10
S'\xb3(\x8f\xc1\xfc\xf5*?'
tRp4465
ag8
(g10
S'\x00\x1e\xd9\x89\xe3\x02u?'
tRp4466
aasg63
g64
((lp4467
S'ENSG00000153820'
p4468
aS'ENSG00000148965'
p4469
aS'ENSG00000117280'
p4470
aS'ENSG00000164326'
p4471
aS'ENSG00000165630'
p4472
aS'ENSG00000134339'
p4473
aS'ENSG00000125124'
p4474
aS'ENSG00000100439'
p4475
aS'ENSG00000163833'
p4476
aS'ENSG00000180875'
p4477
aS'ENSG00000154957'
p4478
aS'ENSG00000064300'
p4479
aS'ENSG00000196277'
p4480
aS'ENSG00000130714'
p4481
aS'ENSG00000173452'
p4482
aS'ENSG00000173432'
p4483
atRp4484
ssS'mediumpurple2'
p4485
(dp4486
g63
g64
((lp4487
S'ENSG00000169592'
p4488
aS'ENSG00000141519'
p4489
aS'ENSG00000171914'
p4490
aS'ENSG00000162755'
p4491
aS'ENSG00000197568'
p4492
aS'ENSG00000166913'
p4493
aS'ENSG00000170122'
p4494
aS'ENSG00000168038'
p4495
aS'ENSG00000092529'
p4496
aS'ENSG00000175229'
p4497
aS'ENSG00000237441'
p4498
aS'ENSG00000214114'
p4499
aS'ENSG00000074603'
p4500
aS'ENSG00000134285'
p4501
aS'ENSG00000163913'
p4502
aS'ENSG00000244509'
p4503
aS'ENSG00000134253'
p4504
aS'ENSG00000049239'
p4505
aS'ENSG00000155465'
p4506
aS'ENSG00000153291'
p4507
aS'ENSG00000140488'
p4508
atRp4509
ssS'mediumpurple3'
p4510
(dp4511
g4
(lp4512
(lp4513
S'ENSG00000122679'
p4514
ag8
(g10
S'\xc5N\xec\xc4N\xecd@'
tRp4515
ag8
(g10
S'8\xe8Hm\xd4\xd1@?'
tRp4516
ag8
(g10
S' P\xab\xcf\xac\xd5\xa2?'
tRp4517
aasg63
g64
((lp4518
S'ENSG00000186231'
p4519
aS'ENSG00000109667'
p4520
aS'ENSG00000198719'
p4521
aS'ENSG00000112290'
p4522
aS'ENSG00000167236'
p4523
aS'ENSG00000170545'
p4524
aS'ENSG00000163513'
p4525
aS'ENSG00000142634'
p4526
aS'ENSG00000118096'
p4527
aS'ENSG00000038295'
p4528
aS'ENSG00000213398'
p4529
aS'ENSG00000175471'
p4530
aS'ENSG00000163072'
p4531
aS'ENSG00000168306'
p4532
aS'ENSG00000066629'
p4533
aS'ENSG00000139547'
p4534
aS'ENSG00000152582'
p4535
aS'ENSG00000135272'
p4536
aS'ENSG00000057704'
p4537
aS'ENSG00000169403'
p4538
aS'ENSG00000130300'
p4539
aS'ENSG00000166166'
p4540
aS'ENSG00000003147'
p4541
aS'ENSG00000129467'
p4542
aS'ENSG00000184497'
p4543
aS'ENSG00000154133'
p4544
aS'ENSG00000148730'
p4545
aS'ENSG00000174640'
p4546
aS'ENSG00000172554'
p4547
aS'ENSG00000204217'
p4548
atRp4549
ssS'mediumpurple4'
p4550
(dp4551
g63
g64
((lp4552
S'ENSG00000204516'
p4553
aS'ENSG00000171295'
p4554
aS'ENSG00000184635'
p4555
aS'ENSG00000139974'
p4556
aS'ENSG00000178229'
p4557
aS'ENSG00000181467'
p4558
aS'ENSG00000100625'
p4559
aS'ENSG00000140990'
p4560
aS'ENSG00000160161'
p4561
aS'ENSG00000153303'
p4562
aS'ENSG00000131845'
p4563
aS'ENSG00000100605'
p4564
aS'ENSG00000126778'
p4565
aS'ENSG00000213420'
p4566
aS'ENSG00000102893'
p4567
aS'ENSG00000128656'
p4568
aS'ENSG00000179008'
p4569
atRp4570
ssS'pink4'
p4571
(dp4572
g4
(lp4573
(lp4574
S'ENSG00000157193'
p4575
aFinf
ag8
(g10
S'\xbb\x1f\x0bY\xc8Bf?'
tRp4576
ag8
(g10
S'`\x1azj92\x9e?'
tRp4577
aasg63
g64
((lp4578
S'ENSG00000116288'
p4579
aS'ENSG00000099282'
p4580
aS'ENSG00000152291'
p4581
aS'ENSG00000178188'
p4582
aS'ENSG00000042493'
p4583
aS'ENSG00000149256'
p4584
aS'ENSG00000042445'
p4585
aS'ENSG00000188086'
p4586
aS'ENSG00000105971'
p4587
aS'ENSG00000115459'
p4588
aS'ENSG00000132405'
p4589
aS'ENSG00000091844'
p4590
aS'ENSG00000162714'
p4591
aS'ENSG00000186575'
p4592
aS'ENSG00000140859'
p4593
aS'ENSG00000175832'
p4594
aS'ENSG00000165388'
p4595
atRp4596
ssS'darkolivegreen4'
p4597
(dp4598
g63
g64
((lp4599
S'ENSG00000125871'
p4600
aS'ENSG00000101246'
p4601
aS'ENSG00000160124'
p4602
aS'ENSG00000107669'
p4603
aS'ENSG00000141956'
p4604
aS'ENSG00000159267'
p4605
aS'ENSG00000022976'
p4606
aS'ENSG00000179941'
p4607
aS'ENSG00000139146'
p4608
aS'ENSG00000187145'
p4609
aS'ENSG00000188686'
p4610
aS'ENSG00000105393'
p4611
aS'ENSG00000148384'
p4612
aS'ENSG00000067365'
p4613
aS'ENSG00000159055'
p4614
aS'ENSG00000188295'
p4615
aS'ENSG00000135090'
p4616
aS'ENSG00000176454'
p4617
aS'ENSG00000258366'
p4618
aS'ENSG00000160961'
p4619
atRp4620
ssS'darkseagreen4'
p4621
(dp4622
g4
(lp4623
(lp4624
g2058
ag8
(g10
S'L\x86`\x1dm\xde0@'
tRp4625
ag8
(g10
S'\xc4\x1e\x8c\xf1qK\xd9>'
tRp4626
ag8
(g10
S'\x00P\xde\xa7Q3@?'
tRp4627
aa(lp4628
S'ENSG00000105609'
p4629
ag8
(g10
S"(}\xd2'}\xd27@"
tRp4630
ag8
(g10
S"\xe1\x00\x94'\xf3S\x1b?"
tRp4631
ag8
(g10
S'\xc0\xb1\x1c\xe0\xb68\x81?'
tRp4632
aa(lp4633
S'ENSG00000010327'
p4634
ag8
(g10
S"(}\xd2'}\xd27@"
tRp4635
ag8
(g10
S"\xe1\x00\x94'\xf3S\x1b?"
tRp4636
ag8
(g10
S'\xc0\xb1\x1c\xe0\xb68\x81?'
tRp4637
aa(lp4638
S'ENSG00000129538'
p4639
ag8
(g10
S"(}\xd2'}\xd27@"
tRp4640
ag8
(g10
S"\xe1\x00\x94'\xf3S\x1b?"
tRp4641
ag8
(g10
S'\xc0\xb1\x1c\xe0\xb68\x81?'
tRp4642
aa(lp4643
S'ENSG00000171051'
p4644
aFinf
ag8
(g10
S'|\x93R\x04\x11\x97#?'
tRp4645
ag8
(g10
S'\x80P\xc0\xbda\xb3\x87?'
tRp4646
aa(lp4647
S'ENSG00000159189'
p4648
ag8
(g10
S'ffffff5@'
tRp4649
ag8
(g10
S'm\x9cL\x7f\x05\x8f#?'
tRp4650
ag8
(g10
S'\x80P\xc0\xbda\xb3\x87?'
tRp4651
aa(lp4652
S'ENSG00000109321'
p4653
aFinf
ag8
(g10
S'|\x93R\x04\x11\x97#?'
tRp4654
ag8
(g10
S'\x80P\xc0\xbda\xb3\x87?'
tRp4655
aa(lp4656
S'ENSG00000155307'
p4657
aFinf
ag8
(g10
S'|\x93R\x04\x11\x97#?'
tRp4658
ag8
(g10
S'\x80P\xc0\xbda\xb3\x87?'
tRp4659
aa(lp4660
S'ENSG00000162511'
p4661
aFinf
ag8
(g10
S'|\x93R\x04\x11\x97#?'
tRp4662
ag8
(g10
S'\x80P\xc0\xbda\xb3\x87?'
tRp4663
aa(lp4664
S'ENSG00000173372'
p4665
ag8
(g10
S'ffffff5@'
tRp4666
ag8
(g10
S'm\x9cL\x7f\x05\x8f#?'
tRp4667
ag8
(g10
S'\x80P\xc0\xbda\xb3\x87?'
tRp4668
aa(lp4669
S'ENSG00000124882'
p4670
aFinf
ag8
(g10
S'|\x93R\x04\x11\x97#?'
tRp4671
ag8
(g10
S'\x80P\xc0\xbda\xb3\x87?'
tRp4672
aa(lp4673
S'ENSG00000166825'
p4674
aFinf
ag8
(g10
S'|\x93R\x04\x11\x97#?'
tRp4675
ag8
(g10
S'\x80P\xc0\xbda\xb3\x87?'
tRp4676
aa(lp4677
g2073
ag8
(g10
S'k\xdf\xb0\xf6\rk3@'
tRp4678
ag8
(g10
S'\xe0\xb3\xee\x9e|\x1d+?'
tRp4679
ag8
(g10
S'\xc0\xb7\x13XQr\x8d?'
tRp4680
aa(lp4681
g2078
ag8
(g10
S'k\xdf\xb0\xf6\rk3@'
tRp4682
ag8
(g10
S'\xe0\xb3\xee\x9e|\x1d+?'
tRp4683
ag8
(g10
S'\xc0\xb7\x13XQr\x8d?'
tRp4684
aa(lp4685
g2083
ag8
(g10
S'k\xdf\xb0\xf6\rk3@'
tRp4686
ag8
(g10
S'\xe0\xb3\xee\x9e|\x1d+?'
tRp4687
ag8
(g10
S'\xc0\xb7\x13XQr\x8d?'
tRp4688
aa(lp4689
g2615
ag8
(g10
S'<zel\xbf\xa3!@'
tRp4690
ag8
(g10
S'l \xe8\xf8\x95\xe7/?'
tRp4691
ag8
(g10
S'\xc0\x80\x84R\x0f\x91\x90?'
tRp4692
aa(lp4693
S'ENSG00000182578'
p4694
ag8
(g10
S'\xd1E\x17]tqB@'
tRp4695
ag8
(g10
S' \xc3\x89\xc0\x12\x920?'
tRp4696
ag8
(g10
S'@ %\xe7\xe1\xf2\x90?'
tRp4697
aa(lp4698
S'ENSG00000198223'
p4699
ag8
(g10
S'\xd1E\x17]tqB@'
tRp4700
ag8
(g10
S' \xc3\x89\xc0\x12\x920?'
tRp4701
ag8
(g10
S'@ %\xe7\xe1\xf2\x90?'
tRp4702
aa(lp4703
S'ENSG00000165457'
p4704
ag8
(g10
S'\xd1E\x17]tqB@'
tRp4705
ag8
(g10
S' \xc3\x89\xc0\x12\x920?'
tRp4706
ag8
(g10
S'@ %\xe7\xe1\xf2\x90?'
tRp4707
aa(lp4708
g2043
ag8
(g10
S'\xf7\x11\xdcGp\x1f!@'
tRp4709
ag8
(g10
S'U\x91\xea\x02O\xc22?'
tRp4710
ag8
(g10
S'\xe0\xb3\xb4\x89\x91M\x92?'
tRp4711
aa(lp4712
g2048
ag8
(g10
S'v\xbfQv\xbfQ @'
tRp4713
ag8
(g10
S'\x9c\xf8\x98\\\xb0T8?'
tRp4714
ag8
(g10
S'\x80\xea\x07\x9b8N\x97?'
tRp4715
aa(lp4716
g2602
ag8
(g10
S'\x00\x00\x00\x00\x00\x808@'
tRp4717
ag8
(g10
S'^\xe9\x96\xa08+F?'
tRp4718
ag8
(g10
S'pe\x05\x13\xdb\xb4\xa4?'
tRp4719
aa(lp4720
S'ENSG00000165025'
p4721
ag8
(g10
S'33333s*@'
tRp4722
ag8
(g10
S'\x16\n\xad\xac\xcb\xceH?'
tRp4723
ag8
(g10
S'\xe0\xb8j\x12\xd3\xbe\xa6?'
tRp4724
aasg63
g64
((lp4725
S'ENSG00000042980'
p4726
aS'ENSG00000122862'
p4727
aS'ENSG00000161929'
p4728
aS'ENSG00000161921'
p4729
aS'ENSG00000106952'
p4730
aS'ENSG00000213672'
p4731
aS'ENSG00000204577'
p4732
aS'ENSG00000205595'
p4733
aS'ENSG00000133805'
p4734
aS'ENSG00000059377'
p4735
aS'ENSG00000038945'
p4736
aS'ENSG00000153902'
p4737
aS'ENSG00000182963'
p4738
aS'ENSG00000184281'
p4739
aS'ENSG00000130775'
p4740
aS'ENSG00000183484'
p4741
aS'ENSG00000126264'
p4742
aS'ENSG00000131042'
p4743
aS'ENSG00000167613'
p4744
aS'ENSG00000244482'
p4745
aS'ENSG00000126067'
p4746
aS'ENSG00000160223'
p4747
aS'ENSG00000171860'
p4748
aS'ENSG00000174130'
p4749
aS'ENSG00000117154'
p4750
atRp4751
ssS'darkseagreen3'
p4752
(dp4753
g63
g64
((lp4754
S'ENSG00000178776'
p4755
aS'ENSG00000152661'
p4756
aS'ENSG00000213064'
p4757
aS'ENSG00000173801'
p4758
aS'ENSG00000128422'
p4759
aS'ENSG00000188643'
p4760
aS'ENSG00000087253'
p4761
aS'ENSG00000144339'
p4762
aS'ENSG00000099337'
p4763
aS'ENSG00000070610'
p4764
aS'ENSG00000170017'
p4765
aS'ENSG00000165406'
p4766
aS'ENSG00000067082'
p4767
aS'ENSG00000136205'
p4768
aS'ENSG00000114735'
p4769
aS'ENSG00000140931'
p4770
aS'ENSG00000181036'
p4771
aS'ENSG00000164265'
p4772
atRp4773
ssS'darkseagreen2'
p4774
(dp4775
g63
g64
((lp4776
S'ENSG00000119899'
p4777
aS'ENSG00000168255'
p4778
aS'ENSG00000091527'
p4779
aS'ENSG00000105808'
p4780
aS'ENSG00000196072'
p4781
aS'ENSG00000100280'
p4782
aS'ENSG00000170667'
p4783
aS'ENSG00000166797'
p4784
aS'ENSG00000089486'
p4785
aS'ENSG00000136867'
p4786
aS'ENSG00000188033'
p4787
atRp4788
ssS'lightyellow'
p4789
(dp4790
g63
g64
((lp4791
S'ENSG00000127946'
p4792
aS'ENSG00000185924'
p4793
aS'ENSG00000173156'
p4794
aS'ENSG00000188257'
p4795
aS'ENSG00000082482'
p4796
aS'ENSG00000132386'
p4797
aS'ENSG00000152377'
p4798
aS'ENSG00000162804'
p4799
aS'ENSG00000113296'
p4800
aS'ENSG00000152760'
p4801
aS'ENSG00000145824'
p4802
aS'ENSG00000085832'
p4803
aS'ENSG00000241945'
p4804
aS'ENSG00000162733'
p4805
aS'ENSG00000100767'
p4806
aS'ENSG00000133103'
p4807
aS'ENSG00000243156'
p4808
aS'ENSG00000135914'
p4809
aS'ENSG00000187151'
p4810
aS'ENSG00000151892'
p4811
aS'ENSG00000177469'
p4812
aS'ENSG00000091986'
p4813
aS'ENSG00000177106'
p4814
aS'ENSG00000057252'
p4815
aS'ENSG00000113621'
p4816
aS'ENSG00000100979'
p4817
aS'ENSG00000173258'
p4818
aS'ENSG00000135052'
p4819
aS'ENSG00000164114'
p4820
aS'ENSG00000162595'
p4821
aS'ENSG00000154175'
p4822
aS'ENSG00000166825'
p4823
aS'ENSG00000079819'
p4824
aS'ENSG00000131459'
p4825
aS'ENSG00000042062'
p4826
aS'ENSG00000122420'
p4827
aS'ENSG00000067900'
p4828
aS'ENSG00000011465'
p4829
atRp4830
ssS'salmon1'
p4831
(dp4832
g63
g64
((lp4833
S'ENSG00000095321'
p4834
aS'ENSG00000134324'
p4835
aS'ENSG00000197321'
p4836
aS'ENSG00000119383'
p4837
aS'ENSG00000187758'
p4838
aS'ENSG00000145358'
p4839
aS'ENSG00000124920'
p4840
aS'ENSG00000163754'
p4841
aS'ENSG00000113758'
p4842
aS'ENSG00000196616'
p4843
aS'ENSG00000068885'
p4844
aS'ENSG00000101150'
p4845
aS'ENSG00000135749'
p4846
atRp4847
ssS'salmon2'
p4848
(dp4849
g63
g64
((lp4850
S'ENSG00000187514'
p4851
aS'ENSG00000146281'
p4852
aS'ENSG00000198121'
p4853
aS'ENSG00000184347'
p4854
aS'ENSG00000141084'
p4855
aS'ENSG00000166557'
p4856
aS'ENSG00000054654'
p4857
aS'ENSG00000030304'
p4858
aS'ENSG00000153208'
p4859
aS'ENSG00000235711'
p4860
aS'ENSG00000100612'
p4861
aS'ENSG00000166974'
p4862
aS'ENSG00000146276'
p4863
aS'ENSG00000198373'
p4864
aS'ENSG00000164318'
p4865
aS'ENSG00000241685'
p4866
aS'ENSG00000154548'
p4867
aS'ENSG00000113384'
p4868
aS'ENSG00000176678'
p4869
atRp4870
ssS'salmon4'
p4871
(dp4872
g63
g64
((lp4873
S'ENSG00000114115'
p4874
aS'ENSG00000197776'
p4875
aS'ENSG00000172345'
p4876
aS'ENSG00000086205'
p4877
aS'ENSG00000107566'
p4878
aS'ENSG00000133731'
p4879
aS'ENSG00000137492'
p4880
aS'ENSG00000143727'
p4881
aS'ENSG00000134470'
p4882
aS'ENSG00000158258'
p4883
aS'ENSG00000109625'
p4884
aS'ENSG00000161243'
p4885
aS'ENSG00000111364'
p4886
aS'ENSG00000010803'
p4887
aS'ENSG00000163545'
p4888
aS'ENSG00000180447'
p4889
aS'ENSG00000187955'
p4890
aS'ENSG00000184985'
p4891
aS'ENSG00000182132'
p4892
aS'ENSG00000152779'
p4893
aS'ENSG00000151176'
p4894
aS'ENSG00000154645'
p4895
aS'ENSG00000204764'
p4896
aS'ENSG00000140365'
p4897
aS'ENSG00000116962'
p4898
aS'ENSG00000155269'
p4899
aS'ENSG00000117525'
p4900
atRp4901
ssS'green'
p4902
(dp4903
g4
(lp4904
(lp4905
S'ENSG00000087258'
p4906
ag8
(g10
S'\x00\x00\x00\x00\x00\x14q@'
tRp4907
ag8
(g10
S'\x1dIHE\xed\xeb,?'
tRp4908
ag8
(g10
S'@\x0co\x1d\x93\xeb\x86?'
tRp4909
aasg63
g64
((lp4910
S'ENSG00000186230'
p4911
aS'ENSG00000158220'
p4912
aS'ENSG00000172301'
p4913
aS'ENSG00000091127'
p4914
aS'ENSG00000120693'
p4915
aS'ENSG00000186496'
p4916
aS'ENSG00000232040'
p4917
aS'ENSG00000131507'
p4918
aS'ENSG00000158186'
p4919
aS'ENSG00000104863'
p4920
aS'ENSG00000066468'
p4921
aS'ENSG00000178691'
p4922
aS'ENSG00000049089'
p4923
aS'ENSG00000241258'
p4924
aS'ENSG00000213983'
p4925
aS'ENSG00000214021'
p4926
aS'ENSG00000088367'
p4927
aS'ENSG00000173531'
p4928
aS'ENSG00000163689'
p4929
aS'ENSG00000136449'
p4930
aS'ENSG00000116675'
p4931
aS'ENSG00000108813'
p4932
aS'ENSG00000167157'
p4933
aS'ENSG00000237172'
p4934
aS'ENSG00000108960'
p4935
aS'ENSG00000130751'
p4936
aS'ENSG00000157240'
p4937
aS'ENSG00000072071'
p4938
aS'ENSG00000139971'
p4939
aS'ENSG00000196814'
p4940
aS'ENSG00000197077'
p4941
aS'ENSG00000125257'
p4942
aS'ENSG00000152642'
p4943
aS'ENSG00000179195'
p4944
aS'ENSG00000159251'
p4945
aS'ENSG00000099219'
p4946
aS'ENSG00000177301'
p4947
aS'ENSG00000180917'
p4948
aS'ENSG00000160256'
p4949
aS'ENSG00000125864'
p4950
aS'ENSG00000100473'
p4951
aS'ENSG00000167941'
p4952
aS'ENSG00000262601'
p4953
aS'ENSG00000175931'
p4954
aS'ENSG00000068078'
p4955
aS'ENSG00000178381'
p4956
aS'ENSG00000180354'
p4957
aS'ENSG00000164039'
p4958
aS'ENSG00000157216'
p4959
aS'ENSG00000114999'
p4960
aS'ENSG00000172731'
p4961
aS'ENSG00000118197'
p4962
aS'ENSG00000186318'
p4963
atRp4964
ssS'blueviolet'
p4965
(dp4966
g63
g64
((lp4967
S'ENSG00000106692'
p4968
aS'ENSG00000186510'
p4969
aS'ENSG00000130764'
p4970
aS'ENSG00000050820'
p4971
aS'ENSG00000179115'
p4972
aS'ENSG00000148229'
p4973
aS'ENSG00000162585'
p4974
aS'ENSG00000143437'
p4975
aS'ENSG00000077454'
p4976
aS'ENSG00000177674'
p4977
aS'ENSG00000105520'
p4978
aS'ENSG00000269554'
p4979
aS'ENSG00000205352'
p4980
aS'ENSG00000146535'
p4981
aS'ENSG00000130520'
p4982
atRp4983
ssS'brown2'
p4984
(dp4985
g63
g64
((lp4986
S'ENSG00000157617'
p4987
aS'ENSG00000243649'
p4988
aS'ENSG00000160145'
p4989
aS'ENSG00000175287'
p4990
aS'ENSG00000244731'
p4991
aS'ENSG00000224389'
p4992
aS'ENSG00000149489'
p4993
aS'ENSG00000185499'
p4994
aS'ENSG00000127328'
p4995
aS'ENSG00000169857'
p4996
aS'ENSG00000112679'
p4997
aS'ENSG00000133048'
p4998
aS'ENSG00000151490'
p4999
aS'ENSG00000104332'
p5000
aS'ENSG00000102524'
p5001
aS'ENSG00000107186'
p5002
aS'ENSG00000175899'
p5003
aS'ENSG00000115107'
p5004
aS'ENSG00000119812'
p5005
atRp5006
ssS'brown1'
p5007
(dp5008
g63
g64
((lp5009
S'ENSG00000133460'
p5010
aS'ENSG00000218537'
p5011
aS'ENSG00000103549'
p5012
aS'ENSG00000156869'
p5013
aS'ENSG00000183833'
p5014
aS'ENSG00000099977'
p5015
aS'ENSG00000184674'
p5016
aS'ENSG00000152700'
p5017
atRp5018
ssS'steelblue'
p5019
(dp5020
g4
(lp5021
(lp5022
g1536
ag8
(g10
S'\xc5N\xec\xc4N\xecd@'
tRp5023
ag8
(g10
S'8\xe8Hm\xd4\xd1@?'
tRp5024
ag8
(g10
S'0-\xe7v\xa2\n\xa0?'
tRp5025
aasg63
g64
((lp5026
S'ENSG00000158715'
p5027
aS'ENSG00000188312'
p5028
aS'ENSG00000102595'
p5029
aS'ENSG00000197119'
p5030
aS'ENSG00000021645'
p5031
aS'ENSG00000114812'
p5032
aS'ENSG00000110660'
p5033
aS'ENSG00000164715'
p5034
aS'ENSG00000163531'
p5035
aS'ENSG00000171310'
p5036
aS'ENSG00000203797'
p5037
aS'ENSG00000178031'
p5038
aS'ENSG00000180340'
p5039
aS'ENSG00000169031'
p5040
aS'ENSG00000112902'
p5041
aS'ENSG00000105825'
p5042
aS'ENSG00000133067'
p5043
aS'ENSG00000151067'
p5044
aS'ENSG00000120254'
p5045
aS'ENSG00000126218'
p5046
aS'ENSG00000136243'
p5047
aS'ENSG00000072134'
p5048
aS'ENSG00000127951'
p5049
aS'ENSG00000125775'
p5050
aS'ENSG00000118402'
p5051
aS'ENSG00000168546'
p5052
aS'ENSG00000119392'
p5053
aS'ENSG00000127241'
p5054
aS'ENSG00000106809'
p5055
aS'ENSG00000156990'
p5056
aS'ENSG00000219438'
p5057
aS'ENSG00000127920'
p5058
aS'ENSG00000081052'
p5059
aS'ENSG00000169418'
p5060
atRp5061
ssS'brown4'
p5062
(dp5063
g63
g64
((lp5064
S'ENSG00000105612'
p5065
aS'ENSG00000005486'
p5066
aS'ENSG00000124155'
p5067
aS'ENSG00000130649'
p5068
aS'ENSG00000100299'
p5069
aS'ENSG00000213614'
p5070
aS'ENSG00000108352'
p5071
aS'ENSG00000087191'
p5072
aS'ENSG00000111275'
p5073
aS'ENSG00000129103'
p5074
aS'ENSG00000182149'
p5075
aS'ENSG00000114054'
p5076
aS'ENSG00000162736'
p5077
aS'ENSG00000177830'
p5078
aS'ENSG00000197746'
p5079
aS'ENSG00000185627'
p5080
aS'ENSG00000169919'
p5081
aS'ENSG00000090581'
p5082
aS'ENSG00000104870'
p5083
aS'ENSG00000185339'
p5084
aS'ENSG00000008130'
p5085
aS'ENSG00000109323'
p5086
aS'ENSG00000182446'
p5087
aS'ENSG00000135506'
p5088
aS'ENSG00000109472'
p5089
aS'ENSG00000155066'
p5090
aS'ENSG00000159352'
p5091
aS'ENSG00000121064'
p5092
atRp5093
ss.