(dp1
S'tan'
p2
(dp3
S'module_genes'
p4
c__builtin__
set
p5
((lp6
S'ENSG00000196123'
p7
aS'ENSG00000123096'
p8
aS'ENSG00000113658'
p9
aS'ENSG00000119943'
p10
aS'ENSG00000141027'
p11
aS'ENSG00000136040'
p12
aS'ENSG00000115275'
p13
aS'ENSG00000166582'
p14
aS'ENSG00000204520'
p15
aS'ENSG00000173905'
p16
aS'ENSG00000103888'
p17
aS'ENSG00000134291'
p18
aS'ENSG00000163348'
p19
aS'ENSG00000166821'
p20
aS'ENSG00000154122'
p21
aS'ENSG00000162746'
p22
aS'ENSG00000214106'
p23
aS'ENSG00000184385'
p24
aS'ENSG00000125966'
p25
aS'ENSG00000139780'
p26
aS'ENSG00000134917'
p27
atRp28
ssS'mistyrose'
p29
(dp30
S'driver_genes'
p31
(lp32
(lp33
S'ENSG00000102109'
p34
aFinf
acnumpy.core.multiarray
scalar
p35
(cnumpy
dtype
p36
(S'f8'
I0
I1
tRp37
(I3
S'<'
NNNI-1
I-1
I0
tbS'V\xedk\x0f\xb9\xach?'
tRp38
ag35
(g37
S'@\xcf\x17kIs\x82?'
tRp39
aa(lp40
S'ENSG00000253457'
p41
aFinf
ag35
(g37
S'\xc6\xe5k\x0f\xb9\xacx?'
tRp42
ag35
(g37
S'@\xcf\x17kIs\x82?'
tRp43
aa(lp44
S'ENSG00000110148'
p45
aFinf
ag35
(g37
S'V\xedk\x0f\xb9\xach?'
tRp46
ag35
(g37
S'@\xcf\x17kIs\x82?'
tRp47
aasg4
g5
((lp48
S'ENSG00000239704'
p49
aS'ENSG00000164048'
p50
aS'ENSG00000116497'
p51
aS'ENSG00000215012'
p52
aS'ENSG00000267260'
p53
aS'ENSG00000168778'
p54
aS'ENSG00000172954'
p55
aS'ENSG00000125409'
p56
aS'ENSG00000161888'
p57
aS'ENSG00000173404'
p58
aS'ENSG00000128536'
p59
atRp60
ssS'orange4'
p61
(dp62
g31
(lp63
(lp64
S'ENSG00000120057'
p65
aFinf
ag35
(g37
S'\xb5\xe8k\x0f\xb9\xach?'
tRp66
ag35
(g37
S'@H\xcd!{\xa8\x8e?'
tRp67
aa(lp68
S'ENSG00000115290'
p69
aFinf
ag35
(g37
S'\xb5\xe8k\x0f\xb9\xach?'
tRp70
ag35
(g37
S'@H\xcd!{\xa8\x8e?'
tRp71
aa(lp72
S'ENSG00000122574'
p73
ag35
(g37
S'\x00\x00\x00\x00\x00\xa8\x84@'
tRp74
ag35
(g37
S'\xa6\xc6\xc6\x8a\xf5\xa7x?'
tRp75
ag35
(g37
S'\x00}\x81\xb8\x87a\x92?'
tRp76
aa(lp77
S'ENSG00000159399'
p78
ag35
(g37
S'\x00\x00\x00\x00\x00\xa0t@'
tRp79
ag35
(g37
S'`>\x99\x84ez\x82?'
tRp80
ag35
(g37
S'\x00}\x81\xb8\x87a\x92?'
tRp81
aa(lp82
S'ENSG00000130037'
p83
ag35
(g37
S'\x00\x00\x00\x00\x00\xa8\x84@'
tRp84
ag35
(g37
S'\xa6\xc6\xc6\x8a\xf5\xa7x?'
tRp85
ag35
(g37
S'\x00}\x81\xb8\x87a\x92?'
tRp86
aasg4
g5
((lp87
S'ENSG00000141526'
p88
aS'ENSG00000120925'
p89
aS'ENSG00000115364'
p90
aS'ENSG00000169738'
p91
aS'ENSG00000117528'
p92
aS'ENSG00000183682'
p93
aS'ENSG00000067208'
p94
aS'ENSG00000215271'
p95
aS'ENSG00000135100'
p96
aS'ENSG00000204147'
p97
atRp98
ssS'firebrick'
p99
(dp100
g4
g5
((lp101
S'ENSG00000204514'
p102
aS'ENSG00000196644'
p103
aS'ENSG00000114030'
p104
aS'ENSG00000198150'
p105
aS'ENSG00000143207'
p106
aS'ENSG00000152348'
p107
aS'ENSG00000214114'
p108
aS'ENSG00000235705'
p109
aS'ENSG00000162959'
p110
aS'ENSG00000125388'
p111
atRp112
ssS'indianred'
p113
(dp114
g4
g5
((lp115
S'ENSG00000152219'
p116
aS'ENSG00000143106'
p117
aS'ENSG00000187605'
p118
aS'ENSG00000130943'
p119
aS'ENSG00000101493'
p120
aS'ENSG00000181240'
p121
aS'ENSG00000130695'
p122
aS'ENSG00000101236'
p123
aS'ENSG00000090273'
p124
atRp125
ssS'orange1'
p126
(dp127
g4
g5
((lp128
S'ENSG00000172613'
p129
aS'ENSG00000142632'
p130
aS'ENSG00000213402'
p131
aS'ENSG00000106443'
p132
aS'ENSG00000204377'
p133
aS'ENSG00000010539'
p134
aS'ENSG00000129946'
p135
aS'ENSG00000077380'
p136
atRp137
ssS'violetred1'
p138
(dp139
g4
g5
((lp140
S'ENSG00000145506'
p141
aS'ENSG00000134899'
p142
aS'ENSG00000147481'
p143
aS'ENSG00000218739'
p144
aS'ENSG00000204442'
p145
aS'ENSG00000171634'
p146
atRp147
ssS'orange3'
p148
(dp149
g31
(lp150
(lp151
S'ENSG00000163624'
p152
ag35
(g37
S'\x00\x00\x00\x00\x00\xa0t@'
tRp153
ag35
(g37
S'`>\x99\x84ez\x82?'
tRp154
ag35
(g37
S'\xc0g\xe4(\xf6\x94\x88?'
tRp155
aa(lp156
S'ENSG00000101144'
p157
ag35
(g37
S'\x00\x00\x00\x00\x00\xa8\x84@'
tRp158
ag35
(g37
S'\xa6\xc6\xc6\x8a\xf5\xa7x?'
tRp159
ag35
(g37
S'\xc0g\xe4(\xf6\x94\x88?'
tRp160
aasg4
g5
((lp161
S'ENSG00000147996'
p162
aS'ENSG00000168872'
p163
aS'ENSG00000160886'
p164
aS'ENSG00000171759'
p165
aS'ENSG00000169684'
p166
aS'ENSG00000114115'
p167
aS'ENSG00000136819'
p168
aS'ENSG00000066651'
p169
aS'ENSG00000234465'
p170
atRp171
ssS'orange2'
p172
(dp173
g31
(lp174
(lp175
S'ENSG00000198753'
p176
aFinf
ag35
(g37
S'\xa9\xe8k\x0f\xb9\xacX?'
tRp177
ag35
(g37
S'\x80k\xfe\xa5\xbdo\x82?'
tRp178
aa(lp179
S'ENSG00000103569'
p180
aFinf
ag35
(g37
S'\xa9\xe8k\x0f\xb9\xacX?'
tRp181
ag35
(g37
S'\x80k\xfe\xa5\xbdo\x82?'
tRp182
aa(lp183
S'ENSG00000108381'
p184
aFinf
ag35
(g37
S'\xa9\xe8k\x0f\xb9\xacX?'
tRp185
ag35
(g37
S'\x80k\xfe\xa5\xbdo\x82?'
tRp186
aa(lp187
S'ENSG00000169247'
p188
aFinf
ag35
(g37
S'\x8e\xee\x90\xcb\x8a\x81\x82?'
tRp189
ag35
(g37
S'\xe0\xdf\xa2\x01K\x82\x9b?'
tRp190
aa(lp191
S'ENSG00000091513'
p192
aFinf
ag35
(g37
S'\x8e\xee\x90\xcb\x8a\x81\x82?'
tRp193
ag35
(g37
S'\xe0\xdf\xa2\x01K\x82\x9b?'
tRp194
aa(lp195
S'ENSG00000086205'
p196
aFinf
ag35
(g37
S'\x8e\xee\x90\xcb\x8a\x81\x82?'
tRp197
ag35
(g37
S'\xe0\xdf\xa2\x01K\x82\x9b?'
tRp198
aasg4
g5
((lp199
S'ENSG00000198734'
p200
aS'ENSG00000214193'
p201
aS'ENSG00000167280'
p202
aS'ENSG00000111665'
p203
aS'ENSG00000111664'
p204
aS'ENSG00000161905'
p205
aS'ENSG00000124243'
p206
aS'ENSG00000138777'
p207
atRp208
ssS'darkolivegreen'
p209
(dp210
g4
g5
((lp211
S'ENSG00000169330'
p212
aS'ENSG00000077044'
p213
aS'ENSG00000104043'
p214
aS'ENSG00000215475'
p215
aS'ENSG00000169429'
p216
aS'ENSG00000168890'
p217
aS'ENSG00000172346'
p218
aS'ENSG00000170325'
p219
aS'ENSG00000155755'
p220
aS'ENSG00000173083'
p221
aS'ENSG00000204969'
p222
aS'ENSG00000170049'
p223
aS'ENSG00000113269'
p224
aS'ENSG00000180891'
p225
aS'ENSG00000169122'
p226
aS'ENSG00000119283'
p227
atRp228
ssS'grey60'
p229
(dp230
g4
g5
((lp231
S'ENSG00000057468'
p232
aS'ENSG00000135541'
p233
aS'ENSG00000123975'
p234
aS'ENSG00000076248'
p235
aS'ENSG00000117266'
p236
aS'ENSG00000153944'
p237
aS'ENSG00000215018'
p238
aS'ENSG00000145794'
p239
aS'ENSG00000064655'
p240
aS'ENSG00000170989'
p241
aS'ENSG00000198574'
p242
aS'ENSG00000137936'
p243
aS'ENSG00000204084'
p244
aS'ENSG00000178722'
p245
aS'ENSG00000100483'
p246
aS'ENSG00000124145'
p247
aS'ENSG00000188269'
p248
aS'ENSG00000122952'
p249
aS'ENSG00000181027'
p250
atRp251
ssS'darkseagreen'
p252
(dp253
g4
g5
((lp254
S'ENSG00000205078'
p255
aS'ENSG00000145979'
p256
aS'ENSG00000100360'
p257
aS'ENSG00000175066'
p258
aS'ENSG00000075131'
p259
aS'ENSG00000154781'
p260
aS'ENSG00000146350'
p261
aS'ENSG00000152670'
p262
aS'ENSG00000126088'
p263
atRp264
ssS'mediumorchid4'
p265
(dp266
g31
(lp267
(lp268
S'ENSG00000086506'
p269
aFinf
ag35
(g37
S'\x9b\x13\xbf9\x97\xd1\x07?'
tRp270
ag35
(g37
S'\x00PR.\xaa\xd64?'
tRp271
aa(lp272
S'ENSG00000151948'
p273
ag35
(g37
S'\xab\xaa\xaa\xaa\xaaj{@'
tRp274
ag35
(g37
S'Y:\xb8r`\xcf!?'
tRp275
ag35
(g37
S'\x00(j\x08\xbe\xb4J?'
tRp276
aa(lp277
S'ENSG00000008056'
p278
ag35
(g37
S'\x00\x00\x00\x00\x00`k@'
tRp279
ag35
(g37
S'\xd2\xe8\xe3\x80\x97\xc11?'
tRp280
ag35
(g37
S'\x00Pzb\xe9.V?'
tRp281
aa(lp282
S'ENSG00000020129'
p283
ag35
(g37
S'\xab\xaa\xaa\xaa\xaaJ[@'
tRp284
ag35
(g37
S'z\xa2p\x11\xa5\x0fF?'
tRp285
ag35
(g37
S'\x00\x122\xa5\xf1\tf?'
tRp286
aa(lp287
S'ENSG00000174482'
p288
ag35
(g37
S'\x00\x00\x00\x00\x00\x90d@'
tRp289
ag35
(g37
S'6$\r\xbc\x15\xc0\x8e?'
tRp290
ag35
(g37
S'@\xcc<br\xf5\x96?'
tRp291
aa(lp292
S'ENSG00000089558'
p293
aFinf
ag35
(g37
S'\xeb\xe2FS\xe7\xd7~?'
tRp294
ag35
(g37
S'@\xcc<br\xf5\x96?'
tRp295
aa(lp296
S'ENSG00000174473'
p297
aFinf
ag35
(g37
S'\xeb\xe2FS\xe7\xd7~?'
tRp298
ag35
(g37
S'@\xcc<br\xf5\x96?'
tRp299
aasg4
g5
((lp300
S'ENSG00000164362'
p301
aS'ENSG00000172232'
p302
aS'ENSG00000196415'
p303
aS'ENSG00000178078'
p304
aS'ENSG00000106460'
p305
aS'ENSG00000113555'
p306
aS'ENSG00000177551'
p307
aS'ENSG00000255529'
p308
aS'ENSG00000001167'
p309
aS'ENSG00000135597'
p310
atRp311
ssS'pink2'
p312
(dp313
g4
g5
((lp314
S'ENSG00000106477'
p315
aS'ENSG00000049860'
p316
aS'ENSG00000205744'
p317
aS'ENSG00000155252'
p318
aS'ENSG00000171160'
p319
aS'ENSG00000157214'
p320
aS'ENSG00000132837'
p321
aS'ENSG00000126882'
p322
aS'ENSG00000169641'
p323
aS'ENSG00000172667'
p324
atRp325
ssS'green4'
p326
(dp327
g4
g5
((lp328
S'ENSG00000101331'
p329
aS'ENSG00000174695'
p330
aS'ENSG00000150625'
p331
aS'ENSG00000109919'
p332
aS'ENSG00000173272'
p333
aS'ENSG00000175161'
p334
aS'ENSG00000103502'
p335
aS'ENSG00000025708'
p336
aS'ENSG00000203666'
p337
aS'ENSG00000141569'
p338
aS'ENSG00000156687'
p339
atRp340
ssS'green1'
p341
(dp342
g31
(lp343
(lp344
S'ENSG00000157152'
p345
aFinf
ag35
(g37
S'\x97\xee\x90\xcb\x8a\x81r?'
tRp346
ag35
(g37
S'\xc0\xc9a\xd0*\xf3\x9f?'
tRp347
aa(lp348
S'ENSG00000139970'
p349
aFinf
ag35
(g37
S'\x97\xee\x90\xcb\x8a\x81r?'
tRp350
ag35
(g37
S'\xc0\xc9a\xd0*\xf3\x9f?'
tRp351
aa(lp352
S'ENSG00000152932'
p353
aFinf
ag35
(g37
S'\x97\xee\x90\xcb\x8a\x81r?'
tRp354
ag35
(g37
S'\xc0\xc9a\xd0*\xf3\x9f?'
tRp355
aa(lp356
S'ENSG00000149970'
p357
aFinf
ag35
(g37
S'\x97\xee\x90\xcb\x8a\x81r?'
tRp358
ag35
(g37
S'\xc0\xc9a\xd0*\xf3\x9f?'
tRp359
aa(lp360
S'ENSG00000156687'
p361
ag35
(g37
S'\x00\x00\x00\x00\x00\xa0t@'
tRp362
ag35
(g37
S'rE\x99\x84ez\x82?'
tRp363
ag35
(g37
S'\xc0\xc9a\xd0*\xf3\x9f?'
tRp364
aa(lp365
S'ENSG00000109686'
p366
ag35
(g37
S'\x00\x00\x00\x00\x00\x98d@'
tRp367
ag35
(g37
S'\x9b(\xd7\x1f\xe3\xac\x8b?'
tRp368
ag35
(g37
S'\xc0\xc9a\xd0*\xf3\x9f?'
tRp369
aa(lp370
S'ENSG00000136531'
p371
ag35
(g37
S'fffffF@@'
tRp372
ag35
(g37
S'\x86\xe6\x1bDP\x10\xa9?'
tRp373
ag35
(g37
S'\x80\xe6\x1bDP\x10\xa9?'
tRp374
aasg4
g5
((lp375
S'ENSG00000163586'
p376
aS'ENSG00000031003'
p377
aS'ENSG00000127870'
p378
aS'ENSG00000165124'
p379
aS'ENSG00000160360'
p380
aS'ENSG00000183379'
p381
aS'ENSG00000100336'
p382
aS'ENSG00000239672'
p383
aS'ENSG00000146386'
p384
atRp385
ssS'green3'
p386
(dp387
g4
g5
((lp388
S'ENSG00000123689'
p389
aS'ENSG00000103876'
p390
aS'ENSG00000037637'
p391
aS'ENSG00000184939'
p392
aS'ENSG00000134020'
p393
aS'ENSG00000117480'
p394
aS'ENSG00000177084'
p395
aS'ENSG00000109339'
p396
aS'ENSG00000239900'
p397
aS'ENSG00000183696'
p398
atRp399
ssS'green2'
p400
(dp401
g4
g5
((lp402
S'ENSG00000137216'
p403
aS'ENSG00000213471'
p404
aS'ENSG00000162426'
p405
aS'ENSG00000148824'
p406
aS'ENSG00000096093'
p407
aS'ENSG00000170509'
p408
aS'ENSG00000186792'
p409
aS'ENSG00000027847'
p410
aS'ENSG00000169087'
p411
atRp412
ssS'darkgoldenrod4'
p413
(dp414
g31
(lp415
(lp416
S'ENSG00000105137'
p417
ag35
(g37
S'\x00\x00\x00\x00\x00\x90d@'
tRp418
ag35
(g37
S'\xd6#\r\xbc\x15\xc0\x8e?'
tRp419
ag35
(g37
S'\xa0I\xb6\xe4\xdb\xb7\xa6?'
tRp420
aa(lp421
S'ENSG00000128283'
p422
ag35
(g37
S'\xcd\xcc\xcc\xcc\xccl`@'
tRp423
ag35
(g37
S'\xb0\xaa%\x9a\xado\x92?'
tRp424
ag35
(g37
S'\xa0I\xb6\xe4\xdb\xb7\xa6?'
tRp425
aa(lp426
S'ENSG00000197256'
p427
ag35
(g37
S'\xcd\xcc\xcc\xcc\xccl`@'
tRp428
ag35
(g37
S'\xb0\xaa%\x9a\xado\x92?'
tRp429
ag35
(g37
S'\xa0I\xb6\xe4\xdb\xb7\xa6?'
tRp430
aasg4
g5
((lp431
S'ENSG00000060558'
p432
aS'ENSG00000254997'
p433
aS'ENSG00000176845'
p434
aS'ENSG00000174948'
p435
aS'ENSG00000100300'
p436
aS'ENSG00000116132'
p437
aS'ENSG00000179403'
p438
aS'ENSG00000145002'
p439
aS'ENSG00000138381'
p440
aS'ENSG00000164880'
p441
atRp442
ssS'magenta4'
p443
(dp444
g4
g5
((lp445
S'ENSG00000151572'
p446
aS'ENSG00000065325'
p447
aS'ENSG00000170396'
p448
aS'ENSG00000100814'
p449
aS'ENSG00000172379'
p450
aS'ENSG00000197555'
p451
aS'ENSG00000237765'
p452
aS'ENSG00000070882'
p453
aS'ENSG00000146555'
p454
aS'ENSG00000177990'
p455
aS'ENSG00000056558'
p456
aS'ENSG00000180332'
p457
atRp458
ssS'aquamarine1'
p459
(dp460
g4
g5
((lp461
S'ENSG00000055070'
p462
aS'ENSG00000164346'
p463
aS'ENSG00000000419'
p464
aS'ENSG00000204352'
p465
aS'ENSG00000198315'
p466
aS'ENSG00000214435'
p467
aS'ENSG00000048545'
p468
atRp469
ssS'darkgoldenrod1'
p470
(dp471
g4
g5
((lp472
S'ENSG00000141519'
p473
aS'ENSG00000204038'
p474
aS'ENSG00000119227'
p475
aS'ENSG00000144410'
p476
aS'ENSG00000226174'
p477
aS'ENSG00000109758'
p478
aS'ENSG00000108039'
p479
aS'ENSG00000138798'
p480
atRp481
ssS'magenta1'
p482
(dp483
g4
g5
((lp484
S'ENSG00000114021'
p485
aS'ENSG00000104714'
p486
aS'ENSG00000197472'
p487
aS'ENSG00000243566'
p488
aS'ENSG00000198046'
p489
aS'ENSG00000164078'
p490
aS'ENSG00000135248'
p491
aS'ENSG00000135457'
p492
aS'ENSG00000006451'
p493
atRp494
ssS'aquamarine2'
p495
(dp496
g4
g5
((lp497
S'ENSG00000242612'
p498
aS'ENSG00000266173'
p499
aS'ENSG00000101150'
p500
aS'ENSG00000197748'
p501
aS'ENSG00000164615'
p502
atRp503
ssS'skyblue3'
p504
(dp505
g31
(lp506
(lp507
S'ENSG00000017483'
p508
aFinf
ag35
(g37
S'\xb5\xe8k\x0f\xb9\xach?'
tRp509
ag35
(g37
S' /b~\xee\xb5\xa0?'
tRp510
aa(lp511
S'ENSG00000103196'
p512
aFinf
ag35
(g37
S'\xb5\xe8k\x0f\xb9\xach?'
tRp513
ag35
(g37
S' /b~\xee\xb5\xa0?'
tRp514
aa(lp515
S'ENSG00000123374'
p516
aFinf
ag35
(g37
S'\xb5\xe8k\x0f\xb9\xach?'
tRp517
ag35
(g37
S' /b~\xee\xb5\xa0?'
tRp518
aa(lp519
S'ENSG00000165030'
p520
aFinf
ag35
(g37
S'\xb5\xe8k\x0f\xb9\xach?'
tRp521
ag35
(g37
S' /b~\xee\xb5\xa0?'
tRp522
aa(lp523
S'ENSG00000116717'
p524
aFinf
ag35
(g37
S'\xb5\xe8k\x0f\xb9\xach?'
tRp525
ag35
(g37
S' /b~\xee\xb5\xa0?'
tRp526
aa(lp527
S'ENSG00000075426'
p528
ag35
(g37
S'\x00\x00\x00\x00\x00\xa8\x84@'
tRp529
ag35
(g37
S'\xa6\xc6\xc6\x8a\xf5\xa7x?'
tRp530
ag35
(g37
S'\x90\xfd\xbe0L7\xa2?'
tRp531
aa(lp532
S'ENSG00000221869'
p533
ag35
(g37
S'\x00\x00\x00\x00\x00\xa0t@'
tRp534
ag35
(g37
S'`>\x99\x84ez\x82?'
tRp535
ag35
(g37
S'p\x17\xcd\xfd@\xaf\xa6?'
tRp536
aa(lp537
S'ENSG00000142089'
p538
ag35
(g37
S'\x00\x00\x00\x00\x00\xa0t@'
tRp539
ag35
(g37
S'`>\x99\x84ez\x82?'
tRp540
ag35
(g37
S'p\x17\xcd\xfd@\xaf\xa6?'
tRp541
aa(lp542
S'ENSG00000137767'
p543
ag35
(g37
S'\xcd\xcc\xcc\xcc\xccl`@'
tRp544
ag35
(g37
S'\xb0\xaa%\x9a\xado\x92?'
tRp545
ag35
(g37
S'\xa0I\xb6\xe4\xdb\xb7\xa6?'
tRp546
aa(lp547
S'ENSG00000067182'
p548
ag35
(g37
S'\x00\x00\x00\x00\x00\x90d@'
tRp549
ag35
(g37
S'\xd6#\r\xbc\x15\xc0\x8e?'
tRp550
ag35
(g37
S'\xa0I\xb6\xe4\xdb\xb7\xa6?'
tRp551
aa(lp552
S'ENSG00000213719'
p553
ag35
(g37
S'\xcd\xcc\xcc\xcc\xccLP@'
tRp554
ag35
(g37
S'\xe6\xce\xaa\n\xff\xd5\xa0?'
tRp555
ag35
(g37
S'\xa0I\xb6\xe4\xdb\xb7\xa6?'
tRp556
aasg4
g5
((lp557
S'ENSG00000155380'
p558
aS'ENSG00000099290'
p559
aS'ENSG00000138767'
p560
aS'ENSG00000177076'
p561
aS'ENSG00000129187'
p562
aS'ENSG00000213865'
p563
aS'ENSG00000168389'
p564
aS'ENSG00000076067'
p565
aS'ENSG00000182118'
p566
aS'ENSG00000103550'
p567
aS'ENSG00000006071'
p568
aS'ENSG00000173480'
p569
aS'ENSG00000184005'
p570
aS'ENSG00000051108'
p571
aS'ENSG00000131788'
p572
aS'ENSG00000090376'
p573
atRp574
ssS'navajowhite4'
p575
(dp576
g4
g5
((lp577
S'ENSG00000178222'
p578
aS'ENSG00000156414'
p579
aS'ENSG00000134962'
p580
aS'ENSG00000238243'
p581
aS'ENSG00000162989'
p582
aS'ENSG00000137877'
p583
aS'ENSG00000145965'
p584
aS'ENSG00000141551'
p585
aS'ENSG00000143466'
p586
atRp587
ssS'black'
p588
(dp589
g31
(lp590
(lp591
S'ENSG00000081277'
p592
ag35
(g37
S'\x00\x00\x00\x00\x00\x90d@'
tRp593
ag35
(g37
S'\xd6#\r\xbc\x15\xc0\x8e?'
tRp594
ag35
(g37
S'\xc03\x82h\xfc\x84\x9e?'
tRp595
aa(lp596
S'ENSG00000188508'
p597
ag35
(g37
S'I\x92$I\x92dW@'
tRp598
ag35
(g37
S'5\xdc\xe7n`\x8b\x98?'
tRp599
ag35
(g37
S'\xc03\x82h\xfc\x84\x9e?'
tRp600
aasg4
g5
((lp601
S'ENSG00000148225'
p602
aS'ENSG00000198093'
p603
aS'ENSG00000105549'
p604
aS'ENSG00000182552'
p605
aS'ENSG00000111254'
p606
aS'ENSG00000023228'
p607
aS'ENSG00000108591'
p608
aS'ENSG00000116874'
p609
aS'ENSG00000132259'
p610
aS'ENSG00000178363'
p611
aS'ENSG00000156599'
p612
aS'ENSG00000242247'
p613
aS'ENSG00000180481'
p614
aS'ENSG00000204963'
p615
aS'ENSG00000099330'
p616
aS'ENSG00000008405'
p617
aS'ENSG00000239665'
p618
aS'ENSG00000101307'
p619
aS'ENSG00000159884'
p620
aS'ENSG00000169231'
p621
aS'ENSG00000137802'
p622
aS'ENSG00000077348'
p623
aS'ENSG00000169299'
p624
aS'ENSG00000103248'
p625
aS'ENSG00000159239'
p626
aS'ENSG00000204172'
p627
atRp628
ssS'mediumorchid3'
p629
(dp630
g31
(lp631
(lp632
S'ENSG00000105695'
p633
ag35
(g37
S'\xcd\xcc\xcc\xcc\xccl`@'
tRp634
ag35
(g37
S'\xb0\xaa%\x9a\xado\x92?'
tRp635
ag35
(g37
S'\x00|.\x15\x8dx\x98?'
tRp636
aa(lp637
S'ENSG00000067066'
p638
ag35
(g37
S'UUUUUuk@'
tRp639
ag35
(g37
S'\xc5i|\x81n\x9e\x88?'
tRp640
ag35
(g37
S'\x00|.\x15\x8dx\x98?'
tRp641
aasg4
g5
((lp642
S'ENSG00000105618'
p643
aS'ENSG00000158545'
p644
aS'ENSG00000151651'
p645
aS'ENSG00000124383'
p646
aS'ENSG00000115919'
p647
aS'ENSG00000115816'
p648
aS'ENSG00000215612'
p649
aS'ENSG00000131591'
p650
aS'ENSG00000112874'
p651
atRp652
ssS'yellow2'
p653
(dp654
g31
(lp655
(lp656
S'ENSG00000152822'
p657
aFinf
ag35
(g37
S'\xb5\xe8k\x0f\xb9\xach?'
tRp658
ag35
(g37
S'@p\x84\xa1=\x90\x88?'
tRp659
aa(lp660
S'ENSG00000240204'
p661
ag35
(g37
S'\x00\x00\x00\x00\x00\xa0t@'
tRp662
ag35
(g37
S'`>\x99\x84ez\x82?'
tRp663
ag35
(g37
S'\xa0\xc3\x15k\xc4w\x9b?'
tRp664
aasg4
g5
((lp665
S'ENSG00000198130'
p666
aS'ENSG00000205670'
p667
aS'ENSG00000179902'
p668
aS'ENSG00000186166'
p669
aS'ENSG00000107651'
p670
aS'ENSG00000112053'
p671
aS'ENSG00000212719'
p672
aS'ENSG00000250486'
p673
aS'ENSG00000105136'
p674
aS'ENSG00000157379'
p675
aS'ENSG00000139631'
p676
atRp677
ssS'orange'
p678
(dp679
g4
g5
((lp680
S'ENSG00000178031'
p681
aS'ENSG00000137103'
p682
aS'ENSG00000163736'
p683
aS'ENSG00000180667'
p684
aS'ENSG00000111269'
p685
aS'ENSG00000172986'
p686
aS'ENSG00000170802'
p687
aS'ENSG00000182362'
p688
aS'ENSG00000169967'
p689
aS'ENSG00000165997'
p690
aS'ENSG00000100802'
p691
aS'ENSG00000165271'
p692
aS'ENSG00000118004'
p693
aS'ENSG00000165887'
p694
aS'ENSG00000151360'
p695
aS'ENSG00000177595'
p696
aS'ENSG00000114796'
p697
aS'ENSG00000215041'
p698
atRp699
ssS'mediumorchid2'
p700
(dp701
g31
(lp702
(lp703
S'ENSG00000198844'
p704
aFinf
ag35
(g37
S'\xb5\xe8k\x0f\xb9\xach?'
tRp705
ag35
(g37
S'\xa0%\x8aFKm\x9b?'
tRp706
aa(lp707
S'ENSG00000099260'
p708
aFinf
ag35
(g37
S'\xb5\xe8k\x0f\xb9\xach?'
tRp709
ag35
(g37
S'\xa0%\x8aFKm\x9b?'
tRp710
aa(lp711
S'ENSG00000157510'
p712
aFinf
ag35
(g37
S'\xb5\xe8k\x0f\xb9\xach?'
tRp713
ag35
(g37
S'\xa0%\x8aFKm\x9b?'
tRp714
aa(lp715
S'ENSG00000173269'
p716
ag35
(g37
S'\x00\x00\x00\x00\x00\xa0t@'
tRp717
ag35
(g37
S'`>\x99\x84ez\x82?'
tRp718
ag35
(g37
S'\x90\xfd\xbe0L7\xa2?'
tRp719
aa(lp720
S'ENSG00000174059'
p721
ag35
(g37
S'\x00\x00\x00\x00\x00\xa8\x84@'
tRp722
ag35
(g37
S'\xa6\xc6\xc6\x8a\xf5\xa7x?'
tRp723
ag35
(g37
S'\x90\xfd\xbe0L7\xa2?'
tRp724
aa(lp725
S'ENSG00000104881'
p726
ag35
(g37
S'\x00\x00\x00\x00\x00\xa8\x84@'
tRp727
ag35
(g37
S'\xa6\xc6\xc6\x8a\xf5\xa7x?'
tRp728
ag35
(g37
S'\x90\xfd\xbe0L7\xa2?'
tRp729
aa(lp730
S'ENSG00000105974'
p731
ag35
(g37
S'\x00\x00\x00\x00\x00\xa8\x84@'
tRp732
ag35
(g37
S'\xa6\xc6\xc6\x8a\xf5\xa7x?'
tRp733
ag35
(g37
S'\x90\xfd\xbe0L7\xa2?'
tRp734
aa(lp735
S'ENSG00000169291'
p736
ag35
(g37
S'\xcd\xcc\xcc\xcc\xccl`@'
tRp737
ag35
(g37
S'\xb0\xaa%\x9a\xado\x92?'
tRp738
ag35
(g37
S'p\xd4\xef\xf50E\xa2?'
tRp739
aasg4
g5
((lp740
S'ENSG00000186529'
p741
aS'ENSG00000168116'
p742
aS'ENSG00000176903'
p743
aS'ENSG00000243709'
p744
aS'ENSG00000161929'
p745
aS'ENSG00000186204'
p746
aS'ENSG00000170949'
p747
aS'ENSG00000196544'
p748
atRp749
ssS'brown'
p750
(dp751
g31
(lp752
(lp753
S'ENSG00000160188'
p754
aFinf
ag35
(g37
S'\xa9\xe8k\x0f\xb9\xacX?'
tRp755
ag35
(g37
S'\x00\xe8k\x0f\xb9\xacX?'
tRp756
aasg4
g5
((lp757
S'ENSG00000172301'
p758
aS'ENSG00000197958'
p759
aS'ENSG00000169826'
p760
aS'ENSG00000124172'
p761
aS'ENSG00000197756'
p762
aS'ENSG00000090263'
p763
aS'ENSG00000141854'
p764
aS'ENSG00000066697'
p765
aS'ENSG00000165502'
p766
aS'ENSG00000108298'
p767
aS'ENSG00000141759'
p768
aS'ENSG00000171858'
p769
aS'ENSG00000182004'
p770
aS'ENSG00000172171'
p771
aS'ENSG00000255098'
p772
aS'ENSG00000118181'
p773
aS'ENSG00000159708'
p774
aS'ENSG00000105193'
p775
aS'ENSG00000130779'
p776
aS'ENSG00000008988'
p777
aS'ENSG00000131469'
p778
aS'ENSG00000161970'
p779
aS'ENSG00000108107'
p780
aS'ENSG00000142937'
p781
aS'ENSG00000143947'
p782
aS'ENSG00000132432'
p783
aS'ENSG00000130684'
p784
aS'ENSG00000181896'
p785
aS'ENSG00000196683'
p786
aS'ENSG00000156482'
p787
aS'ENSG00000126775'
p788
aS'ENSG00000149273'
p789
atRp790
ssS'turquoise'
p791
(dp792
g31
(lp793
(lp794
S'ENSG00000121769'
p795
aFinf
ag35
(g37
S'\xb5\xe8k\x0f\xb9\xach?'
tRp796
ag35
(g37
S' \xee\x86Cpe\x95?'
tRp797
aasg4
g5
((lp798
S'ENSG00000173838'
p799
aS'ENSG00000175334'
p800
aS'ENSG00000213614'
p801
aS'ENSG00000030066'
p802
aS'ENSG00000165219'
p803
aS'ENSG00000140400'
p804
aS'ENSG00000166938'
p805
aS'ENSG00000166971'
p806
aS'ENSG00000103319'
p807
aS'ENSG00000186468'
p808
aS'ENSG00000103479'
p809
aS'ENSG00000183172'
p810
aS'ENSG00000123179'
p811
aS'ENSG00000140948'
p812
aS'ENSG00000104938'
p813
aS'ENSG00000112695'
p814
aS'ENSG00000164172'
p815
aS'ENSG00000036448'
p816
aS'ENSG00000125122'
p817
aS'ENSG00000180953'
p818
aS'ENSG00000130348'
p819
aS'ENSG00000126790'
p820
aS'ENSG00000120860'
p821
aS'ENSG00000174950'
p822
aS'ENSG00000104979'
p823
aS'ENSG00000126267'
p824
aS'ENSG00000008838'
p825
aS'ENSG00000145390'
p826
aS'ENSG00000183831'
p827
aS'ENSG00000177000'
p828
aS'ENSG00000204351'
p829
aS'ENSG00000170906'
p830
aS'ENSG00000054148'
p831
aS'ENSG00000173113'
p832
aS'ENSG00000129197'
p833
atRp834
ssS'purple2'
p835
(dp836
g31
(lp837
(lp838
S'ENSG00000186868'
p839
ag35
(g37
S'UUUUUuk@'
tRp840
ag35
(g37
S'\xc5i|\x81n\x9e\x88?'
tRp841
ag35
(g37
S'\xa0\xc3\x15k\xc4w\x9b?'
tRp842
aa(lp843
S'ENSG00000151967'
p844
ag35
(g37
S'\x00\x00\x00\x00\x00\xa0t@'
tRp845
ag35
(g37
S'`>\x99\x84ez\x82?'
tRp846
ag35
(g37
S'\xa0\xc3\x15k\xc4w\x9b?'
tRp847
aa(lp848
S'ENSG00000110675'
p849
ag35
(g37
S'\x00\x00\x00\x00\x00\xa0t@'
tRp850
ag35
(g37
S'`>\x99\x84ez\x82?'
tRp851
ag35
(g37
S'\xa0\xc3\x15k\xc4w\x9b?'
tRp852
aasg4
g5
((lp853
S'ENSG00000088448'
p854
aS'ENSG00000010282'
p855
aS'ENSG00000150455'
p856
aS'ENSG00000101639'
p857
aS'ENSG00000113722'
p858
aS'ENSG00000172845'
p859
aS'ENSG00000158109'
p860
aS'ENSG00000102882'
p861
aS'ENSG00000110455'
p862
aS'ENSG00000176927'
p863
atRp864
ssS'antiquewhite3'
p865
(dp866
g31
(lp867
(lp868
S'ENSG00000148600'
p869
aFinf
ag35
(g37
S'\xb5\xe8k\x0f\xb9\xach?'
tRp870
ag35
(g37
S'\x00\xe9k\x0f\xb9\xach?'
tRp871
aasg4
g5
((lp872
S'ENSG00000030110'
p873
aS'ENSG00000160190'
p874
aS'ENSG00000232838'
p875
aS'ENSG00000162430'
p876
aS'ENSG00000205795'
p877
aS'ENSG00000182600'
p878
aS'ENSG00000105929'
p879
aS'ENSG00000125450'
p880
aS'ENSG00000164151'
p881
atRp882
ssS'antiquewhite2'
p883
(dp884
g31
(lp885
(lp886
g716
ag35
(g37
S'\x00\x00\x00\x00\x00\x98\x84@'
tRp887
ag35
(g37
S'\xca\xe0\x7fS\xc7d\x15?'
tRp888
ag35
(g37
S'\x00@\xe7\xe96cE?'
tRp889
aa(lp890
S'ENSG00000105971'
p891
aFinf
ag35
(g37
S'\xc2\xe8k\x0f\xb9\xacx?'
tRp892
ag35
(g37
S'\x90p\x96\xd0=4\xa5?'
tRp893
aasg4
g5
((lp894
S'ENSG00000167608'
p895
aS'ENSG00000134444'
p896
aS'ENSG00000188511'
p897
aS'ENSG00000106018'
p898
aS'ENSG00000186470'
p899
aS'ENSG00000152558'
p900
aS'ENSG00000116016'
p901
aS'ENSG00000146540'
p902
aS'ENSG00000175183'
p903
aS'ENSG00000211455'
p904
aS'ENSG00000116678'
p905
aS'ENSG00000157510'
p906
atRp907
ssS'antiquewhite1'
p908
(dp909
g31
(lp910
(lp911
S'ENSG00000187244'
p912
aFinf
ag35
(g37
S'\x97\xee\x90\xcb\x8a\x81r?'
tRp913
ag35
(g37
S'\xc0K\xb5\xa2L7\xa2?'
tRp914
aa(lp915
S'ENSG00000237341'
p916
aFinf
ag35
(g37
S'\x97\xee\x90\xcb\x8a\x81r?'
tRp917
ag35
(g37
S'\xc0K\xb5\xa2L7\xa2?'
tRp918
aasg4
g5
((lp919
S'ENSG00000027001'
p920
aS'ENSG00000167657'
p921
aS'ENSG00000175711'
p922
aS'ENSG00000122375'
p923
aS'ENSG00000174448'
p924
aS'ENSG00000145476'
p925
aS'ENSG00000088756'
p926
aS'ENSG00000158748'
p927
aS'ENSG00000214491'
p928
aS'ENSG00000240654'
p929
aS'ENSG00000103227'
p930
atRp931
ssS'antiquewhite4'
p932
(dp933
g4
g5
((lp934
S'ENSG00000138778'
p935
aS'ENSG00000087995'
p936
aS'ENSG00000144736'
p937
aS'ENSG00000122548'
p938
aS'ENSG00000168411'
p939
aS'ENSG00000113318'
p940
aS'ENSG00000119559'
p941
aS'ENSG00000104147'
p942
aS'ENSG00000234719'
p943
aS'ENSG00000040531'
p944
aS'ENSG00000108439'
p945
aS'ENSG00000136378'
p946
aS'ENSG00000007062'
p947
aS'ENSG00000167962'
p948
atRp949
ssS'indianred4'
p950
(dp951
g4
g5
((lp952
S'ENSG00000213015'
p953
aS'ENSG00000214946'
p954
aS'ENSG00000153774'
p955
aS'ENSG00000146007'
p956
aS'ENSG00000173210'
p957
aS'ENSG00000056097'
p958
aS'ENSG00000143320'
p959
aS'ENSG00000046604'
p960
aS'ENSG00000122406'
p961
aS'ENSG00000185842'
p962
aS'ENSG00000089248'
p963
aS'ENSG00000015592'
p964
aS'ENSG00000054118'
p965
atRp966
ssS'yellow'
p967
(dp968
g31
(lp969
(lp970
S'ENSG00000066336'
p971
ag35
(g37
S'\x1c\xc7q\x1c\xc7\xf1A@'
tRp972
ag35
(g37
S'\x9f\x01w\xe7eq7?'
tRp973
ag35
(g37
S'\x00\xee0l\xf1i\x84?'
tRp974
aa(lp975
S'ENSG00000162511'
p976
ag35
(g37
S'\x1c\xc7q\x1c\xc7\xf1A@'
tRp977
ag35
(g37
S'\x9f\x01w\xe7eq7?'
tRp978
ag35
(g37
S'\x00\xee0l\xf1i\x84?'
tRp979
aa(lp980
S'ENSG00000101336'
p981
ag35
(g37
S'\t\xed%\xb4\x97\xd07@'
tRp982
ag35
(g37
S'.\xc7\x97\xf8\xd0\xc3M?'
tRp983
ag35
(g37
S' ;\xdfq\x1er\x97?'
tRp984
aa(lp985
S'ENSG00000231389'
p986
ag35
(g37
S'fffffF`@'
tRp987
ag35
(g37
S'K\x8a\x9df\xc7-M?'
tRp988
ag35
(g37
S' ;\xdfq\x1er\x97?'
tRp989
aa(lp990
S'ENSG00000019582'
p991
ag35
(g37
S'fffffF`@'
tRp992
ag35
(g37
S'K\x8a\x9df\xc7-M?'
tRp993
ag35
(g37
S' ;\xdfq\x1er\x97?'
tRp994
aasg4
g5
((lp995
S'ENSG00000124713'
p996
aS'ENSG00000215915'
p997
aS'ENSG00000135390'
p998
aS'ENSG00000170891'
p999
aS'ENSG00000136783'
p1000
aS'ENSG00000181631'
p1001
aS'ENSG00000183549'
p1002
aS'ENSG00000186818'
p1003
aS'ENSG00000066294'
p1004
aS'ENSG00000163131'
p1005
aS'ENSG00000100122'
p1006
aS'ENSG00000218537'
p1007
aS'ENSG00000110876'
p1008
aS'ENSG00000107099'
p1009
aS'ENSG00000176945'
p1010
aS'ENSG00000132434'
p1011
aS'ENSG00000197646'
p1012
aS'ENSG00000163219'
p1013
aS'ENSG00000132744'
p1014
aS'ENSG00000149541'
p1015
aS'ENSG00000130226'
p1016
aS'ENSG00000180448'
p1017
aS'ENSG00000157111'
p1018
aS'ENSG00000082074'
p1019
aS'ENSG00000148143'
p1020
aS'ENSG00000120594'
p1021
aS'ENSG00000101246'
p1022
aS'ENSG00000166928'
p1023
aS'ENSG00000268948'
p1024
aS'ENSG00000073146'
p1025
aS'ENSG00000121895'
p1026
aS'ENSG00000184674'
p1027
atRp1028
ssS'lightsteelblue'
p1029
(dp1030
g4
g5
((lp1031
S'ENSG00000169026'
p1032
aS'ENSG00000184227'
p1033
aS'ENSG00000119673'
p1034
aS'ENSG00000100344'
p1035
aS'ENSG00000177398'
p1036
aS'ENSG00000159267'
p1037
aS'ENSG00000205740'
p1038
aS'ENSG00000116133'
p1039
aS'ENSG00000167858'
p1040
aS'ENSG00000136943'
p1041
aS'ENSG00000139428'
p1042
aS'ENSG00000167183'
p1043
aS'ENSG00000118690'
p1044
atRp1045
ssS'bisque4'
p1046
(dp1047
g31
(lp1048
(lp1049
S'ENSG00000134709'
p1050
ag35
(g37
S'\x00\x00\x00\x00\x00\xa8\x84@'
tRp1051
ag35
(g37
S'\xa6\xc6\xc6\x8a\xf5\xa7x?'
tRp1052
ag35
(g37
S'\xc0g\xe4(\xf6\x94\x88?'
tRp1053
aa(lp1054
S'ENSG00000152128'
p1055
ag35
(g37
S'UUUUUuk@'
tRp1056
ag35
(g37
S'\xc5i|\x81n\x9e\x88?'
tRp1057
ag35
(g37
S'\xc0i|\x81n\x9e\x88?'
tRp1058
aasg4
g5
((lp1059
S'ENSG00000157911'
p1060
aS'ENSG00000196584'
p1061
aS'ENSG00000128159'
p1062
aS'ENSG00000198169'
p1063
aS'ENSG00000100288'
p1064
aS'ENSG00000115339'
p1065
aS'ENSG00000139675'
p1066
aS'ENSG00000135127'
p1067
aS'ENSG00000205810'
p1068
aS'ENSG00000106077'
p1069
aS'ENSG00000064999'
p1070
aS'ENSG00000102796'
p1071
aS'ENSG00000214046'
p1072
aS'ENSG00000205809'
p1073
aS'ENSG00000021488'
p1074
atRp1075
ssS'cyan'
p1076
(dp1077
g31
(lp1078
(lp1079
S'ENSG00000227640'
p1080
aFinf
ag35
(g37
S'\xc6\xe5k\x0f\xb9\xacx?'
tRp1081
ag35
(g37
S'@0\x8bU\xb2\x99\x88?'
tRp1082
aa(lp1083
S'ENSG00000121742'
p1084
aFinf
ag35
(g37
S'\xc6\xe5k\x0f\xb9\xacx?'
tRp1085
ag35
(g37
S'@0\x8bU\xb2\x99\x88?'
tRp1086
aasg4
g5
((lp1087
S'ENSG00000132768'
p1088
aS'ENSG00000128218'
p1089
aS'ENSG00000124839'
p1090
aS'ENSG00000167103'
p1091
aS'ENSG00000116586'
p1092
aS'ENSG00000213658'
p1093
aS'ENSG00000078674'
p1094
aS'ENSG00000115325'
p1095
aS'ENSG00000136104'
p1096
aS'ENSG00000123992'
p1097
aS'ENSG00000109854'
p1098
aS'ENSG00000183513'
p1099
aS'ENSG00000188186'
p1100
aS'ENSG00000184983'
p1101
aS'ENSG00000213347'
p1102
aS'ENSG00000176142'
p1103
aS'ENSG00000105088'
p1104
aS'ENSG00000144021'
p1105
aS'ENSG00000066777'
p1106
aS'ENSG00000144026'
p1107
aS'ENSG00000198252'
p1108
atRp1109
ssS'navajowhite3'
p1110
(dp1111
g4
g5
((lp1112
S'ENSG00000103356'
p1113
aS'ENSG00000162782'
p1114
aS'ENSG00000146670'
p1115
aS'ENSG00000171574'
p1116
aS'ENSG00000184117'
p1117
aS'ENSG00000148362'
p1118
aS'ENSG00000104980'
p1119
aS'ENSG00000164338'
p1120
aS'ENSG00000126870'
p1121
aS'ENSG00000121067'
p1122
atRp1123
ssS'mediumorchid1'
p1124
(dp1125
g4
g5
((lp1126
S'ENSG00000093167'
p1127
aS'ENSG00000189171'
p1128
aS'ENSG00000160188'
p1129
aS'ENSG00000139168'
p1130
aS'ENSG00000075407'
p1131
aS'ENSG00000043514'
p1132
aS'ENSG00000158887'
p1133
atRp1134
ssS'bisque1'
p1135
(dp1136
g4
g5
((lp1137
S'ENSG00000113273'
p1138
aS'ENSG00000144035'
p1139
aS'ENSG00000161040'
p1140
aS'ENSG00000120942'
p1141
aS'ENSG00000162736'
p1142
aS'ENSG00000251655'
p1143
atRp1144
ssS'bisque2'
p1145
(dp1146
g31
(lp1147
(lp1148
S'ENSG00000156463'
p1149
aFinf
ag35
(g37
S'\xa9\xe8k\x0f\xb9\xacX?'
tRp1150
ag35
(g37
S'\x00\xbb\xf3`\xf7\xa7h?'
tRp1151
aa(lp1152
S'ENSG00000178038'
p1153
aFinf
ag35
(g37
S'V\xedk\x0f\xb9\xach?'
tRp1154
ag35
(g37
S'\x00\xedk\x0f\xb9\xach?'
tRp1155
aasg4
g5
((lp1156
S'ENSG00000197857'
p1157
aS'ENSG00000064195'
p1158
aS'ENSG00000091527'
p1159
aS'ENSG00000147576'
p1160
aS'ENSG00000159307'
p1161
aS'ENSG00000162086'
p1162
aS'ENSG00000185015'
p1163
atRp1164
ssS'bisque3'
p1165
(dp1166
g31
(lp1167
(lp1168
S'ENSG00000041353'
p1169
aFinf
ag35
(g37
S'\x97\xee\x90\xcb\x8a\x81r?'
tRp1170
ag35
(g37
S'\x80\xee\x90\xcb\x8a\x81r?'
tRp1171
aasg4
g5
((lp1172
S'ENSG00000171130'
p1173
aS'ENSG00000196655'
p1174
aS'ENSG00000151846'
p1175
aS'ENSG00000075673'
p1176
aS'ENSG00000122025'
p1177
aS'ENSG00000129103'
p1178
aS'ENSG00000143437'
p1179
aS'ENSG00000119977'
p1180
atRp1181
ssS'skyblue'
p1182
(dp1183
g4
g5
((lp1184
S'ENSG00000106341'
p1185
aS'ENSG00000157036'
p1186
aS'ENSG00000104213'
p1187
aS'ENSG00000156076'
p1188
aS'ENSG00000164008'
p1189
aS'ENSG00000172728'
p1190
aS'ENSG00000155957'
p1191
aS'ENSG00000046889'
p1192
aS'ENSG00000196072'
p1193
aS'ENSG00000176635'
p1194
aS'ENSG00000169439'
p1195
aS'ENSG00000129347'
p1196
aS'ENSG00000184363'
p1197
aS'ENSG00000101190'
p1198
aS'ENSG00000135318'
p1199
aS'ENSG00000189007'
p1200
aS'ENSG00000138448'
p1201
atRp1202
ssS'darkturquoise'
p1203
(dp1204
g4
g5
((lp1205
S'ENSG00000120647'
p1206
aS'ENSG00000169836'
p1207
aS'ENSG00000140153'
p1208
aS'ENSG00000151806'
p1209
aS'ENSG00000152380'
p1210
aS'ENSG00000259363'
p1211
aS'ENSG00000183346'
p1212
aS'ENSG00000153898'
p1213
aS'ENSG00000152518'
p1214
aS'ENSG00000159202'
p1215
aS'ENSG00000151348'
p1216
aS'ENSG00000116667'
p1217
aS'ENSG00000136918'
p1218
aS'ENSG00000125991'
p1219
aS'ENSG00000171720'
p1220
aS'ENSG00000146285'
p1221
aS'ENSG00000168795'
p1222
aS'ENSG00000186716'
p1223
atRp1224
ssS'cyan1'
p1225
(dp1226
g4
g5
((lp1227
S'ENSG00000151748'
p1228
aS'ENSG00000166529'
p1229
aS'ENSG00000093183'
p1230
aS'ENSG00000173302'
p1231
aS'ENSG00000089250'
p1232
aS'ENSG00000142794'
p1233
aS'ENSG00000136141'
p1234
aS'ENSG00000125863'
p1235
atRp1236
ssS'darkgreen'
p1237
(dp1238
g4
g5
((lp1239
S'ENSG00000135930'
p1240
aS'ENSG00000182809'
p1241
aS'ENSG00000070404'
p1242
aS'ENSG00000165434'
p1243
aS'ENSG00000179528'
p1244
aS'ENSG00000078070'
p1245
aS'ENSG00000237515'
p1246
aS'ENSG00000168754'
p1247
aS'ENSG00000185305'
p1248
aS'ENSG00000166257'
p1249
aS'ENSG00000189129'
p1250
aS'ENSG00000187672'
p1251
aS'ENSG00000162949'
p1252
aS'ENSG00000147408'
p1253
aS'ENSG00000158769'
p1254
aS'ENSG00000243317'
p1255
aS'ENSG00000174145'
p1256
aS'ENSG00000198520'
p1257
atRp1258
ssS'rosybrown4'
p1259
(dp1260
g4
g5
((lp1261
S'ENSG00000109534'
p1262
aS'ENSG00000104859'
p1263
aS'ENSG00000148296'
p1264
aS'ENSG00000081148'
p1265
aS'ENSG00000163811'
p1266
aS'ENSG00000092094'
p1267
aS'ENSG00000180626'
p1268
aS'ENSG00000188234'
p1269
aS'ENSG00000086666'
p1270
atRp1271
ssS'cyan4'
p1272
(dp1273
g31
(lp1274
(lp1275
S'ENSG00000143061'
p1276
aFinf
ag35
(g37
S'\x97\xee\x90\xcb\x8a\x81r?'
tRp1277
ag35
(g37
S'@l\r/\x87r\x9b?'
tRp1278
aa(lp1279
S'ENSG00000076555'
p1280
ag35
(g37
S'\x00\x00\x00\x00\x00\xa0t@'
tRp1281
ag35
(g37
S'rE\x99\x84ez\x82?'
tRp1282
ag35
(g37
S'\xe0\x1f\xcd\xfd@\xaf\xa6?'
tRp1283
aasg4
g5
((lp1284
S'ENSG00000135917'
p1285
aS'ENSG00000185668'
p1286
aS'ENSG00000254531'
p1287
aS'ENSG00000125827'
p1288
aS'ENSG00000146830'
p1289
aS'ENSG00000226887'
p1290
aS'ENSG00000231852'
p1291
atRp1292
ssS'darkviolet'
p1293
(dp1294
g31
(lp1295
(lp1296
S'ENSG00000145623'
p1297
ag35
(g37
S'UUUUUU[@'
tRp1298
ag35
(g37
S'\x98f\x1bu\x1f~\x95?'
tRp1299
ag35
(g37
S'\xa0f\x1bu\x1f~\x95?'
tRp1300
aasg4
g5
((lp1301
S'ENSG00000221949'
p1302
aS'ENSG00000111361'
p1303
aS'ENSG00000088280'
p1304
aS'ENSG00000075568'
p1305
aS'ENSG00000141101'
p1306
aS'ENSG00000159842'
p1307
aS'ENSG00000235478'
p1308
aS'ENSG00000004142'
p1309
aS'ENSG00000135899'
p1310
aS'ENSG00000128928'
p1311
aS'ENSG00000120370'
p1312
aS'ENSG00000053372'
p1313
aS'ENSG00000117226'
p1314
atRp1315
ssS'peachpuff4'
p1316
(dp1317
g4
g5
((lp1318
S'ENSG00000186510'
p1319
aS'ENSG00000134882'
p1320
aS'ENSG00000203805'
p1321
aS'ENSG00000132017'
p1322
aS'ENSG00000123064'
p1323
aS'ENSG00000165752'
p1324
aS'ENSG00000103528'
p1325
aS'ENSG00000118946'
p1326
atRp1327
ssS'steelblue3'
p1328
(dp1329
g31
(lp1330
(lp1331
S'ENSG00000178934'
p1332
aFinf
ag35
(g37
S'\xa9\xe8k\x0f\xb9\xacX?'
tRp1333
ag35
(g37
S'\x80\x83\x980izr?'
tRp1334
aa(lp1335
S'ENSG00000167767'
p1336
aFinf
ag35
(g37
S'\x8e\xee\x90\xcb\x8a\x81\x82?'
tRp1337
ag35
(g37
S'@\xcc\xd7\xd0,\xba\x8e?'
tRp1338
aa(lp1339
S'ENSG00000137699'
p1340
aFinf
ag35
(g37
S'W\xe8FS\xe7\xd7~?'
tRp1341
ag35
(g37
S'@\xcc\xd7\xd0,\xba\x8e?'
tRp1342
aasg4
g5
((lp1343
S'ENSG00000165794'
p1344
aS'ENSG00000168038'
p1345
aS'ENSG00000176386'
p1346
aS'ENSG00000140463'
p1347
aS'ENSG00000125551'
p1348
aS'ENSG00000145757'
p1349
aS'ENSG00000168827'
p1350
atRp1351
ssS'khaki1'
p1352
(dp1353
g4
g5
((lp1354
S'ENSG00000159199'
p1355
aS'ENSG00000105968'
p1356
aS'ENSG00000163349'
p1357
aS'ENSG00000142252'
p1358
aS'ENSG00000021574'
p1359
atRp1360
ssS'slateblue3'
p1361
(dp1362
g4
g5
((lp1363
S'ENSG00000140157'
p1364
aS'ENSG00000171103'
p1365
aS'ENSG00000174547'
p1366
aS'ENSG00000196071'
p1367
aS'ENSG00000111671'
p1368
aS'ENSG00000075336'
p1369
aS'ENSG00000099999'
p1370
aS'ENSG00000101363'
p1371
aS'ENSG00000121289'
p1372
atRp1373
ssS'slateblue2'
p1374
(dp1375
g31
(lp1376
(lp1377
S'ENSG00000197822'
p1378
aFinf
ag35
(g37
S'\xb5\xe8k\x0f\xb9\xach?'
tRp1379
ag35
(g37
S'`"6\xc7\x02^\x92?'
tRp1380
aa(lp1381
S'ENSG00000132429'
p1382
aFinf
ag35
(g37
S'\xb5\xe8k\x0f\xb9\xach?'
tRp1383
ag35
(g37
S'`"6\xc7\x02^\x92?'
tRp1384
aasg4
g5
((lp1385
S'ENSG00000197768'
p1386
aS'ENSG00000181789'
p1387
aS'ENSG00000196365'
p1388
aS'ENSG00000160695'
p1389
aS'ENSG00000160226'
p1390
aS'ENSG00000006744'
p1391
aS'ENSG00000138193'
p1392
aS'ENSG00000089737'
p1393
aS'ENSG00000111077'
p1394
atRp1395
ssS'slateblue1'
p1396
(dp1397
g4
g5
((lp1398
S'ENSG00000134864'
p1399
aS'ENSG00000126602'
p1400
aS'ENSG00000197050'
p1401
aS'ENSG00000187741'
p1402
aS'ENSG00000156711'
p1403
aS'ENSG00000085063'
p1404
aS'ENSG00000180185'
p1405
aS'ENSG00000116171'
p1406
aS'ENSG00000067533'
p1407
aS'ENSG00000149089'
p1408
atRp1409
ssS'indianred1'
p1410
(dp1411
g4
g5
((lp1412
S'ENSG00000183020'
p1413
aS'ENSG00000103194'
p1414
aS'ENSG00000171298'
p1415
aS'ENSG00000147316'
p1416
aS'ENSG00000132740'
p1417
aS'ENSG00000241973'
p1418
aS'ENSG00000112282'
p1419
aS'ENSG00000185187'
p1420
aS'ENSG00000135775'
p1421
aS'ENSG00000185324'
p1422
atRp1423
ssS'lightpink'
p1424
(dp1425
g31
(lp1426
(lp1427
S'ENSG00000132535'
p1428
aFinf
ag35
(g37
S'\xc2\xe8k\x0f\xb9\xacx?'
tRp1429
ag35
(g37
S'\x90p\x96\xd0=4\xa5?'
tRp1430
aasg4
g5
((lp1431
S'ENSG00000106266'
p1432
aS'ENSG00000221890'
p1433
aS'ENSG00000143502'
p1434
aS'ENSG00000032742'
p1435
aS'ENSG00000167100'
p1436
aS'ENSG00000181291'
p1437
aS'ENSG00000100246'
p1438
aS'ENSG00000212127'
p1439
aS'ENSG00000153291'
p1440
atRp1441
ssS'red'
p1442
(dp1443
g4
g5
((lp1444
S'ENSG00000257218'
p1445
aS'ENSG00000248713'
p1446
aS'ENSG00000196821'
p1447
aS'ENSG00000166783'
p1448
aS'ENSG00000180535'
p1449
aS'ENSG00000134202'
p1450
aS'ENSG00000134184'
p1451
aS'ENSG00000260362'
p1452
aS'ENSG00000144118'
p1453
aS'ENSG00000127463'
p1454
aS'ENSG00000063180'
p1455
aS'ENSG00000164647'
p1456
aS'ENSG00000167523'
p1457
aS'ENSG00000196839'
p1458
aS'ENSG00000142892'
p1459
aS'ENSG00000144671'
p1460
aS'ENSG00000108384'
p1461
aS'ENSG00000166535'
p1462
aS'ENSG00000182117'
p1463
aS'ENSG00000163930'
p1464
aS'ENSG00000134463'
p1465
aS'ENSG00000168028'
p1466
aS'ENSG00000159210'
p1467
aS'ENSG00000075826'
p1468
aS'ENSG00000180957'
p1469
aS'ENSG00000256061'
p1470
aS'ENSG00000167272'
p1471
atRp1472
ssS'limegreen'
p1473
(dp1474
g4
g5
((lp1475
S'ENSG00000130717'
p1476
aS'ENSG00000106113'
p1477
aS'ENSG00000147677'
p1478
aS'ENSG00000144895'
p1479
aS'ENSG00000176623'
p1480
aS'ENSG00000205882'
p1481
aS'ENSG00000120675'
p1482
aS'ENSG00000138495'
p1483
atRp1484
ssS'lemonchiffon3'
p1485
(dp1486
g4
g5
((lp1487
S'ENSG00000163634'
p1488
aS'ENSG00000165171'
p1489
aS'ENSG00000173264'
p1490
aS'ENSG00000172687'
p1491
aS'ENSG00000010438'
p1492
aS'ENSG00000203797'
p1493
atRp1494
ssS'darkmagenta'
p1495
(dp1496
g4
g5
((lp1497
S'ENSG00000134245'
p1498
aS'ENSG00000101138'
p1499
aS'ENSG00000027697'
p1500
aS'ENSG00000033100'
p1501
aS'ENSG00000163605'
p1502
aS'ENSG00000112183'
p1503
aS'ENSG00000173930'
p1504
aS'ENSG00000168209'
p1505
aS'ENSG00000141994'
p1506
aS'ENSG00000005801'
p1507
aS'ENSG00000104863'
p1508
aS'ENSG00000108272'
p1509
aS'ENSG00000136144'
p1510
aS'ENSG00000118514'
p1511
aS'ENSG00000138207'
p1512
aS'ENSG00000155313'
p1513
atRp1514
ssS'indianred3'
p1515
(dp1516
g31
(lp1517
(lp1518
S'ENSG00000105642'
p1519
ag35
(g37
S'\x00\x00\x00\x00\x00\xa0t@'
tRp1520
ag35
(g37
S'rE\x99\x84ez\x82?'
tRp1521
ag35
(g37
S'\xe0\x1f\xcd\xfd@\xaf\xa6?'
tRp1522
aasg4
g5
((lp1523
S'ENSG00000138675'
p1524
aS'ENSG00000188596'
p1525
aS'ENSG00000108946'
p1526
aS'ENSG00000138071'
p1527
aS'ENSG00000023516'
p1528
aS'ENSG00000135245'
p1529
aS'ENSG00000155970'
p1530
aS'ENSG00000100614'
p1531
aS'ENSG00000176406'
p1532
aS'ENSG00000185261'
p1533
aS'ENSG00000151320'
p1534
atRp1535
ssS'plum3'
p1536
(dp1537
g4
g5
((lp1538
S'ENSG00000120669'
p1539
aS'ENSG00000171772'
p1540
aS'ENSG00000151690'
p1541
aS'ENSG00000140451'
p1542
aS'ENSG00000183963'
p1543
aS'ENSG00000050438'
p1544
aS'ENSG00000099957'
p1545
aS'ENSG00000104140'
p1546
aS'ENSG00000106868'
p1547
aS'ENSG00000143924'
p1548
aS'ENSG00000146530'
p1549
aS'ENSG00000145736'
p1550
aS'ENSG00000214376'
p1551
atRp1552
ssS'plum2'
p1553
(dp1554
g4
g5
((lp1555
S'ENSG00000106771'
p1556
aS'ENSG00000188321'
p1557
aS'ENSG00000050405'
p1558
aS'ENSG00000176984'
p1559
aS'ENSG00000153132'
p1560
aS'ENSG00000153707'
p1561
aS'ENSG00000174891'
p1562
aS'ENSG00000123352'
p1563
aS'ENSG00000095485'
p1564
aS'ENSG00000172794'
p1565
aS'ENSG00000154975'
p1566
aS'ENSG00000152578'
p1567
aS'ENSG00000136243'
p1568
aS'ENSG00000136235'
p1569
aS'ENSG00000152128'
p1570
atRp1571
ssS'plum1'
p1572
(dp1573
g31
(lp1574
(lp1575
S'ENSG00000133321'
p1576
aFinf
ag35
(g37
S'\xc2\xe8k\x0f\xb9\xacx?'
tRp1577
ag35
(g37
S'@3\x8bU\xb2\x99\x88?'
tRp1578
aa(lp1579
S'ENSG00000244731'
p1580
aFinf
ag35
(g37
S'\xc2\xe8k\x0f\xb9\xacx?'
tRp1581
ag35
(g37
S'@3\x8bU\xb2\x99\x88?'
tRp1582
aasg4
g5
((lp1583
S'ENSG00000233276'
p1584
aS'ENSG00000148634'
p1585
aS'ENSG00000042317'
p1586
aS'ENSG00000160007'
p1587
aS'ENSG00000137558'
p1588
aS'ENSG00000149742'
p1589
aS'ENSG00000134490'
p1590
aS'ENSG00000143155'
p1591
aS'ENSG00000179979'
p1592
aS'ENSG00000160284'
p1593
aS'ENSG00000042286'
p1594
aS'ENSG00000134343'
p1595
aS'ENSG00000163827'
p1596
aS'ENSG00000160282'
p1597
aS'ENSG00000028203'
p1598
aS'ENSG00000163945'
p1599
atRp1600
ssS'lemonchiffon4'
p1601
(dp1602
g4
g5
((lp1603
S'ENSG00000011376'
p1604
aS'ENSG00000204001'
p1605
aS'ENSG00000138036'
p1606
aS'ENSG00000177984'
p1607
aS'ENSG00000124575'
p1608
aS'ENSG00000180921'
p1609
aS'ENSG00000138688'
p1610
atRp1611
ssS'slateblue4'
p1612
(dp1613
g31
(lp1614
(lp1615
S'ENSG00000135423'
p1616
aFinf
ag35
(g37
S'\xa9\xe8k\x0f\xb9\xacX?'
tRp1617
ag35
(g37
S'\x80 \x80\x14(\xc0~?'
tRp1618
aa(lp1619
S'ENSG00000198794'
p1620
aFinf
ag35
(g37
S'\xc6\xe5k\x0f\xb9\xacx?'
tRp1621
ag35
(g37
S'\xe0& z\xdfs\x98?'
tRp1622
aa(lp1623
S'ENSG00000133169'
p1624
aFinf
ag35
(g37
S'W\xe8FS\xe7\xd7~?'
tRp1625
ag35
(g37
S'\xe0& z\xdfs\x98?'
tRp1626
aa(lp1627
S'ENSG00000160963'
p1628
aFinf
ag35
(g37
S'\xc6\xe5k\x0f\xb9\xacx?'
tRp1629
ag35
(g37
S'\xe0& z\xdfs\x98?'
tRp1630
aa(lp1631
S'ENSG00000108309'
p1632
aFinf
ag35
(g37
S'?,\x9a:\xbf\xf6\xa0?'
tRp1633
ag35
(g37
S'@,\x9a:\xbf\xf6\xa0?'
tRp1634
aasg4
g5
((lp1635
S'ENSG00000253368'
p1636
aS'ENSG00000173250'
p1637
aS'ENSG00000173826'
p1638
aS'ENSG00000133789'
p1639
aS'ENSG00000064309'
p1640
aS'ENSG00000175309'
p1641
aS'ENSG00000112584'
p1642
aS'ENSG00000183688'
p1643
atRp1644
ssS'orangered2'
p1645
(dp1646
g31
(lp1647
(lp1648
S'ENSG00000253686'
p1649
aFinf
ag35
(g37
S'V\xedk\x0f\xb9\xach?'
tRp1650
ag35
(g37
S'\x00\x92{\xb25\xa3x?'
tRp1651
aa(lp1652
S'ENSG00000072201'
p1653
aFinf
ag35
(g37
S'\x8e\xee\x90\xcb\x8a\x81\x82?'
tRp1654
ag35
(g37
S'\x80\xee\x90\xcb\x8a\x81\x82?'
tRp1655
aasg4
g5
((lp1656
S'ENSG00000176194'
p1657
aS'ENSG00000156689'
p1658
aS'ENSG00000163006'
p1659
aS'ENSG00000167186'
p1660
aS'ENSG00000105287'
p1661
aS'ENSG00000167077'
p1662
atRp1663
ssS'saddlebrown'
p1664
(dp1665
g4
g5
((lp1666
S'ENSG00000100197'
p1667
aS'ENSG00000179152'
p1668
aS'ENSG00000132681'
p1669
aS'ENSG00000243708'
p1670
aS'ENSG00000071539'
p1671
aS'ENSG00000139405'
p1672
aS'ENSG00000166965'
p1673
aS'ENSG00000130332'
p1674
aS'ENSG00000087338'
p1675
aS'ENSG00000135469'
p1676
aS'ENSG00000172059'
p1677
aS'ENSG00000089050'
p1678
aS'ENSG00000039139'
p1679
aS'ENSG00000106399'
p1680
aS'ENSG00000132600'
p1681
aS'ENSG00000159445'
p1682
aS'ENSG00000114650'
p1683
atRp1684
ssS'lightgoldenrodyellow'
p1685
(dp1686
g31
(lp1687
(lp1688
S'ENSG00000140092'
p1689
aFinf
ag35
(g37
S'\xfa\xea\x90\xcb\x8a\x81r?'
tRp1690
ag35
(g37
S'\x00\x92{\xb25\xa3x?'
tRp1691
aa(lp1692
S'ENSG00000122176'
p1693
aFinf
ag35
(g37
S'V\xedk\x0f\xb9\xach?'
tRp1694
ag35
(g37
S'\x00\x92{\xb25\xa3x?'
tRp1695
aasg4
g5
((lp1696
S'ENSG00000254852'
p1697
aS'ENSG00000183571'
p1698
aS'ENSG00000172345'
p1699
aS'ENSG00000235109'
p1700
aS'ENSG00000196782'
p1701
aS'ENSG00000244414'
p1702
aS'ENSG00000183309'
p1703
aS'ENSG00000143194'
p1704
aS'ENSG00000188897'
p1705
atRp1706
ssS'lavender'
p1707
(dp1708
g31
(lp1709
(lp1710
S'ENSG00000198574'
p1711
aFinf
ag35
(g37
S'\xb5\xe8k\x0f\xb9\xach?'
tRp1712
ag35
(g37
S' /b~\xee\xb5\xa0?'
tRp1713
aasg4
g5
((lp1714
S'ENSG00000188783'
p1715
aS'ENSG00000122859'
p1716
aS'ENSG00000231672'
p1717
aS'ENSG00000185730'
p1718
aS'ENSG00000204947'
p1719
aS'ENSG00000108666'
p1720
aS'ENSG00000197362'
p1721
aS'ENSG00000102967'
p1722
aS'ENSG00000126464'
p1723
atRp1724
ssS'chartreuse3'
p1725
(dp1726
g31
(lp1727
(lp1728
S'ENSG00000088992'
p1729
aFinf
ag35
(g37
S'\x97\xee\x90\xcb\x8a\x81r?'
tRp1730
ag35
(g37
S'\xc0\x0c\x8d,\x88a\x92?'
tRp1731
aa(lp1732
S'ENSG00000179841'
p1733
ag35
(g37
S'ffffffP@'
tRp1734
ag35
(g37
S',\xc0\x08?\xd4\x8c\x9b?'
tRp1735
ag35
(g37
S'\xe0\x11\x19\xf5.z\xa4?'
tRp1736
aa(lp1737
g1055
ag35
(g37
S'\xab\xaa\xaa\xaa\xaaj[@'
tRp1738
ag35
(g37
S'f\x8cs} l\x92?'
tRp1739
ag35
(g37
S'\xe0\x11\x19\xf5.z\xa4?'
tRp1740
aa(lp1741
S'ENSG00000225988'
p1742
ag35
(g37
S'\x00\x00\x00\x00\x00\x98d@'
tRp1743
ag35
(g37
S'\x9b(\xd7\x1f\xe3\xac\x8b?'
tRp1744
ag35
(g37
S'\xe0\x11\x19\xf5.z\xa4?'
tRp1745
aasg4
g5
((lp1746
S'ENSG00000070729'
p1747
aS'ENSG00000128040'
p1748
aS'ENSG00000133313'
p1749
aS'ENSG00000164796'
p1750
aS'ENSG00000012983'
p1751
atRp1752
ssS'lightgoldenrod4'
p1753
(dp1754
g4
g5
((lp1755
S'ENSG00000099250'
p1756
aS'ENSG00000100558'
p1757
aS'ENSG00000197557'
p1758
aS'ENSG00000160606'
p1759
aS'ENSG00000179431'
p1760
aS'ENSG00000103035'
p1761
aS'ENSG00000156990'
p1762
aS'ENSG00000182985'
p1763
atRp1764
ssS'yellowgreen'
p1765
(dp1766
g31
(lp1767
(lp1768
S'ENSG00000204278'
p1769
ag35
(g37
S'\x00\x00\x00\x00\x00\xa8\x84@'
tRp1770
ag35
(g37
S'\xa6\xc6\xc6\x8a\xf5\xa7x?'
tRp1771
ag35
(g37
S'\xe0\xfa\x90\xdb1o\x98?'
tRp1772
aa(lp1773
g1080
ag35
(g37
S'UUUUUuk@'
tRp1774
ag35
(g37
S'\xc5i|\x81n\x9e\x88?'
tRp1775
ag35
(g37
S'`\x8d\xe2\x07;>\xa2?'
tRp1776
aa(lp1777
g1084
ag35
(g37
S'UUUUUuk@'
tRp1778
ag35
(g37
S'\xc5i|\x81n\x9e\x88?'
tRp1779
ag35
(g37
S'`\x8d\xe2\x07;>\xa2?'
tRp1780
aa(lp1781
S'ENSG00000084453'
p1782
ag35
(g37
S'I\x92$I\x92dW@'
tRp1783
ag35
(g37
S'5\xdc\xe7n`\x8b\x98?'
tRp1784
ag35
(g37
S'`\x8d\xe2\x07;>\xa2?'
tRp1785
aasg4
g5
((lp1786
S'ENSG00000166896'
p1787
aS'ENSG00000188677'
p1788
aS'ENSG00000099194'
p1789
aS'ENSG00000188820'
p1790
aS'ENSG00000070423'
p1791
aS'ENSG00000149231'
p1792
aS'ENSG00000130656'
p1793
aS'ENSG00000140577'
p1794
aS'ENSG00000164022'
p1795
aS'ENSG00000164323'
p1796
aS'ENSG00000232859'
p1797
aS'ENSG00000154768'
p1798
aS'ENSG00000020922'
p1799
aS'ENSG00000188811'
p1800
aS'ENSG00000112977'
p1801
aS'ENSG00000211448'
p1802
atRp1803
ssS'orangered1'
p1804
(dp1805
g31
(lp1806
(lp1807
S'ENSG00000198739'
p1808
aFinf
ag35
(g37
S'\xb5\xe8k\x0f\xb9\xach?'
tRp1809
ag35
(g37
S'\xa0%\x8aFKm\x9b?'
tRp1810
aa(lp1811
S'ENSG00000164796'
p1812
aFinf
ag35
(g37
S'\xb5\xe8k\x0f\xb9\xach?'
tRp1813
ag35
(g37
S'\xa0%\x8aFKm\x9b?'
tRp1814
aa(lp1815
S'ENSG00000177380'
p1816
ag35
(g37
S'\x00\x00\x00\x00\x00\xa8\x84@'
tRp1817
ag35
(g37
S'\xa6\xc6\xc6\x8a\xf5\xa7x?'
tRp1818
ag35
(g37
S'0\xbd\x16\xb780\xa5?'
tRp1819
aasg4
g5
((lp1820
S'ENSG00000186230'
p1821
aS'ENSG00000176155'
p1822
aS'ENSG00000154079'
p1823
aS'ENSG00000197841'
p1824
aS'ENSG00000133805'
p1825
aS'ENSG00000131845'
p1826
aS'ENSG00000140323'
p1827
aS'ENSG00000114805'
p1828
aS'ENSG00000117748'
p1829
aS'ENSG00000174453'
p1830
aS'ENSG00000101310'
p1831
aS'ENSG00000167193'
p1832
atRp1833
ssS'royalblue1'
p1834
(dp1835
g4
g5
((lp1836
S'ENSG00000178802'
p1837
aS'ENSG00000127947'
p1838
aS'ENSG00000032219'
p1839
aS'ENSG00000144504'
p1840
aS'ENSG00000100330'
p1841
aS'ENSG00000159111'
p1842
atRp1843
ssS'lightgoldenrod3'
p1844
(dp1845
g4
g5
((lp1846
S'ENSG00000214941'
p1847
aS'ENSG00000166558'
p1848
aS'ENSG00000214194'
p1849
aS'ENSG00000187801'
p1850
aS'ENSG00000188613'
p1851
aS'ENSG00000163702'
p1852
aS'ENSG00000084092'
p1853
atRp1854
ssS'chartreuse4'
p1855
(dp1856
g4
g5
((lp1857
S'ENSG00000148303'
p1858
aS'ENSG00000183291'
p1859
aS'ENSG00000154803'
p1860
aS'ENSG00000176390'
p1861
aS'ENSG00000154889'
p1862
aS'ENSG00000089157'
p1863
aS'ENSG00000235878'
p1864
atRp1865
ssS'darkorchid4'
p1866
(dp1867
g4
g5
((lp1868
S'ENSG00000170419'
p1869
aS'ENSG00000103852'
p1870
aS'ENSG00000166819'
p1871
aS'ENSG00000122378'
p1872
aS'ENSG00000167671'
p1873
aS'ENSG00000164251'
p1874
aS'ENSG00000169507'
p1875
aS'ENSG00000152583'
p1876
atRp1877
ssS'peachpuff3'
p1878
(dp1879
g31
(lp1880
(lp1881
g1624
aFinf
ag35
(g37
S'W\xe8FS\xe7\xd7~?'
tRp1882
ag35
(g37
S'@\xcc\xd7\xd0,\xba\x8e?'
tRp1883
aa(lp1884
g1632
aFinf
ag35
(g37
S'?,\x9a:\xbf\xf6\xa0?'
tRp1885
ag35
(g37
S'@,\x9a:\xbf\xf6\xa0?'
tRp1886
aasg4
g5
((lp1887
S'ENSG00000091592'
p1888
aS'ENSG00000182013'
p1889
aS'ENSG00000198585'
p1890
aS'ENSG00000204525'
p1891
aS'ENSG00000171865'
p1892
aS'ENSG00000198663'
p1893
atRp1894
ssS'violetred4'
p1895
(dp1896
g4
g5
((lp1897
S'ENSG00000115310'
p1898
aS'ENSG00000029363'
p1899
aS'ENSG00000140995'
p1900
aS'ENSG00000013810'
p1901
aS'ENSG00000075790'
p1902
aS'ENSG00000134265'
p1903
aS'ENSG00000075624'
p1904
aS'ENSG00000066654'
p1905
atRp1906
ssS'darkorchid2'
p1907
(dp1908
g4
g5
((lp1909
S'ENSG00000146856'
p1910
aS'ENSG00000128408'
p1911
aS'ENSG00000117000'
p1912
aS'ENSG00000171044'
p1913
aS'ENSG00000198089'
p1914
atRp1915
ssS'darkorchid3'
p1916
(dp1917
g4
g5
((lp1918
S'ENSG00000215845'
p1919
aS'ENSG00000120693'
p1920
aS'ENSG00000183617'
p1921
aS'ENSG00000171421'
p1922
aS'ENSG00000065268'
p1923
aS'ENSG00000177981'
p1924
aS'ENSG00000122687'
p1925
atRp1926
ssS'blue'
p1927
(dp1928
g31
(lp1929
(lp1930
g597
ag35
(g37
S'\x8e\xe38\x8e\xe3\xb8A@'
tRp1931
ag35
(g37
S'AJ\xde\xf0\xd7\x9e\x0e?'
tRp1932
ag35
(g37
S'\x00\xb1~\x86\xd84a?'
tRp1933
aa(lp1934
g1336
ag35
(g37
S'\r\xe55\x94\xd7\xd0@@'
tRp1935
ag35
(g37
S'=\xaa1\xd5\xb3vC?'
tRp1936
ag35
(g37
S'\xa0;\xb0a(\x13\x95?'
tRp1937
aa(lp1938
S'ENSG00000105141'
p1939
aFinf
ag35
(g37
S'\xf6\xee\x15\xc4\xb21Q?'
tRp1940
ag35
(g37
S'\xa0\x89\xd2\x80\xb8\xf4\xa1?'
tRp1941
aasg4
g5
((lp1942
S'ENSG00000121486'
p1943
aS'ENSG00000171401'
p1944
aS'ENSG00000178372'
p1945
aS'ENSG00000112378'
p1946
aS'ENSG00000206075'
p1947
aS'ENSG00000139329'
p1948
aS'ENSG00000109061'
p1949
aS'ENSG00000162244'
p1950
aS'ENSG00000185298'
p1951
aS'ENSG00000167768'
p1952
aS'ENSG00000143520'
p1953
aS'ENSG00000167767'
p1954
aS'ENSG00000186081'
p1955
aS'ENSG00000137857'
p1956
aS'ENSG00000136155'
p1957
aS'ENSG00000173535'
p1958
aS'ENSG00000189045'
p1959
aS'ENSG00000165606'
p1960
aS'ENSG00000163216'
p1961
aS'ENSG00000159516'
p1962
aS'ENSG00000173040'
p1963
aS'ENSG00000143578'
p1964
aS'ENSG00000157119'
p1965
aS'ENSG00000148690'
p1966
aS'ENSG00000137699'
p1967
aS'ENSG00000198854'
p1968
aS'ENSG00000096696'
p1969
aS'ENSG00000133704'
p1970
aS'ENSG00000167656'
p1971
aS'ENSG00000167653'
p1972
aS'ENSG00000134760'
p1973
aS'ENSG00000086967'
p1974
aS'ENSG00000103423'
p1975
atRp1976
ssS'rosybrown2'
p1977
(dp1978
g31
(lp1979
(lp1980
S'ENSG00000197747'
p1981
aFinf
ag35
(g37
S'\xc6\xe5k\x0f\xb9\xacx?'
tRp1982
ag35
(g37
S'`s}`\x0fe\x92?'
tRp1983
aa(lp1984
S'ENSG00000118640'
p1985
aFinf
ag35
(g37
S'\xc6\xe5k\x0f\xb9\xacx?'
tRp1986
ag35
(g37
S'`s}`\x0fe\x92?'
tRp1987
aa(lp1988
S'ENSG00000182718'
p1989
aFinf
ag35
(g37
S'\xc6\xe5k\x0f\xb9\xacx?'
tRp1990
ag35
(g37
S'`s}`\x0fe\x92?'
tRp1991
aasg4
g5
((lp1992
S'ENSG00000014257'
p1993
aS'ENSG00000119636'
p1994
aS'ENSG00000105639'
p1995
aS'ENSG00000125337'
p1996
aS'ENSG00000167721'
p1997
aS'ENSG00000066827'
p1998
aS'ENSG00000104825'
p1999
atRp2000
ssS'seashell2'
p2001
(dp2002
g4
g5
((lp2003
S'ENSG00000162664'
p2004
aS'ENSG00000243646'
p2005
aS'ENSG00000204843'
p2006
aS'ENSG00000142655'
p2007
aS'ENSG00000164308'
p2008
aS'ENSG00000089902'
p2009
atRp2010
ssS'honeydew'
p2011
(dp2012
g4
g5
((lp2013
S'ENSG00000090920'
p2014
aS'ENSG00000113048'
p2015
aS'ENSG00000077684'
p2016
aS'ENSG00000072736'
p2017
aS'ENSG00000140575'
p2018
aS'ENSG00000161618'
p2019
aS'ENSG00000101198'
p2020
aS'ENSG00000204851'
p2021
aS'ENSG00000090316'
p2022
aS'ENSG00000134014'
p2023
aS'ENSG00000186153'
p2024
aS'ENSG00000214871'
p2025
atRp2026
ssS'cornflowerblue'
p2027
(dp2028
g31
(lp2029
(lp2030
g361
ag35
(g37
S'\x00\x00\x00\x00\x00\xa8\x84@'
tRp2031
ag35
(g37
S'\xa6\xc6\xc6\x8a\xf5\xa7x?'
tRp2032
ag35
(g37
S'\x80\xc6\xc6\x8a\xf5\xa7x?'
tRp2033
aasg4
g5
((lp2034
S'ENSG00000156253'
p2035
aS'ENSG00000151640'
p2036
aS'ENSG00000165630'
p2037
aS'ENSG00000122012'
p2038
aS'ENSG00000176222'
p2039
aS'ENSG00000058729'
p2040
aS'ENSG00000160972'
p2041
aS'ENSG00000105447'
p2042
aS'ENSG00000063978'
p2043
aS'ENSG00000198874'
p2044
atRp2045
ssS'khaki3'
p2046
(dp2047
g4
g5
((lp2048
S'ENSG00000214711'
p2049
aS'ENSG00000184178'
p2050
aS'ENSG00000183347'
p2051
aS'ENSG00000074219'
p2052
aS'ENSG00000196118'
p2053
aS'ENSG00000171931'
p2054
aS'ENSG00000122696'
p2055
aS'ENSG00000162144'
p2056
atRp2057
ssS'darkblue'
p2058
(dp2059
g4
g5
((lp2060
S'ENSG00000198075'
p2061
aS'ENSG00000146802'
p2062
aS'ENSG00000138316'
p2063
aS'ENSG00000165819'
p2064
aS'ENSG00000189339'
p2065
aS'ENSG00000123427'
p2066
atRp2067
ssS'mistyrose3'
p2068
(dp2069
g31
(lp2070
(lp2071
S'ENSG00000081923'
p2072
aFinf
ag35
(g37
S'\xa9\xe8k\x0f\xb9\xacX?'
tRp2073
ag35
(g37
S'\x80\x83\x980izr?'
tRp2074
aa(lp2075
S'ENSG00000100427'
p2076
aFinf
ag35
(g37
S'\xa9\xe8k\x0f\xb9\xacX?'
tRp2077
ag35
(g37
S'\x80\x83\x980izr?'
tRp2078
aa(lp2079
S'ENSG00000136297'
p2080
aFinf
ag35
(g37
S'\xfa\xea\x90\xcb\x8a\x81r?'
tRp2081
ag35
(g37
S'\x00\xeb\x90\xcb\x8a\x81r?'
tRp2082
aasg4
g5
((lp2083
S'ENSG00000151876'
p2084
aS'ENSG00000164366'
p2085
aS'ENSG00000157837'
p2086
aS'ENSG00000132661'
p2087
aS'ENSG00000177663'
p2088
aS'ENSG00000122565'
p2089
aS'ENSG00000116176'
p2090
aS'ENSG00000198937'
p2091
aS'ENSG00000170430'
p2092
atRp2093
ssS'olivedrab4'
p2094
(dp2095
g4
g5
((lp2096
S'ENSG00000155749'
p2097
aS'ENSG00000155066'
p2098
aS'ENSG00000064012'
p2099
aS'ENSG00000157322'
p2100
aS'ENSG00000167553'
p2101
aS'ENSG00000141556'
p2102
aS'ENSG00000187688'
p2103
aS'ENSG00000168268'
p2104
atRp2105
ssS'wheat1'
p2106
(dp2107
g4
g5
((lp2108
S'ENSG00000071564'
p2109
aS'ENSG00000182698'
p2110
aS'ENSG00000063438'
p2111
aS'ENSG00000181090'
p2112
aS'ENSG00000119547'
p2113
aS'ENSG00000120519'
p2114
aS'ENSG00000179242'
p2115
aS'ENSG00000111879'
p2116
aS'ENSG00000184949'
p2117
atRp2118
ssS'palevioletred1'
p2119
(dp2120
g4
g5
((lp2121
S'ENSG00000173226'
p2122
aS'ENSG00000143079'
p2123
aS'ENSG00000144455'
p2124
aS'ENSG00000151665'
p2125
aS'ENSG00000103671'
p2126
aS'ENSG00000165650'
p2127
aS'ENSG00000183495'
p2128
aS'ENSG00000137074'
p2129
aS'ENSG00000165934'
p2130
aS'ENSG00000112308'
p2131
aS'ENSG00000144559'
p2132
atRp2133
ssS'palevioletred2'
p2134
(dp2135
g4
g5
((lp2136
S'ENSG00000145198'
p2137
aS'ENSG00000127564'
p2138
aS'ENSG00000153721'
p2139
aS'ENSG00000183250'
p2140
aS'ENSG00000102900'
p2141
aS'ENSG00000164466'
p2142
aS'ENSG00000213937'
p2143
aS'ENSG00000059122'
p2144
aS'ENSG00000116783'
p2145
aS'ENSG00000163933'
p2146
aS'ENSG00000203780'
p2147
aS'ENSG00000015475'
p2148
atRp2149
ssS'palevioletred3'
p2150
(dp2151
g4
g5
((lp2152
S'ENSG00000129292'
p2153
aS'ENSG00000101460'
p2154
aS'ENSG00000197927'
p2155
aS'ENSG00000187815'
p2156
aS'ENSG00000166126'
p2157
aS'ENSG00000119888'
p2158
aS'ENSG00000136522'
p2159
aS'ENSG00000157796'
p2160
aS'ENSG00000070061'
p2161
aS'ENSG00000128266'
p2162
aS'ENSG00000149527'
p2163
aS'ENSG00000116221'
p2164
aS'ENSG00000161904'
p2165
aS'ENSG00000143028'
p2166
atRp2167
ssS'coral3'
p2168
(dp2169
g31
(lp2170
(lp2171
S'ENSG00000168913'
p2172
aFinf
ag35
(g37
S'\xb5\xe8k\x0f\xb9\xach?'
tRp2173
ag35
(g37
S'@H\xcd!{\xa8\x8e?'
tRp2174
aa(lp2175
S'ENSG00000074706'
p2176
ag35
(g37
S'\x00\x00\x00\x00\x00\xa8\x84@'
tRp2177
ag35
(g37
S'\xa6\xc6\xc6\x8a\xf5\xa7x?'
tRp2178
ag35
(g37
S'\xe0\xfa\x90\xdb1o\x98?'
tRp2179
aa(lp2180
S'ENSG00000170579'
p2181
ag35
(g37
S'UUUUUuk@'
tRp2182
ag35
(g37
S'\xc5i|\x81n\x9e\x88?'
tRp2183
ag35
(g37
S'\xa0\xc3\x15k\xc4w\x9b?'
tRp2184
aa(lp2185
S'ENSG00000008277'
p2186
ag35
(g37
S'\x00\x00\x00\x00\x00\xa0t@'
tRp2187
ag35
(g37
S'`>\x99\x84ez\x82?'
tRp2188
ag35
(g37
S'\xa0\xc3\x15k\xc4w\x9b?'
tRp2189
aa(lp2190
g371
ag35
(g37
S'\xcd\xcc\xcc\xcc\xccLP@'
tRp2191
ag35
(g37
S'\xe6\xce\xaa\n\xff\xd5\xa0?'
tRp2192
ag35
(g37
S'\xe0\xce\xaa\n\xff\xd5\xa0?'
tRp2193
aasg4
g5
((lp2194
S'ENSG00000187824'
p2195
aS'ENSG00000142185'
p2196
aS'ENSG00000114446'
p2197
aS'ENSG00000065427'
p2198
aS'ENSG00000164111'
p2199
aS'ENSG00000182272'
p2200
aS'ENSG00000137944'
p2201
aS'ENSG00000103549'
p2202
aS'ENSG00000157191'
p2203
aS'ENSG00000041982'
p2204
aS'ENSG00000134440'
p2205
aS'ENSG00000183684'
p2206
atRp2207
ssS'coral2'
p2208
(dp2209
g31
(lp2210
(lp2211
S'ENSG00000143786'
p2212
aFinf
ag35
(g37
S'\x97\xee\x90\xcb\x8a\x81r?'
tRp2213
ag35
(g37
S'@l\r/\x87r\x9b?'
tRp2214
aa(lp2215
S'ENSG00000114631'
p2216
ag35
(g37
S'\x00\x00\x00\x00\x00\xa0t@'
tRp2217
ag35
(g37
S'rE\x99\x84ez\x82?'
tRp2218
ag35
(g37
S'\xe0\x1f\xcd\xfd@\xaf\xa6?'
tRp2219
aasg4
g5
((lp2220
S'ENSG00000109047'
p2221
aS'ENSG00000108932'
p2222
aS'ENSG00000081665'
p2223
aS'ENSG00000105793'
p2224
aS'ENSG00000142188'
p2225
aS'ENSG00000183397'
p2226
aS'ENSG00000130518'
p2227
aS'ENSG00000138095'
p2228
aS'ENSG00000139641'
p2229
aS'ENSG00000163914'
p2230
aS'ENSG00000143669'
p2231
aS'ENSG00000144579'
p2232
aS'ENSG00000169071'
p2233
aS'ENSG00000005381'
p2234
atRp2235
ssS'coral1'
p2236
(dp2237
g4
g5
((lp2238
S'ENSG00000153822'
p2239
aS'ENSG00000135423'
p2240
aS'ENSG00000108523'
p2241
aS'ENSG00000213246'
p2242
aS'ENSG00000112658'
p2243
aS'ENSG00000178498'
p2244
aS'ENSG00000204866'
p2245
aS'ENSG00000037042'
p2246
aS'ENSG00000130227'
p2247
aS'ENSG00000183891'
p2248
aS'ENSG00000111215'
p2249
aS'ENSG00000109323'
p2250
aS'ENSG00000107819'
p2251
aS'ENSG00000167535'
p2252
atRp2253
ssS'deepskyblue4'
p2254
(dp2255
g31
(lp2256
(lp2257
S'ENSG00000163513'
p2258
aFinf
ag35
(g37
S'\xa9\xe8k\x0f\xb9\xacX?'
tRp2259
ag35
(g37
S'\x80k\xfe\xa5\xbdo\x82?'
tRp2260
aa(lp2261
S'ENSG00000105281'
p2262
aFinf
ag35
(g37
S'\xa9\xe8k\x0f\xb9\xacX?'
tRp2263
ag35
(g37
S'\x80k\xfe\xa5\xbdo\x82?'
tRp2264
aa(lp2265
S'ENSG00000163191'
p2266
aFinf
ag35
(g37
S'\xa9\xe8k\x0f\xb9\xacX?'
tRp2267
ag35
(g37
S'\x80k\xfe\xa5\xbdo\x82?'
tRp2268
aa(lp2269
g731
aFinf
ag35
(g37
S'V\xedk\x0f\xb9\xach?'
tRp2270
ag35
(g37
S'@\xcf\x17kIs\x82?'
tRp2271
aa(lp2272
g638
aFinf
ag35
(g37
S'\xc6\xe5k\x0f\xb9\xacx?'
tRp2273
ag35
(g37
S'@0\x8bU\xb2\x99\x88?'
tRp2274
aa(lp2275
S'ENSG00000164692'
p2276
aFinf
ag35
(g37
S'\x8f`Y1P\xc2\x9b?'
tRp2277
ag35
(g37
S'\x80`Y1P\xc2\x9b?'
tRp2278
aasg4
g5
((lp2279
S'ENSG00000118096'
p2280
aS'ENSG00000100353'
p2281
aS'ENSG00000101444'
p2282
aS'ENSG00000186017'
p2283
aS'ENSG00000141560'
p2284
aS'ENSG00000166825'
p2285
aS'ENSG00000164978'
p2286
aS'ENSG00000155463'
p2287
atRp2288
ssS'rosybrown3'
p2289
(dp2290
g4
g5
((lp2291
S'ENSG00000132436'
p2292
aS'ENSG00000175203'
p2293
aS'ENSG00000145191'
p2294
aS'ENSG00000172175'
p2295
aS'ENSG00000175166'
p2296
aS'ENSG00000138375'
p2297
aS'ENSG00000213551'
p2298
aS'ENSG00000118961'
p2299
atRp2300
ssS'cornsilk'
p2301
(dp2302
g4
g5
((lp2303
S'ENSG00000168803'
p2304
aS'ENSG00000029725'
p2305
aS'ENSG00000014138'
p2306
aS'ENSG00000228716'
p2307
aS'ENSG00000138399'
p2308
aS'ENSG00000083828'
p2309
aS'ENSG00000136813'
p2310
aS'ENSG00000052749'
p2311
aS'ENSG00000133422'
p2312
atRp2313
ssS'indianred2'
p2314
(dp2315
g31
(lp2316
(lp2317
S'ENSG00000157087'
p2318
aFinf
ag35
(g37
S'\xb5\xe8k\x0f\xb9\xach?'
tRp2319
ag35
(g37
S'@\xcc\x17kIs\x82?'
tRp2320
aa(lp2321
S'ENSG00000167971'
p2322
ag35
(g37
S'\xcd\xcc\xcc\xcc\xccl`@'
tRp2323
ag35
(g37
S'\xb0\xaa%\x9a\xado\x92?'
tRp2324
ag35
(g37
S'p\xd4\xef\xf50E\xa2?'
tRp2325
aa(lp2326
S'ENSG00000161082'
p2327
ag35
(g37
S'I\x92$I\x92dW@'
tRp2328
ag35
(g37
S'5\xdc\xe7n`\x8b\x98?'
tRp2329
ag35
(g37
S'p\xd4\xef\xf50E\xa2?'
tRp2330
aasg4
g5
((lp2331
S'ENSG00000176204'
p2332
aS'ENSG00000090686'
p2333
aS'ENSG00000163932'
p2334
aS'ENSG00000011260'
p2335
aS'ENSG00000188981'
p2336
aS'ENSG00000121753'
p2337
aS'ENSG00000010270'
p2338
aS'ENSG00000137806'
p2339
aS'ENSG00000170892'
p2340
aS'ENSG00000110693'
p2341
aS'ENSG00000106392'
p2342
atRp2343
ssS'coral4'
p2344
(dp2345
g4
g5
((lp2346
S'ENSG00000090432'
p2347
aS'ENSG00000141756'
p2348
aS'ENSG00000112297'
p2349
aS'ENSG00000160460'
p2350
aS'ENSG00000136758'
p2351
aS'ENSG00000101076'
p2352
aS'ENSG00000170523'
p2353
aS'ENSG00000111897'
p2354
aS'ENSG00000137124'
p2355
aS'ENSG00000171124'
p2356
aS'ENSG00000138449'
p2357
atRp2358
ssS'lightblue2'
p2359
(dp2360
g31
(lp2361
(lp2362
S'ENSG00000106976'
p2363
aFinf
ag35
(g37
S'\xa9\xe8k\x0f\xb9\xacX?'
tRp2364
ag35
(g37
S'\x80\x890\x1f9~\x85?'
tRp2365
aa(lp2366
S'ENSG00000185518'
p2367
aFinf
ag35
(g37
S'\xa9\xe8k\x0f\xb9\xacX?'
tRp2368
ag35
(g37
S'\x80\x890\x1f9~\x85?'
tRp2369
aa(lp2370
S'ENSG00000198513'
p2371
aFinf
ag35
(g37
S'\xa9\xe8k\x0f\xb9\xacX?'
tRp2372
ag35
(g37
S'\x80\x890\x1f9~\x85?'
tRp2373
aa(lp2374
g2216
aFinf
ag35
(g37
S'V\xedk\x0f\xb9\xach?'
tRp2375
ag35
(g37
S'@t\x84\xa1=\x90\x88?'
tRp2376
aa(lp2377
S'ENSG00000084710'
p2378
aFinf
ag35
(g37
S'\xc6\xe5k\x0f\xb9\xacx?'
tRp2379
ag35
(g37
S'\x80%\x968A\xa2\x8b?'
tRp2380
aa(lp2381
S'ENSG00000183454'
p2382
aFinf
ag35
(g37
S'\xfa\xea\x90\xcb\x8a\x81r?'
tRp2383
ag35
(g37
S'\x80%\x968A\xa2\x8b?'
tRp2384
aa(lp2385
g41
aFinf
ag35
(g37
S'\xc6\xe5k\x0f\xb9\xacx?'
tRp2386
ag35
(g37
S'\x80%\x968A\xa2\x8b?'
tRp2387
aasg4
g5
((lp2388
S'ENSG00000197077'
p2389
aS'ENSG00000163328'
p2390
aS'ENSG00000149582'
p2391
aS'ENSG00000151892'
p2392
aS'ENSG00000175727'
p2393
aS'ENSG00000145365'
p2394
aS'ENSG00000135324'
p2395
aS'ENSG00000138942'
p2396
aS'ENSG00000253276'
p2397
aS'ENSG00000117143'
p2398
atRp2399
ssS'lightblue3'
p2400
(dp2401
g31
(lp2402
(lp2403
S'ENSG00000151917'
p2404
aFinf
ag35
(g37
S'\xa9\xe8k\x0f\xb9\xacX?'
tRp2405
ag35
(g37
S'\x00\xe8k\x0f\xb9\xacX?'
tRp2406
aasg4
g5
((lp2407
S'ENSG00000072041'
p2408
aS'ENSG00000136059'
p2409
aS'ENSG00000144792'
p2410
aS'ENSG00000161180'
p2411
aS'ENSG00000161267'
p2412
aS'ENSG00000113812'
p2413
aS'ENSG00000122512'
p2414
aS'ENSG00000130669'
p2415
aS'ENSG00000161055'
p2416
aS'ENSG00000124587'
p2417
aS'ENSG00000204909'
p2418
atRp2419
ssS'lightblue1'
p2420
(dp2421
g4
g5
((lp2422
S'ENSG00000178226'
p2423
aS'ENSG00000103342'
p2424
aS'ENSG00000161011'
p2425
aS'ENSG00000099800'
p2426
aS'ENSG00000164306'
p2427
aS'ENSG00000124813'
p2428
aS'ENSG00000100726'
p2429
aS'ENSG00000204316'
p2430
aS'ENSG00000132330'
p2431
atRp2432
ssS'lightslateblue'
p2433
(dp2434
g31
(lp2435
(lp2436
S'ENSG00000102452'
p2437
aFinf
ag35
(g37
S'V\xedk\x0f\xb9\xach?'
tRp2438
ag35
(g37
S'\x00\xedk\x0f\xb9\xach?'
tRp2439
aasg4
g5
((lp2440
S'ENSG00000013374'
p2441
aS'ENSG00000136824'
p2442
aS'ENSG00000183087'
p2443
aS'ENSG00000066933'
p2444
aS'ENSG00000134759'
p2445
aS'ENSG00000182919'
p2446
aS'ENSG00000105248'
p2447
aS'ENSG00000185670'
p2448
aS'ENSG00000083067'
p2449
aS'ENSG00000205531'
p2450
aS'ENSG00000113396'
p2451
aS'ENSG00000236287'
p2452
atRp2453
ssS'lightblue4'
p2454
(dp2455
g31
(lp2456
(lp2457
S'ENSG00000103034'
p2458
aFinf
ag35
(g37
S'\xa9\xe8k\x0f\xb9\xacX?'
tRp2459
ag35
(g37
S'\x80k\xfe\xa5\xbdo\x82?'
tRp2460
aa(lp2461
S'ENSG00000183036'
p2462
aFinf
ag35
(g37
S'\xa9\xe8k\x0f\xb9\xacX?'
tRp2463
ag35
(g37
S'\x80k\xfe\xa5\xbdo\x82?'
tRp2464
aasg4
g5
((lp2465
S'ENSG00000152642'
p2466
aS'ENSG00000107864'
p2467
aS'ENSG00000181016'
p2468
aS'ENSG00000254901'
p2469
aS'ENSG00000187147'
p2470
aS'ENSG00000171703'
p2471
aS'ENSG00000116791'
p2472
aS'ENSG00000173041'
p2473
aS'ENSG00000162623'
p2474
aS'ENSG00000148110'
p2475
aS'ENSG00000141314'
p2476
atRp2477
ssS'lightsteelblue1'
p2478
(dp2479
g31
(lp2480
(lp2481
S'ENSG00000264672'
p2482
ag35
(g37
S'\x00\x00\x00\x00\x00\xa8\x84@'
tRp2483
ag35
(g37
S'\xa6\xc6\xc6\x8a\xf5\xa7x?'
tRp2484
ag35
(g37
S'\x00}\x81\xb8\x87a\x92?'
tRp2485
aa(lp2486
S'ENSG00000187164'
p2487
ag35
(g37
S'\x00\x00\x00\x00\x00\xa8\x84@'
tRp2488
ag35
(g37
S'\xa6\xc6\xc6\x8a\xf5\xa7x?'
tRp2489
ag35
(g37
S'\x00}\x81\xb8\x87a\x92?'
tRp2490
aa(lp2491
S'ENSG00000133454'
p2492
ag35
(g37
S'\x00\x00\x00\x00\x00\xa8\x84@'
tRp2493
ag35
(g37
S'\xa6\xc6\xc6\x8a\xf5\xa7x?'
tRp2494
ag35
(g37
S'\x00}\x81\xb8\x87a\x92?'
tRp2495
aasg4
g5
((lp2496
S'ENSG00000113575'
p2497
aS'ENSG00000141140'
p2498
aS'ENSG00000198720'
p2499
aS'ENSG00000247121'
p2500
aS'ENSG00000197562'
p2501
aS'ENSG00000214063'
p2502
aS'ENSG00000124207'
p2503
aS'ENSG00000104738'
p2504
aS'ENSG00000167118'
p2505
aS'ENSG00000161996'
p2506
aS'ENSG00000257242'
p2507
aS'ENSG00000144635'
p2508
aS'ENSG00000224051'
p2509
aS'ENSG00000173456'
p2510
aS'ENSG00000077009'
p2511
atRp2512
ssS'skyblue4'
p2513
(dp2514
g31
(lp2515
(lp2516
S'ENSG00000197253'
p2517
aFinf
ag35
(g37
S'\x97\xee\x90\xcb\x8a\x81r?'
tRp2518
ag35
(g37
S'\x000rT\xa8\xec\x96?'
tRp2519
aa(lp2520
S'ENSG00000112183'
p2521
aFinf
ag35
(g37
S'\x97\xee\x90\xcb\x8a\x81r?'
tRp2522
ag35
(g37
S'\x000rT\xa8\xec\x96?'
tRp2523
aa(lp2524
S'ENSG00000140945'
p2525
ag35
(g37
S'\x00\x00\x00\x00\x00\xa0t@'
tRp2526
ag35
(g37
S'rE\x99\x84ez\x82?'
tRp2527
ag35
(g37
S'\xe0\xcd\x15k\xc4w\x9b?'
tRp2528
aa(lp2529
S'ENSG00000101134'
p2530
ag35
(g37
S'\x00\x00\x00\x00\x00\x98d@'
tRp2531
ag35
(g37
S'\x9b(\xd7\x1f\xe3\xac\x8b?'
tRp2532
ag35
(g37
S'\xa0\xed+U\x04}\x9b?'
tRp2533
aa(lp2534
S'ENSG00000112186'
p2535
ag35
(g37
S'\x00\x00\x00\x00\x00\x98d@'
tRp2536
ag35
(g37
S'\x9b(\xd7\x1f\xe3\xac\x8b?'
tRp2537
ag35
(g37
S'\xa0\xed+U\x04}\x9b?'
tRp2538
aasg4
g5
((lp2539
S'ENSG00000169750'
p2540
aS'ENSG00000145020'
p2541
aS'ENSG00000114388'
p2542
aS'ENSG00000110844'
p2543
aS'ENSG00000148655'
p2544
aS'ENSG00000133619'
p2545
aS'ENSG00000066379'
p2546
aS'ENSG00000167383'
p2547
aS'ENSG00000145113'
p2548
aS'ENSG00000172554'
p2549
aS'ENSG00000068976'
p2550
aS'ENSG00000068028'
p2551
atRp2552
ssS'deepskyblue'
p2553
(dp2554
g4
g5
((lp2555
S'ENSG00000103932'
p2556
aS'ENSG00000136699'
p2557
aS'ENSG00000103168'
p2558
aS'ENSG00000151779'
p2559
aS'ENSG00000099817'
p2560
aS'ENSG00000164068'
p2561
aS'ENSG00000204169'
p2562
aS'ENSG00000139131'
p2563
aS'ENSG00000164989'
p2564
atRp2565
ssS'skyblue1'
p2566
(dp2567
g4
g5
((lp2568
S'ENSG00000118804'
p2569
aS'ENSG00000153975'
p2570
aS'ENSG00000119878'
p2571
aS'ENSG00000119509'
p2572
aS'ENSG00000185829'
p2573
aS'ENSG00000101574'
p2574
aS'ENSG00000221953'
p2575
aS'ENSG00000108379'
p2576
aS'ENSG00000238083'
p2577
aS'ENSG00000225190'
p2578
aS'ENSG00000176681'
p2579
aS'ENSG00000137225'
p2580
aS'ENSG00000130517'
p2581
atRp2582
ssS'darkred'
p2583
(dp2584
g4
g5
((lp2585
S'ENSG00000084636'
p2586
aS'ENSG00000101680'
p2587
aS'ENSG00000187266'
p2588
aS'ENSG00000166436'
p2589
aS'ENSG00000008513'
p2590
aS'ENSG00000125124'
p2591
aS'ENSG00000154134'
p2592
aS'ENSG00000127249'
p2593
aS'ENSG00000205307'
p2594
aS'ENSG00000163406'
p2595
aS'ENSG00000135424'
p2596
aS'ENSG00000184925'
p2597
aS'ENSG00000118997'
p2598
aS'ENSG00000100418'
p2599
aS'ENSG00000187527'
p2600
aS'ENSG00000106344'
p2601
aS'ENSG00000214402'
p2602
aS'ENSG00000107611'
p2603
atRp2604
ssS'skyblue2'
p2605
(dp2606
g4
g5
((lp2607
S'ENSG00000155393'
p2608
aS'ENSG00000162642'
p2609
aS'ENSG00000107147'
p2610
aS'ENSG00000119383'
p2611
aS'ENSG00000169914'
p2612
aS'ENSG00000172586'
p2613
aS'ENSG00000160307'
p2614
aS'ENSG00000179010'
p2615
aS'ENSG00000115556'
p2616
aS'ENSG00000171302'
p2617
aS'ENSG00000118898'
p2618
aS'ENSG00000138600'
p2619
aS'ENSG00000166268'
p2620
aS'ENSG00000111737'
p2621
atRp2622
ssS'lavenderblush1'
p2623
(dp2624
g31
(lp2625
(lp2626
S'ENSG00000083067'
p2627
aFinf
ag35
(g37
S'\xb5\xe8k\x0f\xb9\xach?'
tRp2628
ag35
(g37
S'@p\x84\xa1=\x90\x88?'
tRp2629
aa(lp2630
g2437
ag35
(g37
S'\x00\x00\x00\x00\x00\xa8\x84@'
tRp2631
ag35
(g37
S'\xa6\xc6\xc6\x8a\xf5\xa7x?'
tRp2632
ag35
(g37
S'\x00}\x81\xb8\x87a\x92?'
tRp2633
aa(lp2634
S'ENSG00000198915'
p2635
ag35
(g37
S'\x00\x00\x00\x00\x00\xa0t@'
tRp2636
ag35
(g37
S'`>\x99\x84ez\x82?'
tRp2637
ag35
(g37
S'\x80;\xe0w\x0ee\x92?'
tRp2638
aasg4
g5
((lp2639
S'ENSG00000110628'
p2640
aS'ENSG00000254827'
p2641
aS'ENSG00000075884'
p2642
aS'ENSG00000121542'
p2643
aS'ENSG00000164125'
p2644
aS'ENSG00000162702'
p2645
aS'ENSG00000167106'
p2646
aS'ENSG00000089486'
p2647
aS'ENSG00000250067'
p2648
aS'ENSG00000109270'
p2649
aS'ENSG00000151834'
p2650
atRp2651
ssS'lavenderblush3'
p2652
(dp2653
g4
g5
((lp2654
S'ENSG00000139351'
p2655
aS'ENSG00000185619'
p2656
aS'ENSG00000188994'
p2657
aS'ENSG00000100629'
p2658
aS'ENSG00000187630'
p2659
aS'ENSG00000154265'
p2660
aS'ENSG00000197134'
p2661
aS'ENSG00000135976'
p2662
aS'ENSG00000163666'
p2663
aS'ENSG00000157326'
p2664
aS'ENSG00000138801'
p2665
aS'ENSG00000203711'
p2666
aS'ENSG00000185002'
p2667
aS'ENSG00000114841'
p2668
atRp2669
ssS'lavenderblush2'
p2670
(dp2671
g4
g5
((lp2672
S'ENSG00000083807'
p2673
aS'ENSG00000162434'
p2674
aS'ENSG00000197774'
p2675
aS'ENSG00000101546'
p2676
aS'ENSG00000107959'
p2677
aS'ENSG00000166016'
p2678
aS'ENSG00000126391'
p2679
aS'ENSG00000162843'
p2680
aS'ENSG00000170917'
p2681
aS'ENSG00000100889'
p2682
aS'ENSG00000100413'
p2683
aS'ENSG00000143882'
p2684
atRp2685
ssS'aliceblue'
p2686
(dp2687
g4
g5
((lp2688
S'ENSG00000184992'
p2689
aS'ENSG00000204653'
p2690
aS'ENSG00000183281'
p2691
aS'ENSG00000169629'
p2692
aS'ENSG00000054392'
p2693
aS'ENSG00000119950'
p2694
aS'ENSG00000188039'
p2695
aS'ENSG00000166682'
p2696
aS'ENSG00000070476'
p2697
aS'ENSG00000121274'
p2698
atRp2699
ssS'lightskyblue2'
p2700
(dp2701
g4
g5
((lp2702
S'ENSG00000088926'
p2703
aS'ENSG00000172062'
p2704
aS'ENSG00000087253'
p2705
aS'ENSG00000137033'
p2706
aS'ENSG00000173209'
p2707
aS'ENSG00000141458'
p2708
aS'ENSG00000198924'
p2709
aS'ENSG00000159228'
p2710
aS'ENSG00000109452'
p2711
atRp2712
ssS'lightskyblue3'
p2713
(dp2714
g31
(lp2715
(lp2716
S'ENSG00000154478'
p2717
aFinf
ag35
(g37
S'\x97\xee\x90\xcb\x8a\x81r?'
tRp2718
ag35
(g37
S'\xd0o\xc8]\xf7\xaa\xa6?'
tRp2719
aasg4
g5
((lp2720
S'ENSG00000158714'
p2721
aS'ENSG00000147601'
p2722
aS'ENSG00000139197'
p2723
aS'ENSG00000127995'
p2724
aS'ENSG00000243943'
p2725
aS'ENSG00000100324'
p2726
aS'ENSG00000179914'
p2727
aS'ENSG00000149292'
p2728
aS'ENSG00000107262'
p2729
aS'ENSG00000135312'
p2730
atRp2731
ssS'blue1'
p2732
(dp2733
g4
g5
((lp2734
S'ENSG00000188848'
p2735
aS'ENSG00000123454'
p2736
aS'ENSG00000176946'
p2737
aS'ENSG00000163931'
p2738
aS'ENSG00000124191'
p2739
aS'ENSG00000105479'
p2740
aS'ENSG00000106714'
p2741
aS'ENSG00000085382'
p2742
aS'ENSG00000126838'
p2743
aS'ENSG00000086015'
p2744
atRp2745
ssS'blue3'
p2746
(dp2747
g4
g5
((lp2748
S'ENSG00000088053'
p2749
aS'ENSG00000206127'
p2750
aS'ENSG00000136932'
p2751
aS'ENSG00000188986'
p2752
aS'ENSG00000205853'
p2753
aS'ENSG00000132549'
p2754
aS'ENSG00000114054'
p2755
aS'ENSG00000205423'
p2756
aS'ENSG00000139620'
p2757
aS'ENSG00000197020'
p2758
aS'ENSG00000071794'
p2759
atRp2760
ssS'blue2'
p2761
(dp2762
g31
(lp2763
(lp2764
S'ENSG00000177182'
p2765
aFinf
ag35
(g37
S'\xa9\xe8k\x0f\xb9\xacX?'
tRp2766
ag35
(g37
S'\x80 \x80\x14(\xc0~?'
tRp2767
aasg4
g5
((lp2768
S'ENSG00000158828'
p2769
aS'ENSG00000081842'
p2770
aS'ENSG00000007520'
p2771
aS'ENSG00000184465'
p2772
aS'ENSG00000039650'
p2773
aS'ENSG00000006282'
p2774
aS'ENSG00000162585'
p2775
aS'ENSG00000163029'
p2776
aS'ENSG00000137500'
p2777
aS'ENSG00000103249'
p2778
aS'ENSG00000167972'
p2779
aS'ENSG00000137513'
p2780
aS'ENSG00000134152'
p2781
atRp2782
ssS'blue4'
p2783
(dp2784
g31
(lp2785
(lp2786
S'ENSG00000125810'
p2787
aFinf
ag35
(g37
S'\xc6\xe5k\x0f\xb9\xacx?'
tRp2788
ag35
(g37
S'\x00\xe6k\x0f\xb9\xacx?'
tRp2789
aasg4
g5
((lp2790
S'ENSG00000177427'
p2791
aS'ENSG00000155508'
p2792
aS'ENSG00000188888'
p2793
aS'ENSG00000174173'
p2794
aS'ENSG00000140464'
p2795
aS'ENSG00000157554'
p2796
aS'ENSG00000160208'
p2797
aS'ENSG00000168291'
p2798
aS'ENSG00000106608'
p2799
aS'ENSG00000160799'
p2800
aS'ENSG00000114933'
p2801
atRp2802
ssS'lightskyblue4'
p2803
(dp2804
g31
(lp2805
(lp2806
S'ENSG00000177045'
p2807
aFinf
ag35
(g37
S'\xa9\xe8k\x0f\xb9\xacX?'
tRp2808
ag35
(g37
S'\x00\xbb\xf3`\xf7\xa7h?'
tRp2809
aa(lp2810
S'ENSG00000163239'
p2811
aFinf
ag35
(g37
S'\xa9\xe8k\x0f\xb9\xacX?'
tRp2812
ag35
(g37
S'\x00\xbb\xf3`\xf7\xa7h?'
tRp2813
aasg4
g5
((lp2814
S'ENSG00000161981'
p2815
aS'ENSG00000170289'
p2816
aS'ENSG00000196357'
p2817
aS'ENSG00000128944'
p2818
aS'ENSG00000233232'
p2819
aS'ENSG00000242252'
p2820
aS'ENSG00000147912'
p2821
aS'ENSG00000183060'
p2822
aS'ENSG00000104783'
p2823
aS'ENSG00000204946'
p2824
aS'ENSG00000129625'
p2825
atRp2826
ssS'plum4'
p2827
(dp2828
g31
(lp2829
(lp2830
S'ENSG00000162188'
p2831
aFinf
ag35
(g37
S'\xc2\xe8k\x0f\xb9\xacx?'
tRp2832
ag35
(g37
S'\xc0) z\xdfs\x98?'
tRp2833
aa(lp2834
S'ENSG00000233642'
p2835
aFinf
ag35
(g37
S'\xc2\xe8k\x0f\xb9\xacx?'
tRp2836
ag35
(g37
S'\xc0) z\xdfs\x98?'
tRp2837
aa(lp2838
S'ENSG00000167608'
p2839
aFinf
ag35
(g37
S'\xc2\xe8k\x0f\xb9\xacx?'
tRp2840
ag35
(g37
S'\xc0) z\xdfs\x98?'
tRp2841
aa(lp2842
S'ENSG00000157219'
p2843
ag35
(g37
S'\xab\xaa\xaa\xaa\xaa*B@'
tRp2844
ag35
(g37
S'\xf4\x88\xac\x15{L\xa5?'
tRp2845
ag35
(g37
S'\xf0\x88\xac\x15{L\xa5?'
tRp2846
aasg4
g5
((lp2847
S'ENSG00000075856'
p2848
aS'ENSG00000188997'
p2849
aS'ENSG00000146223'
p2850
aS'ENSG00000167644'
p2851
aS'ENSG00000105327'
p2852
aS'ENSG00000118160'
p2853
aS'ENSG00000135148'
p2854
aS'ENSG00000218416'
p2855
aS'ENSG00000058404'
p2856
aS'ENSG00000170860'
p2857
aS'ENSG00000125630'
p2858
atRp2859
ssS'yellow3'
p2860
(dp2861
g31
(lp2862
(lp2863
S'ENSG00000245526'
p2864
aFinf
ag35
(g37
S'\xfa\xea\x90\xcb\x8a\x81r?'
tRp2865
ag35
(g37
S' g\r/\x87r\x9b?'
tRp2866
aa(lp2867
S'ENSG00000063015'
p2868
aFinf
ag35
(g37
S'\x831\x9a:\xbf\xf6\x90?'
tRp2869
ag35
(g37
S'\xc05N\xf6Wy\x9e?'
tRp2870
aa(lp2871
S'ENSG00000105605'
p2872
aFinf
ag35
(g37
S'\x8e\xee\x90\xcb\x8a\x81\x82?'
tRp2873
ag35
(g37
S'\xc05N\xf6Wy\x9e?'
tRp2874
aa(lp2875
S'ENSG00000087250'
p2876
aFinf
ag35
(g37
S'\xc6\xe5k\x0f\xb9\xacx?'
tRp2877
ag35
(g37
S'\xc05N\xf6Wy\x9e?'
tRp2878
aa(lp2879
S'ENSG00000196361'
p2880
aFinf
ag35
(g37
S'\x80h~\xed!\x97\x85?'
tRp2881
ag35
(g37
S'\xc05N\xf6Wy\x9e?'
tRp2882
aa(lp2883
S'ENSG00000125462'
p2884
aFinf
ag35
(g37
S'\xc6\xe5k\x0f\xb9\xacx?'
tRp2885
ag35
(g37
S'\xc05N\xf6Wy\x9e?'
tRp2886
aasg4
g5
((lp2887
S'ENSG00000164924'
p2888
aS'ENSG00000113387'
p2889
aS'ENSG00000129480'
p2890
aS'ENSG00000175582'
p2891
aS'ENSG00000115084'
p2892
aS'ENSG00000154174'
p2893
aS'ENSG00000124562'
p2894
aS'ENSG00000204347'
p2895
aS'ENSG00000159792'
p2896
aS'ENSG00000189306'
p2897
aS'ENSG00000169032'
p2898
aS'ENSG00000134072'
p2899
atRp2900
ssS'floralwhite'
p2901
(dp2902
g4
g5
((lp2903
S'ENSG00000134222'
p2904
aS'ENSG00000100266'
p2905
aS'ENSG00000178623'
p2906
aS'ENSG00000145495'
p2907
aS'ENSG00000133466'
p2908
aS'ENSG00000142973'
p2909
aS'ENSG00000243725'
p2910
aS'ENSG00000174990'
p2911
aS'ENSG00000104228'
p2912
aS'ENSG00000124198'
p2913
aS'ENSG00000125144'
p2914
aS'ENSG00000117222'
p2915
aS'ENSG00000100218'
p2916
aS'ENSG00000108551'
p2917
aS'ENSG00000143862'
p2918
atRp2919
ssS'coral'
p2920
(dp2921
g31
(lp2922
(lp2923
S'ENSG00000169271'
p2924
ag35
(g37
S'UUUUUuk@'
tRp2925
ag35
(g37
S'aq|\x81n\x9e\x88?'
tRp2926
ag35
(g37
S'\xa0u}`\x0fe\x92?'
tRp2927
aa(lp2928
S'ENSG00000166257'
p2929
aFinf
ag35
(g37
S'\xc2\xe8k\x0f\xb9\xacx?'
tRp2930
ag35
(g37
S'\xa0u}`\x0fe\x92?'
tRp2931
aa(lp2932
S'ENSG00000261115'
p2933
aFinf
ag35
(g37
S'\xc2\xe8k\x0f\xb9\xacx?'
tRp2934
ag35
(g37
S'\xa0u}`\x0fe\x92?'
tRp2935
aasg4
g5
((lp2936
S'ENSG00000137571'
p2937
aS'ENSG00000149554'
p2938
aS'ENSG00000152076'
p2939
aS'ENSG00000132561'
p2940
aS'ENSG00000159248'
p2941
aS'ENSG00000155093'
p2942
aS'ENSG00000138769'
p2943
aS'ENSG00000188385'
p2944
aS'ENSG00000123353'
p2945
aS'ENSG00000163879'
p2946
aS'ENSG00000157927'
p2947
aS'ENSG00000185989'
p2948
atRp2949
ssS'purple'
p2950
(dp2951
g31
(lp2952
(lp2953
S'ENSG00000172995'
p2954
aFinf
ag35
(g37
S'\xa9\xe8k\x0f\xb9\xacX?'
tRp2955
ag35
(g37
S'\x80 \x80\x14(\xc0~?'
tRp2956
aa(lp2957
S'ENSG00000078328'
p2958
aFinf
ag35
(g37
S'\xfa\xea\x90\xcb\x8a\x81r?'
tRp2959
ag35
(g37
S'@\t\x8d,\x88a\x92?'
tRp2960
aa(lp2961
S'ENSG00000113327'
p2962
aFinf
ag35
(g37
S'\x8e\xee\x90\xcb\x8a\x81\x82?'
tRp2963
ag35
(g37
S'@\xd0<br\xf5\x96?'
tRp2964
aa(lp2965
S'ENSG00000139767'
p2966
aFinf
ag35
(g37
S'W\xe8FS\xe7\xd7~?'
tRp2967
ag35
(g37
S'@\xd0<br\xf5\x96?'
tRp2968
aa(lp2969
S'ENSG00000177108'
p2970
aFinf
ag35
(g37
S'W\xe8FS\xe7\xd7~?'
tRp2971
ag35
(g37
S'@\xd0<br\xf5\x96?'
tRp2972
aasg4
g5
((lp2973
S'ENSG00000153832'
p2974
aS'ENSG00000167695'
p2975
aS'ENSG00000132326'
p2976
aS'ENSG00000198912'
p2977
aS'ENSG00000244411'
p2978
aS'ENSG00000269591'
p2979
aS'ENSG00000100722'
p2980
aS'ENSG00000121101'
p2981
aS'ENSG00000156170'
p2982
aS'ENSG00000114331'
p2983
aS'ENSG00000197165'
p2984
aS'ENSG00000197586'
p2985
aS'ENSG00000185262'
p2986
aS'ENSG00000171045'
p2987
aS'ENSG00000048471'
p2988
aS'ENSG00000115255'
p2989
aS'ENSG00000109775'
p2990
aS'ENSG00000109771'
p2991
aS'ENSG00000101751'
p2992
aS'ENSG00000117174'
p2993
aS'ENSG00000124116'
p2994
aS'ENSG00000155330'
p2995
atRp2996
ssS'lightgoldenrod2'
p2997
(dp2998
g31
(lp2999
(lp3000
S'ENSG00000157992'
p3001
aFinf
ag35
(g37
S'\x97\xee\x90\xcb\x8a\x81r?'
tRp3002
ag35
(g37
S'\x80\xee\x90\xcb\x8a\x81r?'
tRp3003
aasg4
g5
((lp3004
S'ENSG00000253485'
p3005
aS'ENSG00000148604'
p3006
aS'ENSG00000172818'
p3007
aS'ENSG00000176715'
p3008
aS'ENSG00000164398'
p3009
atRp3010
ssS'whitesmoke'
p3011
(dp3012
g31
(lp3013
(lp3014
S'ENSG00000114541'
p3015
aFinf
ag35
(g37
S'\xb5\xe8k\x0f\xb9\xach?'
tRp3016
ag35
(g37
S'@H\xcd!{\xa8\x8e?'
tRp3017
aa(lp3018
S'ENSG00000075651'
p3019
aFinf
ag35
(g37
S'\xb5\xe8k\x0f\xb9\xach?'
tRp3020
ag35
(g37
S'@H\xcd!{\xa8\x8e?'
tRp3021
aa(lp3022
S'ENSG00000187017'
p3023
ag35
(g37
S'\x00\x00\x00\x00\x00\xa0t@'
tRp3024
ag35
(g37
S'`>\x99\x84ez\x82?'
tRp3025
ag35
(g37
S'\xa0\xc3\x15k\xc4w\x9b?'
tRp3026
aa(lp3027
g422
ag35
(g37
S'\xcd\xcc\xcc\xcc\xccl`@'
tRp3028
ag35
(g37
S'\xb0\xaa%\x9a\xado\x92?'
tRp3029
ag35
(g37
S'p\xd4\xef\xf50E\xa2?'
tRp3030
aa(lp3031
S'ENSG00000158715'
p3032
ag35
(g37
S'9\x8e\xe38\x8e#R@'
tRp3033
ag35
(g37
S'v\xfd\x04\xbfO\xa2\x9e?'
tRp3034
ag35
(g37
S'p\xd4\xef\xf50E\xa2?'
tRp3035
aasg4
g5
((lp3036
S'ENSG00000185860'
p3037
aS'ENSG00000111816'
p3038
aS'ENSG00000008283'
p3039
aS'ENSG00000129673'
p3040
aS'ENSG00000144115'
p3041
aS'ENSG00000197360'
p3042
aS'ENSG00000116990'
p3043
aS'ENSG00000170627'
p3044
aS'ENSG00000010030'
p3045
aS'ENSG00000132109'
p3046
atRp3047
ssS'paleturquoise4'
p3048
(dp3049
g31
(lp3050
(lp3051
S'ENSG00000075340'
p3052
aFinf
ag35
(g37
S'\xb5\xe8k\x0f\xb9\xach?'
tRp3053
ag35
(g37
S'\x00\xe9k\x0f\xb9\xach?'
tRp3054
aasg4
g5
((lp3055
S'ENSG00000130489'
p3056
aS'ENSG00000213462'
p3057
aS'ENSG00000075234'
p3058
aS'ENSG00000152926'
p3059
aS'ENSG00000068615'
p3060
aS'ENSG00000155097'
p3061
aS'ENSG00000108349'
p3062
aS'ENSG00000188807'
p3063
aS'ENSG00000125814'
p3064
atRp3065
ssS'firebrick3'
p3066
(dp3067
g31
(lp3068
(lp3069
S'ENSG00000169418'
p3070
aFinf
ag35
(g37
S'\xb5\xe8k\x0f\xb9\xach?'
tRp3071
ag35
(g37
S'\xa0%\x8aFKm\x9b?'
tRp3072
aa(lp3073
S'ENSG00000142910'
p3074
ag35
(g37
S'\x00\x00\x00\x00\x00\xa8\x84@'
tRp3075
ag35
(g37
S'\xa6\xc6\xc6\x8a\xf5\xa7x?'
tRp3076
ag35
(g37
S'P\xd1\xe2\xa6\x90$\xa8?'
tRp3077
aasg4
g5
((lp3078
S'ENSG00000161958'
p3079
aS'ENSG00000244731'
p3080
aS'ENSG00000175322'
p3081
aS'ENSG00000167232'
p3082
aS'ENSG00000176209'
p3083
aS'ENSG00000064651'
p3084
aS'ENSG00000154217'
p3085
aS'ENSG00000182504'
p3086
aS'ENSG00000171204'
p3087
aS'ENSG00000160447'
p3088
aS'ENSG00000164144'
p3089
atRp3090
ssS'firebrick2'
p3091
(dp3092
g31
(lp3093
(lp3094
S'ENSG00000073670'
p3095
aFinf
ag35
(g37
S'W\xe8FS\xe7\xd7~?'
tRp3096
ag35
(g37
S'\x80\xe8FS\xe7\xd7~?'
tRp3097
aasg4
g5
((lp3098
S'ENSG00000177683'
p3099
aS'ENSG00000117640'
p3100
aS'ENSG00000135632'
p3101
aS'ENSG00000157224'
p3102
aS'ENSG00000164167'
p3103
aS'ENSG00000116883'
p3104
aS'ENSG00000163428'
p3105
aS'ENSG00000123066'
p3106
aS'ENSG00000148950'
p3107
aS'ENSG00000164744'
p3108
aS'ENSG00000146221'
p3109
atRp3110
ssS'firebrick1'
p3111
(dp3112
g4
g5
((lp3113
S'ENSG00000185437'
p3114
aS'ENSG00000103351'
p3115
aS'ENSG00000198624'
p3116
aS'ENSG00000170275'
p3117
aS'ENSG00000107566'
p3118
aS'ENSG00000136492'
p3119
atRp3120
ssS'darksalmon'
p3121
(dp3122
g4
g5
((lp3123
S'ENSG00000241106'
p3124
aS'ENSG00000003056'
p3125
aS'ENSG00000186115'
p3126
aS'ENSG00000066923'
p3127
aS'ENSG00000206503'
p3128
aS'ENSG00000099812'
p3129
aS'ENSG00000134765'
p3130
aS'ENSG00000106366'
p3131
aS'ENSG00000187889'
p3132
atRp3133
ssS'steelblue4'
p3134
(dp3135
g4
g5
((lp3136
S'ENSG00000183426'
p3137
aS'ENSG00000223572'
p3138
aS'ENSG00000076003'
p3139
aS'ENSG00000013573'
p3140
aS'ENSG00000113716'
p3141
aS'ENSG00000187456'
p3142
aS'ENSG00000091640'
p3143
aS'ENSG00000197816'
p3144
atRp3145
ssS'sienna3'
p3146
(dp3147
g4
g5
((lp3148
S'ENSG00000074211'
p3149
aS'ENSG00000184984'
p3150
aS'ENSG00000111364'
p3151
aS'ENSG00000117280'
p3152
aS'ENSG00000165633'
p3153
aS'ENSG00000174233'
p3154
aS'ENSG00000135722'
p3155
aS'ENSG00000204219'
p3156
aS'ENSG00000163389'
p3157
aS'ENSG00000142694'
p3158
aS'ENSG00000141698'
p3159
aS'ENSG00000122971'
p3160
aS'ENSG00000163866'
p3161
aS'ENSG00000140374'
p3162
aS'ENSG00000079101'
p3163
aS'ENSG00000156218'
p3164
atRp3165
ssS'firebrick4'
p3166
(dp3167
g4
g5
((lp3168
S'ENSG00000196284'
p3169
aS'ENSG00000124608'
p3170
aS'ENSG00000091536'
p3171
aS'ENSG00000153046'
p3172
aS'ENSG00000155085'
p3173
aS'ENSG00000044459'
p3174
aS'ENSG00000221923'
p3175
aS'ENSG00000196458'
p3176
aS'ENSG00000099866'
p3177
aS'ENSG00000092295'
p3178
aS'ENSG00000235098'
p3179
aS'ENSG00000103544'
p3180
aS'ENSG00000272047'
p3181
atRp3182
ssS'dodgerblue1'
p3183
(dp3184
g31
(lp3185
(lp3186
S'ENSG00000114737'
p3187
aFinf
ag35
(g37
S'\xb5\xe8k\x0f\xb9\xach?'
tRp3188
ag35
(g37
S' \r\xf1e\xbcm\x9e?'
tRp3189
aa(lp3190
S'ENSG00000108691'
p3191
aFinf
ag35
(g37
S'\xb5\xe8k\x0f\xb9\xach?'
tRp3192
ag35
(g37
S' \r\xf1e\xbcm\x9e?'
tRp3193
aa(lp3194
S'ENSG00000196954'
p3195
aFinf
ag35
(g37
S'\xb5\xe8k\x0f\xb9\xach?'
tRp3196
ag35
(g37
S' \r\xf1e\xbcm\x9e?'
tRp3197
aasg4
g5
((lp3198
S'ENSG00000112110'
p3199
aS'ENSG00000103111'
p3200
aS'ENSG00000170703'
p3201
aS'ENSG00000116731'
p3202
aS'ENSG00000121068'
p3203
aS'ENSG00000157766'
p3204
aS'ENSG00000086232'
p3205
atRp3206
ssS'dodgerblue2'
p3207
(dp3208
g4
g5
((lp3209
S'ENSG00000116266'
p3210
aS'ENSG00000132932'
p3211
aS'ENSG00000130540'
p3212
aS'ENSG00000142197'
p3213
aS'ENSG00000181754'
p3214
aS'ENSG00000111796'
p3215
aS'ENSG00000005194'
p3216
atRp3217
ssS'dodgerblue3'
p3218
(dp3219
g4
g5
((lp3220
S'ENSG00000171643'
p3221
aS'ENSG00000167208'
p3222
aS'ENSG00000239713'
p3223
aS'ENSG00000147813'
p3224
aS'ENSG00000206530'
p3225
aS'ENSG00000189157'
p3226
aS'ENSG00000229474'
p3227
aS'ENSG00000172322'
p3228
atRp3229
ssS'dodgerblue4'
p3230
(dp3231
g4
g5
((lp3232
S'ENSG00000177042'
p3233
aS'ENSG00000148468'
p3234
aS'ENSG00000128973'
p3235
aS'ENSG00000093072'
p3236
aS'ENSG00000187715'
p3237
aS'ENSG00000113504'
p3238
aS'ENSG00000244607'
p3239
aS'ENSG00000108592'
p3240
aS'ENSG00000110768'
p3241
atRp3242
ssS'lightskyblue1'
p3243
(dp3244
g4
g5
((lp3245
S'ENSG00000176148'
p3246
aS'ENSG00000172456'
p3247
aS'ENSG00000106462'
p3248
aS'ENSG00000115207'
p3249
aS'ENSG00000119013'
p3250
aS'ENSG00000136810'
p3251
aS'ENSG00000164074'
p3252
aS'ENSG00000135486'
p3253
atRp3254
ssS'tomato4'
p3255
(dp3256
g31
(lp3257
(lp3258
S'ENSG00000164742'
p3259
aFinf
ag35
(g37
S'\xa9\xe8k\x0f\xb9\xacX?'
tRp3260
ag35
(g37
S'\x00\xf8\x02\t\x12h\x9b?'
tRp3261
aa(lp3262
S'ENSG00000183092'
p3263
aFinf
ag35
(g37
S'\xa9\xe8k\x0f\xb9\xacX?'
tRp3264
ag35
(g37
S'\x00\xf8\x02\t\x12h\x9b?'
tRp3265
aa(lp3266
S'ENSG00000249695'
p3267
aFinf
ag35
(g37
S'\xa9\xe8k\x0f\xb9\xacX?'
tRp3268
ag35
(g37
S'\x00\xf8\x02\t\x12h\x9b?'
tRp3269
aa(lp3270
S'ENSG00000124140'
p3271
aFinf
ag35
(g37
S'V\xedk\x0f\xb9\xach?'
tRp3272
ag35
(g37
S'\xd0\xa8\xc6\xcf\xae\xa6\xa6?'
tRp3273
aa(lp3274
S'ENSG00000187730'
p3275
aFinf
ag35
(g37
S'V\xedk\x0f\xb9\xach?'
tRp3276
ag35
(g37
S'\xd0\xa8\xc6\xcf\xae\xa6\xa6?'
tRp3277
aa(lp3278
S'ENSG00000120645'
p3279
aFinf
ag35
(g37
S'V\xedk\x0f\xb9\xach?'
tRp3280
ag35
(g37
S'\xd0\xa8\xc6\xcf\xae\xa6\xa6?'
tRp3281
aa(lp3282
S'ENSG00000163013'
p3283
aFinf
ag35
(g37
S'V\xedk\x0f\xb9\xach?'
tRp3284
ag35
(g37
S'\xd0\xa8\xc6\xcf\xae\xa6\xa6?'
tRp3285
aa(lp3286
S'ENSG00000135749'
p3287
aFinf
ag35
(g37
S'V\xedk\x0f\xb9\xach?'
tRp3288
ag35
(g37
S'\xd0\xa8\xc6\xcf\xae\xa6\xa6?'
tRp3289
aa(lp3290
S'ENSG00000255571'
p3291
aFinf
ag35
(g37
S'\xfa\xea\x90\xcb\x8a\x81r?'
tRp3292
ag35
(g37
S'\xa0k\xc8]\xf7\xaa\xa6?'
tRp3293
aa(lp3294
S'ENSG00000073150'
p3295
aFinf
ag35
(g37
S'\xfa\xea\x90\xcb\x8a\x81r?'
tRp3296
ag35
(g37
S'\xa0k\xc8]\xf7\xaa\xa6?'
tRp3297
aasg4
g5
((lp3298
S'ENSG00000165966'
p3299
aS'ENSG00000129460'
p3300
aS'ENSG00000148288'
p3301
aS'ENSG00000214530'
p3302
aS'ENSG00000160785'
p3303
aS'ENSG00000155265'
p3304
aS'ENSG00000186567'
p3305
aS'ENSG00000168275'
p3306
aS'ENSG00000172922'
p3307
atRp3308
ssS'yellow4'
p3309
(dp3310
g31
(lp3311
(lp3312
S'ENSG00000131188'
p3313
aFinf
ag35
(g37
S'\x97\xee\x90\xcb\x8a\x81r?'
tRp3314
ag35
(g37
S'\xc0K\xb5\xa2L7\xa2?'
tRp3315
aa(lp3316
S'ENSG00000142235'
p3317
ag35
(g37
S'\x00\x00\x00\x00\x00\xa0t@'
tRp3318
ag35
(g37
S'rE\x99\x84ez\x82?'
tRp3319
ag35
(g37
S'\xc0K\xb5\xa2L7\xa2?'
tRp3320
aa(lp3321
S'ENSG00000247081'
p3322
aFinf
ag35
(g37
S'\x97\xee\x90\xcb\x8a\x81r?'
tRp3323
ag35
(g37
S'\xc0K\xb5\xa2L7\xa2?'
tRp3324
aa(lp3325
S'ENSG00000135697'
p3326
aFinf
ag35
(g37
S'\x97\xee\x90\xcb\x8a\x81r?'
tRp3327
ag35
(g37
S'\xc0K\xb5\xa2L7\xa2?'
tRp3328
aa(lp3329
S'ENSG00000100336'
p3330
aFinf
ag35
(g37
S'\x97\xee\x90\xcb\x8a\x81r?'
tRp3331
ag35
(g37
S'\xc0K\xb5\xa2L7\xa2?'
tRp3332
aa(lp3333
S'ENSG00000158792'
p3334
aFinf
ag35
(g37
S'\x97\xee\x90\xcb\x8a\x81r?'
tRp3335
ag35
(g37
S'\xc0K\xb5\xa2L7\xa2?'
tRp3336
aa(lp3337
S'ENSG00000067606'
p3338
ag35
(g37
S'\x00\x00\x00\x00\x00\x98d@'
tRp3339
ag35
(g37
S'\x9b(\xd7\x1f\xe3\xac\x8b?'
tRp3340
ag35
(g37
S'\xc0K\xb5\xa2L7\xa2?'
tRp3341
aa(lp3342
S'ENSG00000170324'
p3343
ag35
(g37
S'\x00\x00\x00\x00\x00\xa0t@'
tRp3344
ag35
(g37
S'rE\x99\x84ez\x82?'
tRp3345
ag35
(g37
S'\xc0K\xb5\xa2L7\xa2?'
tRp3346
aasg4
g5
((lp3347
S'ENSG00000185290'
p3348
aS'ENSG00000176428'
p3349
aS'ENSG00000162976'
p3350
aS'ENSG00000179044'
p3351
aS'ENSG00000136111'
p3352
aS'ENSG00000125505'
p3353
aS'ENSG00000156574'
p3354
aS'ENSG00000213380'
p3355
aS'ENSG00000112062'
p3356
aS'ENSG00000007541'
p3357
aS'ENSG00000183971'
p3358
aS'ENSG00000119655'
p3359
aS'ENSG00000060491'
p3360
aS'ENSG00000184779'
p3361
atRp3362
ssS'greenyellow'
p3363
(dp3364
g31
(lp3365
(lp3366
S'ENSG00000107796'
p3367
ag35
(g37
S'\x89\x88\x88\x88\x88\x88U@'
tRp3368
ag35
(g37
S'\xb5\x93\xcf[\xfd\xe8]?'
tRp3369
ag35
(g37
S'\x10\xeb\x98\xda},\xa4?'
tRp3370
aasg4
g5
((lp3371
S'ENSG00000156150'
p3372
aS'ENSG00000101335'
p3373
aS'ENSG00000151655'
p3374
aS'ENSG00000118729'
p3375
aS'ENSG00000131471'
p3376
aS'ENSG00000168386'
p3377
aS'ENSG00000198467'
p3378
aS'ENSG00000026025'
p3379
aS'ENSG00000157227'
p3380
aS'ENSG00000131389'
p3381
aS'ENSG00000150457'
p3382
aS'ENSG00000150630'
p3383
aS'ENSG00000122786'
p3384
aS'ENSG00000154175'
p3385
aS'ENSG00000140092'
p3386
aS'ENSG00000197256'
p3387
aS'ENSG00000144285'
p3388
aS'ENSG00000162614'
p3389
aS'ENSG00000071127'
p3390
aS'ENSG00000064666'
p3391
aS'ENSG00000108587'
p3392
atRp3393
ssS'tomato2'
p3394
(dp3395
g31
(lp3396
(lp3397
S'ENSG00000167654'
p3398
aFinf
ag35
(g37
S'\x97\xee\x90\xcb\x8a\x81r?'
tRp3399
ag35
(g37
S'\xc0\x0c\x8d,\x88a\x92?'
tRp3400
aa(lp3401
S'ENSG00000006116'
p3402
aFinf
ag35
(g37
S'\x97\xee\x90\xcb\x8a\x81r?'
tRp3403
ag35
(g37
S'\xc0\x0c\x8d,\x88a\x92?'
tRp3404
aa(lp3405
S'ENSG00000087085'
p3406
aFinf
ag35
(g37
S'\x97\xee\x90\xcb\x8a\x81r?'
tRp3407
ag35
(g37
S'\xc0\x0c\x8d,\x88a\x92?'
tRp3408
aa(lp3409
g2962
ag35
(g37
S'ffffffP@'
tRp3410
ag35
(g37
S',\xc0\x08?\xd4\x8c\x9b?'
tRp3411
ag35
(g37
S' \xc0\x08?\xd4\x8c\x9b?'
tRp3412
aasg4
g5
((lp3413
S'ENSG00000243414'
p3414
aS'ENSG00000187848'
p3415
aS'ENSG00000005810'
p3416
aS'ENSG00000183655'
p3417
aS'ENSG00000149150'
p3418
aS'ENSG00000162711'
p3419
aS'ENSG00000159231'
p3420
aS'ENSG00000102445'
p3421
aS'ENSG00000117153'
p3422
aS'ENSG00000156234'
p3423
atRp3424
ssS'navajowhite'
p3425
(dp3426
g31
(lp3427
(lp3428
g78
ag35
(g37
S'\x00\x00\x00\x00\x00\x98d@'
tRp3429
ag35
(g37
S'\x9b(\xd7\x1f\xe3\xac\x8b?'
tRp3430
ag35
(g37
S'`B\xe0w\x0ee\x92?'
tRp3431
aa(lp3432
S'ENSG00000141526'
p3433
ag35
(g37
S'\x00\x00\x00\x00\x00\xa0t@'
tRp3434
ag35
(g37
S'rE\x99\x84ez\x82?'
tRp3435
ag35
(g37
S'`B\xe0w\x0ee\x92?'
tRp3436
aasg4
g5
((lp3437
S'ENSG00000121211'
p3438
aS'ENSG00000233927'
p3439
aS'ENSG00000184497'
p3440
aS'ENSG00000214688'
p3441
aS'ENSG00000133665'
p3442
aS'ENSG00000156466'
p3443
aS'ENSG00000138346'
p3444
aS'ENSG00000178125'
p3445
aS'ENSG00000168917'
p3446
aS'ENSG00000127989'
p3447
aS'ENSG00000104951'
p3448
atRp3449
ssS'magenta3'
p3450
(dp3451
g31
(lp3452
(lp3453
S'ENSG00000182621'
p3454
aFinf
ag35
(g37
S'\xa9\xe8k\x0f\xb9\xacX?'
tRp3455
ag35
(g37
S'\x80\x83\x980izr?'
tRp3456
aa(lp3457
S'ENSG00000175161'
p3458
aFinf
ag35
(g37
S'\xfa\xea\x90\xcb\x8a\x81r?'
tRp3459
ag35
(g37
S'\xc0\x84\x02\x03\xd7v\x82?'
tRp3460
aa(lp3461
S'ENSG00000179915'
p3462
aFinf
ag35
(g37
S'\xfa\xea\x90\xcb\x8a\x81r?'
tRp3463
ag35
(g37
S'\xc0\x84\x02\x03\xd7v\x82?'
tRp3464
aasg4
g5
((lp3465
S'ENSG00000101255'
p3466
aS'ENSG00000100347'
p3467
aS'ENSG00000154102'
p3468
aS'ENSG00000189269'
p3469
aS'ENSG00000134121'
p3470
aS'ENSG00000166341'
p3471
aS'ENSG00000196355'
p3472
aS'ENSG00000104998'
p3473
aS'ENSG00000074660'
p3474
aS'ENSG00000079332'
p3475
aS'ENSG00000254415'
p3476
atRp3477
ssS'lightseagreen'
p3478
(dp3479
g4
g5
((lp3480
S'ENSG00000065243'
p3481
aS'ENSG00000105607'
p3482
aS'ENSG00000145075'
p3483
aS'ENSG00000083123'
p3484
aS'ENSG00000184470'
p3485
aS'ENSG00000196704'
p3486
atRp3487
ssS'navajowhite1'
p3488
(dp3489
g4
g5
((lp3490
S'ENSG00000175643'
p3491
aS'ENSG00000085491'
p3492
aS'ENSG00000124702'
p3493
aS'ENSG00000115468'
p3494
aS'ENSG00000130312'
p3495
aS'ENSG00000132846'
p3496
aS'ENSG00000111321'
p3497
aS'ENSG00000136881'
p3498
aS'ENSG00000160867'
p3499
aS'ENSG00000103494'
p3500
aS'ENSG00000108001'
p3501
aS'ENSG00000072864'
p3502
atRp3503
ssS'navajowhite2'
p3504
(dp3505
g4
g5
((lp3506
S'ENSG00000113889'
p3507
aS'ENSG00000164106'
p3508
aS'ENSG00000122477'
p3509
aS'ENSG00000133731'
p3510
aS'ENSG00000140945'
p3511
aS'ENSG00000000457'
p3512
aS'ENSG00000174473'
p3513
aS'ENSG00000162595'
p3514
aS'ENSG00000078579'
p3515
aS'ENSG00000157445'
p3516
aS'ENSG00000143842'
p3517
aS'ENSG00000145248'
p3518
aS'ENSG00000105127'
p3519
aS'ENSG00000161551'
p3520
atRp3521
ssS'magenta2'
p3522
(dp3523
g4
g5
((lp3524
S'ENSG00000139946'
p3525
aS'ENSG00000254614'
p3526
aS'ENSG00000158825'
p3527
aS'ENSG00000085552'
p3528
aS'ENSG00000205426'
p3529
aS'ENSG00000196482'
p3530
aS'ENSG00000205659'
p3531
aS'ENSG00000049540'
p3532
aS'ENSG00000140987'
p3533
aS'ENSG00000249109'
p3534
atRp3535
ssS'sienna'
p3536
(dp3537
g4
g5
((lp3538
S'ENSG00000168026'
p3539
aS'ENSG00000111224'
p3540
aS'ENSG00000159214'
p3541
aS'ENSG00000162572'
p3542
aS'ENSG00000166803'
p3543
aS'ENSG00000180902'
p3544
aS'ENSG00000136457'
p3545
aS'ENSG00000146038'
p3546
aS'ENSG00000088035'
p3547
atRp3548
ssS'pink1'
p3549
(dp3550
g4
g5
((lp3551
S'ENSG00000184908'
p3552
aS'ENSG00000150893'
p3553
aS'ENSG00000174792'
p3554
aS'ENSG00000130649'
p3555
aS'ENSG00000165821'
p3556
aS'ENSG00000183647'
p3557
aS'ENSG00000163743'
p3558
aS'ENSG00000196378'
p3559
aS'ENSG00000151917'
p3560
atRp3561
ssS'mediumpurple'
p3562
(dp3563
g31
(lp3564
(lp3565
g1653
ag35
(g37
S'ffffffP@'
tRp3566
ag35
(g37
S',\xc0\x08?\xd4\x8c\x9b?'
tRp3567
ag35
(g37
S' \xc0\x08?\xd4\x8c\x9b?'
tRp3568
aasg4
g5
((lp3569
S'ENSG00000182247'
p3570
aS'ENSG00000119632'
p3571
aS'ENSG00000152527'
p3572
aS'ENSG00000165621'
p3573
aS'ENSG00000196502'
p3574
aS'ENSG00000165406'
p3575
aS'ENSG00000113296'
p3576
aS'ENSG00000100228'
p3577
aS'ENSG00000163138'
p3578
aS'ENSG00000100987'
p3579
aS'ENSG00000152672'
p3580
atRp3581
ssS'mediumpurple1'
p3582
(dp3583
g31
(lp3584
(lp3585
S'ENSG00000159784'
p3586
ag35
(g37
S'\x00\x00\x00\x00\x00\xa8\x84@'
tRp3587
ag35
(g37
S'\xa6\xc6\xc6\x8a\xf5\xa7x?'
tRp3588
ag35
(g37
S'P\xd1\xe2\xa6\x90$\xa8?'
tRp3589
aasg4
g5
((lp3590
S'ENSG00000186020'
p3591
aS'ENSG00000103510'
p3592
aS'ENSG00000144218'
p3593
aS'ENSG00000133983'
p3594
aS'ENSG00000104497'
p3595
aS'ENSG00000150361'
p3596
aS'ENSG00000038945'
p3597
aS'ENSG00000120071'
p3598
aS'ENSG00000133063'
p3599
aS'ENSG00000143995'
p3600
aS'ENSG00000243244'
p3601
aS'ENSG00000165476'
p3602
atRp3603
ssS'wheat3'
p3604
(dp3605
g31
(lp3606
(lp3607
g78
aFinf
ag35
(g37
S'\xfa\xea\x90\xcb\x8a\x81r?'
tRp3608
ag35
(g37
S'\x00\x92{\xb25\xa3x?'
tRp3609
aa(lp3610
g3433
aFinf
ag35
(g37
S'V\xedk\x0f\xb9\xach?'
tRp3611
ag35
(g37
S'\x00\x92{\xb25\xa3x?'
tRp3612
aasg4
g5
((lp3613
S'ENSG00000112715'
p3614
aS'ENSG00000054282'
p3615
aS'ENSG00000196418'
p3616
aS'ENSG00000166796'
p3617
aS'ENSG00000120915'
p3618
aS'ENSG00000117305'
p3619
aS'ENSG00000152952'
p3620
aS'ENSG00000197345'
p3621
aS'ENSG00000115548'
p3622
atRp3623
ssS'lightcoral'
p3624
(dp3625
g4
g5
((lp3626
S'ENSG00000085999'
p3627
aS'ENSG00000161542'
p3628
aS'ENSG00000185627'
p3629
aS'ENSG00000151500'
p3630
aS'ENSG00000117411'
p3631
aS'ENSG00000154478'
p3632
aS'ENSG00000112473'
p3633
aS'ENSG00000130714'
p3634
aS'ENSG00000087365'
p3635
aS'ENSG00000100225'
p3636
aS'ENSG00000204344'
p3637
aS'ENSG00000138658'
p3638
aS'ENSG00000162191'
p3639
atRp3640
ssS'orangered'
p3641
(dp3642
g4
g5
((lp3643
S'ENSG00000198131'
p3644
aS'ENSG00000164934'
p3645
aS'ENSG00000131470'
p3646
aS'ENSG00000170260'
p3647
aS'ENSG00000180787'
p3648
aS'ENSG00000127022'
p3649
aS'ENSG00000117899'
p3650
aS'ENSG00000177082'
p3651
aS'ENSG00000109814'
p3652
aS'ENSG00000041802'
p3653
aS'ENSG00000143036'
p3654
atRp3655
ssS'darkgoldenrod3'
p3656
(dp3657
g4
g5
((lp3658
S'ENSG00000198646'
p3659
aS'ENSG00000113580'
p3660
aS'ENSG00000128891'
p3661
aS'ENSG00000169609'
p3662
aS'ENSG00000141504'
p3663
aS'ENSG00000174007'
p3664
aS'ENSG00000089220'
p3665
aS'ENSG00000206562'
p3666
aS'ENSG00000163964'
p3667
atRp3668
ssS'pink3'
p3669
(dp3670
g4
g5
((lp3671
S'ENSG00000057019'
p3672
aS'ENSG00000221838'
p3673
aS'ENSG00000002587'
p3674
aS'ENSG00000112562'
p3675
aS'ENSG00000167460'
p3676
aS'ENSG00000197563'
p3677
aS'ENSG00000108292'
p3678
aS'ENSG00000055955'
p3679
aS'ENSG00000198453'
p3680
aS'ENSG00000137135'
p3681
aS'ENSG00000139899'
p3682
atRp3683
ssS'steelblue1'
p3684
(dp3685
g4
g5
((lp3686
S'ENSG00000108963'
p3687
aS'ENSG00000138794'
p3688
aS'ENSG00000163482'
p3689
aS'ENSG00000095066'
p3690
aS'ENSG00000064270'
p3691
atRp3692
ssS'mediumpurple3'
p3693
(dp3694
g31
(lp3695
(lp3696
S'ENSG00000165300'
p3697
aFinf
ag35
(g37
S'\xb5\xe8k\x0f\xb9\xach?'
tRp3698
ag35
(g37
S'@\x9aI\xd4\x87j\x98?'
tRp3699
aa(lp3700
S'ENSG00000164100'
p3701
aFinf
ag35
(g37
S'\xb5\xe8k\x0f\xb9\xach?'
tRp3702
ag35
(g37
S'@\x9aI\xd4\x87j\x98?'
tRp3703
aa(lp3704
S'ENSG00000174498'
p3705
aFinf
ag35
(g37
S'\xb5\xe8k\x0f\xb9\xach?'
tRp3706
ag35
(g37
S'@\x9aI\xd4\x87j\x98?'
tRp3707
aa(lp3708
S'ENSG00000198780'
p3709
aFinf
ag35
(g37
S'\xb5\xe8k\x0f\xb9\xach?'
tRp3710
ag35
(g37
S'@\x9aI\xd4\x87j\x98?'
tRp3711
aa(lp3712
S'ENSG00000185774'
p3713
ag35
(g37
S'\x00\x00\x00\x00\x00\xa0t@'
tRp3714
ag35
(g37
S'`>\x99\x84ez\x82?'
tRp3715
ag35
(g37
S'`]7\xba\xc2:\xa2?'
tRp3716
aa(lp3717
g2635
ag35
(g37
S'\x00\x00\x00\x00\x00\xa0t@'
tRp3718
ag35
(g37
S'`>\x99\x84ez\x82?'
tRp3719
ag35
(g37
S'`]7\xba\xc2:\xa2?'
tRp3720
aa(lp3721
S'ENSG00000088899'
p3722
ag35
(g37
S'UUUUUU[@'
tRp3723
ag35
(g37
S'\x98f\x1bu\x1f~\x95?'
tRp3724
ag35
(g37
S'02\x95\x8baD\xa5?'
tRp3725
aasg4
g5
((lp3726
S'ENSG00000213672'
p3727
aS'ENSG00000137713'
p3728
aS'ENSG00000171798'
p3729
aS'ENSG00000144648'
p3730
aS'ENSG00000185666'
p3731
aS'ENSG00000141252'
p3732
aS'ENSG00000155034'
p3733
aS'ENSG00000166377'
p3734
aS'ENSG00000178467'
p3735
aS'ENSG00000013725'
p3736
aS'ENSG00000205143'
p3737
aS'ENSG00000183605'
p3738
aS'ENSG00000183527'
p3739
aS'ENSG00000204188'
p3740
aS'ENSG00000127527'
p3741
atRp3742
ssS'burlywood'
p3743
(dp3744
g4
g5
((lp3745
S'ENSG00000185252'
p3746
aS'ENSG00000091831'
p3747
aS'ENSG00000172269'
p3748
aS'ENSG00000214872'
p3749
aS'ENSG00000124299'
p3750
aS'ENSG00000185689'
p3751
aS'ENSG00000181722'
p3752
aS'ENSG00000132275'
p3753
aS'ENSG00000196724'
p3754
atRp3755
ssS'royalblue'
p3756
(dp3757
g31
(lp3758
(lp3759
S'ENSG00000171873'
p3760
aFinf
ag35
(g37
S'\xc2\xe8k\x0f\xb9\xacx?'
tRp3761
ag35
(g37
S' \xdf\xa6\x9e\xc3:\xa2?'
tRp3762
aasg4
g5
((lp3763
S'ENSG00000196653'
p3764
aS'ENSG00000113971'
p3765
aS'ENSG00000182534'
p3766
aS'ENSG00000149257'
p3767
aS'ENSG00000196422'
p3768
aS'ENSG00000144369'
p3769
aS'ENSG00000134324'
p3770
aS'ENSG00000185215'
p3771
aS'ENSG00000105672'
p3772
aS'ENSG00000174775'
p3773
aS'ENSG00000214253'
p3774
aS'ENSG00000005100'
p3775
aS'ENSG00000105393'
p3776
aS'ENSG00000133878'
p3777
aS'ENSG00000221819'
p3778
aS'ENSG00000067221'
p3779
aS'ENSG00000216921'
p3780
aS'ENSG00000141013'
p3781
aS'ENSG00000163040'
p3782
atRp3783
ssS'blanchedalmond'
p3784
(dp3785
g4
g5
((lp3786
S'ENSG00000232070'
p3787
aS'ENSG00000175854'
p3788
aS'ENSG00000115661'
p3789
aS'ENSG00000188895'
p3790
aS'ENSG00000173812'
p3791
aS'ENSG00000255284'
p3792
aS'ENSG00000120322'
p3793
aS'ENSG00000185963'
p3794
aS'ENSG00000213995'
p3795
atRp3796
ssS'mistyrose1'
p3797
(dp3798
g4
g5
((lp3799
S'ENSG00000130770'
p3800
aS'ENSG00000109118'
p3801
aS'ENSG00000095370'
p3802
aS'ENSG00000103199'
p3803
aS'ENSG00000113597'
p3804
aS'ENSG00000118420'
p3805
aS'ENSG00000088826'
p3806
atRp3807
ssS'peru'
p3808
(dp3809
g31
(lp3810
(lp3811
S'ENSG00000006042'
p3812
aFinf
ag35
(g37
S'\xfa\xea\x90\xcb\x8a\x81r?'
tRp3813
ag35
(g37
S'\xc0+rT\xa8\xec\x96?'
tRp3814
aa(lp3815
S'ENSG00000019144'
p3816
aFinf
ag35
(g37
S'\xfa\xea\x90\xcb\x8a\x81r?'
tRp3817
ag35
(g37
S'\xc0+rT\xa8\xec\x96?'
tRp3818
aa(lp3819
S'ENSG00000114993'
p3820
aFinf
ag35
(g37
S's\xeak\x0f\xb9\xac\x88?'
tRp3821
ag35
(g37
S' \xb9dO\xcd\x05\xa0?'
tRp3822
aa(lp3823
S'ENSG00000012171'
p3824
aFinf
ag35
(g37
S'\x80h~\xed!\x97\x85?'
tRp3825
ag35
(g37
S' \xb9dO\xcd\x05\xa0?'
tRp3826
aa(lp3827
g3032
aFinf
ag35
(g37
S'\xc4\xdeFS\xe7\xd7\x8e?'
tRp3828
ag35
(g37
S' \xb9dO\xcd\x05\xa0?'
tRp3829
aasg4
g5
((lp3830
S'ENSG00000164284'
p3831
aS'ENSG00000245680'
p3832
aS'ENSG00000203880'
p3833
aS'ENSG00000115935'
p3834
aS'ENSG00000123810'
p3835
aS'ENSG00000167641'
p3836
aS'ENSG00000266964'
p3837
aS'ENSG00000146477'
p3838
aS'ENSG00000198521'
p3839
atRp3840
ssS'aquamarine'
p3841
(dp3842
g31
(lp3843
(lp3844
S'ENSG00000144339'
p3845
aFinf
ag35
(g37
S'\xa9\xe8k\x0f\xb9\xacX?'
tRp3846
ag35
(g37
S'\xa0>\xca`1\xd6\x90?'
tRp3847
aa(lp3848
S'ENSG00000111424'
p3849
aFinf
ag35
(g37
S'\xa9\xe8k\x0f\xb9\xacX?'
tRp3850
ag35
(g37
S'\xa0>\xca`1\xd6\x90?'
tRp3851
aa(lp3852
S'ENSG00000136274'
p3853
aFinf
ag35
(g37
S'\xa9\xe8k\x0f\xb9\xacX?'
tRp3854
ag35
(g37
S'\xa0>\xca`1\xd6\x90?'
tRp3855
aa(lp3856
S'ENSG00000137941'
p3857
aFinf
ag35
(g37
S'\xa9\xe8k\x0f\xb9\xacX?'
tRp3858
ag35
(g37
S'\xa0>\xca`1\xd6\x90?'
tRp3859
aa(lp3860
S'ENSG00000150656'
p3861
aFinf
ag35
(g37
S'\xa9\xe8k\x0f\xb9\xacX?'
tRp3862
ag35
(g37
S'\xa0>\xca`1\xd6\x90?'
tRp3863
aa(lp3864
S'ENSG00000188580'
p3865
aFinf
ag35
(g37
S'\xfa\xea\x90\xcb\x8a\x81r?'
tRp3866
ag35
(g37
S' g\r/\x87r\x9b?'
tRp3867
aa(lp3868
g371
aFinf
ag35
(g37
S'\x831\x9a:\xbf\xf6\x90?'
tRp3869
ag35
(g37
S'0\xcc;\t-\xfd\xa2?'
tRp3870
aa(lp3871
S'ENSG00000072182'
p3872
aFinf
ag35
(g37
S'W\xe8FS\xe7\xd7~?'
tRp3873
ag35
(g37
S'0\xcc;\t-\xfd\xa2?'
tRp3874
aa(lp3875
S'ENSG00000179083'
p3876
aFinf
ag35
(g37
S'\x8e\xee\x90\xcb\x8a\x81\x82?'
tRp3877
ag35
(g37
S'0\xcc;\t-\xfd\xa2?'
tRp3878
aa(lp3879
g1782
aFinf
ag35
(g37
S's\xeak\x0f\xb9\xac\x88?'
tRp3880
ag35
(g37
S'0\xcc;\t-\xfd\xa2?'
tRp3881
aa(lp3882
S'ENSG00000152910'
p3883
aFinf
ag35
(g37
S'W\xe8FS\xe7\xd7~?'
tRp3884
ag35
(g37
S'0\xcc;\t-\xfd\xa2?'
tRp3885
aasg4
g5
((lp3886
S'ENSG00000188659'
p3887
aS'ENSG00000136908'
p3888
aS'ENSG00000130724'
p3889
aS'ENSG00000167766'
p3890
aS'ENSG00000134077'
p3891
aS'ENSG00000162877'
p3892
aS'ENSG00000170954'
p3893
aS'ENSG00000215440'
p3894
atRp3895
ssS'white'
p3896
(dp3897
g4
g5
((lp3898
S'ENSG00000141837'
p3899
aS'ENSG00000172247'
p3900
aS'ENSG00000160013'
p3901
aS'ENSG00000261221'
p3902
aS'ENSG00000189227'
p3903
aS'ENSG00000264278'
p3904
aS'ENSG00000131409'
p3905
aS'ENSG00000130193'
p3906
aS'ENSG00000214309'
p3907
aS'ENSG00000243710'
p3908
aS'ENSG00000223496'
p3909
aS'ENSG00000160999'
p3910
aS'ENSG00000104899'
p3911
aS'ENSG00000181029'
p3912
aS'ENSG00000179636'
p3913
aS'ENSG00000133250'
p3914
aS'ENSG00000140905'
p3915
atRp3916
ssS'tan4'
p3917
(dp3918
g31
(lp3919
(lp3920
g3095
ag35
(g37
S'\x00\x00\x00\x00\x00`k@'
tRp3921
ag35
(g37
S'R\xef\xe3\x80\x97\xc11?'
tRp3922
ag35
(g37
S'\x00\x10\xb5\xdd]\xb8q?'
tRp3923
aasg4
g5
((lp3924
S'ENSG00000162461'
p3925
aS'ENSG00000139192'
p3926
aS'ENSG00000253719'
p3927
aS'ENSG00000057593'
p3928
aS'ENSG00000204228'
p3929
aS'ENSG00000011523'
p3930
aS'ENSG00000100865'
p3931
aS'ENSG00000143869'
p3932
aS'ENSG00000059145'
p3933
aS'ENSG00000186868'
p3934
aS'ENSG00000126561'
p3935
atRp3936
ssS'tan3'
p3937
(dp3938
g31
(lp3939
(lp3940
S'ENSG00000130540'
p3941
ag35
(g37
S'\x00\x00\x00\x00\x00\xa0t@'
tRp3942
ag35
(g37
S'rE\x99\x84ez\x82?'
tRp3943
ag35
(g37
S'0d7\xba\xc2:\xa2?'
tRp3944
aa(lp3945
g2181
ag35
(g37
S'\xab\xaa\xaa\xaa\xaaj[@'
tRp3946
ag35
(g37
S'f\x8cs} l\x92?'
tRp3947
ag35
(g37
S'\xe0\x11\x19\xf5.z\xa4?'
tRp3948
aa(lp3949
g2186
ag35
(g37
S'\x00\x00\x00\x00\x00\x98d@'
tRp3950
ag35
(g37
S'\x9b(\xd7\x1f\xe3\xac\x8b?'
tRp3951
ag35
(g37
S'\xe0\x11\x19\xf5.z\xa4?'
tRp3952
aa(lp3953
g371
ag35
(g37
S'fffffF@@'
tRp3954
ag35
(g37
S'\x86\xe6\x1bDP\x10\xa9?'
tRp3955
ag35
(g37
S'\x80\xe6\x1bDP\x10\xa9?'
tRp3956
aasg4
g5
((lp3957
S'ENSG00000164118'
p3958
aS'ENSG00000164754'
p3959
aS'ENSG00000162975'
p3960
aS'ENSG00000105219'
p3961
aS'ENSG00000165929'
p3962
aS'ENSG00000139985'
p3963
aS'ENSG00000074706'
p3964
aS'ENSG00000164619'
p3965
aS'ENSG00000250120'
p3966
aS'ENSG00000101197'
p3967
atRp3968
ssS'tan2'
p3969
(dp3970
g31
(lp3971
(lp3972
S'ENSG00000145681'
p3973
ag35
(g37
S'\x00\x00\x00\x00\x00\xa8\x84@'
tRp3974
ag35
(g37
S'\xa6\xc6\xc6\x8a\xf5\xa7x?'
tRp3975
ag35
(g37
S'\xc0g\xe4(\xf6\x94\x88?'
tRp3976
aa(lp3977
S'ENSG00000144227'
p3978
ag35
(g37
S'\x00\x00\x00\x00\x00\xa8\x84@'
tRp3979
ag35
(g37
S'\xa6\xc6\xc6\x8a\xf5\xa7x?'
tRp3980
ag35
(g37
S'\xc0g\xe4(\xf6\x94\x88?'
tRp3981
aasg4
g5
((lp3982
S'ENSG00000163161'
p3983
aS'ENSG00000160323'
p3984
aS'ENSG00000129295'
p3985
aS'ENSG00000174348'
p3986
aS'ENSG00000013306'
p3987
aS'ENSG00000158863'
p3988
aS'ENSG00000171873'
p3989
aS'ENSG00000177600'
p3990
aS'ENSG00000101181'
p3991
aS'ENSG00000162383'
p3992
atRp3993
ssS'tan1'
p3994
(dp3995
g31
(lp3996
(lp3997
S'ENSG00000161270'
p3998
aFinf
ag35
(g37
S'\x97\xee\x90\xcb\x8a\x81r?'
tRp3999
ag35
(g37
S'@l\r/\x87r\x9b?'
tRp4000
aa(lp4001
S'ENSG00000242173'
p4002
ag35
(g37
S'\x00\x00\x00\x00\x00\xa0t@'
tRp4003
ag35
(g37
S'rE\x99\x84ez\x82?'
tRp4004
ag35
(g37
S'\xe0\x1f\xcd\xfd@\xaf\xa6?'
tRp4005
aasg4
g5
((lp4006
S'ENSG00000126259'
p4007
aS'ENSG00000180398'
p4008
aS'ENSG00000183914'
p4009
aS'ENSG00000088002'
p4010
aS'ENSG00000166199'
p4011
aS'ENSG00000161328'
p4012
aS'ENSG00000188130'
p4013
aS'ENSG00000198039'
p4014
aS'ENSG00000196476'
p4015
atRp4016
ssS'royalblue3'
p4017
(dp4018
g31
(lp4019
(lp4020
S'ENSG00000076716'
p4021
aFinf
ag35
(g37
S'\xb5\xe8k\x0f\xb9\xach?'
tRp4022
ag35
(g37
S'@H\xcd!{\xa8\x8e?'
tRp4023
aa(lp4024
S'ENSG00000122870'
p4025
aFinf
ag35
(g37
S'\xb5\xe8k\x0f\xb9\xach?'
tRp4026
ag35
(g37
S'@H\xcd!{\xa8\x8e?'
tRp4027
aa(lp4028
S'ENSG00000177283'
p4029
aFinf
ag35
(g37
S'\xb5\xe8k\x0f\xb9\xach?'
tRp4030
ag35
(g37
S'@H\xcd!{\xa8\x8e?'
tRp4031
aa(lp4032
S'ENSG00000163430'
p4033
ag35
(g37
S'\x00\x00\x00\x00\x00\x90d@'
tRp4034
ag35
(g37
S'\xd6#\r\xbc\x15\xc0\x8e?'
tRp4035
ag35
(g37
S'\xc03\x82h\xfc\x84\x9e?'
tRp4036
aasg4
g5
((lp4037
S'ENSG00000083097'
p4038
aS'ENSG00000078142'
p4039
aS'ENSG00000131015'
p4040
aS'ENSG00000141959'
p4041
aS'ENSG00000205129'
p4042
aS'ENSG00000111981'
p4043
aS'ENSG00000125386'
p4044
aS'ENSG00000132478'
p4045
aS'ENSG00000203722'
p4046
aS'ENSG00000099991'
p4047
atRp4048
ssS'tomato'
p4049
(dp4050
g31
(lp4051
(lp4052
S'ENSG00000149131'
p4053
aFinf
ag35
(g37
S'\x9fNOk1\xdd\x11?'
tRp4054
ag35
(g37
S'\x00\xf0b\xaesA??'
tRp4055
aasg4
g5
((lp4056
S'ENSG00000010818'
p4057
aS'ENSG00000159403'
p4058
aS'ENSG00000168653'
p4059
aS'ENSG00000141753'
p4060
aS'ENSG00000105559'
p4061
aS'ENSG00000107438'
p4062
aS'ENSG00000185149'
p4063
aS'ENSG00000242616'
p4064
aS'ENSG00000125810'
p4065
aS'ENSG00000235750'
p4066
atRp4067
ssS'ivory'
p4068
(dp4069
g31
(lp4070
(lp4071
S'ENSG00000158315'
p4072
ag35
(g37
S'\x00\x00\x00\x00\x00\xa8\x84@'
tRp4073
ag35
(g37
S'\xa6\xc6\xc6\x8a\xf5\xa7x?'
tRp4074
ag35
(g37
S'\xe0\xfa\x90\xdb1o\x98?'
tRp4075
aasg4
g5
((lp4076
S'ENSG00000197580'
p4077
aS'ENSG00000136108'
p4078
aS'ENSG00000181061'
p4079
aS'ENSG00000106733'
p4080
aS'ENSG00000037474'
p4081
aS'ENSG00000122481'
p4082
aS'ENSG00000179562'
p4083
aS'ENSG00000120332'
p4084
aS'ENSG00000132970'
p4085
aS'ENSG00000176771'
p4086
aS'ENSG00000100075'
p4087
aS'ENSG00000180376'
p4088
aS'ENSG00000131459'
p4089
aS'ENSG00000186891'
p4090
aS'ENSG00000171928'
p4091
atRp4092
ssS'dodgerblue'
p4093
(dp4094
g31
(lp4095
(lp4096
g2181
aFinf
ag35
(g37
S'\xc6\xe5k\x0f\xb9\xacx?'
tRp4097
ag35
(g37
S'`s}`\x0fe\x92?'
tRp4098
aa(lp4099
g371
aFinf
ag35
(g37
S'\x831\x9a:\xbf\xf6\x90?'
tRp4100
ag35
(g37
S'\xe0!t:#l\x92?'
tRp4101
aa(lp4102
g3876
aFinf
ag35
(g37
S'\x8e\xee\x90\xcb\x8a\x81\x82?'
tRp4103
ag35
(g37
S'\xe0!t:#l\x92?'
tRp4104
aasg4
g5
((lp4105
S'ENSG00000214078'
p4106
aS'ENSG00000174945'
p4107
aS'ENSG00000150756'
p4108
aS'ENSG00000173705'
p4109
aS'ENSG00000178057'
p4110
aS'ENSG00000068654'
p4111
atRp4112
ssS'lightyellow'
p4113
(dp4114
g31
(lp4115
(lp4116
S'ENSG00000156564'
p4117
ag35
(g37
S'\x00\x00\x00\x00\x00``@'
tRp4118
ag35
(g37
S'yd\xdf\xfb\x9a\x91B?'
tRp4119
ag35
(g37
S'@S\xa3\xa5t}\x82?'
tRp4120
aa(lp4121
S'ENSG00000077080'
p4122
ag35
(g37
S'%I\x92$IRW@'
tRp4123
ag35
(g37
S'\x9a\xe7/\xee\x15\xb4O?'
tRp4124
ag35
(g37
S'\x00\xf1\xd3\xa5\x83\x85\x8d?'
tRp4125
aa(lp4126
S'ENSG00000145526'
p4127
ag35
(g37
S'\x00\x00\x00\x00\x00`T@'
tRp4128
ag35
(g37
S'\x1d\xe3+\x0cF\xc6S?'
tRp4129
ag35
(g37
S'\x80\xce\xaf#\xe8*\x91?'
tRp4130
aa(lp4131
S'ENSG00000054356'
p4132
ag35
(g37
S'%I\x92$I\x12G@'
tRp4133
ag35
(g37
S'z\xceQ\xbc\xc9\x0bj?'
tRp4134
ag35
(g37
S'P\x8eurl\xc3\xa4?'
tRp4135
aa(lp4136
S'ENSG00000156959'
p4137
ag35
(g37
S'\x00\x00\x00\x00\x00\x80E@'
tRp4138
ag35
(g37
S'U\x0b\x10\xadjum?'
tRp4139
ag35
(g37
S'\xe0\xe5`\xb4\x86\xa9\xa5?'
tRp4140
aasg4
g5
((lp4141
S'ENSG00000154358'
p4142
aS'ENSG00000048140'
p4143
aS'ENSG00000166435'
p4144
aS'ENSG00000206044'
p4145
aS'ENSG00000183066'
p4146
aS'ENSG00000110777'
p4147
aS'ENSG00000162437'
p4148
aS'ENSG00000123685'
p4149
aS'ENSG00000006283'
p4150
aS'ENSG00000125462'
p4151
aS'ENSG00000134775'
p4152
aS'ENSG00000110871'
p4153
aS'ENSG00000110888'
p4154
aS'ENSG00000244005'
p4155
aS'ENSG00000140326'
p4156
aS'ENSG00000169220'
p4157
aS'ENSG00000089723'
p4158
aS'ENSG00000162913'
p4159
aS'ENSG00000111752'
p4160
atRp4161
ssS'paleturquoise1'
p4162
(dp4163
g31
(lp4164
(lp4165
S'ENSG00000114279'
p4166
aFinf
ag35
(g37
S'\xa9\xe8k\x0f\xb9\xacX?'
tRp4167
ag35
(g37
S'\x80\x83\x980izr?'
tRp4168
aa(lp4169
g2378
aFinf
ag35
(g37
S'\xc6\xe5k\x0f\xb9\xacx?'
tRp4170
ag35
(g37
S'\xc0\x84\x02\x03\xd7v\x82?'
tRp4171
aa(lp4172
g2382
aFinf
ag35
(g37
S'\xfa\xea\x90\xcb\x8a\x81r?'
tRp4173
ag35
(g37
S'\xc0\x84\x02\x03\xd7v\x82?'
tRp4174
aasg4
g5
((lp4175
S'ENSG00000034239'
p4176
aS'ENSG00000225830'
p4177
aS'ENSG00000171055'
p4178
aS'ENSG00000122674'
p4179
aS'ENSG00000053900'
p4180
aS'ENSG00000115561'
p4181
aS'ENSG00000148948'
p4182
aS'ENSG00000144233'
p4183
atRp4184
ssS'lightyellow3'
p4185
(dp4186
g31
(lp4187
(lp4188
S'ENSG00000081853'
p4189
ag35
(g37
S'\x00\x00\x00\x00\x00\xa8\x84@'
tRp4190
ag35
(g37
S'\xa6\xc6\xc6\x8a\xf5\xa7x?'
tRp4191
ag35
(g37
S'\xe0\xfa\x90\xdb1o\x98?'
tRp4192
aasg4
g5
((lp4193
S'ENSG00000240184'
p4194
aS'ENSG00000075975'
p4195
aS'ENSG00000135870'
p4196
aS'ENSG00000242866'
p4197
aS'ENSG00000143847'
p4198
atRp4199
ssS'chocolate'
p4200
(dp4201
g4
g5
((lp4202
S'ENSG00000127337'
p4203
aS'ENSG00000142609'
p4204
aS'ENSG00000178809'
p4205
aS'ENSG00000104889'
p4206
aS'ENSG00000198750'
p4207
aS'ENSG00000204632'
p4208
aS'ENSG00000117601'
p4209
aS'ENSG00000169762'
p4210
atRp4211
ssS'lightpink2'
p4212
(dp4213
g4
g5
((lp4214
S'ENSG00000198792'
p4215
aS'ENSG00000157578'
p4216
aS'ENSG00000133027'
p4217
aS'ENSG00000167555'
p4218
aS'ENSG00000177692'
p4219
aS'ENSG00000127952'
p4220
aS'ENSG00000162714'
p4221
aS'ENSG00000138363'
p4222
aS'ENSG00000174915'
p4223
aS'ENSG00000146205'
p4224
aS'ENSG00000162929'
p4225
atRp4226
ssS'lightpink3'
p4227
(dp4228
g4
g5
((lp4229
S'ENSG00000185024'
p4230
aS'ENSG00000184923'
p4231
aS'ENSG00000185838'
p4232
aS'ENSG00000127125'
p4233
aS'ENSG00000204954'
p4234
aS'ENSG00000130653'
p4235
aS'ENSG00000120008'
p4236
aS'ENSG00000171953'
p4237
aS'ENSG00000144445'
p4238
aS'ENSG00000099203'
p4239
aS'ENSG00000197008'
p4240
aS'ENSG00000176531'
p4241
atRp4242
ssS'lightpink1'
p4243
(dp4244
g31
(lp4245
(lp4246
S'ENSG00000184672'
p4247
aFinf
ag35
(g37
S'V\xedk\x0f\xb9\xach?'
tRp4248
ag35
(g37
S'@M\xcd!{\xa8\x8e?'
tRp4249
aa(lp4250
S'ENSG00000144290'
p4251
aFinf
ag35
(g37
S'\xc6\xe5k\x0f\xb9\xacx?'
tRp4252
ag35
(g37
S'\xe0& z\xdfs\x98?'
tRp4253
aa(lp4254
g4122
aFinf
ag35
(g37
S'-iY1P\xc2\x8b?'
tRp4255
ag35
(g37
S'\xe0\xdf\xa2\x01K\x82\x9b?'
tRp4256
aa(lp4257
g2843
aFinf
ag35
(g37
S'\x80h~\xed!\x97\x85?'
tRp4258
ag35
(g37
S'\xe0\xdf\xa2\x01K\x82\x9b?'
tRp4259
aa(lp4260
S'ENSG00000220575'
p4261
aFinf
ag35
(g37
S'\x8e\xee\x90\xcb\x8a\x81\x82?'
tRp4262
ag35
(g37
S'\xe0\xdf\xa2\x01K\x82\x9b?'
tRp4263
aasg4
g5
((lp4264
S'ENSG00000164347'
p4265
aS'ENSG00000196268'
p4266
aS'ENSG00000234224'
p4267
aS'ENSG00000204920'
p4268
aS'ENSG00000147649'
p4269
aS'ENSG00000080166'
p4270
aS'ENSG00000137996'
p4271
aS'ENSG00000077616'
p4272
aS'ENSG00000152582'
p4273
aS'ENSG00000186448'
p4274
atRp4275
ssS'darkgrey'
p4276
(dp4277
g4
g5
((lp4278
S'ENSG00000241058'
p4279
aS'ENSG00000058799'
p4280
aS'ENSG00000186648'
p4281
aS'ENSG00000204740'
p4282
aS'ENSG00000198833'
p4283
aS'ENSG00000213523'
p4284
aS'ENSG00000100219'
p4285
aS'ENSG00000240038'
p4286
aS'ENSG00000179270'
p4287
aS'ENSG00000140527'
p4288
aS'ENSG00000129354'
p4289
aS'ENSG00000121073'
p4290
aS'ENSG00000175832'
p4291
aS'ENSG00000139437'
p4292
aS'ENSG00000149262'
p4293
aS'ENSG00000171612'
p4294
aS'ENSG00000178462'
p4295
aS'ENSG00000088682'
p4296
atRp4297
ssS'lightpink4'
p4298
(dp4299
g4
g5
((lp4300
S'ENSG00000131051'
p4301
aS'ENSG00000166851'
p4302
aS'ENSG00000117614'
p4303
aS'ENSG00000119318'
p4304
aS'ENSG00000164414'
p4305
aS'ENSG00000146731'
p4306
aS'ENSG00000143768'
p4307
aS'ENSG00000111615'
p4308
aS'ENSG00000196793'
p4309
aS'ENSG00000154328'
p4310
aS'ENSG00000104231'
p4311
aS'ENSG00000131795'
p4312
aS'ENSG00000168385'
p4313
aS'ENSG00000127399'
p4314
atRp4315
ssS'darkseagreen3'
p4316
(dp4317
g4
g5
((lp4318
S'ENSG00000241186'
p4319
aS'ENSG00000178021'
p4320
aS'ENSG00000197451'
p4321
aS'ENSG00000083535'
p4322
aS'ENSG00000152904'
p4323
aS'ENSG00000090487'
p4324
aS'ENSG00000138376'
p4325
aS'ENSG00000122965'
p4326
aS'ENSG00000102858'
p4327
aS'ENSG00000175115'
p4328
aS'ENSG00000121350'
p4329
aS'ENSG00000131697'
p4330
atRp4331
ssS'mintcream'
p4332
(dp4333
g4
g5
((lp4334
S'ENSG00000122643'
p4335
aS'ENSG00000178038'
p4336
aS'ENSG00000056586'
p4337
aS'ENSG00000067836'
p4338
aS'ENSG00000114744'
p4339
atRp4340
ssS'antiquewhite'
p4341
(dp4342
g4
g5
((lp4343
S'ENSG00000124380'
p4344
aS'ENSG00000146966'
p4345
aS'ENSG00000184206'
p4346
aS'ENSG00000168661'
p4347
aS'ENSG00000099940'
p4348
aS'ENSG00000085465'
p4349
aS'ENSG00000140104'
p4350
aS'ENSG00000119715'
p4351
aS'ENSG00000050628'
p4352
atRp4353
ssS'darkorange2'
p4354
(dp4355
g31
(lp4356
(lp4357
S'ENSG00000164061'
p4358
aFinf
ag35
(g37
S'\xb5\xe8k\x0f\xb9\xach?'
tRp4359
ag35
(g37
S'\xa0%\x8aFKm\x9b?'
tRp4360
aa(lp4361
S'ENSG00000161940'
p4362
ag35
(g37
S'\x00\x00\x00\x00\x00\xa8\x84@'
tRp4363
ag35
(g37
S'\xa6\xc6\xc6\x8a\xf5\xa7x?'
tRp4364
ag35
(g37
S'P\xd1\xe2\xa6\x90$\xa8?'
tRp4365
aa(lp4366
S'ENSG00000205362'
p4367
ag35
(g37
S'\x00\x00\x00\x00\x00\xa0t@'
tRp4368
ag35
(g37
S'`>\x99\x84ez\x82?'
tRp4369
ag35
(g37
S'P\xd1\xe2\xa6\x90$\xa8?'
tRp4370
aa(lp4371
S'ENSG00000163638'
p4372
ag35
(g37
S'\x00\x00\x00\x00\x00\xa8\x84@'
tRp4373
ag35
(g37
S'\xa6\xc6\xc6\x8a\xf5\xa7x?'
tRp4374
ag35
(g37
S'P\xd1\xe2\xa6\x90$\xa8?'
tRp4375
aa(lp4376
S'ENSG00000164867'
p4377
ag35
(g37
S'\x00\x00\x00\x00\x00\xa8\x84@'
tRp4378
ag35
(g37
S'\xa6\xc6\xc6\x8a\xf5\xa7x?'
tRp4379
ag35
(g37
S'P\xd1\xe2\xa6\x90$\xa8?'
tRp4380
aa(lp4381
S'ENSG00000167772'
p4382
ag35
(g37
S'UUUUUuk@'
tRp4383
ag35
(g37
S'\xc5i|\x81n\x9e\x88?'
tRp4384
ag35
(g37
S'P\xd1\xe2\xa6\x90$\xa8?'
tRp4385
aa(lp4386
S'ENSG00000177464'
p4387
ag35
(g37
S'\x00\x00\x00\x00\x00\xa8\x84@'
tRp4388
ag35
(g37
S'\xa6\xc6\xc6\x8a\xf5\xa7x?'
tRp4389
ag35
(g37
S'P\xd1\xe2\xa6\x90$\xa8?'
tRp4390
aa(lp4391
S'ENSG00000196329'
p4392
ag35
(g37
S'\x00\x00\x00\x00\x00\xa8\x84@'
tRp4393
ag35
(g37
S'\xa6\xc6\xc6\x8a\xf5\xa7x?'
tRp4394
ag35
(g37
S'P\xd1\xe2\xa6\x90$\xa8?'
tRp4395
aasg4
g5
((lp4396
S'ENSG00000177302'
p4397
aS'ENSG00000131626'
p4398
aS'ENSG00000089012'
p4399
aS'ENSG00000101003'
p4400
aS'ENSG00000157823'
p4401
aS'ENSG00000115266'
p4402
aS'ENSG00000167461'
p4403
aS'ENSG00000188004'
p4404
aS'ENSG00000102931'
p4405
aS'ENSG00000116830'
p4406
aS'ENSG00000140043'
p4407
aS'ENSG00000163281'
p4408
aS'ENSG00000166800'
p4409
aS'ENSG00000181873'
p4410
aS'ENSG00000002919'
p4411
atRp4412
ssS'cornsilk2'
p4413
(dp4414
g4
g5
((lp4415
S'ENSG00000203867'
p4416
aS'ENSG00000134548'
p4417
aS'ENSG00000160948'
p4418
aS'ENSG00000018408'
p4419
aS'ENSG00000010803'
p4420
aS'ENSG00000241945'
p4421
aS'ENSG00000137868'
p4422
aS'ENSG00000213625'
p4423
aS'ENSG00000185088'
p4424
atRp4425
ssS'khaki2'
p4426
(dp4427
g4
g5
((lp4428
S'ENSG00000180113'
p4429
aS'ENSG00000197457'
p4430
aS'ENSG00000152749'
p4431
aS'ENSG00000111275'
p4432
aS'ENSG00000226124'
p4433
aS'ENSG00000175170'
p4434
aS'ENSG00000070413'
p4435
atRp4436
ssS'moccasin'
p4437
(dp4438
g31
(lp4439
(lp4440
S'ENSG00000070729'
p4441
aFinf
ag35
(g37
S'\xc2\xe8k\x0f\xb9\xacx?'
tRp4442
ag35
(g37
S'\x90p\x96\xd0=4\xa5?'
tRp4443
aa(lp4444
S'ENSG00000111249'
p4445
aFinf
ag35
(g37
S'\xc2\xe8k\x0f\xb9\xacx?'
tRp4446
ag35
(g37
S'\x90p\x96\xd0=4\xa5?'
tRp4447
aa(lp4448
S'ENSG00000163673'
p4449
aFinf
ag35
(g37
S'\xc2\xe8k\x0f\xb9\xacx?'
tRp4450
ag35
(g37
S'\x90p\x96\xd0=4\xa5?'
tRp4451
aa(lp4452
S'ENSG00000140015'
p4453
aFinf
ag35
(g37
S'\xc2\xe8k\x0f\xb9\xacx?'
tRp4454
ag35
(g37
S'\x90p\x96\xd0=4\xa5?'
tRp4455
aasg4
g5
((lp4456
S'ENSG00000182010'
p4457
aS'ENSG00000110975'
p4458
aS'ENSG00000133265'
p4459
aS'ENSG00000250565'
p4460
aS'ENSG00000198203'
p4461
aS'ENSG00000144152'
p4462
aS'ENSG00000100296'
p4463
aS'ENSG00000161955'
p4464
aS'ENSG00000183090'
p4465
aS'ENSG00000262246'
p4466
atRp4467
ssS'chocolate1'
p4468
(dp4469
g4
g5
((lp4470
S'ENSG00000152503'
p4471
aS'ENSG00000112249'
p4472
aS'ENSG00000232258'
p4473
aS'ENSG00000074410'
p4474
aS'ENSG00000101188'
p4475
aS'ENSG00000183734'
p4476
aS'ENSG00000117724'
p4477
aS'ENSG00000204540'
p4478
aS'ENSG00000121064'
p4479
atRp4480
ssS'chocolate2'
p4481
(dp4482
g31
(lp4483
(lp4484
g34
aFinf
ag35
(g37
S'V\xedk\x0f\xb9\xach?'
tRp4485
ag35
(g37
S'@\xcf\x17kIs\x82?'
tRp4486
aa(lp4487
g41
aFinf
ag35
(g37
S'\xc6\xe5k\x0f\xb9\xacx?'
tRp4488
ag35
(g37
S'@\xcf\x17kIs\x82?'
tRp4489
aa(lp4490
g45
aFinf
ag35
(g37
S'V\xedk\x0f\xb9\xach?'
tRp4491
ag35
(g37
S'@\xcf\x17kIs\x82?'
tRp4492
aasg4
g5
((lp4493
S'ENSG00000148484'
p4494
aS'ENSG00000081154'
p4495
aS'ENSG00000091542'
p4496
aS'ENSG00000120451'
p4497
aS'ENSG00000185787'
p4498
aS'ENSG00000240747'
p4499
aS'ENSG00000065989'
p4500
aS'ENSG00000184809'
p4501
aS'ENSG00000144711'
p4502
atRp4503
ssS'chocolate3'
p4504
(dp4505
g31
(lp4506
(lp4507
S'ENSG00000205035'
p4508
aFinf
ag35
(g37
S'\x97\xee\x90\xcb\x8a\x81r?'
tRp4509
ag35
(g37
S'\xc0\x0c\x8d,\x88a\x92?'
tRp4510
aa(lp4511
S'ENSG00000182450'
p4512
ag35
(g37
S'\x00\x00\x00\x00\x00\x98d@'
tRp4513
ag35
(g37
S'\x9b(\xd7\x1f\xe3\xac\x8b?'
tRp4514
ag35
(g37
S'\xe0\x11\x19\xf5.z\xa4?'
tRp4515
aasg4
g5
((lp4516
S'ENSG00000133597'
p4517
aS'ENSG00000164253'
p4518
aS'ENSG00000152620'
p4519
aS'ENSG00000070831'
p4520
aS'ENSG00000170209'
p4521
aS'ENSG00000103522'
p4522
aS'ENSG00000133067'
p4523
aS'ENSG00000178252'
p4524
aS'ENSG00000163885'
p4525
aS'ENSG00000110881'
p4526
atRp4527
ssS'chocolate4'
p4528
(dp4529
g4
g5
((lp4530
S'ENSG00000144848'
p4531
aS'ENSG00000214087'
p4532
aS'ENSG00000243335'
p4533
aS'ENSG00000114383'
p4534
aS'ENSG00000165806'
p4535
aS'ENSG00000105185'
p4536
aS'ENSG00000109065'
p4537
aS'ENSG00000106636'
p4538
aS'ENSG00000164610'
p4539
aS'ENSG00000134809'
p4540
aS'ENSG00000176593'
p4541
atRp4542
ssS'darkslateblue'
p4543
(dp4544
g31
(lp4545
(lp4546
S'ENSG00000069431'
p4547
aFinf
ag35
(g37
S'\x9fNOk1\xdd\x11?'
tRp4548
ag35
(g37
S'\x00\xcc\xe6\xa2f\x04M?'
tRp4549
aa(lp4550
g1297
ag35
(g37
S'33333SP@'
tRp4551
ag35
(g37
S'\xcb,z\x8c>\xfaV?'
tRp4552
ag35
(g37
S'\xe0\xa9U\x10\xd0\x19\x91?'
tRp4553
aasg4
g5
((lp4554
S'ENSG00000182253'
p4555
aS'ENSG00000156795'
p4556
aS'ENSG00000085514'
p4557
aS'ENSG00000078487'
p4558
aS'ENSG00000121716'
p4559
aS'ENSG00000117477'
p4560
aS'ENSG00000196381'
p4561
aS'ENSG00000138744'
p4562
aS'ENSG00000114698'
p4563
aS'ENSG00000106624'
p4564
aS'ENSG00000140522'
p4565
aS'ENSG00000056972'
p4566
aS'ENSG00000196693'
p4567
aS'ENSG00000187616'
p4568
aS'ENSG00000204991'
p4569
atRp4570
ssS'lightskyblue'
p4571
(dp4572
g31
(lp4573
(lp4574
S'ENSG00000180921'
p4575
aFinf
ag35
(g37
S'\x97\xee\x90\xcb\x8a\x81r?'
tRp4576
ag35
(g37
S'@\x88\x02\x03\xd7v\x82?'
tRp4577
aa(lp4578
S'ENSG00000259384'
p4579
aFinf
ag35
(g37
S'\x97\xee\x90\xcb\x8a\x81r?'
tRp4580
ag35
(g37
S'@\x88\x02\x03\xd7v\x82?'
tRp4581
aasg4
g5
((lp4582
S'ENSG00000256269'
p4583
aS'ENSG00000129451'
p4584
aS'ENSG00000105668'
p4585
aS'ENSG00000134200'
p4586
aS'ENSG00000164062'
p4587
aS'ENSG00000143001'
p4588
aS'ENSG00000140471'
p4589
atRp4590
ssS'violetred2'
p4591
(dp4592
g31
(lp4593
(lp4594
S'ENSG00000186675'
p4595
aFinf
ag35
(g37
S'\xa9\xe8k\x0f\xb9\xacX?'
tRp4596
ag35
(g37
S'@\x88xG\x9b\xa2\x8e?'
tRp4597
aa(lp4598
S'ENSG00000250510'
p4599
aFinf
ag35
(g37
S'\xa9\xe8k\x0f\xb9\xacX?'
tRp4600
ag35
(g37
S'@\x88xG\x9b\xa2\x8e?'
tRp4601
aa(lp4602
S'ENSG00000268654'
p4603
aFinf
ag35
(g37
S'V\xedk\x0f\xb9\xach?'
tRp4604
ag35
(g37
S'@\x9eI\xd4\x87j\x98?'
tRp4605
aa(lp4606
S'ENSG00000103723'
p4607
aFinf
ag35
(g37
S'V\xedk\x0f\xb9\xach?'
tRp4608
ag35
(g37
S'@\x9eI\xd4\x87j\x98?'
tRp4609
aasg4
g5
((lp4610
S'ENSG00000168418'
p4611
aS'ENSG00000136698'
p4612
aS'ENSG00000175581'
p4613
aS'ENSG00000267710'
p4614
aS'ENSG00000163354'
p4615
aS'ENSG00000083544'
p4616
atRp4617
ssS'salmon1'
p4618
(dp4619
g31
(lp4620
(lp4621
g4002
ag35
(g37
S'\x00\x00\x00\x00\x00\xa8\x84@'
tRp4622
ag35
(g37
S'\xa6\xc6\xc6\x8a\xf5\xa7x?'
tRp4623
ag35
(g37
S'\x80\xc6\xc6\x8a\xf5\xa7x?'
tRp4624
aasg4
g5
((lp4625
S'ENSG00000113734'
p4626
aS'ENSG00000185684'
p4627
aS'ENSG00000180817'
p4628
aS'ENSG00000157800'
p4629
aS'ENSG00000179774'
p4630
aS'ENSG00000149084'
p4631
aS'ENSG00000175535'
p4632
aS'ENSG00000125885'
p4633
aS'ENSG00000108559'
p4634
aS'ENSG00000124784'
p4635
aS'ENSG00000118197'
p4636
atRp4637
ssS'thistle'
p4638
(dp4639
g4
g5
((lp4640
S'ENSG00000155660'
p4641
aS'ENSG00000151849'
p4642
aS'ENSG00000185624'
p4643
aS'ENSG00000110274'
p4644
aS'ENSG00000116209'
p4645
aS'ENSG00000159063'
p4646
aS'ENSG00000179218'
p4647
aS'ENSG00000105072'
p4648
aS'ENSG00000135047'
p4649
aS'ENSG00000099977'
p4650
aS'ENSG00000115761'
p4651
aS'ENSG00000138400'
p4652
atRp4653
ssS'deeppink'
p4654
(dp4655
g31
(lp4656
(lp4657
S'ENSG00000154118'
p4658
ag35
(g37
S'\x00\x00\x00\x00\x00\xa8\x84@'
tRp4659
ag35
(g37
S'\xa6\xc6\xc6\x8a\xf5\xa7x?'
tRp4660
ag35
(g37
S'\x80\xc6\xc6\x8a\xf5\xa7x?'
tRp4661
aasg4
g5
((lp4662
S'ENSG00000163867'
p4663
aS'ENSG00000103260'
p4664
aS'ENSG00000255874'
p4665
aS'ENSG00000188486'
p4666
aS'ENSG00000146054'
p4667
aS'ENSG00000213077'
p4668
aS'ENSG00000177666'
p4669
aS'ENSG00000147697'
p4670
aS'ENSG00000089335'
p4671
aS'ENSG00000134900'
p4672
aS'ENSG00000143971'
p4673
atRp4674
ssS'plum'
p4675
(dp4676
g31
(lp4677
(lp4678
S'ENSG00000099822'
p4679
aFinf
ag35
(g37
S'\xa9\xe8k\x0f\xb9\xacX?'
tRp4680
ag35
(g37
S'\x00\xe8k\x0f\xb9\xacX?'
tRp4681
aasg4
g5
((lp4682
S'ENSG00000185745'
p4683
aS'ENSG00000178397'
p4684
aS'ENSG00000004468'
p4685
aS'ENSG00000205863'
p4686
aS'ENSG00000139193'
p4687
aS'ENSG00000187608'
p4688
aS'ENSG00000171791'
p4689
aS'ENSG00000168135'
p4690
aS'ENSG00000055332'
p4691
aS'ENSG00000146535'
p4692
aS'ENSG00000198721'
p4693
aS'ENSG00000240583'
p4694
aS'ENSG00000166750'
p4695
atRp4696
ssS'goldenrod4'
p4697
(dp4698
g31
(lp4699
(lp4700
S'ENSG00000144671'
p4701
aFinf
ag35
(g37
S'\xb5\xe8k\x0f\xb9\xach?'
tRp4702
ag35
(g37
S'\x00\xe9k\x0f\xb9\xach?'
tRp4703
aasg4
g5
((lp4704
S'ENSG00000171806'
p4705
aS'ENSG00000196867'
p4706
aS'ENSG00000185519'
p4707
aS'ENSG00000070785'
p4708
aS'ENSG00000000460'
p4709
aS'ENSG00000143199'
p4710
aS'ENSG00000117697'
p4711
aS'ENSG00000165695'
p4712
atRp4713
ssS'palegreen3'
p4714
(dp4715
g4
g5
((lp4716
S'ENSG00000131435'
p4717
aS'ENSG00000174720'
p4718
aS'ENSG00000188629'
p4719
aS'ENSG00000205464'
p4720
aS'ENSG00000126653'
p4721
atRp4722
ssS'palegreen4'
p4723
(dp4724
g31
(lp4725
(lp4726
S'ENSG00000196569'
p4727
aFinf
ag35
(g37
S'\xa9\xe8k\x0f\xb9\xacX?'
tRp4728
ag35
(g37
S'\x80k\xfe\xa5\xbdo\x82?'
tRp4729
aasg4
g5
((lp4730
S'ENSG00000105186'
p4731
aS'ENSG00000111052'
p4732
aS'ENSG00000136929'
p4733
aS'ENSG00000071626'
p4734
aS'ENSG00000108823'
p4735
aS'ENSG00000197302'
p4736
aS'ENSG00000154511'
p4737
atRp4738
ssS'goldenrod2'
p4739
(dp4740
g4
g5
((lp4741
S'ENSG00000164307'
p4742
aS'ENSG00000166888'
p4743
aS'ENSG00000143537'
p4744
aS'ENSG00000153113'
p4745
aS'ENSG00000196263'
p4746
atRp4747
ssS'goldenrod3'
p4748
(dp4749
g4
g5
((lp4750
S'ENSG00000182749'
p4751
aS'ENSG00000088305'
p4752
aS'ENSG00000183386'
p4753
aS'ENSG00000198231'
p4754
aS'ENSG00000114770'
p4755
aS'ENSG00000272514'
p4756
aS'ENSG00000110880'
p4757
atRp4758
ssS'darkgoldenrod'
p4759
(dp4760
g31
(lp4761
(lp4762
S'ENSG00000184515'
p4763
aFinf
ag35
(g37
S'\xa9\xe8k\x0f\xb9\xacX?'
tRp4764
ag35
(g37
S'\x00\xe8k\x0f\xb9\xacX?'
tRp4765
aasg4
g5
((lp4766
S'ENSG00000204463'
p4767
aS'ENSG00000166272'
p4768
aS'ENSG00000187905'
p4769
aS'ENSG00000163382'
p4770
aS'ENSG00000232629'
p4771
aS'ENSG00000237541'
p4772
aS'ENSG00000125861'
p4773
atRp4774
ssS'red1'
p4775
(dp4776
g31
(lp4777
(lp4778
g371
aFinf
ag35
(g37
S'\x831\x9a:\xbf\xf6\x90?'
tRp4779
ag35
(g37
S'\x801\x9a:\xbf\xf6\x90?'
tRp4780
aasg4
g5
((lp4781
S'ENSG00000019186'
p4782
aS'ENSG00000172167'
p4783
aS'ENSG00000100376'
p4784
aS'ENSG00000172803'
p4785
aS'ENSG00000185158'
p4786
aS'ENSG00000135040'
p4787
aS'ENSG00000130508'
p4788
aS'ENSG00000185880'
p4789
aS'ENSG00000121335'
p4790
atRp4791
ssS'mediumorchid'
p4792
(dp4793
g4
g5
((lp4794
S'ENSG00000198185'
p4795
aS'ENSG00000160392'
p4796
aS'ENSG00000188878'
p4797
aS'ENSG00000185942'
p4798
aS'ENSG00000157637'
p4799
aS'ENSG00000145217'
p4800
aS'ENSG00000104064'
p4801
aS'ENSG00000103148'
p4802
aS'ENSG00000168491'
p4803
aS'ENSG00000164597'
p4804
aS'ENSG00000135828'
p4805
aS'ENSG00000161677'
p4806
aS'ENSG00000145214'
p4807
aS'ENSG00000268175'
p4808
atRp4809
ssS'maroon'
p4810
(dp4811
g31
(lp4812
(lp4813
S'ENSG00000120279'
p4814
aFinf
ag35
(g37
S'\x97\xee\x90\xcb\x8a\x81r?'
tRp4815
ag35
(g37
S'\xc0K\xb5\xa2L7\xa2?'
tRp4816
aa(lp4817
S'ENSG00000180139'
p4818
aFinf
ag35
(g37
S'\x97\xee\x90\xcb\x8a\x81r?'
tRp4819
ag35
(g37
S'\xc0K\xb5\xa2L7\xa2?'
tRp4820
aasg4
g5
((lp4821
S'ENSG00000151632'
p4822
aS'ENSG00000196419'
p4823
aS'ENSG00000138303'
p4824
aS'ENSG00000106404'
p4825
aS'ENSG00000143156'
p4826
aS'ENSG00000105609'
p4827
aS'ENSG00000104412'
p4828
aS'ENSG00000174600'
p4829
aS'ENSG00000100890'
p4830
aS'ENSG00000055732'
p4831
aS'ENSG00000130638'
p4832
aS'ENSG00000138771'
p4833
aS'ENSG00000116652'
p4834
aS'ENSG00000182986'
p4835
atRp4836
ssS'lightcyan1'
p4837
(dp4838
g4
g5
((lp4839
S'ENSG00000257335'
p4840
aS'ENSG00000169598'
p4841
aS'ENSG00000184611'
p4842
aS'ENSG00000163444'
p4843
aS'ENSG00000167711'
p4844
aS'ENSG00000074966'
p4845
aS'ENSG00000125618'
p4846
aS'ENSG00000177096'
p4847
aS'ENSG00000146707'
p4848
aS'ENSG00000022556'
p4849
aS'ENSG00000188372'
p4850
aS'ENSG00000173156'
p4851
aS'ENSG00000173653'
p4852
aS'ENSG00000137720'
p4853
aS'ENSG00000198951'
p4854
atRp4855
ssS'turquoise2'
p4856
(dp4857
g31
(lp4858
(lp4859
S'ENSG00000003137'
p4860
aFinf
ag35
(g37
S'\xa9\xe8k\x0f\xb9\xacX?'
tRp4861
ag35
(g37
S'\x80\x890\x1f9~\x85?'
tRp4862
aa(lp4863
S'ENSG00000082497'
p4864
aFinf
ag35
(g37
S'\xa9\xe8k\x0f\xb9\xacX?'
tRp4865
ag35
(g37
S'\x80\x890\x1f9~\x85?'
tRp4866
aa(lp4867
S'ENSG00000206579'
p4868
aFinf
ag35
(g37
S'\xa9\xe8k\x0f\xb9\xacX?'
tRp4869
ag35
(g37
S'\x80\x890\x1f9~\x85?'
tRp4870
aa(lp4871
g3458
aFinf
ag35
(g37
S'\xfa\xea\x90\xcb\x8a\x81r?'
tRp4872
ag35
(g37
S'\x80\x890\x1f9~\x85?'
tRp4873
aa(lp4874
S'ENSG00000198910'
p4875
aFinf
ag35
(g37
S'V\xedk\x0f\xb9\xach?'
tRp4876
ag35
(g37
S'\x80\x890\x1f9~\x85?'
tRp4877
aa(lp4878
g3462
aFinf
ag35
(g37
S'\xfa\xea\x90\xcb\x8a\x81r?'
tRp4879
ag35
(g37
S'\x80\x890\x1f9~\x85?'
tRp4880
aa(lp4881
S'ENSG00000038295'
p4882
aFinf
ag35
(g37
S'\xa9\xe8k\x0f\xb9\xacX?'
tRp4883
ag35
(g37
S'\x80\x890\x1f9~\x85?'
tRp4884
aasg4
g5
((lp4885
S'ENSG00000122484'
p4886
aS'ENSG00000108179'
p4887
aS'ENSG00000184898'
p4888
aS'ENSG00000197467'
p4889
aS'ENSG00000140465'
p4890
aS'ENSG00000105258'
p4891
aS'ENSG00000105928'
p4892
aS'ENSG00000133398'
p4893
atRp4894
ssS'burlywood1'
p4895
(dp4896
g31
(lp4897
(lp4898
g4247
aFinf
ag35
(g37
S'V\xedk\x0f\xb9\xach?'
tRp4899
ag35
(g37
S'@M\xcd!{\xa8\x8e?'
tRp4900
aa(lp4901
g4251
aFinf
ag35
(g37
S'\xc6\xe5k\x0f\xb9\xacx?'
tRp4902
ag35
(g37
S'\xe0& z\xdfs\x98?'
tRp4903
aa(lp4904
g4122
aFinf
ag35
(g37
S'-iY1P\xc2\x8b?'
tRp4905
ag35
(g37
S'\xe0\xdf\xa2\x01K\x82\x9b?'
tRp4906
aa(lp4907
g2843
aFinf
ag35
(g37
S'\x80h~\xed!\x97\x85?'
tRp4908
ag35
(g37
S'\xe0\xdf\xa2\x01K\x82\x9b?'
tRp4909
aa(lp4910
g4261
aFinf
ag35
(g37
S'\x8e\xee\x90\xcb\x8a\x81\x82?'
tRp4911
ag35
(g37
S'\xe0\xdf\xa2\x01K\x82\x9b?'
tRp4912
aasg4
g5
((lp4913
S'ENSG00000132423'
p4914
aS'ENSG00000108176'
p4915
aS'ENSG00000013293'
p4916
aS'ENSG00000133703'
p4917
aS'ENSG00000171016'
p4918
aS'ENSG00000116885'
p4919
aS'ENSG00000163486'
p4920
aS'ENSG00000134905'
p4921
atRp4922
ssS'seashell3'
p4923
(dp4924
g31
(lp4925
(lp4926
S'ENSG00000116544'
p4927
ag35
(g37
S'\x00\x00\x00\x00\x00\xa8\x84@'
tRp4928
ag35
(g37
S'\xa6\xc6\xc6\x8a\xf5\xa7x?'
tRp4929
ag35
(g37
S'\x00}\x81\xb8\x87a\x92?'
tRp4930
aa(lp4931
S'ENSG00000099365'
p4932
ag35
(g37
S'\xcd\xcc\xcc\xcc\xccl`@'
tRp4933
ag35
(g37
S'\xb0\xaa%\x9a\xado\x92?'
tRp4934
ag35
(g37
S'p\xd4\xef\xf50E\xa2?'
tRp4935
aa(lp4936
S'ENSG00000185742'
p4937
ag35
(g37
S'\x11\x11\x11\x11\x11\x91E@'
tRp4938
ag35
(g37
S'6\xb1\xbeIDe\xa8?'
tRp4939
ag35
(g37
S'0\xb1\xbeIDe\xa8?'
tRp4940
aasg4
g5
((lp4941
S'ENSG00000182134'
p4942
aS'ENSG00000104219'
p4943
aS'ENSG00000182472'
p4944
aS'ENSG00000186063'
p4945
aS'ENSG00000185053'
p4946
aS'ENSG00000187010'
p4947
aS'ENSG00000089063'
p4948
aS'ENSG00000060749'
p4949
atRp4950
ssS'burlywood3'
p4951
(dp4952
g4
g5
((lp4953
S'ENSG00000120324'
p4954
aS'ENSG00000197568'
p4955
aS'ENSG00000167874'
p4956
aS'ENSG00000134545'
p4957
aS'ENSG00000150316'
p4958
aS'ENSG00000139624'
p4959
atRp4960
ssS'burlywood2'
p4961
(dp4962
g4
g5
((lp4963
S'ENSG00000139364'
p4964
aS'ENSG00000249242'
p4965
aS'ENSG00000185742'
p4966
aS'ENSG00000163638'
p4967
aS'ENSG00000102606'
p4968
aS'ENSG00000134909'
p4969
aS'ENSG00000104154'
p4970
atRp4971
ssS'violet'
p4972
(dp4973
g31
(lp4974
(lp4975
S'ENSG00000160014'
p4976
ag35
(g37
S'\x00\x00\x00\x00\x00\xa8\x84@'
tRp4977
ag35
(g37
S'\xa6\xc6\xc6\x8a\xf5\xa7x?'
tRp4978
ag35
(g37
S'\xe0\xfa\x90\xdb1o\x98?'
tRp4979
aa(lp4980
S'ENSG00000135439'
p4981
ag35
(g37
S'\x00\x00\x00\x00\x00\xa0t@'
tRp4982
ag35
(g37
S'`>\x99\x84ez\x82?'
tRp4983
ag35
(g37
S'\xa0\xc3\x15k\xc4w\x9b?'
tRp4984
aa(lp4985
g4932
ag35
(g37
S'\xcd\xcc\xcc\xcc\xccl`@'
tRp4986
ag35
(g37
S'\xb0\xaa%\x9a\xado\x92?'
tRp4987
ag35
(g37
S'p\xd4\xef\xf50E\xa2?'
tRp4988
aa(lp4989
g4937
ag35
(g37
S'\x11\x11\x11\x11\x11\x91E@'
tRp4990
ag35
(g37
S'6\xb1\xbeIDe\xa8?'
tRp4991
ag35
(g37
S'0\xb1\xbeIDe\xa8?'
tRp4992
aasg4
g5
((lp4993
S'ENSG00000185420'
p4994
aS'ENSG00000119771'
p4995
aS'ENSG00000134138'
p4996
aS'ENSG00000095917'
p4997
aS'ENSG00000153060'
p4998
aS'ENSG00000099308'
p4999
aS'ENSG00000143340'
p5000
aS'ENSG00000215114'
p5001
aS'ENSG00000179546'
p5002
aS'ENSG00000149212'
p5003
aS'ENSG00000197915'
p5004
aS'ENSG00000137502'
p5005
aS'ENSG00000117862'
p5006
aS'ENSG00000116544'
p5007
aS'ENSG00000169258'
p5008
aS'ENSG00000112320'
p5009
atRp5010
ssS'magenta'
p5011
(dp5012
g4
g5
((lp5013
S'ENSG00000008226'
p5014
aS'ENSG00000177294'
p5015
aS'ENSG00000196235'
p5016
aS'ENSG00000154027'
p5017
aS'ENSG00000168952'
p5018
aS'ENSG00000157470'
p5019
aS'ENSG00000104415'
p5020
aS'ENSG00000135898'
p5021
aS'ENSG00000135773'
p5022
aS'ENSG00000156219'
p5023
aS'ENSG00000186088'
p5024
aS'ENSG00000113300'
p5025
aS'ENSG00000138311'
p5026
aS'ENSG00000175220'
p5027
aS'ENSG00000157693'
p5028
aS'ENSG00000214753'
p5029
aS'ENSG00000117152'
p5030
aS'ENSG00000167670'
p5031
aS'ENSG00000164951'
p5032
aS'ENSG00000125249'
p5033
aS'ENSG00000122574'
p5034
aS'ENSG00000124134'
p5035
aS'ENSG00000131759'
p5036
aS'ENSG00000114757'
p5037
atRp5038
ssS'rosybrown'
p5039
(dp5040
g31
(lp5041
(lp5042
S'ENSG00000123243'
p5043
aFinf
ag35
(g37
S'V\xedk\x0f\xb9\xach?'
tRp5044
ag35
(g37
S'\x00\xedk\x0f\xb9\xach?'
tRp5045
aasg4
g5
((lp5046
S'ENSG00000188393'
p5047
aS'ENSG00000185658'
p5048
aS'ENSG00000150628'
p5049
aS'ENSG00000182446'
p5050
aS'ENSG00000111404'
p5051
atRp5052
ssS'turquoise4'
p5053
(dp5054
g4
g5
((lp5055
S'ENSG00000006607'
p5056
aS'ENSG00000111906'
p5057
aS'ENSG00000134744'
p5058
aS'ENSG00000076043'
p5059
aS'ENSG00000115486'
p5060
aS'ENSG00000110536'
p5061
aS'ENSG00000005075'
p5062
atRp5063
ssS'pink'
p5064
(dp5065
g31
(lp5066
(lp5067
S'ENSG00000163220'
p5068
ag35
(g37
S'UUUUU\xf5j@'
tRp5069
ag35
(g37
S'\xea\xa1\xaf,\x87\xbe\xb2>'
tRp5070
ag35
(g37
S'\x00\x80\xa4\xab\x18n\xf7>'
tRp5071
aa(lp5072
S'ENSG00000180644'
p5073
ag35
(g37
S'\xb7m\xdb\xb6m\x1bW@'
tRp5074
ag35
(g37
S'\xd8\x9a\xd5T\x13kZ?'
tRp5075
ag35
(g37
S'\xc0h\xde\x8b\xa9\xeb\x9e?'
tRp5076
aasg4
g5
((lp5077
S'ENSG00000115523'
p5078
aS'ENSG00000110665'
p5079
aS'ENSG00000109163'
p5080
aS'ENSG00000180871'
p5081
aS'ENSG00000025423'
p5082
aS'ENSG00000160883'
p5083
aS'ENSG00000180644'
p5084
aS'ENSG00000182670'
p5085
aS'ENSG00000077463'
p5086
aS'ENSG00000103313'
p5087
aS'ENSG00000173559'
p5088
aS'ENSG00000172543'
p5089
aS'ENSG00000162396'
p5090
aS'ENSG00000163563'
p5091
aS'ENSG00000163464'
p5092
aS'ENSG00000165416'
p5093
aS'ENSG00000139572'
p5094
aS'ENSG00000126262'
p5095
aS'ENSG00000076662'
p5096
aS'ENSG00000159339'
p5097
aS'ENSG00000244482'
p5098
aS'ENSG00000158517'
p5099
aS'ENSG00000116489'
p5100
aS'ENSG00000163220'
p5101
aS'ENSG00000163221'
p5102
atRp5103
ssS'lightblue'
p5104
(dp5105
g31
(lp5106
(lp5107
g2958
aFinf
ag35
(g37
S'\xfa\xea\x90\xcb\x8a\x81r?'
tRp5108
ag35
(g37
S'\x00\xeb\x90\xcb\x8a\x81r?'
tRp5109
aasg4
g5
((lp5110
S'ENSG00000088298'
p5111
aS'ENSG00000104723'
p5112
aS'ENSG00000144647'
p5113
aS'ENSG00000091490'
p5114
aS'ENSG00000156973'
p5115
aS'ENSG00000135454'
p5116
aS'ENSG00000111962'
p5117
aS'ENSG00000070081'
p5118
atRp5119
ssS'mistyrose2'
p5120
(dp5121
g31
(lp5122
(lp5123
S'ENSG00000182230'
p5124
aFinf
ag35
(g37
S'\xa9\xe8k\x0f\xb9\xacX?'
tRp5125
ag35
(g37
S'\x80 \x80\x14(\xc0~?'
tRp5126
aa(lp5127
g1620
aFinf
ag35
(g37
S'\xc6\xe5k\x0f\xb9\xacx?'
tRp5128
ag35
(g37
S'\xe0& z\xdfs\x98?'
tRp5129
aa(lp5130
g1624
aFinf
ag35
(g37
S'W\xe8FS\xe7\xd7~?'
tRp5131
ag35
(g37
S'\xe0& z\xdfs\x98?'
tRp5132
aa(lp5133
g1628
aFinf
ag35
(g37
S'\xc6\xe5k\x0f\xb9\xacx?'
tRp5134
ag35
(g37
S'\xe0& z\xdfs\x98?'
tRp5135
aa(lp5136
g1632
aFinf
ag35
(g37
S'?,\x9a:\xbf\xf6\xa0?'
tRp5137
ag35
(g37
S'@,\x9a:\xbf\xf6\xa0?'
tRp5138
aasg4
g5
((lp5139
S'ENSG00000169660'
p5140
aS'ENSG00000074527'
p5141
aS'ENSG00000206535'
p5142
aS'ENSG00000169116'
p5143
aS'ENSG00000139278'
p5144
aS'ENSG00000155858'
p5145
aS'ENSG00000151790'
p5146
aS'ENSG00000198477'
p5147
atRp5148
ssS'slateblue'
p5149
(dp5150
g31
(lp5151
(lp5152
S'ENSG00000144406'
p5153
aFinf
ag35
(g37
S'\x8e\xee\x90\xcb\x8a\x81\x82?'
tRp5154
ag35
(g37
S'0\xcc;\t-\xfd\xa2?'
tRp5155
aa(lp5156
S'ENSG00000145087'
p5157
aFinf
ag35
(g37
S'W\xe8FS\xe7\xd7~?'
tRp5158
ag35
(g37
S'0\xcc;\t-\xfd\xa2?'
tRp5159
aasg4
g5
((lp5160
S'ENSG00000267127'
p5161
aS'ENSG00000160716'
p5162
aS'ENSG00000197599'
p5163
aS'ENSG00000172831'
p5164
aS'ENSG00000205937'
p5165
aS'ENSG00000117620'
p5166
aS'ENSG00000066185'
p5167
aS'ENSG00000168393'
p5168
aS'ENSG00000103599'
p5169
aS'ENSG00000168397'
p5170
aS'ENSG00000187987'
p5171
atRp5172
ssS'sienna4'
p5173
(dp5174
g4
g5
((lp5175
S'ENSG00000157916'
p5176
aS'ENSG00000124226'
p5177
aS'ENSG00000145194'
p5178
aS'ENSG00000174748'
p5179
aS'ENSG00000119411'
p5180
aS'ENSG00000124767'
p5181
aS'ENSG00000258289'
p5182
aS'ENSG00000128185'
p5183
aS'ENSG00000187866'
p5184
aS'ENSG00000104408'
p5185
aS'ENSG00000162735'
p5186
aS'ENSG00000106153'
p5187
atRp5188
ssS'darkorange'
p5189
(dp5190
g31
(lp5191
(lp5192
g2378
aFinf
ag35
(g37
S'\xc6\xe5k\x0f\xb9\xacx?'
tRp5193
ag35
(g37
S'\x00\xe6k\x0f\xb9\xacx?'
tRp5194
aasg4
g5
((lp5195
S'ENSG00000183828'
p5196
aS'ENSG00000007516'
p5197
aS'ENSG00000099984'
p5198
aS'ENSG00000121749'
p5199
aS'ENSG00000167384'
p5200
aS'ENSG00000185917'
p5201
aS'ENSG00000183628'
p5202
aS'ENSG00000071894'
p5203
aS'ENSG00000135213'
p5204
aS'ENSG00000135535'
p5205
aS'ENSG00000151208'
p5206
aS'ENSG00000158296'
p5207
aS'ENSG00000099974'
p5208
aS'ENSG00000217702'
p5209
aS'ENSG00000133433'
p5210
aS'ENSG00000203963'
p5211
aS'ENSG00000144362'
p5212
atRp5213
ssS'powderblue'
p5214
(dp5215
g4
g5
((lp5216
S'ENSG00000196126'
p5217
aS'ENSG00000106348'
p5218
aS'ENSG00000130733'
p5219
aS'ENSG00000175073'
p5220
aS'ENSG00000243477'
p5221
aS'ENSG00000179344'
p5222
aS'ENSG00000198502'
p5223
aS'ENSG00000114735'
p5224
aS'ENSG00000196735'
p5225
aS'ENSG00000167264'
p5226
atRp5227
ssS'red4'
p5228
(dp5229
g31
(lp5230
(lp5231
S'ENSG00000163435'
p5232
aFinf
ag35
(g37
S'W\xe8FS\xe7\xd7~?'
tRp5233
ag35
(g37
S'0\xcc;\t-\xfd\xa2?'
tRp5234
aa(lp5235
S'ENSG00000096696'
p5236
aFinf
ag35
(g37
S's\xeak\x0f\xb9\xac\x88?'
tRp5237
ag35
(g37
S'`\x18]\xdeW@\xa5?'
tRp5238
aa(lp5239
S'ENSG00000131037'
p5240
aFinf
ag35
(g37
S'\x80h~\xed!\x97\x85?'
tRp5241
ag35
(g37
S'`\x18]\xdeW@\xa5?'
tRp5242
aa(lp5243
g2276
aFinf
ag35
(g37
S'\x8f`Y1P\xc2\x9b?'
tRp5244
ag35
(g37
S'`\x18]\xdeW@\xa5?'
tRp5245
aa(lp5246
S'ENSG00000172296'
p5247
aFinf
ag35
(g37
S'-iY1P\xc2\x8b?'
tRp5248
ag35
(g37
S'`\x18]\xdeW@\xa5?'
tRp5249
aasg4
g5
((lp5250
S'ENSG00000175575'
p5251
aS'ENSG00000100038'
p5252
aS'ENSG00000165646'
p5253
aS'ENSG00000138092'
p5254
aS'ENSG00000198554'
p5255
aS'ENSG00000125734'
p5256
aS'ENSG00000136811'
p5257
aS'ENSG00000100079'
p5258
atRp5259
ssS'snow'
p5260
(dp5261
g4
g5
((lp5262
S'ENSG00000169592'
p5263
aS'ENSG00000130701'
p5264
aS'ENSG00000148814'
p5265
aS'ENSG00000175697'
p5266
aS'ENSG00000177465'
p5267
aS'ENSG00000105298'
p5268
atRp5269
ssS'mistyrose4'
p5270
(dp5271
g31
(lp5272
(lp5273
S'ENSG00000229314'
p5274
aFinf
ag35
(g37
S'\xbbJ\xe5\xde\x1b\x95\xec>'
tRp5275
ag35
(g37
S'\x00@T_5\x02\x19?'
tRp5276
aasg4
g5
((lp5277
S'ENSG00000163749'
p5278
aS'ENSG00000171564'
p5279
aS'ENSG00000261701'
p5280
aS'ENSG00000134779'
p5281
aS'ENSG00000257017'
p5282
aS'ENSG00000182108'
p5283
aS'ENSG00000157335'
p5284
aS'ENSG00000162384'
p5285
aS'ENSG00000158874'
p5286
atRp5287
ssS'mediumblue'
p5288
(dp5289
g31
(lp5290
(lp5291
S'ENSG00000156076'
p5292
aFinf
ag35
(g37
S'\xb5\xe8k\x0f\xb9\xach?'
tRp5293
ag35
(g37
S'@p\x84\xa1=\x90\x88?'
tRp5294
aa(lp5295
S'ENSG00000197977'
p5296
ag35
(g37
S'\x00\x00\x00\x00\x00\xa8\x84@'
tRp5297
ag35
(g37
S'\xa6\xc6\xc6\x8a\xf5\xa7x?'
tRp5298
ag35
(g37
S'\x00}\x81\xb8\x87a\x92?'
tRp5299
aa(lp5300
g592
ag35
(g37
S'\x00\x00\x00\x00\x00\x90d@'
tRp5301
ag35
(g37
S'\xd6#\r\xbc\x15\xc0\x8e?'
tRp5302
ag35
(g37
S'\xc03\x82h\xfc\x84\x9e?'
tRp5303
aa(lp5304
g597
ag35
(g37
S'I\x92$I\x92dW@'
tRp5305
ag35
(g37
S'5\xdc\xe7n`\x8b\x98?'
tRp5306
ag35
(g37
S'\xc03\x82h\xfc\x84\x9e?'
tRp5307
aasg4
g5
((lp5308
S'ENSG00000080345'
p5309
aS'ENSG00000188064'
p5310
aS'ENSG00000163576'
p5311
aS'ENSG00000256073'
p5312
aS'ENSG00000186207'
p5313
aS'ENSG00000182993'
p5314
atRp5315
ssS'seashell4'
p5316
(dp5317
g4
g5
((lp5318
S'ENSG00000112599'
p5319
aS'ENSG00000007376'
p5320
aS'ENSG00000136856'
p5321
aS'ENSG00000113621'
p5322
aS'ENSG00000096063'
p5323
aS'ENSG00000168612'
p5324
aS'ENSG00000110429'
p5325
aS'ENSG00000115841'
p5326
aS'ENSG00000100764'
p5327
atRp5328
ssS'lightcyan'
p5329
(dp5330
g31
(lp5331
(lp5332
g278
aFinf
ag35
(g37
S'\xc6\xe5k\x0f\xb9\xacx?'
tRp5333
ag35
(g37
S'\x80%\x968A\xa2\x8b?'
tRp5334
aa(lp5335
g283
aFinf
ag35
(g37
S'\x8e\xee\x90\xcb\x8a\x81\x82?'
tRp5336
ag35
(g37
S'\x80%\x968A\xa2\x8b?'
tRp5337
aa(lp5338
g273
aFinf
ag35
(g37
S'\xfa\xea\x90\xcb\x8a\x81r?'
tRp5339
ag35
(g37
S'\x80%\x968A\xa2\x8b?'
tRp5340
aasg4
g5
((lp5341
S'ENSG00000116212'
p5342
aS'ENSG00000179958'
p5343
aS'ENSG00000114268'
p5344
aS'ENSG00000100191'
p5345
aS'ENSG00000175348'
p5346
aS'ENSG00000086506'
p5347
aS'ENSG00000069998'
p5348
aS'ENSG00000158161'
p5349
aS'ENSG00000037757'
p5350
aS'ENSG00000122085'
p5351
aS'ENSG00000125485'
p5352
aS'ENSG00000165269'
p5353
aS'ENSG00000170122'
p5354
aS'ENSG00000156239'
p5355
aS'ENSG00000176920'
p5356
aS'ENSG00000172785'
p5357
aS'ENSG00000181481'
p5358
aS'ENSG00000126773'
p5359
aS'ENSG00000171469'
p5360
aS'ENSG00000129562'
p5361
atRp5362
ssS'sienna1'
p5363
(dp5364
g31
(lp5365
(lp5366
S'ENSG00000163359'
p5367
aFinf
ag35
(g37
S'\xb5k~\xed!\x97\x85?'
tRp5368
ag35
(g37
S'\x80\x1b]\xdeW@\xa5?'
tRp5369
aasg4
g5
((lp5370
S'ENSG00000144824'
p5371
aS'ENSG00000041353'
p5372
aS'ENSG00000135002'
p5373
aS'ENSG00000026103'
p5374
aS'ENSG00000171714'
p5375
aS'ENSG00000162636'
p5376
aS'ENSG00000143867'
p5377
aS'ENSG00000142920'
p5378
aS'ENSG00000143891'
p5379
aS'ENSG00000145692'
p5380
atRp5381
ssS'midnightblue'
p5382
(dp5383
g4
g5
((lp5384
S'ENSG00000142065'
p5385
aS'ENSG00000204209'
p5386
aS'ENSG00000058085'
p5387
aS'ENSG00000221886'
p5388
aS'ENSG00000185345'
p5389
aS'ENSG00000142856'
p5390
aS'ENSG00000100577'
p5391
aS'ENSG00000128563'
p5392
aS'ENSG00000177182'
p5393
aS'ENSG00000221947'
p5394
aS'ENSG00000174567'
p5395
aS'ENSG00000075643'
p5396
aS'ENSG00000171148'
p5397
aS'ENSG00000197912'
p5398
aS'ENSG00000185303'
p5399
aS'ENSG00000256771'
p5400
aS'ENSG00000152133'
p5401
aS'ENSG00000241258'
p5402
aS'ENSG00000125775'
p5403
aS'ENSG00000158525'
p5404
aS'ENSG00000078246'
p5405
atRp5406
ssS'paleturquoise'
p5407
(dp5408
g31
(lp5409
(lp5410
S'ENSG00000173801'
p5411
aFinf
ag35
(g37
S'\xb5\xe8k\x0f\xb9\xach?'
tRp5412
ag35
(g37
S'@H\xcd!{\xa8\x8e?'
tRp5413
aa(lp5414
S'ENSG00000122877'
p5415
aFinf
ag35
(g37
S'\xb5\xe8k\x0f\xb9\xach?'
tRp5416
ag35
(g37
S'@H\xcd!{\xa8\x8e?'
tRp5417
aa(lp5418
S'ENSG00000119508'
p5419
aFinf
ag35
(g37
S'\xb5\xe8k\x0f\xb9\xach?'
tRp5420
ag35
(g37
S'@H\xcd!{\xa8\x8e?'
tRp5421
aa(lp5422
S'ENSG00000120738'
p5423
aFinf
ag35
(g37
S'\xb5\xe8k\x0f\xb9\xach?'
tRp5424
ag35
(g37
S'@H\xcd!{\xa8\x8e?'
tRp5425
aa(lp5426
g726
ag35
(g37
S'\x00\x00\x00\x00\x00\xa8\x84@'
tRp5427
ag35
(g37
S'\xa6\xc6\xc6\x8a\xf5\xa7x?'
tRp5428
ag35
(g37
S'@H\xcd!{\xa8\x8e?'
tRp5429
aasg4
g5
((lp5430
S'ENSG00000174576'
p5431
aS'ENSG00000108306'
p5432
aS'ENSG00000185250'
p5433
aS'ENSG00000112245'
p5434
aS'ENSG00000006652'
p5435
aS'ENSG00000125656'
p5436
aS'ENSG00000187624'
p5437
aS'ENSG00000002016'
p5438
aS'ENSG00000183889'
p5439
aS'ENSG00000198515'
p5440
aS'ENSG00000196275'
p5441
aS'ENSG00000183751'
p5442
aS'ENSG00000100564'
p5443
aS'ENSG00000099797'
p5444
aS'ENSG00000142684'
p5445
aS'ENSG00000103226'
p5446
atRp5447
ssS'olivedrab3'
p5448
(dp5449
g4
g5
((lp5450
S'ENSG00000182903'
p5451
aS'ENSG00000143376'
p5452
aS'ENSG00000156299'
p5453
aS'ENSG00000153561'
p5454
aS'ENSG00000071051'
p5455
aS'ENSG00000216937'
p5456
atRp5457
ssS'orangered3'
p5458
(dp5459
g31
(lp5460
(lp5461
S'ENSG00000124762'
p5462
ag35
(g37
S'\xab\xaa\xaa\xaa\xaaJ[@'
tRp5463
ag35
(g37
S'\xe2\x9fp\x11\xa5\x0fF?'
tRp5464
ag35
(g37
S'\x80\tc\xdc4~{?'
tRp5465
aa(lp5466
g553
ag35
(g37
S'r\x1c\xc7q\x1c\x07B@'
tRp5467
ag35
(g37
S'\xe4\x04P\x92\x12\x9bm?'
tRp5468
ag35
(g37
S'P?l\xc2\x1dj\xa0?'
tRp5469
aasg4
g5
((lp5470
S'ENSG00000100906'
p5471
aS'ENSG00000138166'
p5472
aS'ENSG00000148841'
p5473
aS'ENSG00000107669'
p5474
aS'ENSG00000112118'
p5475
aS'ENSG00000215790'
p5476
aS'ENSG00000172940'
p5477
aS'ENSG00000213719'
p5478
aS'ENSG00000139921'
p5479
aS'ENSG00000175110'
p5480
aS'ENSG00000128016'
p5481
aS'ENSG00000118503'
p5482
aS'ENSG00000075426'
p5483
atRp5484
ssS'deeppink2'
p5485
(dp5486
g4
g5
((lp5487
S'ENSG00000159592'
p5488
aS'ENSG00000206344'
p5489
aS'ENSG00000186007'
p5490
aS'ENSG00000151948'
p5491
aS'ENSG00000072858'
p5492
aS'ENSG00000067365'
p5493
aS'ENSG00000114739'
p5494
aS'ENSG00000108556'
p5495
aS'ENSG00000142765'
p5496
aS'ENSG00000164088'
p5497
atRp5498
ssS'deeppink1'
p5499
(dp5500
g4
g5
((lp5501
S'ENSG00000165733'
p5502
aS'ENSG00000172020'
p5503
aS'ENSG00000144228'
p5504
aS'ENSG00000143776'
p5505
aS'ENSG00000115604'
p5506
aS'ENSG00000167985'
p5507
aS'ENSG00000115602'
p5508
aS'ENSG00000170776'
p5509
aS'ENSG00000177868'
p5510
aS'ENSG00000148384'
p5511
atRp5512
ssS'orangered4'
p5513
(dp5514
g4
g5
((lp5515
S'ENSG00000159885'
p5516
aS'ENSG00000141622'
p5517
aS'ENSG00000101109'
p5518
aS'ENSG00000084444'
p5519
aS'ENSG00000185774'
p5520
aS'ENSG00000151327'
p5521
aS'ENSG00000183833'
p5522
aS'ENSG00000198754'
p5523
aS'ENSG00000146215'
p5524
aS'ENSG00000184500'
p5525
aS'ENSG00000186665'
p5526
aS'ENSG00000124613'
p5527
aS'ENSG00000065621'
p5528
aS'ENSG00000113593'
p5529
aS'ENSG00000188766'
p5530
aS'ENSG00000156049'
p5531
atRp5532
ssS'thistle3'
p5533
(dp5534
g31
(lp5535
(lp5536
g839
aFinf
ag35
(g37
S'\xc6\xe5k\x0f\xb9\xacx?'
tRp5537
ag35
(g37
S'\xc0\xc3a\xd0*\xf3\x9f?'
tRp5538
aa(lp5539
g844
aFinf
ag35
(g37
S'\xfa\xea\x90\xcb\x8a\x81r?'
tRp5540
ag35
(g37
S'\xc0\xc3a\xd0*\xf3\x9f?'
tRp5541
aa(lp5542
g849
aFinf
ag35
(g37
S'\xfa\xea\x90\xcb\x8a\x81r?'
tRp5543
ag35
(g37
S'\xc0\xc3a\xd0*\xf3\x9f?'
tRp5544
aa(lp5545
S'ENSG00000184524'
p5546
aFinf
ag35
(g37
S'\x8e\xee\x90\xcb\x8a\x81\x82?'
tRp5547
ag35
(g37
S'\xf0Q5\xe6\xb6A\xa2?'
tRp5548
aa(lp5549
S'ENSG00000078725'
p5550
aFinf
ag35
(g37
S'\x8e\xee\x90\xcb\x8a\x81\x82?'
tRp5551
ag35
(g37
S'\xf0Q5\xe6\xb6A\xa2?'
tRp5552
aa(lp5553
S'ENSG00000174871'
p5554
aFinf
ag35
(g37
S'-iY1P\xc2\x8b?'
tRp5555
ag35
(g37
S'\xf0Q5\xe6\xb6A\xa2?'
tRp5556
aa(lp5557
g4937
aFinf
ag35
(g37
S'\xca\xe2k\x0f\xb9\xac\x98?'
tRp5558
ag35
(g37
S'\xf0Q5\xe6\xb6A\xa2?'
tRp5559
aasg4
g5
((lp5560
S'ENSG00000188611'
p5561
aS'ENSG00000055211'
p5562
aS'ENSG00000122550'
p5563
aS'ENSG00000141076'
p5564
aS'ENSG00000162836'
p5565
aS'ENSG00000204149'
p5566
aS'ENSG00000069020'
p5567
aS'ENSG00000176887'
p5568
aS'ENSG00000155542'
p5569
aS'ENSG00000157093'
p5570
aS'ENSG00000137575'
p5571
aS'ENSG00000135778'
p5572
aS'ENSG00000168356'
p5573
atRp5574
ssS'thistle2'
p5575
(dp5576
g31
(lp5577
(lp5578
S'ENSG00000099998'
p5579
aFinf
ag35
(g37
S'\xaeJ\xe5\xde\x1b\x95\xfc>'
tRp5580
ag35
(g37
S'\x00\x80\x9e\x98\xf1\xdc!?'
tRp5581
aa(lp5582
g1297
ag35
(g37
S'\x00\x00\x00\x00\x00``@'
tRp5583
ag35
(g37
S'yd\xdf\xfb\x9a\x91B?'
tRp5584
ag35
(g37
S'\x00\xb2\x10\xfa\x90\x8db?'
tRp5585
aa(lp5586
S'ENSG00000139567'
p5587
aFinf
ag35
(g37
S'\xc2\xe8k\x0f\xb9\xacx?'
tRp5588
ag35
(g37
S'\xa0u}`\x0fe\x92?'
tRp5589
aa(lp5590
S'ENSG00000171115'
p5591
ag35
(g37
S'UUUUUuk@'
tRp5592
ag35
(g37
S'aq|\x81n\x9e\x88?'
tRp5593
ag35
(g37
S'\xa0\x83.\x15\x8dx\x98?'
tRp5594
aa(lp5595
S'ENSG00000133561'
p5596
ag35
(g37
S'\x00\x00\x00\x00\x00@R@'
tRp5597
ag35
(g37
S'/\xe7\xa0~\xef\x81\x98?'
tRp5598
ag35
(g37
S' \xe7\xa0~\xef\x81\x98?'
tRp5599
aasg4
g5
((lp5600
S'ENSG00000110074'
p5601
aS'ENSG00000185105'
p5602
aS'ENSG00000136048'
p5603
aS'ENSG00000178343'
p5604
aS'ENSG00000154252'
p5605
aS'ENSG00000141026'
p5606
aS'ENSG00000154133'
p5607
aS'ENSG00000104518'
p5608
aS'ENSG00000113638'
p5609
aS'ENSG00000125753'
p5610
aS'ENSG00000154767'
p5611
aS'ENSG00000179144'
p5612
aS'ENSG00000150938'
p5613
aS'ENSG00000204217'
p5614
atRp5615
ssS'thistle1'
p5616
(dp5617
g4
g5
((lp5618
S'ENSG00000176261'
p5619
aS'ENSG00000174871'
p5620
aS'ENSG00000111252'
p5621
aS'ENSG00000183726'
p5622
aS'ENSG00000154479'
p5623
aS'ENSG00000165140'
p5624
aS'ENSG00000043462'
p5625
aS'ENSG00000183826'
p5626
aS'ENSG00000225614'
p5627
aS'ENSG00000088832'
p5628
aS'ENSG00000197183'
p5629
aS'ENSG00000111696'
p5630
aS'ENSG00000118939'
p5631
aS'ENSG00000092051'
p5632
atRp5633
ssS'sienna2'
p5634
(dp5635
g4
g5
((lp5636
S'ENSG00000084628'
p5637
aS'ENSG00000136274'
p5638
aS'ENSG00000140623'
p5639
aS'ENSG00000267795'
p5640
aS'ENSG00000109089'
p5641
aS'ENSG00000163682'
p5642
aS'ENSG00000183077'
p5643
aS'ENSG00000170915'
p5644
aS'ENSG00000152465'
p5645
aS'ENSG00000035664'
p5646
aS'ENSG00000181409'
p5647
atRp5648
ssS'salmon'
p5649
(dp5650
g31
(lp5651
(lp5652
S'ENSG00000215218'
p5653
ag35
(g37
S'\x00\x00\x00\x00\x00\x00K@'
tRp5654
ag35
(g37
S'\xe6\x89\xe3"#\xf1#?'
tRp5655
ag35
(g37
S'\x007\xd4\x86\x94na?'
tRp5656
aa(lp5657
S'ENSG00000058404'
p5658
ag35
(g37
S'33333CH@'
tRp5659
ag35
(g37
S'\r\r\xdd\x88O\xce)?'
tRp5660
ag35
(g37
S'\x00\\\xa7\x8dJ\xf1d?'
tRp5661
aa(lp5662
S'ENSG00000158560'
p5663
ag35
(g37
S'ffffffp@'
tRp5664
ag35
(g37
S'\xd8">\x97\xac\xa92?'
tRp5665
ag35
(g37
S'\x00\x01\xac#L\xf3k?'
tRp5666
aasg4
g5
((lp5667
S'ENSG00000163820'
p5668
aS'ENSG00000137497'
p5669
aS'ENSG00000126001'
p5670
aS'ENSG00000107593'
p5671
aS'ENSG00000144331'
p5672
aS'ENSG00000156508'
p5673
aS'ENSG00000196166'
p5674
aS'ENSG00000186532'
p5675
aS'ENSG00000100304'
p5676
aS'ENSG00000112812'
p5677
aS'ENSG00000005961'
p5678
aS'ENSG00000166188'
p5679
aS'ENSG00000163793'
p5680
aS'ENSG00000124588'
p5681
aS'ENSG00000269190'
p5682
aS'ENSG00000160808'
p5683
aS'ENSG00000135968'
p5684
aS'ENSG00000145555'
p5685
aS'ENSG00000198846'
p5686
aS'ENSG00000094914'
p5687
aS'ENSG00000196090'
p5688
atRp5689
ssS'thistle4'
p5690
(dp5691
g31
(lp5692
(lp5693
S'ENSG00000142173'
p5694
aFinf
ag35
(g37
S'\xb5\xe8k\x0f\xb9\xach?'
tRp5695
ag35
(g37
S'@\xcc\x17kIs\x82?'
tRp5696
aa(lp5697
S'ENSG00000130635'
p5698
aFinf
ag35
(g37
S'\xb5\xe8k\x0f\xb9\xach?'
tRp5699
ag35
(g37
S'@\xcc\x17kIs\x82?'
tRp5700
aasg4
g5
((lp5701
S'ENSG00000189350'
p5702
aS'ENSG00000142156'
p5703
aS'ENSG00000166479'
p5704
aS'ENSG00000178997'
p5705
aS'ENSG00000155096'
p5706
aS'ENSG00000183317'
p5707
aS'ENSG00000076685'
p5708
aS'ENSG00000144674'
p5709
aS'ENSG00000189298'
p5710
aS'ENSG00000242715'
p5711
aS'ENSG00000215717'
p5712
atRp5713
ssS'palevioletred'
p5714
(dp5715
g4
g5
((lp5716
S'ENSG00000144791'
p5717
aS'ENSG00000186340'
p5718
aS'ENSG00000125457'
p5719
aS'ENSG00000144724'
p5720
aS'ENSG00000120156'
p5721
aS'ENSG00000163235'
p5722
aS'ENSG00000171310'
p5723
aS'ENSG00000157851'
p5724
aS'ENSG00000108852'
p5725
aS'ENSG00000184828'
p5726
atRp5727
ssS'oldlace'
p5728
(dp5729
g4
g5
((lp5730
S'ENSG00000137731'
p5731
aS'ENSG00000258839'
p5732
aS'ENSG00000009950'
p5733
aS'ENSG00000060688'
p5734
aS'ENSG00000143630'
p5735
aS'ENSG00000169174'
p5736
aS'ENSG00000164946'
p5737
aS'ENSG00000156171'
p5738
aS'ENSG00000169515'
p5739
atRp5740
ssS'royalblue2'
p5741
(dp5742
g4
g5
((lp5743
S'ENSG00000147676'
p5744
aS'ENSG00000169689'
p5745
aS'ENSG00000127578'
p5746
aS'ENSG00000170324'
p5747
aS'ENSG00000125084'
p5748
aS'ENSG00000166130'
p5749
aS'ENSG00000164929'
p5750
aS'ENSG00000136883'
p5751
aS'ENSG00000175390'
p5752
atRp5753
ssS'honeydew1'
p5754
(dp5755
g31
(lp5756
(lp5757
S'ENSG00000145198'
p5758
aFinf
ag35
(g37
S'\xa9\xe8k\x0f\xb9\xacX?'
tRp5759
ag35
(g37
S'\x00\xe8k\x0f\xb9\xacX?'
tRp5760
aasg4
g5
((lp5761
S'ENSG00000122359'
p5762
aS'ENSG00000256223'
p5763
aS'ENSG00000173391'
p5764
aS'ENSG00000100271'
p5765
aS'ENSG00000174791'
p5766
aS'ENSG00000087191'
p5767
aS'ENSG00000133316'
p5768
aS'ENSG00000140990'
p5769
aS'ENSG00000152778'
p5770
aS'ENSG00000172500'
p5771
aS'ENSG00000136982'
p5772
aS'ENSG00000038002'
p5773
aS'ENSG00000146834'
p5774
aS'ENSG00000055483'
p5775
atRp5776
ssS'hotpink3'
p5777
(dp5778
g31
(lp5779
(lp5780
S'ENSG00000105649'
p5781
aFinf
ag35
(g37
S'\xa9\xe8k\x0f\xb9\xacX?'
tRp5782
ag35
(g37
S'\x00\xbb\xf3`\xf7\xa7h?'
tRp5783
aa(lp5784
S'ENSG00000102003'
p5785
aFinf
ag35
(g37
S'V\xedk\x0f\xb9\xach?'
tRp5786
ag35
(g37
S'\x00\xedk\x0f\xb9\xach?'
tRp5787
aasg4
g5
((lp5788
S'ENSG00000111348'
p5789
aS'ENSG00000153495'
p5790
aS'ENSG00000110786'
p5791
aS'ENSG00000189275'
p5792
aS'ENSG00000197275'
p5793
aS'ENSG00000075399'
p5794
aS'ENSG00000165899'
p5795
atRp5796
ssS'hotpink2'
p5797
(dp5798
g31
(lp5799
(lp5800
S'ENSG00000173991'
p5801
aFinf
ag35
(g37
S'\xa9\xe8k\x0f\xb9\xacX?'
tRp5802
ag35
(g37
S'\x80\x91\xb4{\xa7\x97\x8b?'
tRp5803
aa(lp5804
S'ENSG00000197893'
p5805
aFinf
ag35
(g37
S'V\xedk\x0f\xb9\xach?'
tRp5806
ag35
(g37
S'@\x9eI\xd4\x87j\x98?'
tRp5807
aa(lp5808
S'ENSG00000198842'
p5809
aFinf
ag35
(g37
S'\xfa\xea\x90\xcb\x8a\x81r?'
tRp5810
ag35
(g37
S'@\x9eI\xd4\x87j\x98?'
tRp5811
aa(lp5812
S'ENSG00000105048'
p5813
aFinf
ag35
(g37
S'V\xedk\x0f\xb9\xach?'
tRp5814
ag35
(g37
S'@\x9eI\xd4\x87j\x98?'
tRp5815
aa(lp5816
S'ENSG00000081248'
p5817
aFinf
ag35
(g37
S'V\xedk\x0f\xb9\xach?'
tRp5818
ag35
(g37
S'@\x9eI\xd4\x87j\x98?'
tRp5819
aa(lp5820
S'ENSG00000077522'
p5821
aFinf
ag35
(g37
S'W\xe8FS\xe7\xd7~?'
tRp5822
ag35
(g37
S'\xe0-v2*\x7f\x9e?'
tRp5823
aa(lp5824
S'ENSG00000133878'
p5825
aFinf
ag35
(g37
S'W\xe8FS\xe7\xd7~?'
tRp5826
ag35
(g37
S'\xe0-v2*\x7f\x9e?'
tRp5827
aa(lp5828
g5653
aFinf
ag35
(g37
S'\x10\xf2\x90\xcb\x8a\x81\x92?'
tRp5829
ag35
(g37
S'\xc0XW\xa9\xbbV\xa2?'
tRp5830
aa(lp5831
g5658
aFinf
ag35
(g37
S'R\xac\x87\\V\x0c\x94?'
tRp5832
ag35
(g37
S'\xc0XW\xa9\xbbV\xa2?'
tRp5833
aasg4
g5
((lp5834
S'ENSG00000178209'
p5835
aS'ENSG00000205560'
p5836
aS'ENSG00000138674'
p5837
aS'ENSG00000120800'
p5838
aS'ENSG00000005156'
p5839
aS'ENSG00000159496'
p5840
atRp5841
ssS'mediumpurple2'
p5842
(dp5843
g4
g5
((lp5844
S'ENSG00000171984'
p5845
aS'ENSG00000169752'
p5846
aS'ENSG00000165071'
p5847
aS'ENSG00000116151'
p5848
aS'ENSG00000145375'
p5849
aS'ENSG00000110046'
p5850
aS'ENSG00000103326'
p5851
aS'ENSG00000203760'
p5852
aS'ENSG00000099795'
p5853
aS'ENSG00000188295'
p5854
aS'ENSG00000170852'
p5855
aS'ENSG00000266733'
p5856
aS'ENSG00000138083'
p5857
atRp5858
ssS'lightgreen'
p5859
(dp5860
g31
(lp5861
(lp5862
S'ENSG00000164620'
p5863
aFinf
ag35
(g37
S'\x97\xee\x90\xcb\x8a\x81r?'
tRp5864
ag35
(g37
S'\xd0o\xc8]\xf7\xaa\xa6?'
tRp5865
aa(lp5866
S'ENSG00000236901'
p5867
aFinf
ag35
(g37
S'\x97\xee\x90\xcb\x8a\x81r?'
tRp5868
ag35
(g37
S'\xd0o\xc8]\xf7\xaa\xa6?'
tRp5869
aasg4
g5
((lp5870
S'ENSG00000198885'
p5871
aS'ENSG00000152223'
p5872
aS'ENSG00000100997'
p5873
aS'ENSG00000130939'
p5874
aS'ENSG00000188690'
p5875
aS'ENSG00000106683'
p5876
aS'ENSG00000166546'
p5877
aS'ENSG00000006432'
p5878
aS'ENSG00000174194'
p5879
aS'ENSG00000188573'
p5880
aS'ENSG00000127838'
p5881
aS'ENSG00000085788'
p5882
aS'ENSG00000125746'
p5883
aS'ENSG00000076258'
p5884
aS'ENSG00000204138'
p5885
aS'ENSG00000141576'
p5886
aS'ENSG00000099785'
p5887
aS'ENSG00000161692'
p5888
aS'ENSG00000087301'
p5889
atRp5890
ssS'mediumpurple4'
p5891
(dp5892
g4
g5
((lp5893
S'ENSG00000120833'
p5894
aS'ENSG00000149922'
p5895
aS'ENSG00000102547'
p5896
aS'ENSG00000111642'
p5897
aS'ENSG00000163697'
p5898
aS'ENSG00000203993'
p5899
aS'ENSG00000131944'
p5900
aS'ENSG00000142330'
p5901
aS'ENSG00000161671'
p5902
aS'ENSG00000103245'
p5903
aS'ENSG00000148343'
p5904
aS'ENSG00000188493'
p5905
atRp5906
ssS'pink4'
p5907
(dp5908
g31
(lp5909
(lp5910
S'ENSG00000186994'
p5911
aFinf
ag35
(g37
S'\xa9\xe8k\x0f\xb9\xacX?'
tRp5912
ag35
(g37
S'\x00\xbb\xf3`\xf7\xa7h?'
tRp5913
aa(lp5914
g736
aFinf
ag35
(g37
S'\x8e\xee\x90\xcb\x8a\x81\x82?'
tRp5915
ag35
(g37
S'\x80\xee\x90\xcb\x8a\x81\x82?'
tRp5916
aasg4
g5
((lp5917
S'ENSG00000167747'
p5918
aS'ENSG00000165816'
p5919
aS'ENSG00000065060'
p5920
aS'ENSG00000129484'
p5921
aS'ENSG00000155275'
p5922
aS'ENSG00000106603'
p5923
aS'ENSG00000110900'
p5924
aS'ENSG00000101417'
p5925
aS'ENSG00000230510'
p5926
aS'ENSG00000163517'
p5927
aS'ENSG00000170855'
p5928
aS'ENSG00000204301'
p5929
atRp5930
ssS'paleturquoise3'
p5931
(dp5932
g31
(lp5933
(lp5934
S'ENSG00000102007'
p5935
aFinf
ag35
(g37
S'\xb5\xe8k\x0f\xb9\xach?'
tRp5936
ag35
(g37
S'@\xcc\x17kIs\x82?'
tRp5937
aa(lp5938
g1153
ag35
(g37
S'\x00\x00\x00\x00\x00\xa8\x84@'
tRp5939
ag35
(g37
S'\xa6\xc6\xc6\x8a\xf5\xa7x?'
tRp5940
ag35
(g37
S'@\xcc\x17kIs\x82?'
tRp5941
aa(lp5942
S'ENSG00000264235'
p5943
aFinf
ag35
(g37
S'\xb5\xe8k\x0f\xb9\xach?'
tRp5944
ag35
(g37
S'@\xcc\x17kIs\x82?'
tRp5945
aasg4
g5
((lp5946
S'ENSG00000080189'
p5947
aS'ENSG00000115368'
p5948
aS'ENSG00000173517'
p5949
aS'ENSG00000101412'
p5950
aS'ENSG00000092036'
p5951
aS'ENSG00000204267'
p5952
aS'ENSG00000119457'
p5953
aS'ENSG00000140287'
p5954
aS'ENSG00000140511'
p5955
atRp5956
ssS'hotpink4'
p5957
(dp5958
g4
g5
((lp5959
S'ENSG00000148290'
p5960
aS'ENSG00000221988'
p5961
aS'ENSG00000052841'
p5962
aS'ENSG00000196151'
p5963
aS'ENSG00000116191'
p5964
aS'ENSG00000174652'
p5965
aS'ENSG00000167081'
p5966
aS'ENSG00000070540'
p5967
atRp5968
ssS'khaki4'
p5969
(dp5970
g4
g5
((lp5971
S'ENSG00000121691'
p5972
aS'ENSG00000250506'
p5973
aS'ENSG00000257949'
p5974
aS'ENSG00000143067'
p5975
aS'ENSG00000185278'
p5976
aS'ENSG00000112706'
p5977
aS'ENSG00000167842'
p5978
aS'ENSG00000123636'
p5979
aS'ENSG00000159588'
p5980
atRp5981
ssS'darkolivegreen4'
p5982
(dp5983
g31
(lp5984
(lp5985
S'ENSG00000075213'
p5986
aFinf
ag35
(g37
S'\xc2\xe8k\x0f\xb9\xacx?'
tRp5987
ag35
(g37
S'\x809N\xf6Wy\x9e?'
tRp5988
aa(lp5989
g4976
ag35
(g37
S'UUUUUuk@'
tRp5990
ag35
(g37
S'aq|\x81n\x9e\x88?'
tRp5991
ag35
(g37
S'\x809N\xf6Wy\x9e?'
tRp5992
aa(lp5993
g4981
ag35
(g37
S'\xab\xaa\xaa\xaa\xaaj[@'
tRp5994
ag35
(g37
S'#\x8bs} l\x92?'
tRp5995
ag35
(g37
S'\x809N\xf6Wy\x9e?'
tRp5996
aa(lp5997
S'ENSG00000268388'
p5998
aFinf
ag35
(g37
S'\xc2\xe8k\x0f\xb9\xacx?'
tRp5999
ag35
(g37
S'\x809N\xf6Wy\x9e?'
tRp6000
aa(lp6001
S'ENSG00000103241'
p6002
aFinf
ag35
(g37
S'\xc2\xe8k\x0f\xb9\xacx?'
tRp6003
ag35
(g37
S'\x809N\xf6Wy\x9e?'
tRp6004
aasg4
g5
((lp6005
S'ENSG00000055163'
p6006
aS'ENSG00000198580'
p6007
aS'ENSG00000167941'
p6008
aS'ENSG00000163162'
p6009
aS'ENSG00000177103'
p6010
aS'ENSG00000151689'
p6011
aS'ENSG00000162753'
p6012
aS'ENSG00000183287'
p6013
aS'ENSG00000131778'
p6014
aS'ENSG00000174083'
p6015
aS'ENSG00000106853'
p6016
aS'ENSG00000101290'
p6017
aS'ENSG00000149294'
p6018
atRp6019
ssS'darkseagreen4'
p6020
(dp6021
g4
g5
((lp6022
S'ENSG00000115756'
p6023
aS'ENSG00000240204'
p6024
aS'ENSG00000001036'
p6025
aS'ENSG00000171970'
p6026
aS'ENSG00000163618'
p6027
aS'ENSG00000095596'
p6028
aS'ENSG00000126215'
p6029
aS'ENSG00000008324'
p6030
aS'ENSG00000139926'
p6031
aS'ENSG00000100314'
p6032
aS'ENSG00000114859'
p6033
aS'ENSG00000111850'
p6034
aS'ENSG00000139880'
p6035
aS'ENSG00000136986'
p6036
atRp6037
ssS'darkolivegreen1'
p6038
(dp6039
g4
g5
((lp6040
S'ENSG00000172115'
p6041
aS'ENSG00000163528'
p6042
aS'ENSG00000162139'
p6043
aS'ENSG00000112232'
p6044
aS'ENSG00000171793'
p6045
aS'ENSG00000166260'
p6046
aS'ENSG00000154723'
p6047
aS'ENSG00000127804'
p6048
aS'ENSG00000177556'
p6049
aS'ENSG00000092020'
p6050
aS'ENSG00000171202'
p6051
atRp6052
ssS'darkseagreen2'
p6053
(dp6054
g31
(lp6055
(lp6056
S'ENSG00000172247'
p6057
aFinf
ag35
(g37
S'\x97\xee\x90\xcb\x8a\x81r?'
tRp6058
ag35
(g37
S'\xc0K\xb5\xa2L7\xa2?'
tRp6059
aasg4
g5
((lp6060
S'ENSG00000162391'
p6061
aS'ENSG00000152760'
p6062
aS'ENSG00000124181'
p6063
aS'ENSG00000101282'
p6064
aS'ENSG00000060982'
p6065
aS'ENSG00000157181'
p6066
aS'ENSG00000100612'
p6067
aS'ENSG00000140332'
p6068
aS'ENSG00000186205'
p6069
aS'ENSG00000164972'
p6070
aS'ENSG00000141642'
p6071
atRp6072
ssS'darkseagreen1'
p6073
(dp6074
g4
g5
((lp6075
S'ENSG00000188312'
p6076
aS'ENSG00000179941'
p6077
aS'ENSG00000240344'
p6078
aS'ENSG00000100325'
p6079
aS'ENSG00000138621'
p6080
aS'ENSG00000214517'
p6081
aS'ENSG00000137804'
p6082
aS'ENSG00000127419'
p6083
aS'ENSG00000185236'
p6084
aS'ENSG00000127366'
p6085
atRp6086
ssS'darkolivegreen2'
p6087
(dp6088
g31
(lp6089
(lp6090
g5658
aFinf
ag35
(g37
S'R\xac\x87\\V\x0c\x94?'
tRp6091
ag35
(g37
S'`\xac\x87\\V\x0c\x94?'
tRp6092
aasg4
g5
((lp6093
S'ENSG00000171811'
p6094
aS'ENSG00000146574'
p6095
aS'ENSG00000257545'
p6096
aS'ENSG00000007341'
p6097
aS'ENSG00000146416'
p6098
aS'ENSG00000163902'
p6099
aS'ENSG00000173852'
p6100
aS'ENSG00000243716'
p6101
aS'ENSG00000172890'
p6102
aS'ENSG00000219626'
p6103
aS'ENSG00000134056'
p6104
atRp6105
ssS'lavenderblush'
p6106
(dp6107
g31
(lp6108
(lp6109
S'ENSG00000169181'
p6110
aFinf
ag35
(g37
S'\xa9\xe8k\x0f\xb9\xacX?'
tRp6111
ag35
(g37
S'\x80\x890\x1f9~\x85?'
tRp6112
aa(lp6113
S'ENSG00000137766'
p6114
aFinf
ag35
(g37
S'\xa9\xe8k\x0f\xb9\xacX?'
tRp6115
ag35
(g37
S'\x80\x890\x1f9~\x85?'
tRp6116
aa(lp6117
S'ENSG00000015592'
p6118
aFinf
ag35
(g37
S'\xc6\xe5k\x0f\xb9\xacx?'
tRp6119
ag35
(g37
S'\xc05N\xf6Wy\x9e?'
tRp6120
aa(lp6121
g5236
aFinf
ag35
(g37
S's\xeak\x0f\xb9\xac\x88?'
tRp6122
ag35
(g37
S'`\x18]\xdeW@\xa5?'
tRp6123
aa(lp6124
g5240
aFinf
ag35
(g37
S'\x80h~\xed!\x97\x85?'
tRp6125
ag35
(g37
S'`\x18]\xdeW@\xa5?'
tRp6126
aa(lp6127
g2276
aFinf
ag35
(g37
S'\x8f`Y1P\xc2\x9b?'
tRp6128
ag35
(g37
S'`\x18]\xdeW@\xa5?'
tRp6129
aa(lp6130
g5247
aFinf
ag35
(g37
S'-iY1P\xc2\x8b?'
tRp6131
ag35
(g37
S'`\x18]\xdeW@\xa5?'
tRp6132
aasg4
g5
((lp6133
S'ENSG00000162994'
p6134
aS'ENSG00000148572'
p6135
aS'ENSG00000115109'
p6136
aS'ENSG00000084207'
p6137
aS'ENSG00000106258'
p6138
aS'ENSG00000167720'
p6139
aS'ENSG00000079246'
p6140
aS'ENSG00000111581'
p6141
aS'ENSG00000203791'
p6142
aS'ENSG00000142675'
p6143
atRp6144
ssS'lightyellow4'
p6145
(dp6146
g4
g5
((lp6147
S'ENSG00000197536'
p6148
aS'ENSG00000242110'
p6149
aS'ENSG00000161513'
p6150
aS'ENSG00000178691'
p6151
aS'ENSG00000149260'
p6152
aS'ENSG00000151470'
p6153
aS'ENSG00000136560'
p6154
atRp6155
ssS'salmon2'
p6156
(dp6157
g31
(lp6158
(lp6159
S'ENSG00000154975'
p6160
aFinf
ag35
(g37
S'\xb5\xe8k\x0f\xb9\xach?'
tRp6161
ag35
(g37
S' \xee\x86Cpe\x95?'
tRp6162
aa(lp6163
S'ENSG00000161682'
p6164
aFinf
ag35
(g37
S'\xb5\xe8k\x0f\xb9\xach?'
tRp6165
ag35
(g37
S' \xee\x86Cpe\x95?'
tRp6166
aa(lp6167
S'ENSG00000136750'
p6168
aFinf
ag35
(g37
S'\xb5\xe8k\x0f\xb9\xach?'
tRp6169
ag35
(g37
S' \xee\x86Cpe\x95?'
tRp6170
aa(lp6171
S'ENSG00000089169'
p6172
ag35
(g37
S'\x00\x00\x00\x00\x00\xa8\x84@'
tRp6173
ag35
(g37
S'\xa6\xc6\xc6\x8a\xf5\xa7x?'
tRp6174
ag35
(g37
S'\xe0\xfa\x90\xdb1o\x98?'
tRp6175
aasg4
g5
((lp6176
S'ENSG00000132305'
p6177
aS'ENSG00000122136'
p6178
aS'ENSG00000177025'
p6179
aS'ENSG00000062038'
p6180
aS'ENSG00000165912'
p6181
aS'ENSG00000105438'
p6182
aS'ENSG00000106605'
p6183
aS'ENSG00000197299'
p6184
aS'ENSG00000004534'
p6185
aS'ENSG00000149403'
p6186
aS'ENSG00000182968'
p6187
aS'ENSG00000219435'
p6188
atRp6189
ssS'salmon4'
p6190
(dp6191
g4
g5
((lp6192
S'ENSG00000175287'
p6193
aS'ENSG00000163013'
p6194
aS'ENSG00000170310'
p6195
aS'ENSG00000169991'
p6196
aS'ENSG00000029153'
p6197
aS'ENSG00000184545'
p6198
aS'ENSG00000157985'
p6199
aS'ENSG00000213965'
p6200
aS'ENSG00000143322'
p6201
aS'ENSG00000165914'
p6202
aS'ENSG00000175806'
p6203
aS'ENSG00000176473'
p6204
aS'ENSG00000143318'
p6205
aS'ENSG00000135912'
p6206
atRp6207
ssS'rosybrown1'
p6208
(dp6209
g31
(lp6210
(lp6211
S'ENSG00000162931'
p6212
aFinf
ag35
(g37
S'\x97\xee\x90\xcb\x8a\x81r?'
tRp6213
ag35
(g37
S'\xc0K\xb5\xa2L7\xa2?'
tRp6214
aa(lp6215
S'ENSG00000023171'
p6216
aFinf
ag35
(g37
S'\x97\xee\x90\xcb\x8a\x81r?'
tRp6217
ag35
(g37
S'\xc0K\xb5\xa2L7\xa2?'
tRp6218
aasg4
g5
((lp6219
S'ENSG00000091947'
p6220
aS'ENSG00000127472'
p6221
aS'ENSG00000131398'
p6222
aS'ENSG00000173409'
p6223
aS'ENSG00000178700'
p6224
aS'ENSG00000031691'
p6225
aS'ENSG00000131941'
p6226
atRp6227
ssS'linen'
p6228
(dp6229
g31
(lp6230
(lp6231
S'ENSG00000105699'
p6232
ag35
(g37
S'\x00\x00\x00\x00\x00\xa8\x84@'
tRp6233
ag35
(g37
S'\xa6\xc6\xc6\x8a\xf5\xa7x?'
tRp6234
ag35
(g37
S'\x90\xfd\xbe0L7\xa2?'
tRp6235
aa(lp6236
S'ENSG00000164695'
p6237
ag35
(g37
S'\x00\x00\x00\x00\x00\xa8\x84@'
tRp6238
ag35
(g37
S'\xa6\xc6\xc6\x8a\xf5\xa7x?'
tRp6239
ag35
(g37
S'\x90\xfd\xbe0L7\xa2?'
tRp6240
aa(lp6241
S'ENSG00000111319'
p6242
ag35
(g37
S'\x00\x00\x00\x00\x00\xa0t@'
tRp6243
ag35
(g37
S'`>\x99\x84ez\x82?'
tRp6244
ag35
(g37
S'`]7\xba\xc2:\xa2?'
tRp6245
aa(lp6246
g2962
ag35
(g37
S'\xcd\xcc\xcc\xcc\xccl`@'
tRp6247
ag35
(g37
S'\xb0\xaa%\x9a\xado\x92?'
tRp6248
ag35
(g37
S'\xa0I\xb6\xe4\xdb\xb7\xa6?'
tRp6249
aa(lp6250
g2966
ag35
(g37
S'\x00\x00\x00\x00\x00\x90d@'
tRp6251
ag35
(g37
S'\xd6#\r\xbc\x15\xc0\x8e?'
tRp6252
ag35
(g37
S'\xa0I\xb6\xe4\xdb\xb7\xa6?'
tRp6253
aa(lp6254
g2970
ag35
(g37
S'\x00\x00\x00\x00\x00\x90d@'
tRp6255
ag35
(g37
S'\xd6#\r\xbc\x15\xc0\x8e?'
tRp6256
ag35
(g37
S'\xa0I\xb6\xe4\xdb\xb7\xa6?'
tRp6257
aasg4
g5
((lp6258
S'ENSG00000104881'
p6259
aS'ENSG00000228672'
p6260
aS'ENSG00000171843'
p6261
aS'ENSG00000168071'
p6262
aS'ENSG00000126821'
p6263
aS'ENSG00000091262'
p6264
aS'ENSG00000153406'
p6265
aS'ENSG00000137819'
p6266
aS'ENSG00000100106'
p6267
atRp6268
ssS'green'
p6269
(dp6270
g31
(lp6271
(lp6272
g3820
ag35
(g37
S'fffff&P@'
tRp6273
ag35
(g37
S'C48\xb6^o\xe1>'
tRp6274
ag35
(g37
S'\x00\xa0\xe1\xa2\xaf\xe1&?'
tRp6275
aa(lp6276
g3032
ag35
(g37
S'wwwwwwE@'
tRp6277
ag35
(g37
S'\xaaG\xba\x052\x85\xf9>'
tRp6278
ag35
(g37
S'\x00(\xff8\x9b\xe4??'
tRp6279
aa(lp6280
g188
ag35
(g37
S'\xe9\xa2\x8b.\xbahM@'
tRp6281
ag35
(g37
S'`\x92\x8f\xf4\x18\xeb"?'
tRp6282
ag35
(g37
S'\x00\x82\t\xa6\xb6of?'
tRp6283
aa(lp6284
g192
ag35
(g37
S'\xe9\xa2\x8b.\xbahM@'
tRp6285
ag35
(g37
S'`\x92\x8f\xf4\x18\xeb"?'
tRp6286
ag35
(g37
S'\x00\x82\t\xa6\xb6of?'
tRp6287
aa(lp6288
g196
ag35
(g37
S'\xe9\xa2\x8b.\xbahM@'
tRp6289
ag35
(g37
S'`\x92\x8f\xf4\x18\xeb"?'
tRp6290
ag35
(g37
S'\x00\x82\t\xa6\xb6of?'
tRp6291
aa(lp6292
g3824
ag35
(g37
S'F\x17]t\xd1\x05F@'
tRp6293
ag35
(g37
S'\x93\x18\x95\x0e\xc3X0?'
tRp6294
ag35
(g37
S'\x80\xe0\x9cE\xf1Pp?'
tRp6295
aasg4
g5
((lp6296
S'ENSG00000099282'
p6297
aS'ENSG00000147533'
p6298
aS'ENSG00000092203'
p6299
aS'ENSG00000071991'
p6300
aS'ENSG00000185736'
p6301
aS'ENSG00000236624'
p6302
aS'ENSG00000262874'
p6303
aS'ENSG00000134201'
p6304
aS'ENSG00000141934'
p6305
aS'ENSG00000063854'
p6306
aS'ENSG00000179104'
p6307
aS'ENSG00000079435'
p6308
aS'ENSG00000118322'
p6309
aS'ENSG00000120306'
p6310
aS'ENSG00000159674'
p6311
aS'ENSG00000157978'
p6312
aS'ENSG00000158315'
p6313
aS'ENSG00000150867'
p6314
aS'ENSG00000082684'
p6315
aS'ENSG00000166046'
p6316
aS'ENSG00000108381'
p6317
aS'ENSG00000135525'
p6318
aS'ENSG00000164627'
p6319
aS'ENSG00000125877'
p6320
aS'ENSG00000095383'
p6321
aS'ENSG00000070214'
p6322
aS'ENSG00000197430'
p6323
aS'ENSG00000102934'
p6324
aS'ENSG00000141985'
p6325
aS'ENSG00000259120'
p6326
aS'ENSG00000151552'
p6327
atRp6328
ssS'blueviolet'
p6329
(dp6330
g4
g5
((lp6331
S'ENSG00000112619'
p6332
aS'ENSG00000169951'
p6333
aS'ENSG00000188672'
p6334
aS'ENSG00000177370'
p6335
aS'ENSG00000115944'
p6336
aS'ENSG00000187676'
p6337
aS'ENSG00000165572'
p6338
aS'ENSG00000140873'
p6339
aS'ENSG00000162378'
p6340
aS'ENSG00000070371'
p6341
aS'ENSG00000160993'
p6342
atRp6343
ssS'brown2'
p6344
(dp6345
g4
g5
((lp6346
S'ENSG00000187260'
p6347
aS'ENSG00000084072'
p6348
aS'ENSG00000239389'
p6349
aS'ENSG00000105989'
p6350
aS'ENSG00000114547'
p6351
aS'ENSG00000128322'
p6352
aS'ENSG00000133661'
p6353
aS'ENSG00000189366'
p6354
aS'ENSG00000242372'
p6355
aS'ENSG00000117335'
p6356
aS'ENSG00000136425'
p6357
aS'ENSG00000158747'
p6358
aS'ENSG00000188707'
p6359
atRp6360
ssS'brown3'
p6361
(dp6362
g31
(lp6363
(lp6364
S'ENSG00000120053'
p6365
ag35
(g37
S'\x00\x00\x00\x00\x00\xa8\x84@'
tRp6366
ag35
(g37
S'\xa6\xc6\xc6\x8a\xf5\xa7x?'
tRp6367
ag35
(g37
S'@U\xe6\xf3\x87s\x9e?'
tRp6368
aa(lp6369
S'ENSG00000072954'
p6370
ag35
(g37
S'\x00\x00\x00\x00\x00\xa8\x84@'
tRp6371
ag35
(g37
S'\xa6\xc6\xc6\x8a\xf5\xa7x?'
tRp6372
ag35
(g37
S'@U\xe6\xf3\x87s\x9e?'
tRp6373
aasg4
g5
((lp6374
S'ENSG00000185340'
p6375
aS'ENSG00000170632'
p6376
aS'ENSG00000127483'
p6377
aS'ENSG00000117597'
p6378
aS'ENSG00000142102'
p6379
aS'ENSG00000174808'
p6380
aS'ENSG00000105135'
p6381
aS'ENSG00000177239'
p6382
aS'ENSG00000163956'
p6383
aS'ENSG00000116771'
p6384
atRp6385
ssS'brown1'
p6386
(dp6387
g31
(lp6388
(lp6389
S'ENSG00000250007'
p6390
aFinf
ag35
(g37
S'\xb5\xe8k\x0f\xb9\xach?'
tRp6391
ag35
(g37
S' \r\xf1e\xbcm\x9e?'
tRp6392
aa(lp6393
S'ENSG00000135709'
p6394
aFinf
ag35
(g37
S'\xb5\xe8k\x0f\xb9\xach?'
tRp6395
ag35
(g37
S' \r\xf1e\xbcm\x9e?'
tRp6396
aa(lp6397
S'ENSG00000070182'
p6398
aFinf
ag35
(g37
S'\xb5\xe8k\x0f\xb9\xach?'
tRp6399
ag35
(g37
S' \r\xf1e\xbcm\x9e?'
tRp6400
aasg4
g5
((lp6401
S'ENSG00000197140'
p6402
aS'ENSG00000136875'
p6403
aS'ENSG00000178115'
p6404
aS'ENSG00000135902'
p6405
aS'ENSG00000050393'
p6406
aS'ENSG00000167525'
p6407
aS'ENSG00000228696'
p6408
aS'ENSG00000233493'
p6409
aS'ENSG00000100078'
p6410
aS'ENSG00000144199'
p6411
aS'ENSG00000163041'
p6412
atRp6413
ssS'steelblue'
p6414
(dp6415
g31
(lp6416
(lp6417
g2492
aFinf
ag35
(g37
S'V\xedk\x0f\xb9\xach?'
tRp6418
ag35
(g37
S'\x00\xedk\x0f\xb9\xach?'
tRp6419
aasg4
g5
((lp6420
S'ENSG00000197948'
p6421
aS'ENSG00000172399'
p6422
aS'ENSG00000164530'
p6423
aS'ENSG00000132424'
p6424
aS'ENSG00000109794'
p6425
aS'ENSG00000144741'
p6426
aS'ENSG00000083099'
p6427
aS'ENSG00000064726'
p6428
aS'ENSG00000142082'
p6429
aS'ENSG00000130414'
p6430
aS'ENSG00000100731'
p6431
aS'ENSG00000139990'
p6432
aS'ENSG00000136827'
p6433
aS'ENSG00000135341'
p6434
aS'ENSG00000197701'
p6435
aS'ENSG00000153317'
p6436
aS'ENSG00000066230'
p6437
atRp6438
ssS'brown4'
p6439
(dp6440
g31
(lp6441
(lp6442
S'ENSG00000114698'
p6443
aFinf
ag35
(g37
S'\xc2\xe8k\x0f\xb9\xacx?'
tRp6444
ag35
(g37
S'\xc0) z\xdfs\x98?'
tRp6445
aa(lp6446
g3941
ag35
(g37
S'UUUUUuk@'
tRp6447
ag35
(g37
S'aq|\x81n\x9e\x88?'
tRp6448
ag35
(g37
S'\x00\x93\xe2\x07;>\xa2?'
tRp6449
aasg4
g5
((lp6450
S'ENSG00000065882'
p6451
aS'ENSG00000204033'
p6452
aS'ENSG00000168792'
p6453
aS'ENSG00000153993'
p6454
aS'ENSG00000154277'
p6455
aS'ENSG00000125266'
p6456
aS'ENSG00000151135'
p6457
aS'ENSG00000148600'
p6458
aS'ENSG00000110448'
p6459
aS'ENSG00000119929'
p6460
aS'ENSG00000103485'
p6461
aS'ENSG00000170889'
p6462
aS'ENSG00000159348'
p6463
aS'ENSG00000129055'
p6464
aS'ENSG00000143740'
p6465
atRp6466
ss.