(dp1
S'tan'
p2
(dp3
S'module_genes'
p4
c__builtin__
set
p5
((lp6
S'ENSG00000088247'
p7
aS'ENSG00000173137'
p8
aS'ENSG00000186188'
p9
aS'ENSG00000111364'
p10
aS'ENSG00000243708'
p11
aS'ENSG00000197599'
p12
aS'ENSG00000140983'
p13
aS'ENSG00000183628'
p14
aS'ENSG00000151006'
p15
aS'ENSG00000041802'
p16
aS'ENSG00000145375'
p17
aS'ENSG00000123136'
p18
aS'ENSG00000182685'
p19
aS'ENSG00000180828'
p20
aS'ENSG00000165684'
p21
aS'ENSG00000177627'
p22
aS'ENSG00000180185'
p23
aS'ENSG00000167967'
p24
aS'ENSG00000156931'
p25
aS'ENSG00000037042'
p26
aS'ENSG00000185324'
p27
atRp28
ssS'mistyrose'
p29
(dp30
g4
g5
((lp31
S'ENSG00000152642'
p32
aS'ENSG00000146285'
p33
aS'ENSG00000182177'
p34
aS'ENSG00000162591'
p35
aS'ENSG00000113441'
p36
aS'ENSG00000068697'
p37
aS'ENSG00000005108'
p38
aS'ENSG00000119913'
p39
aS'ENSG00000164308'
p40
aS'ENSG00000066230'
p41
atRp42
ssS'orange4'
p43
(dp44
S'driver_genes'
p45
(lp46
(lp47
S'ENSG00000078328'
p48
aFinf
acnumpy.core.multiarray
scalar
p49
(cnumpy
dtype
p50
(S'f8'
I0
I1
tRp51
(I3
S'<'
NNNI-1
I-1
I0
tbS'\xd1\x8c\xd0\xb9\xb0F\x8c?'
tRp52
ag49
(g51
S'\xc0\x8c\xd0\xb9\xb0F\x8c?'
tRp53
aasg4
g5
((lp54
S'ENSG00000182400'
p55
aS'ENSG00000183309'
p56
aS'ENSG00000124541'
p57
aS'ENSG00000160953'
p58
aS'ENSG00000142188'
p59
aS'ENSG00000074964'
p60
aS'ENSG00000137996'
p61
aS'ENSG00000198668'
p62
aS'ENSG00000164880'
p63
atRp64
ssS'firebrick'
p65
(dp66
g45
(lp67
(lp68
S'ENSG00000099308'
p69
aFinf
ag49
(g51
S';.w\xfcd(p?'
tRp70
ag49
(g51
S'\x00\x01}d< \x80?'
tRp71
aa(lp72
S'ENSG00000232520'
p73
ag49
(g51
S'\x00\x00\x00\x00\x00po@'
tRp74
ag49
(g51
S'\x91l\xb6eT0\x88?'
tRp75
ag49
(g51
S'\x80l\xb6eT0\x88?'
tRp76
aasg4
g5
((lp77
S'ENSG00000074276'
p78
aS'ENSG00000066583'
p79
aS'ENSG00000188997'
p80
aS'ENSG00000159063'
p81
aS'ENSG00000171067'
p82
aS'ENSG00000166997'
p83
aS'ENSG00000100106'
p84
aS'ENSG00000113396'
p85
aS'ENSG00000140287'
p86
atRp87
ssS'indianred'
p88
(dp89
g4
g5
((lp90
S'ENSG00000132199'
p91
aS'ENSG00000092203'
p92
aS'ENSG00000143442'
p93
aS'ENSG00000196355'
p94
aS'ENSG00000188761'
p95
aS'ENSG00000169738'
p96
aS'ENSG00000056558'
p97
aS'ENSG00000188626'
p98
atRp99
ssS'orange1'
p100
(dp101
g45
(lp102
(lp103
S'ENSG00000162951'
p104
ag49
(g51
S'UUUUU\xd5d@'
tRp105
ag49
(g51
S'o|\x86,\xa3i>?'
tRp106
ag49
(g51
S'\x00\xb6\xda[\x82\xfdb?'
tRp107
aa(lp108
S'ENSG00000108018'
p109
ag49
(g51
S'\x00\x00\x00\x00\x00P_@'
tRp110
ag49
(g51
S'\xc0y\xf0m\x0e\x1e\x94?'
tRp111
ag49
(g51
S'\x00\xcd\xa7\x15\x82\xe6\xa3?'
tRp112
aa(lp113
S'ENSG00000082556'
p114
aFinf
ag49
(g51
S'\xce\xf9\x94;~2\x84?'
tRp115
ag49
(g51
S'\x00\xcd\xa7\x15\x82\xe6\xa3?'
tRp116
aa(lp117
S'ENSG00000183783'
p118
aFinf
ag49
(g51
S'\xce\xf9\x94;~2\x84?'
tRp119
ag49
(g51
S'\x00\xcd\xa7\x15\x82\xe6\xa3?'
tRp120
aa(lp121
S'ENSG00000149970'
p122
aFinf
ag49
(g51
S'\xce\xf9\x94;~2\x84?'
tRp123
ag49
(g51
S'\x00\xcd\xa7\x15\x82\xe6\xa3?'
tRp124
aasg4
g5
((lp125
S'ENSG00000119673'
p126
aS'ENSG00000119147'
p127
aS'ENSG00000065325'
p128
aS'ENSG00000182255'
p129
aS'ENSG00000198513'
p130
aS'ENSG00000153253'
p131
aS'ENSG00000164129'
p132
atRp133
ssS'violetred1'
p134
(dp135
g4
g5
((lp136
S'ENSG00000144579'
p137
aS'ENSG00000128791'
p138
aS'ENSG00000001561'
p139
aS'ENSG00000148090'
p140
aS'ENSG00000021488'
p141
atRp142
ssS'orange3'
p143
(dp144
g4
g5
((lp145
S'ENSG00000123545'
p146
aS'ENSG00000168259'
p147
aS'ENSG00000144118'
p148
aS'ENSG00000137309'
p149
aS'ENSG00000163159'
p150
aS'ENSG00000168411'
p151
aS'ENSG00000146282'
p152
aS'ENSG00000165916'
p153
atRp154
ssS'orange2'
p155
(dp156
g4
g5
((lp157
S'ENSG00000122550'
p158
aS'ENSG00000156395'
p159
aS'ENSG00000175928'
p160
aS'ENSG00000137460'
p161
aS'ENSG00000111218'
p162
aS'ENSG00000169840'
p163
aS'ENSG00000160999'
p164
atRp165
ssS'darkolivegreen'
p166
(dp167
g45
(lp168
(lp169
S'ENSG00000072954'
p170
aFinf
ag49
(g51
S'l\xc5\xb2z\x97<x?'
tRp171
ag49
(g51
S'`c\xbc\x84%\xe9\xa1?'
tRp172
aasg4
g5
((lp173
S'ENSG00000130544'
p174
aS'ENSG00000054611'
p175
aS'ENSG00000149548'
p176
aS'ENSG00000147669'
p177
aS'ENSG00000165806'
p178
aS'ENSG00000198612'
p179
aS'ENSG00000165714'
p180
aS'ENSG00000167461'
p181
aS'ENSG00000101280'
p182
aS'ENSG00000130702'
p183
aS'ENSG00000095485'
p184
aS'ENSG00000135213'
p185
aS'ENSG00000204084'
p186
aS'ENSG00000164144'
p187
aS'ENSG00000231852'
p188
atRp189
ssS'grey60'
p190
(dp191
g45
(lp192
(lp193
S'ENSG00000185615'
p194
aFinf
ag49
(g51
S'\xbd\x05\x89\xb9du%?'
tRp195
ag49
(g51
S'\x00F\x80\x87\x9b\xc1b?'
tRp196
aa(lp197
S'ENSG00000182901'
p198
ag49
(g51
S'fffff\xe6X@'
tRp199
ag49
(g51
S's\xe6\x07E\xa2\xc3O?'
tRp200
ag49
(g51
S'\x80|GS\xa9\xa8\x89?'
tRp201
aa(lp202
S'ENSG00000054356'
p203
ag49
(g51
S'\x11\x11\x11\x11\x11\x91P@'
tRp204
ag49
(g51
S"`C\x95'\x93KZ?"
tRp205
ag49
(g51
S'\x00p\xd3rZ\x8c\x93?'
tRp206
aasg4
g5
((lp207
S'ENSG00000132386'
p208
aS'ENSG00000110074'
p209
aS'ENSG00000148655'
p210
aS'ENSG00000169035'
p211
aS'ENSG00000135218'
p212
aS'ENSG00000186395'
p213
aS'ENSG00000184207'
p214
aS'ENSG00000143631'
p215
aS'ENSG00000106631'
p216
aS'ENSG00000174990'
p217
aS'ENSG00000081277'
p218
aS'ENSG00000066185'
p219
aS'ENSG00000197345'
p220
aS'ENSG00000118004'
p221
aS'ENSG00000171488'
p222
aS'ENSG00000168291'
p223
aS'ENSG00000186847'
p224
aS'ENSG00000109061'
p225
atRp226
ssS'darkseagreen'
p227
(dp228
g4
g5
((lp229
S'ENSG00000130309'
p230
aS'ENSG00000152422'
p231
aS'ENSG00000137274'
p232
aS'ENSG00000155542'
p233
aS'ENSG00000106868'
p234
aS'ENSG00000143398'
p235
aS'ENSG00000105329'
p236
aS'ENSG00000163041'
p237
atRp238
ssS'mediumorchid4'
p239
(dp240
g4
g5
((lp241
S'ENSG00000162461'
p242
aS'ENSG00000168813'
p243
aS'ENSG00000254997'
p244
aS'ENSG00000150594'
p245
aS'ENSG00000006194'
p246
aS'ENSG00000178904'
p247
aS'ENSG00000184517'
p248
aS'ENSG00000253731'
p249
aS'ENSG00000171817'
p250
atRp251
ssS'pink2'
p252
(dp253
g4
g5
((lp254
S'ENSG00000008838'
p255
aS'ENSG00000124713'
p256
aS'ENSG00000124602'
p257
aS'ENSG00000178252'
p258
aS'ENSG00000128266'
p259
aS'ENSG00000183476'
p260
aS'ENSG00000146223'
p261
aS'ENSG00000164494'
p262
aS'ENSG00000163348'
p263
atRp264
ssS'green4'
p265
(dp266
g45
(lp267
(lp268
S'ENSG00000158869'
p269
ag49
(g51
S'\x00\x00\x00\x00\x00\x80\x7f@'
tRp270
ag49
(g51
S'\xa2\x14#\xa0N$\x80?'
tRp271
ag49
(g51
S'`^\x11\xfd\xbb\x05\x98?'
tRp272
aa(lp273
S'ENSG00000143226'
p274
ag49
(g51
S'\x00\x00\x00\x00\x00\x80\x7f@'
tRp275
ag49
(g51
S'\xa2\x14#\xa0N$\x80?'
tRp276
ag49
(g51
S'`^\x11\xfd\xbb\x05\x98?'
tRp277
aa(lp278
S'ENSG00000197249'
p279
ag49
(g51
S'\xab\xaa\xaa\xaa\xaa\xead@'
tRp280
ag49
(g51
S'o\xd5z\xe7!\x1c\x90?'
tRp281
ag49
(g51
S'`^\x11\xfd\xbb\x05\x98?'
tRp282
aasg4
g5
((lp283
S'ENSG00000099985'
p284
aS'ENSG00000188659'
p285
aS'ENSG00000144455'
p286
aS'ENSG00000226479'
p287
aS'ENSG00000100376'
p288
aS'ENSG00000108984'
p289
aS'ENSG00000197915'
p290
aS'ENSG00000108506'
p291
aS'ENSG00000100219'
p292
aS'ENSG00000144659'
p293
atRp294
ssS'green1'
p295
(dp296
g4
g5
((lp297
S'ENSG00000113300'
p298
aS'ENSG00000116151'
p299
aS'ENSG00000146457'
p300
aS'ENSG00000188629'
p301
aS'ENSG00000198874'
p302
aS'ENSG00000213588'
p303
aS'ENSG00000131697'
p304
aS'ENSG00000163623'
p305
atRp306
ssS'green3'
p307
(dp308
g45
(lp309
(lp310
S'ENSG00000138078'
p311
aFinf
ag49
(g51
S';.w\xfcd(p?'
tRp312
ag49
(g51
S'\x00.w\xfcd(p?'
tRp313
aasg4
g5
((lp314
S'ENSG00000185437'
p315
aS'ENSG00000157578'
p316
aS'ENSG00000135632'
p317
aS'ENSG00000174903'
p318
aS'ENSG00000198146'
p319
aS'ENSG00000050393'
p320
aS'ENSG00000167965'
p321
aS'ENSG00000139428'
p322
aS'ENSG00000125967'
p323
atRp324
ssS'green2'
p325
(dp326
g45
(lp327
(lp328
S'ENSG00000137766'
p329
aFinf
ag49
(g51
S';.w\xfcd(p?'
tRp330
ag49
(g51
S'\x00\x01}d< \x80?'
tRp331
aa(lp332
S'ENSG00000073464'
p333
ag49
(g51
S'\x00\x00\x00\x00\x00\x80\x7f@'
tRp334
ag49
(g51
S'\xa2\x14#\xa0N$\x80?'
tRp335
ag49
(g51
S'\xc0\x14#\xa0N$\x80?'
tRp336
aasg4
g5
((lp337
S'ENSG00000180287'
p338
aS'ENSG00000056586'
p339
aS'ENSG00000198646'
p340
aS'ENSG00000076604'
p341
aS'ENSG00000204169'
p342
aS'ENSG00000053900'
p343
aS'ENSG00000181234'
p344
aS'ENSG00000182985'
p345
atRp346
ssS'darkgoldenrod4'
p347
(dp348
g4
g5
((lp349
S'ENSG00000164506'
p350
aS'ENSG00000214300'
p351
aS'ENSG00000107651'
p352
aS'ENSG00000078070'
p353
aS'ENSG00000163599'
p354
aS'ENSG00000101460'
p355
aS'ENSG00000005075'
p356
aS'ENSG00000131781'
p357
aS'ENSG00000153291'
p358
atRp359
ssS'magenta4'
p360
(dp361
g4
g5
((lp362
S'ENSG00000112576'
p363
aS'ENSG00000140416'
p364
aS'ENSG00000196090'
p365
aS'ENSG00000133026'
p366
aS'ENSG00000269430'
p367
aS'ENSG00000142945'
p368
aS'ENSG00000167644'
p369
aS'ENSG00000125618'
p370
aS'ENSG00000174640'
p371
aS'ENSG00000054793'
p372
aS'ENSG00000139055'
p373
atRp374
ssS'aquamarine1'
p375
(dp376
g45
(lp377
(lp378
S'ENSG00000070087'
p379
aFinf
ag49
(g51
S'2.w\xfcd(`?'
tRp380
ag49
(g51
S'\x00.w\xfcd(`?'
tRp381
aasg4
g5
((lp382
S'ENSG00000112511'
p383
aS'ENSG00000140022'
p384
aS'ENSG00000165821'
p385
aS'ENSG00000143614'
p386
aS'ENSG00000179954'
p387
aS'ENSG00000197380'
p388
atRp389
ssS'darkgoldenrod1'
p390
(dp391
g45
(lp392
(lp393
S'ENSG00000157227'
p394
aFinf
ag49
(g51
S'2.w\xfcd(`?'
tRp395
ag49
(g51
S'\x80\x17z\xb0P$p?'
tRp396
aa(lp397
S'ENSG00000159403'
p398
aFinf
ag49
(g51
S'B1w\xfcd(p?'
tRp399
ag49
(g51
S'\x801w\xfcd(p?'
tRp400
aasg4
g5
((lp401
S'ENSG00000187824'
p402
aS'ENSG00000172296'
p403
aS'ENSG00000186510'
p404
aS'ENSG00000234906'
p405
aS'ENSG00000122965'
p406
aS'ENSG00000113013'
p407
aS'ENSG00000179715'
p408
atRp409
ssS'magenta1'
p410
(dp411
g45
(lp412
(lp413
S'ENSG00000164398'
p414
aFinf
ag49
(g51
S';.w\xfcd(p?'
tRp415
ag49
(g51
S'\x00.w\xfcd(p?'
tRp416
aasg4
g5
((lp417
S'ENSG00000135902'
p418
aS'ENSG00000237412'
p419
aS'ENSG00000142606'
p420
aS'ENSG00000162399'
p421
aS'ENSG00000159398'
p422
aS'ENSG00000128833'
p423
aS'ENSG00000075073'
p424
aS'ENSG00000103522'
p425
aS'ENSG00000197362'
p426
atRp427
ssS'darkgoldenrod3'
p428
(dp429
g4
g5
((lp430
S'ENSG00000176783'
p431
aS'ENSG00000166484'
p432
aS'ENSG00000144320'
p433
aS'ENSG00000197566'
p434
aS'ENSG00000163389'
p435
aS'ENSG00000141096'
p436
aS'ENSG00000102753'
p437
aS'ENSG00000165934'
p438
atRp439
ssS'skyblue3'
p440
(dp441
g4
g5
((lp442
S'ENSG00000115295'
p443
aS'ENSG00000107864'
p444
aS'ENSG00000147894'
p445
aS'ENSG00000123975'
p446
aS'ENSG00000181240'
p447
aS'ENSG00000115966'
p448
aS'ENSG00000139496'
p449
aS'ENSG00000071794'
p450
aS'ENSG00000128923'
p451
aS'ENSG00000113742'
p452
aS'ENSG00000148143'
p453
aS'ENSG00000104427'
p454
aS'ENSG00000066422'
p455
aS'ENSG00000176018'
p456
atRp457
ssS'black'
p458
(dp459
g45
(lp460
(lp461
S'ENSG00000164932'
p462
aFinf
ag49
(g51
S'2.w\xfcd(`?'
tRp463
ag49
(g51
S'\x80\xbe\x07\xa6\\0x?'
tRp464
aa(lp465
g73
aFinf
ag49
(g51
S'\xb0\xc0\xb2z\x97<x?'
tRp466
ag49
(g51
S'\x80\x04}d< \x80?'
tRp467
aa(lp468
S'ENSG00000163328'
p469
aFinf
ag49
(g51
S'B1w\xfcd(p?'
tRp470
ag49
(g51
S'\x80\x04}d< \x80?'
tRp471
aasg4
g5
((lp472
S'ENSG00000065000'
p473
aS'ENSG00000196646'
p474
aS'ENSG00000130764'
p475
aS'ENSG00000132016'
p476
aS'ENSG00000173153'
p477
aS'ENSG00000188486'
p478
aS'ENSG00000099326'
p479
aS'ENSG00000138381'
p480
aS'ENSG00000148153'
p481
aS'ENSG00000162994'
p482
aS'ENSG00000126870'
p483
aS'ENSG00000146243'
p484
aS'ENSG00000122674'
p485
aS'ENSG00000167526'
p486
aS'ENSG00000136856'
p487
aS'ENSG00000140104'
p488
aS'ENSG00000152475'
p489
aS'ENSG00000100196'
p490
aS'ENSG00000136982'
p491
aS'ENSG00000070423'
p492
aS'ENSG00000178623'
p493
aS'ENSG00000163933'
p494
aS'ENSG00000149499'
p495
aS'ENSG00000135966'
p496
aS'ENSG00000143653'
p497
atRp498
ssS'mediumorchid3'
p499
(dp500
g4
g5
((lp501
S'ENSG00000188321'
p502
aS'ENSG00000037637'
p503
aS'ENSG00000203722'
p504
aS'ENSG00000141068'
p505
aS'ENSG00000138621'
p506
aS'ENSG00000166669'
p507
aS'ENSG00000046889'
p508
aS'ENSG00000119314'
p509
atRp510
ssS'yellow2'
p511
(dp512
g45
(lp513
(lp514
S'ENSG00000116147'
p515
ag49
(g51
S'\x00\x00\x00\x00\x00\x80\x7f@'
tRp516
ag49
(g51
S'\xa2\x14#\xa0N$\x80?'
tRp517
ag49
(g51
S'\xe0\xbaO8w\xdf\x9f?'
tRp518
aa(lp519
S'ENSG00000157087'
p520
aFinf
ag49
(g51
S';.w\xfcd(p?'
tRp521
ag49
(g51
S'\xe0\xbaO8w\xdf\x9f?'
tRp522
aa(lp523
S'ENSG00000174963'
p524
aFinf
ag49
(g51
S';.w\xfcd(p?'
tRp525
ag49
(g51
S'\xe0\xbaO8w\xdf\x9f?'
tRp526
aa(lp527
S'ENSG00000184388'
p528
ag49
(g51
S'\x00\x00\x00\x00\x00po@'
tRp529
ag49
(g51
S'\x91l\xb6eT0\x88?'
tRp530
ag49
(g51
S'\xe0\xbaO8w\xdf\x9f?'
tRp531
aa(lp532
S'ENSG00000182256'
p533
aFinf
ag49
(g51
S';.w\xfcd(p?'
tRp534
ag49
(g51
S'\xe0\xbaO8w\xdf\x9f?'
tRp535
aa(lp536
S'ENSG00000184221'
p537
aFinf
ag49
(g51
S';.w\xfcd(p?'
tRp538
ag49
(g51
S'\xe0\xbaO8w\xdf\x9f?'
tRp539
aa(lp540
S'ENSG00000215475'
p541
aFinf
ag49
(g51
S';.w\xfcd(p?'
tRp542
ag49
(g51
S'\xe0\xbaO8w\xdf\x9f?'
tRp543
aa(lp544
S'ENSG00000177108'
p545
aFinf
ag49
(g51
S';.w\xfcd(p?'
tRp546
ag49
(g51
S'\xe0\xbaO8w\xdf\x9f?'
tRp547
aasg4
g5
((lp548
S'ENSG00000164924'
p549
aS'ENSG00000162512'
p550
aS'ENSG00000255501'
p551
aS'ENSG00000152977'
p552
aS'ENSG00000146038'
p553
aS'ENSG00000242110'
p554
aS'ENSG00000041357'
p555
aS'ENSG00000105835'
p556
aS'ENSG00000134014'
p557
aS'ENSG00000124587'
p558
atRp559
ssS'orange'
p560
(dp561
g45
(lp562
(lp563
S'ENSG00000086300'
p564
ag49
(g51
S'\x00\x00\x00\x00\x00\x80\x7f@'
tRp565
ag49
(g51
S'\xa2\x14#\xa0N$\x80?'
tRp566
ag49
(g51
S'`^\x11\xfd\xbb\x05\x98?'
tRp567
aa(lp568
S'ENSG00000153310'
p569
ag49
(g51
S'\x00\x00\x00\x00\x00po@'
tRp570
ag49
(g51
S'\x91l\xb6eT0\x88?'
tRp571
ag49
(g51
S'\xc0)\x89\xd6\xc2\x0b\x98?'
tRp572
aa(lp573
S'ENSG00000151952'
p574
ag49
(g51
S'\x00\x00\x00\x00\x00\x00Y@'
tRp575
ag49
(g51
S'\x07\xfa;\xc6\xef\x1d\x98?'
tRp576
ag49
(g51
S'\x00\xfa;\xc6\xef\x1d\x98?'
tRp577
aasg4
g5
((lp578
S'ENSG00000175575'
p579
aS'ENSG00000187790'
p580
aS'ENSG00000198133'
p581
aS'ENSG00000214078'
p582
aS'ENSG00000101251'
p583
aS'ENSG00000132792'
p584
aS'ENSG00000122507'
p585
aS'ENSG00000044459'
p586
aS'ENSG00000144134'
p587
aS'ENSG00000165695'
p588
aS'ENSG00000104872'
p589
aS'ENSG00000119929'
p590
aS'ENSG00000144036'
p591
aS'ENSG00000130517'
p592
aS'ENSG00000182993'
p593
aS'ENSG00000137806'
p594
atRp595
ssS'mediumorchid2'
p596
(dp597
g4
g5
((lp598
S'ENSG00000080644'
p599
aS'ENSG00000169684'
p600
aS'ENSG00000232859'
p601
aS'ENSG00000157693'
p602
aS'ENSG00000149679'
p603
aS'ENSG00000188234'
p604
aS'ENSG00000269514'
p605
atRp606
ssS'brown'
p607
(dp608
g4
g5
((lp609
S'ENSG00000162104'
p610
aS'ENSG00000221949'
p611
aS'ENSG00000134871'
p612
aS'ENSG00000182253'
p613
aS'ENSG00000130176'
p614
aS'ENSG00000106266'
p615
aS'ENSG00000183853'
p616
aS'ENSG00000101335'
p617
aS'ENSG00000205863'
p618
aS'ENSG00000131055'
p619
aS'ENSG00000112936'
p620
aS'ENSG00000146731'
p621
aS'ENSG00000212127'
p622
aS'ENSG00000138172'
p623
aS'ENSG00000131620'
p624
aS'ENSG00000141293'
p625
aS'ENSG00000176692'
p626
aS'ENSG00000115252'
p627
aS'ENSG00000164695'
p628
aS'ENSG00000156265'
p629
aS'ENSG00000115271'
p630
aS'ENSG00000163380'
p631
aS'ENSG00000033170'
p632
aS'ENSG00000122176'
p633
aS'ENSG00000143674'
p634
aS'ENSG00000143013'
p635
aS'ENSG00000101384'
p636
atRp637
ssS'turquoise'
p638
(dp639
g45
(lp640
(lp641
S'ENSG00000124762'
p642
ag49
(g51
S'\x8e\xe38\x8e\xe38K@'
tRp643
ag49
(g51
S'\xee\x88\x07\x08\x1c5\xf2>'
tRp644
ag49
(g51
S'\x00\x08\xc4\xe0\xa4\xe47?'
tRp645
aasg4
g5
((lp646
S'ENSG00000073350'
p647
aS'ENSG00000110848'
p648
aS'ENSG00000153234'
p649
aS'ENSG00000146910'
p650
aS'ENSG00000204740'
p651
aS'ENSG00000198435'
p652
aS'ENSG00000144655'
p653
aS'ENSG00000204388'
p654
aS'ENSG00000184110'
p655
aS'ENSG00000075426'
p656
aS'ENSG00000197165'
p657
aS'ENSG00000186480'
p658
aS'ENSG00000168679'
p659
aS'ENSG00000090104'
p660
aS'ENSG00000128699'
p661
aS'ENSG00000159388'
p662
aS'ENSG00000164379'
p663
aS'ENSG00000167565'
p664
aS'ENSG00000128594'
p665
aS'ENSG00000179344'
p666
aS'ENSG00000099330'
p667
aS'ENSG00000142178'
p668
aS'ENSG00000189190'
p669
aS'ENSG00000135549'
p670
aS'ENSG00000196735'
p671
aS'ENSG00000163659'
p672
aS'ENSG00000100226'
p673
aS'ENSG00000131759'
p674
aS'ENSG00000143878'
p675
atRp676
ssS'purple2'
p677
(dp678
g4
g5
((lp679
S'ENSG00000164037'
p680
aS'ENSG00000196357'
p681
aS'ENSG00000173517'
p682
aS'ENSG00000266173'
p683
aS'ENSG00000125434'
p684
aS'ENSG00000131018'
p685
aS'ENSG00000162384'
p686
aS'ENSG00000196724'
p687
aS'ENSG00000162642'
p688
atRp689
ssS'antiquewhite3'
p690
(dp691
g45
(lp692
(lp693
S'ENSG00000066056'
p694
aFinf
ag49
(g51
S';.w\xfcd(p?'
tRp695
ag49
(g51
S'\x00.w\xfcd(p?'
tRp696
aasg4
g5
((lp697
S'ENSG00000007171'
p698
aS'ENSG00000168765'
p699
aS'ENSG00000174944'
p700
aS'ENSG00000203697'
p701
aS'ENSG00000204909'
p702
aS'ENSG00000111247'
p703
aS'ENSG00000156804'
p704
aS'ENSG00000110497'
p705
atRp706
ssS'antiquewhite2'
p707
(dp708
g4
g5
((lp709
S'ENSG00000184492'
p710
aS'ENSG00000181472'
p711
aS'ENSG00000062370'
p712
aS'ENSG00000144895'
p713
aS'ENSG00000147576'
p714
aS'ENSG00000172403'
p715
aS'ENSG00000148834'
p716
aS'ENSG00000102763'
p717
aS'ENSG00000119737'
p718
aS'ENSG00000204348'
p719
aS'ENSG00000134779'
p720
atRp721
ssS'antiquewhite1'
p722
(dp723
g4
g5
((lp724
S'ENSG00000144848'
p725
aS'ENSG00000029725'
p726
aS'ENSG00000177302'
p727
aS'ENSG00000105176'
p728
aS'ENSG00000139197'
p729
aS'ENSG00000167721'
p730
aS'ENSG00000204138'
p731
aS'ENSG00000182700'
p732
aS'ENSG00000047410'
p733
aS'ENSG00000092199'
p734
atRp735
ssS'antiquewhite4'
p736
(dp737
g45
(lp738
(lp739
S'ENSG00000126733'
p740
ag49
(g51
S'\xab\xaa\xaa\xaa\xaa\xead@'
tRp741
ag49
(g51
S'o\xd5z\xe7!\x1c\x90?'
tRp742
ag49
(g51
S'@\x0eB\xcfj\xe7\x9f?'
tRp743
aa(lp744
S'ENSG00000198883'
p745
ag49
(g51
S'\x00\x00\x00\x00\x00po@'
tRp746
ag49
(g51
S'\x91l\xb6eT0\x88?'
tRp747
ag49
(g51
S'@\x0eB\xcfj\xe7\x9f?'
tRp748
aa(lp749
S'ENSG00000232237'
p750
ag49
(g51
S'\x00\x00\x00\x00\x00\x80\x7f@'
tRp751
ag49
(g51
S'\xa2\x14#\xa0N$\x80?'
tRp752
ag49
(g51
S'@\x0eB\xcfj\xe7\x9f?'
tRp753
aa(lp754
S'ENSG00000054803'
p755
ag49
(g51
S'\x00\x00\x00\x00\x00\x80\x7f@'
tRp756
ag49
(g51
S'\xa2\x14#\xa0N$\x80?'
tRp757
ag49
(g51
S'@\x0eB\xcfj\xe7\x9f?'
tRp758
aasg4
g5
((lp759
S'ENSG00000161981'
p760
aS'ENSG00000215845'
p761
aS'ENSG00000075975'
p762
aS'ENSG00000149554'
p763
aS'ENSG00000157895'
p764
aS'ENSG00000145217'
p765
aS'ENSG00000101751'
p766
aS'ENSG00000130508'
p767
aS'ENSG00000180535'
p768
aS'ENSG00000187456'
p769
aS'ENSG00000156990'
p770
aS'ENSG00000125861'
p771
atRp772
ssS'indianred4'
p773
(dp774
g45
(lp775
(lp776
S'ENSG00000233723'
p777
aFinf
ag49
(g51
S'\xce\xf9\x94;~2\x84?'
tRp778
ag49
(g51
S'0)\xa7\xc4\xe3\xc0\xa8?'
tRp779
aa(lp780
S'ENSG00000160469'
p781
ag49
(g51
S'\xab\xaa\xaa\xaa\xaa\xcaD@'
tRp782
ag49
(g51
S'\xacW\xd6\xebl\xf5\xa3?'
tRp783
ag49
(g51
S'0)\xa7\xc4\xe3\xc0\xa8?'
tRp784
aa(lp785
S'ENSG00000169184'
p786
aFinf
ag49
(g51
S'\xce\xf9\x94;~2\x84?'
tRp787
ag49
(g51
S'0)\xa7\xc4\xe3\xc0\xa8?'
tRp788
aa(lp789
S'ENSG00000187416'
p790
aFinf
ag49
(g51
S'\xce\xf9\x94;~2\x84?'
tRp791
ag49
(g51
S'0)\xa7\xc4\xe3\xc0\xa8?'
tRp792
aa(lp793
S'ENSG00000167733'
p794
aFinf
ag49
(g51
S'\xce\xf9\x94;~2\x84?'
tRp795
ag49
(g51
S'0)\xa7\xc4\xe3\xc0\xa8?'
tRp796
aasg4
g5
((lp797
S'ENSG00000198580'
p798
aS'ENSG00000121691'
p799
aS'ENSG00000174469'
p800
aS'ENSG00000197147'
p801
aS'ENSG00000074219'
p802
aS'ENSG00000159871'
p803
aS'ENSG00000162728'
p804
aS'ENSG00000198108'
p805
aS'ENSG00000116199'
p806
aS'ENSG00000180488'
p807
aS'ENSG00000186795'
p808
aS'ENSG00000159784'
p809
atRp810
ssS'yellow'
p811
(dp812
g45
(lp813
(lp814
S'ENSG00000077942'
p815
aFinf
ag49
(g51
S'\xce\xf9\x94;~2\x84?'
tRp816
ag49
(g51
S'0)\xa7\xc4\xe3\xc0\xa8?'
tRp817
aa(lp818
S'ENSG00000160691'
p819
ag49
(g51
S'\x00\x00\x00\x00\x00P_@'
tRp820
ag49
(g51
S'\xc0y\xf0m\x0e\x1e\x94?'
tRp821
ag49
(g51
S'0)\xa7\xc4\xe3\xc0\xa8?'
tRp822
aa(lp823
S'ENSG00000198142'
p824
aFinf
ag49
(g51
S'\xce\xf9\x94;~2\x84?'
tRp825
ag49
(g51
S'0)\xa7\xc4\xe3\xc0\xa8?'
tRp826
aa(lp827
S'ENSG00000069702'
p828
aFinf
ag49
(g51
S'\xce\xf9\x94;~2\x84?'
tRp829
ag49
(g51
S'0)\xa7\xc4\xe3\xc0\xa8?'
tRp830
aa(lp831
S'ENSG00000197496'
p832
ag49
(g51
S'\xab\xaa\xaa\xaa\xaa\xcaD@'
tRp833
ag49
(g51
S'\xacW\xd6\xebl\xf5\xa3?'
tRp834
ag49
(g51
S'0)\xa7\xc4\xe3\xc0\xa8?'
tRp835
aasg4
g5
((lp836
S'ENSG00000122359'
p837
aS'ENSG00000239389'
p838
aS'ENSG00000230873'
p839
aS'ENSG00000164402'
p840
aS'ENSG00000184470'
p841
aS'ENSG00000171790'
p842
aS'ENSG00000156689'
p843
aS'ENSG00000123146'
p844
aS'ENSG00000163885'
p845
aS'ENSG00000107949'
p846
aS'ENSG00000123416'
p847
aS'ENSG00000186567'
p848
aS'ENSG00000130635'
p849
aS'ENSG00000254614'
p850
aS'ENSG00000176715'
p851
aS'ENSG00000176014'
p852
aS'ENSG00000168828'
p853
aS'ENSG00000180638'
p854
aS'ENSG00000175643'
p855
aS'ENSG00000132436'
p856
aS'ENSG00000144120'
p857
aS'ENSG00000015592'
p858
aS'ENSG00000150361'
p859
aS'ENSG00000241852'
p860
aS'ENSG00000175110'
p861
aS'ENSG00000186591'
p862
aS'ENSG00000170788'
p863
atRp864
ssS'lightsteelblue'
p865
(dp866
g4
g5
((lp867
S'ENSG00000206562'
p868
aS'ENSG00000153157'
p869
aS'ENSG00000144741'
p870
aS'ENSG00000228208'
p871
aS'ENSG00000149474'
p872
aS'ENSG00000112118'
p873
aS'ENSG00000164576'
p874
aS'ENSG00000196118'
p875
aS'ENSG00000240303'
p876
aS'ENSG00000196715'
p877
aS'ENSG00000184647'
p878
aS'ENSG00000052749'
p879
atRp880
ssS'bisque4'
p881
(dp882
g4
g5
((lp883
S'ENSG00000150893'
p884
aS'ENSG00000173226'
p885
aS'ENSG00000078246'
p886
aS'ENSG00000007372'
p887
aS'ENSG00000166260'
p888
aS'ENSG00000117477'
p889
aS'ENSG00000213123'
p890
aS'ENSG00000180481'
p891
aS'ENSG00000178498'
p892
aS'ENSG00000131187'
p893
aS'ENSG00000104946'
p894
aS'ENSG00000128524'
p895
aS'ENSG00000114796'
p896
atRp897
ssS'cyan'
p898
(dp899
g45
(lp900
(lp901
g740
aFinf
ag49
(g51
S'N,w\xfcd(\x80?'
tRp902
ag49
(g51
S'@,w\xfcd(\x80?'
tRp903
aasg4
g5
((lp904
S'ENSG00000137364'
p905
aS'ENSG00000122882'
p906
aS'ENSG00000103932'
p907
aS'ENSG00000149930'
p908
aS'ENSG00000124380'
p909
aS'ENSG00000215193'
p910
aS'ENSG00000122515'
p911
aS'ENSG00000100316'
p912
aS'ENSG00000251322'
p913
aS'ENSG00000105793'
p914
aS'ENSG00000131504'
p915
aS'ENSG00000125741'
p916
aS'ENSG00000105063'
p917
aS'ENSG00000186716'
p918
aS'ENSG00000103005'
p919
aS'ENSG00000222014'
p920
aS'ENSG00000105576'
p921
aS'ENSG00000188130'
p922
aS'ENSG00000108587'
p923
atRp924
ssS'navajowhite3'
p925
(dp926
g4
g5
((lp927
S'ENSG00000122548'
p928
aS'ENSG00000185917'
p929
aS'ENSG00000165055'
p930
aS'ENSG00000087266'
p931
aS'ENSG00000197818'
p932
aS'ENSG00000089050'
p933
aS'ENSG00000090554'
p934
aS'ENSG00000140365'
p935
aS'ENSG00000146205'
p936
atRp937
ssS'mediumorchid1'
p938
(dp939
g45
(lp940
(lp941
S'ENSG00000172995'
p942
aFinf
ag49
(g51
S'2.w\xfcd(`?'
tRp943
ag49
(g51
S'\x80\x17z\xb0P$p?'
tRp944
aa(lp945
S'ENSG00000150394'
p946
aFinf
ag49
(g51
S'[\xfd\x94;~2\x84?'
tRp947
ag49
(g51
S'@\xfd\x94;~2\x84?'
tRp948
aasg4
g5
((lp949
S'ENSG00000143740'
p950
aS'ENSG00000174945'
p951
aS'ENSG00000198805'
p952
aS'ENSG00000164344'
p953
aS'ENSG00000163959'
p954
aS'ENSG00000140848'
p955
aS'ENSG00000141542'
p956
atRp957
ssS'bisque1'
p958
(dp959
g4
g5
((lp960
S'ENSG00000256771'
p961
aS'ENSG00000154781'
p962
aS'ENSG00000164011'
p963
aS'ENSG00000144182'
p964
aS'ENSG00000254004'
p965
atRp966
ssS'bisque2'
p967
(dp968
g4
g5
((lp969
S'ENSG00000149634'
p970
aS'ENSG00000180113'
p971
aS'ENSG00000167555'
p972
aS'ENSG00000185730'
p973
aS'ENSG00000170779'
p974
aS'ENSG00000203546'
p975
atRp976
ssS'bisque3'
p977
(dp978
g45
(lp979
(lp980
S'ENSG00000134769'
p981
aFinf
ag49
(g51
S'l\xc5\xb2z\x97<x?'
tRp982
ag49
(g51
S'\x80\xfd\xd4\x00\xbd\x05\x98?'
tRp983
aa(lp984
S'ENSG00000135744'
p985
ag49
(g51
S'\x00\x00\x00\x00\x00po@'
tRp986
ag49
(g51
S'\xd1u\xb6eT0\x88?'
tRp987
ag49
(g51
S' JQ>\x9c\xed\xa1?'
tRp988
aa(lp989
S'ENSG00000049540'
p990
ag49
(g51
S'\x00\x00\x00\x00\x00`_@'
tRp991
ag49
(g51
S'\x1e\x941\x18\x10\x1b\x92?'
tRp992
ag49
(g51
S'P\xf17\xf4\x15\xf2\xa1?'
tRp993
aa(lp994
S'ENSG00000134709'
p995
ag49
(g51
S'\x00\x00\x00\x00\x00`_@'
tRp996
ag49
(g51
S'\x1e\x941\x18\x10\x1b\x92?'
tRp997
ag49
(g51
S'P\xf17\xf4\x15\xf2\xa1?'
tRp998
aasg4
g5
((lp999
S'ENSG00000100271'
p1000
aS'ENSG00000160124'
p1001
aS'ENSG00000119888'
p1002
aS'ENSG00000198892'
p1003
aS'ENSG00000010438'
p1004
aS'ENSG00000139624'
p1005
aS'ENSG00000163431'
p1006
atRp1007
ssS'skyblue'
p1008
(dp1009
g45
(lp1010
(lp1011
S'ENSG00000172803'
p1012
ag49
(g51
S'\x00\x00\x00\x00\x00\x80\x7f@'
tRp1013
ag49
(g51
S'\xa2\x14#\xa0N$\x80?'
tRp1014
ag49
(g51
S'@\x0eB\xcfj\xe7\x9f?'
tRp1015
aa(lp1016
S'ENSG00000119681'
p1017
ag49
(g51
S'\xab\xaa\xaa\xaa\xaa\xead@'
tRp1018
ag49
(g51
S'o\xd5z\xe7!\x1c\x90?'
tRp1019
ag49
(g51
S'\xf0ch\xc3b\xc9\xa7?'
tRp1020
aa(lp1021
S'ENSG00000143196'
p1022
ag49
(g51
S'\x00\x00\x00\x00\x00\x10O@'
tRp1023
ag49
(g51
S'\xeb#\x11]\xa8\x08\xa2?'
tRp1024
ag49
(g51
S'\xf0ch\xc3b\xc9\xa7?'
tRp1025
aa(lp1026
S'ENSG00000162576'
p1027
ag49
(g51
S'\xab\xaa\xaa\xaa\xaa\xead@'
tRp1028
ag49
(g51
S'o\xd5z\xe7!\x1c\x90?'
tRp1029
ag49
(g51
S'\xf0ch\xc3b\xc9\xa7?'
tRp1030
aasg4
g5
((lp1031
S'ENSG00000167157'
p1032
aS'ENSG00000213015'
p1033
aS'ENSG00000115268'
p1034
aS'ENSG00000182327'
p1035
aS'ENSG00000225828'
p1036
aS'ENSG00000161013'
p1037
aS'ENSG00000128310'
p1038
aS'ENSG00000120675'
p1039
aS'ENSG00000141560'
p1040
aS'ENSG00000176402'
p1041
aS'ENSG00000182600'
p1042
aS'ENSG00000132207'
p1043
aS'ENSG00000164897'
p1044
aS'ENSG00000213221'
p1045
aS'ENSG00000171695'
p1046
atRp1047
ssS'darkturquoise'
p1048
(dp1049
g4
g5
((lp1050
S'ENSG00000136908'
p1051
aS'ENSG00000196502'
p1052
aS'ENSG00000175087'
p1053
aS'ENSG00000160867'
p1054
aS'ENSG00000101003'
p1055
aS'ENSG00000139410'
p1056
aS'ENSG00000205581'
p1057
aS'ENSG00000167703'
p1058
aS'ENSG00000006744'
p1059
aS'ENSG00000177674'
p1060
aS'ENSG00000150401'
p1061
aS'ENSG00000105404'
p1062
aS'ENSG00000204946'
p1063
aS'ENSG00000125534'
p1064
aS'ENSG00000197054'
p1065
aS'ENSG00000175183'
p1066
aS'ENSG00000101181'
p1067
atRp1068
ssS'cyan1'
p1069
(dp1070
g4
g5
((lp1071
S'ENSG00000177042'
p1072
aS'ENSG00000103356'
p1073
aS'ENSG00000138095'
p1074
aS'ENSG00000170606'
p1075
aS'ENSG00000166012'
p1076
aS'ENSG00000137804'
p1077
aS'ENSG00000176909'
p1078
atRp1079
ssS'darkgreen'
p1080
(dp1081
g4
g5
((lp1082
S'ENSG00000105976'
p1083
aS'ENSG00000111913'
p1084
aS'ENSG00000146453'
p1085
aS'ENSG00000049759'
p1086
aS'ENSG00000148925'
p1087
aS'ENSG00000006831'
p1088
aS'ENSG00000132975'
p1089
aS'ENSG00000158560'
p1090
aS'ENSG00000102606'
p1091
aS'ENSG00000197694'
p1092
aS'ENSG00000077463'
p1093
aS'ENSG00000135108'
p1094
aS'ENSG00000124588'
p1095
aS'ENSG00000133424'
p1096
aS'ENSG00000115616'
p1097
aS'ENSG00000100994'
p1098
aS'ENSG00000183049'
p1099
atRp1100
ssS'rosybrown4'
p1101
(dp1102
g45
(lp1103
(lp1104
S'ENSG00000172348'
p1105
aFinf
ag49
(g51
S'B1w\xfcd(p?'
tRp1106
ag49
(g51
S'@Fz,\xb9\xff\x97?'
tRp1107
aa(lp1108
S'ENSG00000139626'
p1109
aFinf
ag49
(g51
S'B1w\xfcd(p?'
tRp1110
ag49
(g51
S'@Fz,\xb9\xff\x97?'
tRp1111
aa(lp1112
S'ENSG00000118242'
p1113
aFinf
ag49
(g51
S'B1w\xfcd(p?'
tRp1114
ag49
(g51
S'@Fz,\xb9\xff\x97?'
tRp1115
aa(lp1116
S'ENSG00000122574'
p1117
aFinf
ag49
(g51
S'N,w\xfcd(\x80?'
tRp1118
ag49
(g51
S'\x80\x86\x99\xdf\xc4\x0b\x98?'
tRp1119
aa(lp1120
S'ENSG00000185345'
p1121
aFinf
ag49
(g51
S'N,w\xfcd(\x80?'
tRp1122
ag49
(g51
S'\x80\x86\x99\xdf\xc4\x0b\x98?'
tRp1123
aa(lp1124
S'ENSG00000157445'
p1125
aFinf
ag49
(g51
S'N,w\xfcd(\x80?'
tRp1126
ag49
(g51
S'\x80\x86\x99\xdf\xc4\x0b\x98?'
tRp1127
aasg4
g5
((lp1128
S'ENSG00000120669'
p1129
aS'ENSG00000197070'
p1130
aS'ENSG00000174371'
p1131
aS'ENSG00000136169'
p1132
aS'ENSG00000242715'
p1133
aS'ENSG00000169299'
p1134
aS'ENSG00000148362'
p1135
aS'ENSG00000176659'
p1136
atRp1137
ssS'cyan4'
p1138
(dp1139
g45
(lp1140
(lp1141
S'ENSG00000136250'
p1142
aFinf
ag49
(g51
S'B1w\xfcd(p?'
tRp1143
ag49
(g51
S'@Fz,\xb9\xff\x97?'
tRp1144
aa(lp1145
S'ENSG00000169896'
p1146
aFinf
ag49
(g51
S'N,w\xfcd(\x80?'
tRp1147
ag49
(g51
S'\x90\xb1}m\x8c\xe1\xa3?'
tRp1148
aa(lp1149
S'ENSG00000143119'
p1150
aFinf
ag49
(g51
S'`\xc5\xb2z\x97<\x88?'
tRp1151
ag49
(g51
S'\x90\xb1}m\x8c\xe1\xa3?'
tRp1152
aa(lp1153
S'ENSG00000141968'
p1154
aFinf
ag49
(g51
S'N,w\xfcd(\x80?'
tRp1155
ag49
(g51
S'\x90\xb1}m\x8c\xe1\xa3?'
tRp1156
aa(lp1157
S'ENSG00000204482'
p1158
aFinf
ag49
(g51
S'N,w\xfcd(\x80?'
tRp1159
ag49
(g51
S'\x90\xb1}m\x8c\xe1\xa3?'
tRp1160
aa(lp1161
S'ENSG00000104972'
p1162
aFinf
ag49
(g51
S'N,w\xfcd(\x80?'
tRp1163
ag49
(g51
S'\x90\xb1}m\x8c\xe1\xa3?'
tRp1164
aasg4
g5
((lp1165
S'ENSG00000173890'
p1166
aS'ENSG00000135249'
p1167
aS'ENSG00000168116'
p1168
aS'ENSG00000196233'
p1169
aS'ENSG00000019186'
p1170
aS'ENSG00000178750'
p1171
atRp1172
ssS'darkviolet'
p1173
(dp1174
g4
g5
((lp1175
S'ENSG00000165792'
p1176
aS'ENSG00000099381'
p1177
aS'ENSG00000139675'
p1178
aS'ENSG00000169857'
p1179
aS'ENSG00000176386'
p1180
aS'ENSG00000196275'
p1181
aS'ENSG00000171931'
p1182
aS'ENSG00000131652'
p1183
aS'ENSG00000163702'
p1184
aS'ENSG00000162881'
p1185
aS'ENSG00000236609'
p1186
atRp1187
ssS'peachpuff4'
p1188
(dp1189
g4
g5
((lp1190
S'ENSG00000135248'
p1191
aS'ENSG00000189159'
p1192
aS'ENSG00000213918'
p1193
aS'ENSG00000221990'
p1194
aS'ENSG00000141759'
p1195
aS'ENSG00000213347'
p1196
aS'ENSG00000198042'
p1197
atRp1198
ssS'steelblue3'
p1199
(dp1200
g45
(lp1201
(lp1202
S'ENSG00000144959'
p1203
aFinf
ag49
(g51
S';.w\xfcd(p?'
tRp1204
ag49
(g51
S'\xc0\x17\xde`\xdc\t\x94?'
tRp1205
aa(lp1206
S'ENSG00000172935'
p1207
aFinf
ag49
(g51
S';.w\xfcd(p?'
tRp1208
ag49
(g51
S'\xc0\x17\xde`\xdc\t\x94?'
tRp1209
aa(lp1210
S'ENSG00000198010'
p1211
ag49
(g51
S'\x00\x00\x00\x00\x00\x80\x7f@'
tRp1212
ag49
(g51
S'\xa2\x14#\xa0N$\x80?'
tRp1213
ag49
(g51
S'`^\x11\xfd\xbb\x05\x98?'
tRp1214
aa(lp1215
S'ENSG00000164794'
p1216
ag49
(g51
S'\x00\x00\x00\x00\x00\x80\x7f@'
tRp1217
ag49
(g51
S'\xa2\x14#\xa0N$\x80?'
tRp1218
ag49
(g51
S'`^\x11\xfd\xbb\x05\x98?'
tRp1219
aa(lp1220
S'ENSG00000166206'
p1221
ag49
(g51
S'\x00\x00\x00\x00\x00\x80\x7f@'
tRp1222
ag49
(g51
S'\xa2\x14#\xa0N$\x80?'
tRp1223
ag49
(g51
S'`^\x11\xfd\xbb\x05\x98?'
tRp1224
aasg4
g5
((lp1225
S'ENSG00000234602'
p1226
aS'ENSG00000214530'
p1227
aS'ENSG00000168792'
p1228
aS'ENSG00000171109'
p1229
aS'ENSG00000111725'
p1230
aS'ENSG00000137672'
p1231
atRp1232
ssS'khaki1'
p1233
(dp1234
g4
g5
((lp1235
S'ENSG00000163082'
p1236
aS'ENSG00000116977'
p1237
aS'ENSG00000164306'
p1238
aS'ENSG00000234511'
p1239
aS'ENSG00000232112'
p1240
atRp1241
ssS'slateblue3'
p1242
(dp1243
g4
g5
((lp1244
S'ENSG00000130656'
p1245
aS'ENSG00000163322'
p1246
aS'ENSG00000170906'
p1247
aS'ENSG00000196683'
p1248
aS'ENSG00000140263'
p1249
aS'ENSG00000224877'
p1250
aS'ENSG00000226976'
p1251
atRp1252
ssS'slateblue2'
p1253
(dp1254
g45
(lp1255
(lp1256
S'ENSG00000131187'
p1257
aFinf
ag49
(g51
S'2.w\xfcd(`?'
tRp1258
ag49
(g51
S'\x00.w\xfcd(`?'
tRp1259
aasg4
g5
((lp1260
S'ENSG00000104442'
p1261
aS'ENSG00000140400'
p1262
aS'ENSG00000197568'
p1263
aS'ENSG00000175581'
p1264
aS'ENSG00000255284'
p1265
aS'ENSG00000161999'
p1266
aS'ENSG00000115486'
p1267
aS'ENSG00000153071'
p1268
atRp1269
ssS'slateblue1'
p1270
(dp1271
g45
(lp1272
(lp1273
S'ENSG00000183508'
p1274
ag49
(g51
S'\x00\x00\x00\x00\x00\x80\x7f@'
tRp1275
ag49
(g51
S'\xa2\x14#\xa0N$\x80?'
tRp1276
ag49
(g51
S'@\x0eB\xcfj\xe7\x9f?'
tRp1277
aa(lp1278
S'ENSG00000072041'
p1279
ag49
(g51
S'\x00\x00\x00\x00\x00\x80\x7f@'
tRp1280
ag49
(g51
S'\xa2\x14#\xa0N$\x80?'
tRp1281
ag49
(g51
S'@\x0eB\xcfj\xe7\x9f?'
tRp1282
aa(lp1283
g574
ag49
(g51
S'\x00\x00\x00\x00\x00\x00Y@'
tRp1284
ag49
(g51
S'\x07\xfa;\xc6\xef\x1d\x98?'
tRp1285
ag49
(g51
S'@\x0eB\xcfj\xe7\x9f?'
tRp1286
aa(lp1287
S'ENSG00000110427'
p1288
ag49
(g51
S'\x00\x00\x00\x00\x00po@'
tRp1289
ag49
(g51
S'\x91l\xb6eT0\x88?'
tRp1290
ag49
(g51
S'@\x0eB\xcfj\xe7\x9f?'
tRp1291
aasg4
g5
((lp1292
S'ENSG00000182534'
p1293
aS'ENSG00000235478'
p1294
aS'ENSG00000134463'
p1295
aS'ENSG00000165837'
p1296
aS'ENSG00000170085'
p1297
aS'ENSG00000137103'
p1298
aS'ENSG00000164053'
p1299
aS'ENSG00000148690'
p1300
aS'ENSG00000185523'
p1301
atRp1302
ssS'indianred1'
p1303
(dp1304
g4
g5
((lp1305
S'ENSG00000132141'
p1306
aS'ENSG00000125871'
p1307
aS'ENSG00000123892'
p1308
aS'ENSG00000168661'
p1309
aS'ENSG00000139194'
p1310
aS'ENSG00000186470'
p1311
aS'ENSG00000186625'
p1312
aS'ENSG00000198690'
p1313
aS'ENSG00000124508'
p1314
atRp1315
ssS'lightpink'
p1316
(dp1317
g45
(lp1318
(lp1319
S'ENSG00000060558'
p1320
aFinf
ag49
(g51
S'2.w\xfcd(`?'
tRp1321
ag49
(g51
S'\x80^\x87\t#\x1e\x84?'
tRp1322
aa(lp1323
S'ENSG00000100368'
p1324
aFinf
ag49
(g51
S'2.w\xfcd(`?'
tRp1325
ag49
(g51
S'\x80^\x87\t#\x1e\x84?'
tRp1326
aa(lp1327
S'ENSG00000118640'
p1328
aFinf
ag49
(g51
S'\xb0\xc0\xb2z\x97<x?'
tRp1329
ag49
(g51
S' U\\\x82\xf6\x11\x92?'
tRp1330
aa(lp1331
S'ENSG00000163694'
p1332
aFinf
ag49
(g51
S'N,w\xfcd(\x80?'
tRp1333
ag49
(g51
S' U\\\x82\xf6\x11\x92?'
tRp1334
aa(lp1335
S'ENSG00000162777'
p1336
aFinf
ag49
(g51
S'[\xfd\x94;~2\x84?'
tRp1337
ag49
(g51
S' U\\\x82\xf6\x11\x92?'
tRp1338
aasg4
g5
((lp1339
S'ENSG00000158714'
p1340
aS'ENSG00000204514'
p1341
aS'ENSG00000128563'
p1342
aS'ENSG00000251247'
p1343
aS'ENSG00000100823'
p1344
aS'ENSG00000204435'
p1345
aS'ENSG00000065621'
p1346
aS'ENSG00000250673'
p1347
aS'ENSG00000250120'
p1348
atRp1349
ssS'red'
p1350
(dp1351
g4
g5
((lp1352
S'ENSG00000136250'
p1353
aS'ENSG00000113555'
p1354
aS'ENSG00000154856'
p1355
aS'ENSG00000166033'
p1356
aS'ENSG00000164106'
p1357
aS'ENSG00000185432'
p1358
aS'ENSG00000149480'
p1359
aS'ENSG00000120586'
p1360
aS'ENSG00000151849'
p1361
aS'ENSG00000187546'
p1362
aS'ENSG00000167311'
p1363
aS'ENSG00000141469'
p1364
aS'ENSG00000171533'
p1365
aS'ENSG00000163586'
p1366
aS'ENSG00000103510'
p1367
aS'ENSG00000182606'
p1368
aS'ENSG00000135838'
p1369
aS'ENSG00000101247'
p1370
aS'ENSG00000163817'
p1371
aS'ENSG00000182919'
p1372
aS'ENSG00000101474'
p1373
aS'ENSG00000155792'
p1374
aS'ENSG00000143995'
p1375
aS'ENSG00000162601'
p1376
aS'ENSG00000134508'
p1377
atRp1378
ssS'limegreen'
p1379
(dp1380
g45
(lp1381
(lp1382
S'ENSG00000100678'
p1383
aFinf
ag49
(g51
S';.w\xfcd(p?'
tRp1384
ag49
(g51
S'\x00\x91\xc1\xaa\xfb\x0f\x90?'
tRp1385
aa(lp1386
S'ENSG00000177425'
p1387
aFinf
ag49
(g51
S';.w\xfcd(p?'
tRp1388
ag49
(g51
S'\x00\x91\xc1\xaa\xfb\x0f\x90?'
tRp1389
aa(lp1390
S'ENSG00000142408'
p1391
ag49
(g51
S'\xab\xaa\xaa\xaa\xaa\xead@'
tRp1392
ag49
(g51
S'o\xd5z\xe7!\x1c\x90?'
tRp1393
ag49
(g51
S'\xc0)\x89\xd6\xc2\x0b\x98?'
tRp1394
aa(lp1395
S'ENSG00000169933'
p1396
ag49
(g51
S'\x00\x00\x00\x00\x00po@'
tRp1397
ag49
(g51
S'\x91l\xb6eT0\x88?'
tRp1398
ag49
(g51
S'\xc0)\x89\xd6\xc2\x0b\x98?'
tRp1399
aasg4
g5
((lp1400
S'ENSG00000100726'
p1401
aS'ENSG00000163902'
p1402
aS'ENSG00000186765'
p1403
aS'ENSG00000101224'
p1404
aS'ENSG00000144031'
p1405
aS'ENSG00000132600'
p1406
aS'ENSG00000144366'
p1407
atRp1408
ssS'lemonchiffon3'
p1409
(dp1410
g45
(lp1411
(lp1412
S'ENSG00000151948'
p1413
aFinf
ag49
(g51
S'N,w\xfcd(\x80?'
tRp1414
ag49
(g51
S'@,w\xfcd(\x80?'
tRp1415
aasg4
g5
((lp1416
S'ENSG00000198315'
p1417
aS'ENSG00000198467'
p1418
aS'ENSG00000178852'
p1419
aS'ENSG00000154134'
p1420
aS'ENSG00000137185'
p1421
atRp1422
ssS'darkmagenta'
p1423
(dp1424
g4
g5
((lp1425
S'ENSG00000090920'
p1426
aS'ENSG00000160323'
p1427
aS'ENSG00000100299'
p1428
aS'ENSG00000188690'
p1429
aS'ENSG00000071894'
p1430
aS'ENSG00000170122'
p1431
aS'ENSG00000218739'
p1432
aS'ENSG00000124120'
p1433
aS'ENSG00000188566'
p1434
aS'ENSG00000039650'
p1435
aS'ENSG00000168393'
p1436
aS'ENSG00000198931'
p1437
aS'ENSG00000164896'
p1438
aS'ENSG00000172785'
p1439
aS'ENSG00000198477'
p1440
atRp1441
ssS'indianred3'
p1442
(dp1443
g4
g5
((lp1444
S'ENSG00000156414'
p1445
aS'ENSG00000154262'
p1446
aS'ENSG00000112773'
p1447
aS'ENSG00000154258'
p1448
aS'ENSG00000135597'
p1449
aS'ENSG00000185046'
p1450
aS'ENSG00000186792'
p1451
aS'ENSG00000136144'
p1452
aS'ENSG00000186088'
p1453
aS'ENSG00000170500'
p1454
atRp1455
ssS'plum3'
p1456
(dp1457
g45
(lp1458
(lp1459
g1328
ag49
(g51
S'\x00\x00\x00\x00\x00po@'
tRp1460
ag49
(g51
S'\x91l\xb6eT0\x88?'
tRp1461
ag49
(g51
S'\x90\x9b74|\xc3\xa7?'
tRp1462
aa(lp1463
g1332
ag49
(g51
S'\xab\xaa\xaa\xaa\xaa\xead@'
tRp1464
ag49
(g51
S'o\xd5z\xe7!\x1c\x90?'
tRp1465
ag49
(g51
S'\xf0ch\xc3b\xc9\xa7?'
tRp1466
aa(lp1467
S'ENSG00000077522'
p1468
ag49
(g51
S'\x00\x00\x00\x00\x00P_@'
tRp1469
ag49
(g51
S'\x81y\xf0m\x0e\x1e\x94?'
tRp1470
ag49
(g51
S'\xf0ch\xc3b\xc9\xa7?'
tRp1471
aa(lp1472
g1336
ag49
(g51
S'\x00\x00\x00\x00\x00P_@'
tRp1473
ag49
(g51
S'\x81y\xf0m\x0e\x1e\x94?'
tRp1474
ag49
(g51
S'\xf0ch\xc3b\xc9\xa7?'
tRp1475
aasg4
g5
((lp1476
S'ENSG00000142186'
p1477
aS'ENSG00000164366'
p1478
aS'ENSG00000136059'
p1479
aS'ENSG00000165140'
p1480
aS'ENSG00000100364'
p1481
aS'ENSG00000100104'
p1482
aS'ENSG00000165887'
p1483
aS'ENSG00000121101'
p1484
aS'ENSG00000268885'
p1485
aS'ENSG00000125637'
p1486
aS'ENSG00000100697'
p1487
atRp1488
ssS'plum2'
p1489
(dp1490
g45
(lp1491
(lp1492
S'ENSG00000197565'
p1493
aFinf
ag49
(g51
S'C.w\xfcd(\x80?'
tRp1494
ag49
(g51
S'\x00\xb4}m\x8c\xe1\xa3?'
tRp1495
aasg4
g5
((lp1496
S'ENSG00000187186'
p1497
aS'ENSG00000196284'
p1498
aS'ENSG00000145423'
p1499
aS'ENSG00000258839'
p1500
aS'ENSG00000119227'
p1501
aS'ENSG00000167765'
p1502
aS'ENSG00000141562'
p1503
aS'ENSG00000143569'
p1504
aS'ENSG00000182628'
p1505
aS'ENSG00000185290'
p1506
aS'ENSG00000092295'
p1507
aS'ENSG00000129990'
p1508
aS'ENSG00000161692'
p1509
atRp1510
ssS'plum1'
p1511
(dp1512
g45
(lp1513
(lp1514
S'ENSG00000145335'
p1515
aFinf
ag49
(g51
S';.w\xfcd(p?'
tRp1516
ag49
(g51
S'\x802\xf5\xef%$\x88?'
tRp1517
aa(lp1518
S'ENSG00000196767'
p1519
ag49
(g51
S'\x00\x00\x00\x00\x00\x80\x7f@'
tRp1520
ag49
(g51
S'\xa2\x14#\xa0N$\x80?'
tRp1521
ag49
(g51
S'\xa0{\x7f\xb0\x05\x14\x90?'
tRp1522
aa(lp1523
S'ENSG00000135824'
p1524
ag49
(g51
S'\x00\x00\x00\x00\x00\x80\x7f@'
tRp1525
ag49
(g51
S'\xa2\x14#\xa0N$\x80?'
tRp1526
ag49
(g51
S'\xa0{\x7f\xb0\x05\x14\x90?'
tRp1527
aasg4
g5
((lp1528
S'ENSG00000164323'
p1529
aS'ENSG00000165782'
p1530
aS'ENSG00000035115'
p1531
aS'ENSG00000052723'
p1532
aS'ENSG00000018510'
p1533
aS'ENSG00000163576'
p1534
aS'ENSG00000173338'
p1535
aS'ENSG00000133665'
p1536
aS'ENSG00000115286'
p1537
aS'ENSG00000106803'
p1538
aS'ENSG00000164972'
p1539
aS'ENSG00000175170'
p1540
aS'ENSG00000101150'
p1541
aS'ENSG00000145736'
p1542
atRp1543
ssS'lemonchiffon4'
p1544
(dp1545
g4
g5
((lp1546
S'ENSG00000197535'
p1547
aS'ENSG00000180822'
p1548
aS'ENSG00000041353'
p1549
aS'ENSG00000176788'
p1550
aS'ENSG00000179399'
p1551
aS'ENSG00000218416'
p1552
atRp1553
ssS'slateblue4'
p1554
(dp1555
g45
(lp1556
(lp1557
S'ENSG00000186522'
p1558
aFinf
ag49
(g51
S'2.w\xfcd(`?'
tRp1559
ag49
(g51
S'\x80\x17z\xb0P$p?'
tRp1560
aa(lp1561
S'ENSG00000196569'
p1562
aFinf
ag49
(g51
S'N,w\xfcd(\x80?'
tRp1563
ag49
(g51
S'@,w\xfcd(\x80?'
tRp1564
aasg4
g5
((lp1565
S'ENSG00000142065'
p1566
aS'ENSG00000136367'
p1567
aS'ENSG00000152217'
p1568
aS'ENSG00000176222'
p1569
aS'ENSG00000184956'
p1570
aS'ENSG00000215712'
p1571
aS'ENSG00000173209'
p1572
atRp1573
ssS'orangered2'
p1574
(dp1575
g45
(lp1576
(lp1577
S'ENSG00000006210'
p1578
ag49
(g51
S'\x00\x00\x00\x00\x00\x80\x7f@'
tRp1579
ag49
(g51
S'\xa2\x14#\xa0N$\x80?'
tRp1580
ag49
(g51
S'\xc0\x17\xde`\xdc\t\x94?'
tRp1581
aa(lp1582
S'ENSG00000203867'
p1583
aFinf
ag49
(g51
S';.w\xfcd(p?'
tRp1584
ag49
(g51
S'\xc0\x17\xde`\xdc\t\x94?'
tRp1585
aa(lp1586
S'ENSG00000270111'
p1587
aFinf
ag49
(g51
S';.w\xfcd(p?'
tRp1588
ag49
(g51
S'\xc0\x17\xde`\xdc\t\x94?'
tRp1589
aa(lp1590
S'ENSG00000196557'
p1591
ag49
(g51
S'\x00\x00\x00\x00\x00\x80\x7f@'
tRp1592
ag49
(g51
S'\xa2\x14#\xa0N$\x80?'
tRp1593
ag49
(g51
S'\xc0\x17\xde`\xdc\t\x94?'
tRp1594
aa(lp1595
S'ENSG00000133627'
p1596
aFinf
ag49
(g51
S';.w\xfcd(p?'
tRp1597
ag49
(g51
S'\xc0\x17\xde`\xdc\t\x94?'
tRp1598
aasg4
g5
((lp1599
S'ENSG00000125170'
p1600
aS'ENSG00000141698'
p1601
aS'ENSG00000156463'
p1602
aS'ENSG00000110455'
p1603
aS'ENSG00000137142'
p1604
aS'ENSG00000127399'
p1605
atRp1606
ssS'saddlebrown'
p1607
(dp1608
g4
g5
((lp1609
S'ENSG00000081791'
p1610
aS'ENSG00000178115'
p1611
aS'ENSG00000198961'
p1612
aS'ENSG00000174373'
p1613
aS'ENSG00000070269'
p1614
aS'ENSG00000156017'
p1615
aS'ENSG00000213937'
p1616
aS'ENSG00000059122'
p1617
aS'ENSG00000162482'
p1618
aS'ENSG00000158077'
p1619
aS'ENSG00000122971'
p1620
aS'ENSG00000108590'
p1621
aS'ENSG00000180210'
p1622
aS'ENSG00000124782'
p1623
aS'ENSG00000196460'
p1624
atRp1625
ssS'lightgoldenrodyellow'
p1626
(dp1627
g4
g5
((lp1628
S'ENSG00000145020'
p1629
aS'ENSG00000139835'
p1630
aS'ENSG00000183828'
p1631
aS'ENSG00000179046'
p1632
aS'ENSG00000174775'
p1633
aS'ENSG00000268948'
p1634
aS'ENSG00000166743'
p1635
aS'ENSG00000122678'
p1636
atRp1637
ssS'lavender'
p1638
(dp1639
g4
g5
((lp1640
S'ENSG00000122375'
p1641
aS'ENSG00000122367'
p1642
aS'ENSG00000129925'
p1643
aS'ENSG00000181085'
p1644
aS'ENSG00000106392'
p1645
aS'ENSG00000171522'
p1646
aS'ENSG00000111581'
p1647
aS'ENSG00000167264'
p1648
atRp1649
ssS'lightgoldenrod4'
p1650
(dp1651
g4
g5
((lp1652
S'ENSG00000120727'
p1653
aS'ENSG00000128944'
p1654
aS'ENSG00000169609'
p1655
aS'ENSG00000181031'
p1656
aS'ENSG00000114841'
p1657
aS'ENSG00000106399'
p1658
aS'ENSG00000183287'
p1659
atRp1660
ssS'yellowgreen'
p1661
(dp1662
g45
(lp1663
(lp1664
S'ENSG00000183695'
p1665
ag49
(g51
S'\x00\x00\x00\x00\x00\x80\x7f@'
tRp1666
ag49
(g51
S'\xa2\x14#\xa0N$\x80?'
tRp1667
ag49
(g51
S'\xa0{\x7f\xb0\x05\x14\x90?'
tRp1668
aa(lp1669
g1022
ag49
(g51
S'\x00\x00\x00\x00\x00\x10O@'
tRp1670
ag49
(g51
S'\xeb#\x11]\xa8\x08\xa2?'
tRp1671
ag49
(g51
S'\xf0#\x11]\xa8\x08\xa2?'
tRp1672
aasg4
g5
((lp1673
S'ENSG00000144488'
p1674
aS'ENSG00000152284'
p1675
aS'ENSG00000214871'
p1676
aS'ENSG00000197927'
p1677
aS'ENSG00000106554'
p1678
aS'ENSG00000221923'
p1679
aS'ENSG00000137822'
p1680
aS'ENSG00000164078'
p1681
aS'ENSG00000031698'
p1682
aS'ENSG00000109775'
p1683
aS'ENSG00000186918'
p1684
aS'ENSG00000132341'
p1685
aS'ENSG00000156795'
p1686
aS'ENSG00000162959'
p1687
aS'ENSG00000123427'
p1688
atRp1689
ssS'orangered1'
p1690
(dp1691
g45
(lp1692
(lp1693
S'ENSG00000095587'
p1694
aFinf
ag49
(g51
S'l\xc5\xb2z\x97<x?'
tRp1695
ag49
(g51
S'\x80\xfd\xd4\x00\xbd\x05\x98?'
tRp1696
aa(lp1697
S'ENSG00000081237'
p1698
aFinf
ag49
(g51
S'l\xc5\xb2z\x97<x?'
tRp1699
ag49
(g51
S'\x80\xfd\xd4\x00\xbd\x05\x98?'
tRp1700
aa(lp1701
S'ENSG00000121361'
p1702
ag49
(g51
S'\x00\x00\x00\x00\x00po@'
tRp1703
ag49
(g51
S'\xd1u\xb6eT0\x88?'
tRp1704
ag49
(g51
S'\xe02\x89\xd6\xc2\x0b\x98?'
tRp1705
aa(lp1706
g104
ag49
(g51
S'\x00\x00\x00\x00\x00\xe0T@'
tRp1707
ag49
(g51
S'L\xddU\xaa\xda\x17\x98?'
tRp1708
ag49
(g51
S'@\xddU\xaa\xda\x17\x98?'
tRp1709
aasg4
g5
((lp1710
S'ENSG00000180953'
p1711
aS'ENSG00000183598'
p1712
aS'ENSG00000174125'
p1713
aS'ENSG00000215305'
p1714
aS'ENSG00000088756'
p1715
aS'ENSG00000123685'
p1716
aS'ENSG00000134802'
p1717
aS'ENSG00000112149'
p1718
aS'ENSG00000232810'
p1719
aS'ENSG00000102967'
p1720
aS'ENSG00000262484'
p1721
atRp1722
ssS'royalblue1'
p1723
(dp1724
g4
g5
((lp1725
S'ENSG00000117601'
p1726
aS'ENSG00000132911'
p1727
aS'ENSG00000213672'
p1728
aS'ENSG00000103226'
p1729
aS'ENSG00000152348'
p1730
atRp1731
ssS'lightgoldenrod3'
p1732
(dp1733
g4
g5
((lp1734
S'ENSG00000121931'
p1735
aS'ENSG00000093072'
p1736
aS'ENSG00000063244'
p1737
aS'ENSG00000160957'
p1738
aS'ENSG00000104826'
p1739
aS'ENSG00000151233'
p1740
atRp1741
ssS'chartreuse4'
p1742
(dp1743
g45
(lp1744
(lp1745
g1468
ag49
(g51
S'\x00\x00\x00\x00\x00P_@'
tRp1746
ag49
(g51
S'\x81y\xf0m\x0e\x1e\x94?'
tRp1747
ag49
(g51
S'\x80y\xf0m\x0e\x1e\x94?'
tRp1748
aasg4
g5
((lp1749
S'ENSG00000177685'
p1750
aS'ENSG00000120318'
p1751
aS'ENSG00000054356'
p1752
aS'ENSG00000108878'
p1753
aS'ENSG00000019102'
p1754
aS'ENSG00000183793'
p1755
atRp1756
ssS'darkorchid4'
p1757
(dp1758
g45
(lp1759
(lp1760
S'ENSG00000136286'
p1761
aFinf
ag49
(g51
S'2.w\xfcd(`?'
tRp1762
ag49
(g51
S'\x80\x17z\xb0P$p?'
tRp1763
aa(lp1764
S'ENSG00000064932'
p1765
aFinf
ag49
(g51
S'\xb0\xc0\xb2z\x97<x?'
tRp1766
ag49
(g51
S'\x80\xc0\xb2z\x97<x?'
tRp1767
aasg4
g5
((lp1768
S'ENSG00000167608'
p1769
aS'ENSG00000164220'
p1770
aS'ENSG00000156127'
p1771
aS'ENSG00000203727'
p1772
aS'ENSG00000163347'
p1773
aS'ENSG00000185070'
p1774
aS'ENSG00000142675'
p1775
atRp1776
ssS'peachpuff3'
p1777
(dp1778
g45
(lp1779
(lp1780
S'ENSG00000198125'
p1781
aFinf
ag49
(g51
S'2.w\xfcd(`?'
tRp1782
ag49
(g51
S'\x00.w\xfcd(`?'
tRp1783
aasg4
g5
((lp1784
S'ENSG00000177548'
p1785
aS'ENSG00000140986'
p1786
aS'ENSG00000107521'
p1787
aS'ENSG00000143970'
p1788
aS'ENSG00000136243'
p1789
aS'ENSG00000136235'
p1790
atRp1791
ssS'violetred4'
p1792
(dp1793
g45
(lp1794
(lp1795
S'ENSG00000231252'
p1796
aFinf
ag49
(g51
S';.w\xfcd(p?'
tRp1797
ag49
(g51
S'\x00\x01}d< \x80?'
tRp1798
aa(lp1799
S'ENSG00000109472'
p1800
ag49
(g51
S'\x00\x00\x00\x00\x00\x80\x7f@'
tRp1801
ag49
(g51
S'\xa2\x14#\xa0N$\x80?'
tRp1802
ag49
(g51
S'\xc0\x14#\xa0N$\x80?'
tRp1803
aasg4
g5
((lp1804
S'ENSG00000132321'
p1805
aS'ENSG00000144791'
p1806
aS'ENSG00000100814'
p1807
aS'ENSG00000008311'
p1808
aS'ENSG00000137944'
p1809
aS'ENSG00000112280'
p1810
aS'ENSG00000141314'
p1811
atRp1812
ssS'darkorchid3'
p1813
(dp1814
g45
(lp1815
(lp1816
S'ENSG00000123560'
p1817
ag49
(g51
S'\xab\xaa\xaa\xaa\xaa\xead@'
tRp1818
ag49
(g51
S'o\xd5z\xe7!\x1c\x90?'
tRp1819
ag49
(g51
S'`^\x11\xfd\xbb\x05\x98?'
tRp1820
aa(lp1821
S'ENSG00000167995'
p1822
ag49
(g51
S'\x00\x00\x00\x00\x00\x80\x7f@'
tRp1823
ag49
(g51
S'\xa2\x14#\xa0N$\x80?'
tRp1824
ag49
(g51
S'`^\x11\xfd\xbb\x05\x98?'
tRp1825
aa(lp1826
S'ENSG00000134222'
p1827
ag49
(g51
S'\x00\x00\x00\x00\x00\x80\x7f@'
tRp1828
ag49
(g51
S'\xa2\x14#\xa0N$\x80?'
tRp1829
ag49
(g51
S'`^\x11\xfd\xbb\x05\x98?'
tRp1830
aasg4
g5
((lp1831
S'ENSG00000100197'
p1832
aS'ENSG00000178078'
p1833
aS'ENSG00000182004'
p1834
aS'ENSG00000115085'
p1835
aS'ENSG00000169871'
p1836
aS'ENSG00000182379'
p1837
atRp1838
ssS'blue'
p1839
(dp1840
g45
(lp1841
(lp1842
g1150
ag49
(g51
S'F\x17]t\xd1EF@'
tRp1843
ag49
(g51
S'z\xb7\x96\x8b.\x075?'
tRp1844
ag49
(g51
S'\x80\xa7\xb8\xac\xfd\xd0|?'
tRp1845
aa(lp1846
S'ENSG00000203747'
p1847
aFinf
ag49
(g51
S'\xefpT\x1e-?G?'
tRp1848
ag49
(g51
S'\xc0"D\xea\xc0K\x8e?'
tRp1849
aasg4
g5
((lp1850
S'ENSG00000162511'
p1851
aS'ENSG00000179855'
p1852
aS'ENSG00000237541'
p1853
aS'ENSG00000026297'
p1854
aS'ENSG00000185774'
p1855
aS'ENSG00000122482'
p1856
aS'ENSG00000182557'
p1857
aS'ENSG00000136536'
p1858
aS'ENSG00000163694'
p1859
aS'ENSG00000106952'
p1860
aS'ENSG00000171812'
p1861
aS'ENSG00000204472'
p1862
aS'ENSG00000038945'
p1863
aS'ENSG00000187010'
p1864
aS'ENSG00000100092'
p1865
aS'ENSG00000155307'
p1866
aS'ENSG00000107719'
p1867
aS'ENSG00000178573'
p1868
aS'ENSG00000151917'
p1869
aS'ENSG00000126264'
p1870
aS'ENSG00000128815'
p1871
aS'ENSG00000166928'
p1872
aS'ENSG00000213366'
p1873
aS'ENSG00000142583'
p1874
aS'ENSG00000150782'
p1875
aS'ENSG00000118640'
p1876
aS'ENSG00000204257'
p1877
atRp1878
ssS'rosybrown2'
p1879
(dp1880
g45
(lp1881
(lp1882
S'ENSG00000101335'
p1883
aFinf
ag49
(g51
S'\xb0\xc0\xb2z\x97<x?'
tRp1884
ag49
(g51
S'\x80\xc0\xb2z\x97<x?'
tRp1885
aasg4
g5
((lp1886
S'ENSG00000153060'
p1887
aS'ENSG00000174348'
p1888
aS'ENSG00000121764'
p1889
aS'ENSG00000143167'
p1890
aS'ENSG00000177666'
p1891
aS'ENSG00000162383'
p1892
atRp1893
ssS'seashell2'
p1894
(dp1895
g4
g5
((lp1896
S'ENSG00000178927'
p1897
aS'ENSG00000185689'
p1898
aS'ENSG00000164414'
p1899
aS'ENSG00000205078'
p1900
aS'ENSG00000101638'
p1901
aS'ENSG00000173548'
p1902
atRp1903
ssS'honeydew'
p1904
(dp1905
g45
(lp1906
(lp1907
S'ENSG00000162931'
p1908
aFinf
ag49
(g51
S'B1w\xfcd(p?'
tRp1909
ag49
(g51
S'\x801w\xfcd(p?'
tRp1910
aasg4
g5
((lp1911
S'ENSG00000168090'
p1912
aS'ENSG00000179698'
p1913
aS'ENSG00000114030'
p1914
aS'ENSG00000197841'
p1915
aS'ENSG00000168676'
p1916
aS'ENSG00000198093'
p1917
aS'ENSG00000188906'
p1918
aS'ENSG00000149418'
p1919
aS'ENSG00000159450'
p1920
aS'ENSG00000173451'
p1921
aS'ENSG00000166140'
p1922
atRp1923
ssS'cornflowerblue'
p1924
(dp1925
g4
g5
((lp1926
S'ENSG00000198075'
p1927
aS'ENSG00000080573'
p1928
aS'ENSG00000187079'
p1929
aS'ENSG00000127249'
p1930
aS'ENSG00000099812'
p1931
aS'ENSG00000075785'
p1932
aS'ENSG00000129355'
p1933
aS'ENSG00000213859'
p1934
aS'ENSG00000100413'
p1935
atRp1936
ssS'khaki3'
p1937
(dp1938
g4
g5
((lp1939
S'ENSG00000148296'
p1940
aS'ENSG00000148843'
p1941
aS'ENSG00000132664'
p1942
aS'ENSG00000178187'
p1943
aS'ENSG00000170322'
p1944
aS'ENSG00000003509'
p1945
aS'ENSG00000116668'
p1946
atRp1947
ssS'darkblue'
p1948
(dp1949
g4
g5
((lp1950
S'ENSG00000154479'
p1951
aS'ENSG00000043514'
p1952
aS'ENSG00000186448'
p1953
aS'ENSG00000151689'
p1954
aS'ENSG00000203666'
p1955
atRp1956
ssS'mistyrose3'
p1957
(dp1958
g45
(lp1959
(lp1960
S'ENSG00000068831'
p1961
aFinf
ag49
(g51
S';.w\xfcd(p?'
tRp1962
ag49
(g51
S'\x00\x01}d< \x80?'
tRp1963
aa(lp1964
S'ENSG00000123360'
p1965
ag49
(g51
S'\xab\xaa\xaa\xaa\xaa\xead@'
tRp1966
ag49
(g51
S'o\xd5z\xe7!\x1c\x90?'
tRp1967
ag49
(g51
S'`\xd5z\xe7!\x1c\x90?'
tRp1968
aasg4
g5
((lp1969
S'ENSG00000174928'
p1970
aS'ENSG00000113749'
p1971
aS'ENSG00000151952'
p1972
aS'ENSG00000152455'
p1973
aS'ENSG00000105135'
p1974
aS'ENSG00000132801'
p1975
aS'ENSG00000103248'
p1976
aS'ENSG00000092036'
p1977
atRp1978
ssS'olivedrab4'
p1979
(dp1980
g45
(lp1981
(lp1982
S'ENSG00000100302'
p1983
aFinf
ag49
(g51
S'l\xc5\xb2z\x97<x?'
tRp1984
ag49
(g51
S'`L\rK\x7f\xf0\x9d?'
tRp1985
aa(lp1986
S'ENSG00000135439'
p1987
aFinf
ag49
(g51
S'l\xc5\xb2z\x97<x?'
tRp1988
ag49
(g51
S'`L\rK\x7f\xf0\x9d?'
tRp1989
aasg4
g5
((lp1990
S'ENSG00000144331'
p1991
aS'ENSG00000184117'
p1992
aS'ENSG00000118997'
p1993
aS'ENSG00000164758'
p1994
aS'ENSG00000121905'
p1995
aS'ENSG00000066136'
p1996
aS'ENSG00000177098'
p1997
atRp1998
ssS'wheat1'
p1999
(dp2000
g4
g5
((lp2001
S'ENSG00000183426'
p2002
aS'ENSG00000188730'
p2003
aS'ENSG00000113494'
p2004
aS'ENSG00000023697'
p2005
aS'ENSG00000187676'
p2006
aS'ENSG00000139433'
p2007
aS'ENSG00000144406'
p2008
atRp2009
ssS'palevioletred1'
p2010
(dp2011
g45
(lp2012
(lp2013
S'ENSG00000183049'
p2014
aFinf
ag49
(g51
S'l\xc5\xb2z\x97<x?'
tRp2015
ag49
(g51
S'\x80\xc5\xb2z\x97<x?'
tRp2016
aasg4
g5
((lp2017
S'ENSG00000241258'
p2018
aS'ENSG00000162571'
p2019
aS'ENSG00000095383'
p2020
aS'ENSG00000143369'
p2021
aS'ENSG00000130669'
p2022
aS'ENSG00000134086'
p2023
aS'ENSG00000116983'
p2024
aS'ENSG00000169762'
p2025
aS'ENSG00000188707'
p2026
aS'ENSG00000117226'
p2027
atRp2028
ssS'palevioletred2'
p2029
(dp2030
g4
g5
((lp2031
S'ENSG00000170448'
p2032
aS'ENSG00000099290'
p2033
aS'ENSG00000214946'
p2034
aS'ENSG00000107185'
p2035
aS'ENSG00000135637'
p2036
aS'ENSG00000117407'
p2037
aS'ENSG00000169515'
p2038
aS'ENSG00000129347'
p2039
aS'ENSG00000134438'
p2040
aS'ENSG00000143882'
p2041
aS'ENSG00000121289'
p2042
atRp2043
ssS'palevioletred3'
p2044
(dp2045
g45
(lp2046
(lp2047
S'ENSG00000185499'
p2048
aFinf
ag49
(g51
S';.w\xfcd(p?'
tRp2049
ag49
(g51
S'\xc0\x17\xde`\xdc\t\x94?'
tRp2050
aa(lp2051
S'ENSG00000070729'
p2052
ag49
(g51
S'\x00\x00\x00\x00\x00\x80\x7f@'
tRp2053
ag49
(g51
S'\xa2\x14#\xa0N$\x80?'
tRp2054
ag49
(g51
S'\xc0\x17\xde`\xdc\t\x94?'
tRp2055
aa(lp2056
S'ENSG00000198785'
p2057
ag49
(g51
S'\x00\x00\x00\x00\x00po@'
tRp2058
ag49
(g51
S'\x91l\xb6eT0\x88?'
tRp2059
ag49
(g51
S'\xc0\x17\xde`\xdc\t\x94?'
tRp2060
aa(lp2061
S'ENSG00000169836'
p2062
aFinf
ag49
(g51
S';.w\xfcd(p?'
tRp2063
ag49
(g51
S'\xc0\x17\xde`\xdc\t\x94?'
tRp2064
aa(lp2065
S'ENSG00000029534'
p2066
aFinf
ag49
(g51
S';.w\xfcd(p?'
tRp2067
ag49
(g51
S'\xc0\x17\xde`\xdc\t\x94?'
tRp2068
aasg4
g5
((lp2069
S'ENSG00000197580'
p2070
aS'ENSG00000178031'
p2071
aS'ENSG00000114021'
p2072
aS'ENSG00000006652'
p2073
aS'ENSG00000173272'
p2074
aS'ENSG00000074356'
p2075
aS'ENSG00000164713'
p2076
aS'ENSG00000204352'
p2077
aS'ENSG00000130005'
p2078
aS'ENSG00000100225'
p2079
aS'ENSG00000151470'
p2080
aS'ENSG00000110717'
p2081
aS'ENSG00000055483'
p2082
atRp2083
ssS'coral3'
p2084
(dp2085
g4
g5
((lp2086
S'ENSG00000241186'
p2087
aS'ENSG00000173826'
p2088
aS'ENSG00000156535'
p2089
aS'ENSG00000100987'
p2090
aS'ENSG00000218672'
p2091
aS'ENSG00000124942'
p2092
aS'ENSG00000124935'
p2093
aS'ENSG00000166510'
p2094
aS'ENSG00000113805'
p2095
aS'ENSG00000161649'
p2096
aS'ENSG00000072864'
p2097
atRp2098
ssS'coral2'
p2099
(dp2100
g45
(lp2101
(lp2102
S'ENSG00000072840'
p2103
aFinf
ag49
(g51
S'\xb0\xc0\xb2z\x97<x?'
tRp2104
ag49
(g51
S'\x80\xc0\xb2z\x97<x?'
tRp2105
aasg4
g5
((lp2106
S'ENSG00000144476'
p2107
aS'ENSG00000136932'
p2108
aS'ENSG00000189171'
p2109
aS'ENSG00000173302'
p2110
aS'ENSG00000144218'
p2111
aS'ENSG00000162407'
p2112
aS'ENSG00000149292'
p2113
aS'ENSG00000170949'
p2114
aS'ENSG00000095951'
p2115
aS'ENSG00000143514'
p2116
aS'ENSG00000241935'
p2117
aS'ENSG00000137936'
p2118
atRp2119
ssS'coral1'
p2120
(dp2121
g45
(lp2122
(lp2123
S'ENSG00000176658'
p2124
aFinf
ag49
(g51
S';.w\xfcd(p?'
tRp2125
ag49
(g51
S'\x00.w\xfcd(p?'
tRp2126
aasg4
g5
((lp2127
S'ENSG00000184923'
p2128
aS'ENSG00000134324'
p2129
aS'ENSG00000101040'
p2130
aS'ENSG00000187049'
p2131
aS'ENSG00000165124'
p2132
aS'ENSG00000106341'
p2133
aS'ENSG00000101236'
p2134
aS'ENSG00000125779'
p2135
aS'ENSG00000138363'
p2136
aS'ENSG00000140043'
p2137
aS'ENSG00000143850'
p2138
aS'ENSG00000104369'
p2139
atRp2140
ssS'deepskyblue4'
p2141
(dp2142
g4
g5
((lp2143
S'ENSG00000198131'
p2144
aS'ENSG00000136048'
p2145
aS'ENSG00000172315'
p2146
aS'ENSG00000188086'
p2147
aS'ENSG00000168066'
p2148
aS'ENSG00000075399'
p2149
aS'ENSG00000136816'
p2150
atRp2151
ssS'rosybrown3'
p2152
(dp2153
g4
g5
((lp2154
S'ENSG00000184227'
p2155
aS'ENSG00000137070'
p2156
aS'ENSG00000162437'
p2157
aS'ENSG00000234972'
p2158
aS'ENSG00000109072'
p2159
aS'ENSG00000122696'
p2160
aS'ENSG00000214595'
p2161
atRp2162
ssS'cornsilk'
p2163
(dp2164
g45
(lp2165
(lp2166
S'ENSG00000163885'
p2167
aFinf
ag49
(g51
S'2.w\xfcd(`?'
tRp2168
ag49
(g51
S'\x00.w\xfcd(`?'
tRp2169
aasg4
g5
((lp2170
S'ENSG00000156006'
p2171
aS'ENSG00000120647'
p2172
aS'ENSG00000118454'
p2173
aS'ENSG00000185442'
p2174
aS'ENSG00000136261'
p2175
aS'ENSG00000007541'
p2176
aS'ENSG00000124635'
p2177
aS'ENSG00000159625'
p2178
atRp2179
ssS'indianred2'
p2180
(dp2181
g45
(lp2182
(lp2183
S'ENSG00000206172'
p2184
aFinf
ag49
(g51
S';.w\xfcd(p?'
tRp2185
ag49
(g51
S'\x00.w\xfcd(p?'
tRp2186
aasg4
g5
((lp2187
S'ENSG00000206172'
p2188
aS'ENSG00000105205'
p2189
aS'ENSG00000138079'
p2190
aS'ENSG00000188536'
p2191
aS'ENSG00000172262'
p2192
aS'ENSG00000167670'
p2193
aS'ENSG00000269120'
p2194
aS'ENSG00000164821'
p2195
aS'ENSG00000213995'
p2196
atRp2197
ssS'coral4'
p2198
(dp2199
g4
g5
((lp2200
S'ENSG00000185860'
p2201
aS'ENSG00000166562'
p2202
aS'ENSG00000026508'
p2203
aS'ENSG00000105499'
p2204
aS'ENSG00000055070'
p2205
aS'ENSG00000132561'
p2206
aS'ENSG00000182541'
p2207
aS'ENSG00000197935'
p2208
aS'ENSG00000138867'
p2209
aS'ENSG00000164989'
p2210
atRp2211
ssS'lightblue2'
p2212
(dp2213
g4
g5
((lp2214
S'ENSG00000163161'
p2215
aS'ENSG00000080345'
p2216
aS'ENSG00000182318'
p2217
aS'ENSG00000180992'
p2218
aS'ENSG00000187288'
p2219
aS'ENSG00000145416'
p2220
aS'ENSG00000197956'
p2221
aS'ENSG00000136897'
p2222
aS'ENSG00000168916'
p2223
atRp2224
ssS'lightblue3'
p2225
(dp2226
g4
g5
((lp2227
S'ENSG00000174695'
p2228
aS'ENSG00000150756'
p2229
aS'ENSG00000196391'
p2230
aS'ENSG00000176236'
p2231
aS'ENSG00000159210'
p2232
aS'ENSG00000167900'
p2233
aS'ENSG00000188004'
p2234
aS'ENSG00000088727'
p2235
aS'ENSG00000004534'
p2236
aS'ENSG00000089902'
p2237
atRp2238
ssS'lightblue1'
p2239
(dp2240
g45
(lp2241
(lp2242
g515
ag49
(g51
S'\x00\x00\x00\x00\x00\x80\x7f@'
tRp2243
ag49
(g51
S'\xa2\x14#\xa0N$\x80?'
tRp2244
ag49
(g51
S'\xc0\x17\xde`\xdc\t\x94?'
tRp2245
aa(lp2246
S'ENSG00000167619'
p2247
aFinf
ag49
(g51
S';.w\xfcd(p?'
tRp2248
ag49
(g51
S'\xc0\x17\xde`\xdc\t\x94?'
tRp2249
aa(lp2250
S'ENSG00000259175'
p2251
aFinf
ag49
(g51
S';.w\xfcd(p?'
tRp2252
ag49
(g51
S'\xc0\x17\xde`\xdc\t\x94?'
tRp2253
aa(lp2254
S'ENSG00000231187'
p2255
aFinf
ag49
(g51
S';.w\xfcd(p?'
tRp2256
ag49
(g51
S'\xc0\x17\xde`\xdc\t\x94?'
tRp2257
aa(lp2258
S'ENSG00000144460'
p2259
aFinf
ag49
(g51
S';.w\xfcd(p?'
tRp2260
ag49
(g51
S'\xc0\x17\xde`\xdc\t\x94?'
tRp2261
aasg4
g5
((lp2262
S'ENSG00000186532'
p2263
aS'ENSG00000160188'
p2264
aS'ENSG00000114115'
p2265
aS'ENSG00000249158'
p2266
aS'ENSG00000129194'
p2267
aS'ENSG00000114416'
p2268
aS'ENSG00000134748'
p2269
aS'ENSG00000101204'
p2270
atRp2271
ssS'lightslateblue'
p2272
(dp2273
g45
(lp2274
(lp2275
S'ENSG00000111344'
p2276
aFinf
ag49
(g51
S'2.w\xfcd(`?'
tRp2277
ag49
(g51
S'\x80\xbe\x07\xa6\\0x?'
tRp2278
aa(lp2279
S'ENSG00000165548'
p2280
aFinf
ag49
(g51
S'B1w\xfcd(p?'
tRp2281
ag49
(g51
S'\x80\x04}d< \x80?'
tRp2282
aa(lp2283
S'ENSG00000237289'
p2284
aFinf
ag49
(g51
S'\xb0\xc0\xb2z\x97<x?'
tRp2285
ag49
(g51
S'\x80\x04}d< \x80?'
tRp2286
aasg4
g5
((lp2287
S'ENSG00000171502'
p2288
aS'ENSG00000112531'
p2289
aS'ENSG00000064687'
p2290
aS'ENSG00000178015'
p2291
aS'ENSG00000253379'
p2292
aS'ENSG00000135127'
p2293
aS'ENSG00000099817'
p2294
aS'ENSG00000186469'
p2295
aS'ENSG00000203818'
p2296
aS'ENSG00000134265'
p2297
atRp2298
ssS'lightblue4'
p2299
(dp2300
g4
g5
((lp2301
S'ENSG00000078487'
p2302
aS'ENSG00000110063'
p2303
aS'ENSG00000172828'
p2304
aS'ENSG00000169826'
p2305
aS'ENSG00000181061'
p2306
aS'ENSG00000121716'
p2307
aS'ENSG00000149922'
p2308
aS'ENSG00000176563'
p2309
aS'ENSG00000152700'
p2310
aS'ENSG00000085514'
p2311
atRp2312
ssS'lightsteelblue1'
p2313
(dp2314
g45
(lp2315
(lp2316
S'ENSG00000092054'
p2317
aFinf
ag49
(g51
S'2.w\xfcd(`?'
tRp2318
ag49
(g51
S'\x00.w\xfcd(`?'
tRp2319
aasg4
g5
((lp2320
S'ENSG00000257218'
p2321
aS'ENSG00000214097'
p2322
aS'ENSG00000107897'
p2323
aS'ENSG00000132970'
p2324
aS'ENSG00000099940'
p2325
aS'ENSG00000092068'
p2326
aS'ENSG00000163820'
p2327
aS'ENSG00000204428'
p2328
aS'ENSG00000163040'
p2329
aS'ENSG00000197238'
p2330
aS'ENSG00000167720'
p2331
aS'ENSG00000156171'
p2332
aS'ENSG00000001629'
p2333
aS'ENSG00000242866'
p2334
atRp2335
ssS'skyblue4'
p2336
(dp2337
g45
(lp2338
(lp2339
S'ENSG00000060709'
p2340
aFinf
ag49
(g51
S';.w\xfcd(p?'
tRp2341
ag49
(g51
S'\xc0\x17\xde`\xdc\t\x94?'
tRp2342
aa(lp2343
S'ENSG00000183773'
p2344
aFinf
ag49
(g51
S';.w\xfcd(p?'
tRp2345
ag49
(g51
S'\xc0\x17\xde`\xdc\t\x94?'
tRp2346
aa(lp2347
S'ENSG00000150672'
p2348
ag49
(g51
S'\x00\x00\x00\x00\x00\x80\x7f@'
tRp2349
ag49
(g51
S'\xa2\x14#\xa0N$\x80?'
tRp2350
ag49
(g51
S'\xc0\x17\xde`\xdc\t\x94?'
tRp2351
aa(lp2352
S'ENSG00000170743'
p2353
aFinf
ag49
(g51
S';.w\xfcd(p?'
tRp2354
ag49
(g51
S'\xc0\x17\xde`\xdc\t\x94?'
tRp2355
aa(lp2356
S'ENSG00000108176'
p2357
ag49
(g51
S'\xab\xaa\xaa\xaa\xaa\xead@'
tRp2358
ag49
(g51
S'o\xd5z\xe7!\x1c\x90?'
tRp2359
ag49
(g51
S'\xc0\x17\xde`\xdc\t\x94?'
tRp2360
aasg4
g5
((lp2361
S'ENSG00000182698'
p2362
aS'ENSG00000148737'
p2363
aS'ENSG00000172590'
p2364
aS'ENSG00000187772'
p2365
aS'ENSG00000130803'
p2366
aS'ENSG00000182870'
p2367
aS'ENSG00000105136'
p2368
aS'ENSG00000174652'
p2369
aS'ENSG00000198039'
p2370
aS'ENSG00000053372'
p2371
aS'ENSG00000112144'
p2372
atRp2373
ssS'deepskyblue'
p2374
(dp2375
g4
g5
((lp2376
S'ENSG00000109794'
p2377
aS'ENSG00000104518'
p2378
aS'ENSG00000184203'
p2379
aS'ENSG00000185787'
p2380
aS'ENSG00000165917'
p2381
aS'ENSG00000128294'
p2382
aS'ENSG00000163046'
p2383
aS'ENSG00000138757'
p2384
atRp2385
ssS'skyblue1'
p2386
(dp2387
g4
g5
((lp2388
S'ENSG00000171130'
p2389
aS'ENSG00000136783'
p2390
aS'ENSG00000134996'
p2391
aS'ENSG00000143374'
p2392
aS'ENSG00000185838'
p2393
aS'ENSG00000122852'
p2394
aS'ENSG00000167118'
p2395
aS'ENSG00000130348'
p2396
aS'ENSG00000108278'
p2397
aS'ENSG00000164978'
p2398
aS'ENSG00000185303'
p2399
aS'ENSG00000111215'
p2400
atRp2401
ssS'darkred'
p2402
(dp2403
g45
(lp2404
(lp2405
S'ENSG00000184545'
p2406
aFinf
ag49
(g51
S'\xb0\xc0\xb2z\x97<x?'
tRp2407
ag49
(g51
S'\xa0\xf8\xd4\x00\xbd\x05\x98?'
tRp2408
aa(lp2409
S'ENSG00000158856'
p2410
aFinf
ag49
(g51
S'N,w\xfcd(\x80?'
tRp2411
ag49
(g51
S'\x80\x86\x99\xdf\xc4\x0b\x98?'
tRp2412
aa(lp2413
S'ENSG00000163995'
p2414
aFinf
ag49
(g51
S'N,w\xfcd(\x80?'
tRp2415
ag49
(g51
S'\x80\x86\x99\xdf\xc4\x0b\x98?'
tRp2416
aa(lp2417
S'ENSG00000226009'
p2418
aFinf
ag49
(g51
S'`\xc5\xb2z\x97<\x88?'
tRp2419
ag49
(g51
S'\x80\x86\x99\xdf\xc4\x0b\x98?'
tRp2420
aasg4
g5
((lp2421
S'ENSG00000057468'
p2422
aS'ENSG00000185024'
p2423
aS'ENSG00000157911'
p2424
aS'ENSG00000065268'
p2425
aS'ENSG00000173327'
p2426
aS'ENSG00000127952'
p2427
aS'ENSG00000168958'
p2428
aS'ENSG00000175203'
p2429
aS'ENSG00000176209'
p2430
aS'ENSG00000127578'
p2431
aS'ENSG00000166913'
p2432
aS'ENSG00000149925'
p2433
aS'ENSG00000186642'
p2434
aS'ENSG00000007520'
p2435
aS'ENSG00000110958'
p2436
aS'ENSG00000066044'
p2437
aS'ENSG00000074842'
p2438
aS'ENSG00000203791'
p2439
atRp2440
ssS'skyblue2'
p2441
(dp2442
g4
g5
((lp2443
S'ENSG00000103549'
p2444
aS'ENSG00000101457'
p2445
aS'ENSG00000151651'
p2446
aS'ENSG00000100578'
p2447
aS'ENSG00000166130'
p2448
aS'ENSG00000204149'
p2449
aS'ENSG00000118849'
p2450
aS'ENSG00000166971'
p2451
aS'ENSG00000055955'
p2452
aS'ENSG00000118939'
p2453
aS'ENSG00000213024'
p2454
aS'ENSG00000171055'
p2455
atRp2456
ssS'lavenderblush1'
p2457
(dp2458
g4
g5
((lp2459
S'ENSG00000124164'
p2460
aS'ENSG00000163596'
p2461
aS'ENSG00000185104'
p2462
aS'ENSG00000164008'
p2463
aS'ENSG00000158161'
p2464
aS'ENSG00000133739'
p2465
aS'ENSG00000166582'
p2466
aS'ENSG00000163354'
p2467
aS'ENSG00000067900'
p2468
aS'ENSG00000143194'
p2469
atRp2470
ssS'lavenderblush3'
p2471
(dp2472
g4
g5
((lp2473
S'ENSG00000182180'
p2474
aS'ENSG00000169021'
p2475
aS'ENSG00000158435'
p2476
aS'ENSG00000132463'
p2477
aS'ENSG00000113971'
p2478
aS'ENSG00000230055'
p2479
aS'ENSG00000103591'
p2480
aS'ENSG00000137814'
p2481
aS'ENSG00000067533'
p2482
aS'ENSG00000004142'
p2483
aS'ENSG00000085491'
p2484
aS'ENSG00000124243'
p2485
aS'ENSG00000111786'
p2486
atRp2487
ssS'lavenderblush2'
p2488
(dp2489
g4
g5
((lp2490
S'ENSG00000177432'
p2491
aS'ENSG00000175426'
p2492
aS'ENSG00000145354'
p2493
aS'ENSG00000079841'
p2494
aS'ENSG00000105619'
p2495
aS'ENSG00000166136'
p2496
aS'ENSG00000113387'
p2497
aS'ENSG00000126217'
p2498
aS'ENSG00000112981'
p2499
aS'ENSG00000136492'
p2500
aS'ENSG00000272047'
p2501
atRp2502
ssS'aliceblue'
p2503
(dp2504
g4
g5
((lp2505
S'ENSG00000152767'
p2506
aS'ENSG00000178209'
p2507
aS'ENSG00000164211'
p2508
aS'ENSG00000138316'
p2509
aS'ENSG00000153993'
p2510
aS'ENSG00000170540'
p2511
aS'ENSG00000104450'
p2512
aS'ENSG00000180914'
p2513
aS'ENSG00000099204'
p2514
atRp2515
ssS'lightskyblue2'
p2516
(dp2517
g4
g5
((lp2518
S'ENSG00000107593'
p2519
aS'ENSG00000186687'
p2520
aS'ENSG00000130312'
p2521
aS'ENSG00000135390'
p2522
aS'ENSG00000165609'
p2523
aS'ENSG00000141854'
p2524
aS'ENSG00000217442'
p2525
aS'ENSG00000135972'
p2526
atRp2527
ssS'lightskyblue3'
p2528
(dp2529
g45
(lp2530
(lp2531
S'ENSG00000158008'
p2532
aFinf
ag49
(g51
S'2.w\xfcd(`?'
tRp2533
ag49
(g51
S'\x80\x17z\xb0P$p?'
tRp2534
aa(lp2535
S'ENSG00000107282'
p2536
aFinf
ag49
(g51
S'N,w\xfcd(\x80?'
tRp2537
ag49
(g51
S'@,w\xfcd(\x80?'
tRp2538
aasg4
g5
((lp2539
S'ENSG00000127337'
p2540
aS'ENSG00000163293'
p2541
aS'ENSG00000142252'
p2542
aS'ENSG00000122512'
p2543
aS'ENSG00000099256'
p2544
aS'ENSG00000137563'
p2545
aS'ENSG00000070601'
p2546
aS'ENSG00000198515'
p2547
aS'ENSG00000038002'
p2548
atRp2549
ssS'blue1'
p2550
(dp2551
g45
(lp2552
(lp2553
S'ENSG00000122420'
p2554
aFinf
ag49
(g51
S'2.w\xfcd(`?'
tRp2555
ag49
(g51
S'\x80\x17z\xb0P$p?'
tRp2556
aa(lp2557
S'ENSG00000166025'
p2558
aFinf
ag49
(g51
S'B1w\xfcd(p?'
tRp2559
ag49
(g51
S'\x801w\xfcd(p?'
tRp2560
aasg4
g5
((lp2561
S'ENSG00000121053'
p2562
aS'ENSG00000198721'
p2563
aS'ENSG00000147419'
p2564
aS'ENSG00000256269'
p2565
aS'ENSG00000076662'
p2566
aS'ENSG00000118961'
p2567
aS'ENSG00000139053'
p2568
aS'ENSG00000198298'
p2569
aS'ENSG00000150051'
p2570
atRp2571
ssS'blue3'
p2572
(dp2573
g45
(lp2574
(lp2575
S'ENSG00000077238'
p2576
aFinf
ag49
(g51
S';.w\xfcd(p?'
tRp2577
ag49
(g51
S'\x802\xf5\xef%$\x88?'
tRp2578
aa(lp2579
S'ENSG00000069399'
p2580
ag49
(g51
S'\x00\x00\x00\x00\x00\x80\x7f@'
tRp2581
ag49
(g51
S'\xa2\x14#\xa0N$\x80?'
tRp2582
ag49
(g51
S'\xa0{\x7f\xb0\x05\x14\x90?'
tRp2583
aa(lp2584
S'ENSG00000204033'
p2585
ag49
(g51
S'\x00\x00\x00\x00\x00po@'
tRp2586
ag49
(g51
S'\x91l\xb6eT0\x88?'
tRp2587
ag49
(g51
S'\xa0{\x7f\xb0\x05\x14\x90?'
tRp2588
aasg4
g5
((lp2589
S'ENSG00000107874'
p2590
aS'ENSG00000197142'
p2591
aS'ENSG00000122490'
p2592
aS'ENSG00000177683'
p2593
aS'ENSG00000148600'
p2594
aS'ENSG00000138772'
p2595
aS'ENSG00000159592'
p2596
aS'ENSG00000027075'
p2597
aS'ENSG00000117868'
p2598
atRp2599
ssS'blue2'
p2600
(dp2601
g4
g5
((lp2602
S'ENSG00000188878'
p2603
aS'ENSG00000135541'
p2604
aS'ENSG00000267127'
p2605
aS'ENSG00000167384'
p2606
aS'ENSG00000075188'
p2607
aS'ENSG00000171148'
p2608
aS'ENSG00000169288'
p2609
aS'ENSG00000170734'
p2610
aS'ENSG00000141569'
p2611
aS'ENSG00000139131'
p2612
aS'ENSG00000156469'
p2613
atRp2614
ssS'blue4'
p2615
(dp2616
g4
g5
((lp2617
S'ENSG00000099840'
p2618
aS'ENSG00000129749'
p2619
aS'ENSG00000105072'
p2620
aS'ENSG00000161798'
p2621
aS'ENSG00000112667'
p2622
aS'ENSG00000105341'
p2623
aS'ENSG00000164967'
p2624
aS'ENSG00000121390'
p2625
aS'ENSG00000115468'
p2626
aS'ENSG00000161551'
p2627
atRp2628
ssS'lightskyblue4'
p2629
(dp2630
g45
(lp2631
(lp2632
S'ENSG00000196104'
p2633
ag49
(g51
S'\x00\x00\x00\x00\x00\x80\x7f@'
tRp2634
ag49
(g51
S'\xa2\x14#\xa0N$\x80?'
tRp2635
ag49
(g51
S'\xc0\x17\xde`\xdc\t\x94?'
tRp2636
aa(lp2637
S'ENSG00000136167'
p2638
aFinf
ag49
(g51
S';.w\xfcd(p?'
tRp2639
ag49
(g51
S'\xc0\x17\xde`\xdc\t\x94?'
tRp2640
aa(lp2641
S'ENSG00000155886'
p2642
aFinf
ag49
(g51
S';.w\xfcd(p?'
tRp2643
ag49
(g51
S'\xc0\x17\xde`\xdc\t\x94?'
tRp2644
aa(lp2645
S'ENSG00000105251'
p2646
aFinf
ag49
(g51
S';.w\xfcd(p?'
tRp2647
ag49
(g51
S'\xc0\x17\xde`\xdc\t\x94?'
tRp2648
aa(lp2649
g279
ag49
(g51
S'\xab\xaa\xaa\xaa\xaa\xead@'
tRp2650
ag49
(g51
S'o\xd5z\xe7!\x1c\x90?'
tRp2651
ag49
(g51
S'\xc0\x17\xde`\xdc\t\x94?'
tRp2652
aasg4
g5
((lp2653
S'ENSG00000144224'
p2654
aS'ENSG00000115523'
p2655
aS'ENSG00000169914'
p2656
aS'ENSG00000026751'
p2657
aS'ENSG00000120451'
p2658
aS'ENSG00000151388'
p2659
aS'ENSG00000109065'
p2660
aS'ENSG00000152409'
p2661
aS'ENSG00000128340'
p2662
aS'ENSG00000168385'
p2663
atRp2664
ssS'plum4'
p2665
(dp2666
g45
(lp2667
(lp2668
S'ENSG00000142512'
p2669
aFinf
ag49
(g51
S'2.w\xfcd(`?'
tRp2670
ag49
(g51
S'\x00.w\xfcd(`?'
tRp2671
aasg4
g5
((lp2672
S'ENSG00000151092'
p2673
aS'ENSG00000129673'
p2674
aS'ENSG00000100902'
p2675
aS'ENSG00000078674'
p2676
aS'ENSG00000042429'
p2677
aS'ENSG00000162244'
p2678
aS'ENSG00000142541'
p2679
aS'ENSG00000086827'
p2680
aS'ENSG00000049860'
p2681
aS'ENSG00000104221'
p2682
atRp2683
ssS'yellow3'
p2684
(dp2685
g4
g5
((lp2686
S'ENSG00000131591'
p2687
aS'ENSG00000142632'
p2688
aS'ENSG00000161618'
p2689
aS'ENSG00000105963'
p2690
aS'ENSG00000067836'
p2691
aS'ENSG00000147874'
p2692
aS'ENSG00000142856'
p2693
aS'ENSG00000141568'
p2694
aS'ENSG00000108591'
p2695
aS'ENSG00000134108'
p2696
aS'ENSG00000114850'
p2697
atRp2698
ssS'floralwhite'
p2699
(dp2700
g4
g5
((lp2701
S'ENSG00000105185'
p2702
aS'ENSG00000087076'
p2703
aS'ENSG00000063854'
p2704
aS'ENSG00000010017'
p2705
aS'ENSG00000105792'
p2706
aS'ENSG00000136104'
p2707
aS'ENSG00000204531'
p2708
aS'ENSG00000104979'
p2709
aS'ENSG00000234719'
p2710
aS'ENSG00000134285'
p2711
aS'ENSG00000182117'
p2712
aS'ENSG00000185088'
p2713
aS'ENSG00000180376'
p2714
atRp2715
ssS'coral'
p2716
(dp2717
g45
(lp2718
(lp2719
S'ENSG00000173175'
p2720
ag49
(g51
S'\x00\x00\x00\x00\x00\xe0T@'
tRp2721
ag49
(g51
S'\xc0\xdbU\xaa\xda\x17\x98?'
tRp2722
ag49
(g51
S'`\x9c\x0b1~\xc3\xa7?'
tRp2723
aa(lp2724
S'ENSG00000118849'
p2725
aFinf
ag49
(g51
S'C.w\xfcd(\x80?'
tRp2726
ag49
(g51
S'`\x9c\x0b1~\xc3\xa7?'
tRp2727
aa(lp2728
S'ENSG00000065361'
p2729
aFinf
ag49
(g51
S'C.w\xfcd(\x80?'
tRp2730
ag49
(g51
S'`\x9c\x0b1~\xc3\xa7?'
tRp2731
aa(lp2732
S'ENSG00000145808'
p2733
aFinf
ag49
(g51
S'C.w\xfcd(\x80?'
tRp2734
ag49
(g51
S'`\x9c\x0b1~\xc3\xa7?'
tRp2735
aa(lp2736
S'ENSG00000137857'
p2737
aFinf
ag49
(g51
S'C.w\xfcd(\x80?'
tRp2738
ag49
(g51
S'`\x9c\x0b1~\xc3\xa7?'
tRp2739
aa(lp2740
S'ENSG00000003096'
p2741
aFinf
ag49
(g51
S'C.w\xfcd(\x80?'
tRp2742
ag49
(g51
S'`\x9c\x0b1~\xc3\xa7?'
tRp2743
aasg4
g5
((lp2744
S'ENSG00000196932'
p2745
aS'ENSG00000182568'
p2746
aS'ENSG00000151575'
p2747
aS'ENSG00000159263'
p2748
aS'ENSG00000039068'
p2749
aS'ENSG00000169851'
p2750
aS'ENSG00000186205'
p2751
aS'ENSG00000203797'
p2752
aS'ENSG00000112320'
p2753
aS'ENSG00000158747'
p2754
aS'ENSG00000175390'
p2755
atRp2756
ssS'purple'
p2757
(dp2758
g45
(lp2759
(lp2760
S'ENSG00000154553'
p2761
aFinf
ag49
(g51
S'\xe4\x98\x9c\xf8)\x86\xf8>'
tRp2762
ag49
(g51
S'\x00\x00+-\x17\x86\x08?'
tRp2763
aa(lp2764
S'ENSG00000142611'
p2765
aFinf
ag49
(g51
S'l\xc5\xb2z\x97<x?'
tRp2766
ag49
(g51
S'\x80\xc5\xb2z\x97<x?'
tRp2767
aasg4
g5
((lp2768
S'ENSG00000144792'
p2769
aS'ENSG00000109047'
p2770
aS'ENSG00000169570'
p2771
aS'ENSG00000005156'
p2772
aS'ENSG00000177600'
p2773
aS'ENSG00000125388'
p2774
aS'ENSG00000142102'
p2775
aS'ENSG00000240891'
p2776
aS'ENSG00000154814'
p2777
aS'ENSG00000103351'
p2778
aS'ENSG00000176390'
p2779
aS'ENSG00000172922'
p2780
aS'ENSG00000167193'
p2781
aS'ENSG00000198077'
p2782
aS'ENSG00000135424'
p2783
aS'ENSG00000164253'
p2784
aS'ENSG00000183831'
p2785
aS'ENSG00000169371'
p2786
aS'ENSG00000101412'
p2787
aS'ENSG00000143028'
p2788
aS'ENSG00000064607'
p2789
aS'ENSG00000102974'
p2790
aS'ENSG00000068654'
p2791
atRp2792
ssS'lightgoldenrod2'
p2793
(dp2794
g4
g5
((lp2795
S'ENSG00000223496'
p2796
aS'ENSG00000241106'
p2797
aS'ENSG00000103037'
p2798
aS'ENSG00000184857'
p2799
aS'ENSG00000083099'
p2800
atRp2801
ssS'whitesmoke'
p2802
(dp2803
g45
(lp2804
(lp2805
S'ENSG00000250366'
p2806
aFinf
ag49
(g51
S'l\xc5\xb2z\x97<x?'
tRp2807
ag49
(g51
S'\x80\xfd\xd4\x00\xbd\x05\x98?'
tRp2808
aa(lp2809
S'ENSG00000196090'
p2810
ag49
(g51
S'\x00\x00\x00\x00\x00po@'
tRp2811
ag49
(g51
S'\xd1u\xb6eT0\x88?'
tRp2812
ag49
(g51
S' JQ>\x9c\xed\xa1?'
tRp2813
aa(lp2814
S'ENSG00000196581'
p2815
ag49
(g51
S'\x00\x00\x00\x00\x00`_@'
tRp2816
ag49
(g51
S'\x1e\x941\x18\x10\x1b\x92?'
tRp2817
ag49
(g51
S'P\xf17\xf4\x15\xf2\xa1?'
tRp2818
aa(lp2819
S'ENSG00000177614'
p2820
ag49
(g51
S'\x00\x00\x00\x00\x00`_@'
tRp2821
ag49
(g51
S'\x1e\x941\x18\x10\x1b\x92?'
tRp2822
ag49
(g51
S'P\xf17\xf4\x15\xf2\xa1?'
tRp2823
aasg4
g5
((lp2824
S'ENSG00000042493'
p2825
aS'ENSG00000179603'
p2826
aS'ENSG00000142089'
p2827
aS'ENSG00000189269'
p2828
aS'ENSG00000144115'
p2829
aS'ENSG00000179546'
p2830
aS'ENSG00000134202'
p2831
aS'ENSG00000099769'
p2832
aS'ENSG00000134184'
p2833
atRp2834
ssS'paleturquoise4'
p2835
(dp2836
g4
g5
((lp2837
S'ENSG00000198792'
p2838
aS'ENSG00000090432'
p2839
aS'ENSG00000109667'
p2840
aS'ENSG00000010810'
p2841
aS'ENSG00000172728'
p2842
aS'ENSG00000188991'
p2843
aS'ENSG00000147813'
p2844
aS'ENSG00000163737'
p2845
aS'ENSG00000014164'
p2846
atRp2847
ssS'firebrick3'
p2848
(dp2849
g45
(lp2850
(lp2851
g1468
ag49
(g51
S'\x00\x00\x00\x00\x00@O@'
tRp2852
ag49
(g51
S'\xe4\x16\xee\x04\x8d\x0e\x9e?'
tRp2853
ag49
(g51
S'\xe0\x16\xee\x04\x8d\x0e\x9e?'
tRp2854
aasg4
g5
((lp2855
S'ENSG00000133243'
p2856
aS'ENSG00000022355'
p2857
aS'ENSG00000139746'
p2858
aS'ENSG00000006432'
p2859
aS'ENSG00000100221'
p2860
aS'ENSG00000186153'
p2861
aS'ENSG00000164440'
p2862
aS'ENSG00000108518'
p2863
aS'ENSG00000164099'
p2864
aS'ENSG00000072135'
p2865
atRp2866
ssS'firebrick2'
p2867
(dp2868
g45
(lp2869
(lp2870
S'ENSG00000087303'
p2871
aFinf
ag49
(g51
S'N,w\xfcd(\x80?'
tRp2872
ag49
(g51
S'@\xd2\x82\xcc\x13\x18\x90?'
tRp2873
aa(lp2874
S'ENSG00000039560'
p2875
aFinf
ag49
(g51
S'`\xc5\xb2z\x97<\x88?'
tRp2876
ag49
(g51
S'@\xd2\x82\xcc\x13\x18\x90?'
tRp2877
aasg4
g5
((lp2878
S'ENSG00000197885'
p2879
aS'ENSG00000185829'
p2880
aS'ENSG00000148459'
p2881
aS'ENSG00000238083'
p2882
aS'ENSG00000197594'
p2883
aS'ENSG00000152061'
p2884
aS'ENSG00000159314'
p2885
aS'ENSG00000198752'
p2886
aS'ENSG00000176681'
p2887
atRp2888
ssS'firebrick1'
p2889
(dp2890
g45
(lp2891
(lp2892
S'ENSG00000104267'
p2893
aFinf
ag49
(g51
S';.w\xfcd(p?'
tRp2894
ag49
(g51
S'\x00\x01}d< \x80?'
tRp2895
aa(lp2896
g1288
ag49
(g51
S'\x00\x00\x00\x00\x00po@'
tRp2897
ag49
(g51
S'\x91l\xb6eT0\x88?'
tRp2898
ag49
(g51
S'\x80l\xb6eT0\x88?'
tRp2899
aasg4
g5
((lp2900
S'ENSG00000188039'
p2901
aS'ENSG00000141504'
p2902
aS'ENSG00000134716'
p2903
aS'ENSG00000072041'
p2904
aS'ENSG00000103249'
p2905
atRp2906
ssS'darksalmon'
p2907
(dp2908
g45
(lp2909
(lp2910
S'ENSG00000146453'
p2911
aFinf
ag49
(g51
S';.w\xfcd(p?'
tRp2912
ag49
(g51
S'\x00\x01}d< \x80?'
tRp2913
aa(lp2914
g1468
ag49
(g51
S'\x00\x00\x00\x00\x00P_@'
tRp2915
ag49
(g51
S'\x81y\xf0m\x0e\x1e\x94?'
tRp2916
ag49
(g51
S'\x80y\xf0m\x0e\x1e\x94?'
tRp2917
aasg4
g5
((lp2918
S'ENSG00000014914'
p2919
aS'ENSG00000243646'
p2920
aS'ENSG00000113205'
p2921
aS'ENSG00000187045'
p2922
aS'ENSG00000081248'
p2923
aS'ENSG00000135899'
p2924
aS'ENSG00000213625'
p2925
aS'ENSG00000101310'
p2926
atRp2927
ssS'steelblue4'
p2928
(dp2929
g4
g5
((lp2930
S'ENSG00000158156'
p2931
aS'ENSG00000155957'
p2932
aS'ENSG00000107882'
p2933
aS'ENSG00000168158'
p2934
aS'ENSG00000100564'
p2935
aS'ENSG00000196581'
p2936
aS'ENSG00000139132'
p2937
atRp2938
ssS'sienna3'
p2939
(dp2940
g4
g5
((lp2941
S'ENSG00000175449'
p2942
aS'ENSG00000214941'
p2943
aS'ENSG00000055609'
p2944
aS'ENSG00000197150'
p2945
aS'ENSG00000182670'
p2946
aS'ENSG00000006607'
p2947
aS'ENSG00000131732'
p2948
aS'ENSG00000099385'
p2949
aS'ENSG00000205106'
p2950
aS'ENSG00000203667'
p2951
aS'ENSG00000145757'
p2952
aS'ENSG00000178722'
p2953
aS'ENSG00000127364'
p2954
aS'ENSG00000182986'
p2955
aS'ENSG00000205572'
p2956
atRp2957
ssS'firebrick4'
p2958
(dp2959
g45
(lp2960
(lp2961
S'ENSG00000147041'
p2962
aFinf
ag49
(g51
S'l\xc5\xb2z\x97<x?'
tRp2963
ag49
(g51
S'@\xe0\xbf$<*\x88?'
tRp2964
aa(lp2965
S'ENSG00000100604'
p2966
ag49
(g51
S'\x00\x00\x00\x00\x00po@'
tRp2967
ag49
(g51
S'\xd1u\xb6eT0\x88?'
tRp2968
ag49
(g51
S'\xc0u\xb6eT0\x88?'
tRp2969
aasg4
g5
((lp2970
S'ENSG00000037474'
p2971
aS'ENSG00000160948'
p2972
aS'ENSG00000145833'
p2973
aS'ENSG00000118271'
p2974
aS'ENSG00000189143'
p2975
aS'ENSG00000128254'
p2976
aS'ENSG00000165171'
p2977
aS'ENSG00000156206'
p2978
aS'ENSG00000147854'
p2979
aS'ENSG00000101162'
p2980
aS'ENSG00000114473'
p2981
atRp2982
ssS'dodgerblue1'
p2983
(dp2984
g45
(lp2985
(lp2986
S'ENSG00000170500'
p2987
aFinf
ag49
(g51
S'2.w\xfcd(`?'
tRp2988
ag49
(g51
S'\x80\xbe\x07\xa6\\0x?'
tRp2989
aa(lp2990
S'ENSG00000158528'
p2991
aFinf
ag49
(g51
S'B1w\xfcd(p?'
tRp2992
ag49
(g51
S'\x80\x04}d< \x80?'
tRp2993
aa(lp2994
S'ENSG00000198626'
p2995
aFinf
ag49
(g51
S'B1w\xfcd(p?'
tRp2996
ag49
(g51
S'\x80\x04}d< \x80?'
tRp2997
aasg4
g5
((lp2998
S'ENSG00000167037'
p2999
aS'ENSG00000180773'
p3000
aS'ENSG00000101745'
p3001
aS'ENSG00000152332'
p3002
aS'ENSG00000119414'
p3003
aS'ENSG00000165502'
p3004
atRp3005
ssS'dodgerblue2'
p3006
(dp3007
g45
(lp3008
(lp3009
S'ENSG00000227906'
p3010
aFinf
ag49
(g51
S'B1w\xfcd(p?'
tRp3011
ag49
(g51
S'\x80\x04}d< \x80?'
tRp3012
aa(lp3013
S'ENSG00000128250'
p3014
aFinf
ag49
(g51
S'B1w\xfcd(p?'
tRp3015
ag49
(g51
S'\x80\x04}d< \x80?'
tRp3016
aasg4
g5
((lp3017
S'ENSG00000108950'
p3018
aS'ENSG00000170310'
p3019
aS'ENSG00000148814'
p3020
aS'ENSG00000040531'
p3021
aS'ENSG00000175664'
p3022
aS'ENSG00000181026'
p3023
atRp3024
ssS'dodgerblue3'
p3025
(dp3026
g4
g5
((lp3027
S'ENSG00000254852'
p3028
aS'ENSG00000163291'
p3029
aS'ENSG00000143437'
p3030
aS'ENSG00000197579'
p3031
aS'ENSG00000106086'
p3032
aS'ENSG00000162736'
p3033
aS'ENSG00000105290'
p3034
atRp3035
ssS'dodgerblue4'
p3036
(dp3037
g45
(lp3038
(lp3039
S'ENSG00000224924'
p3040
aFinf
ag49
(g51
S'2.w\xfcd(`?'
tRp3041
ag49
(g51
S'\x00.w\xfcd(`?'
tRp3042
aasg4
g5
((lp3043
S'ENSG00000186230'
p3044
aS'ENSG00000198130'
p3045
aS'ENSG00000139193'
p3046
aS'ENSG00000137124'
p3047
aS'ENSG00000118292'
p3048
aS'ENSG00000101198'
p3049
aS'ENSG00000143924'
p3050
aS'ENSG00000125633'
p3051
atRp3052
ssS'lightskyblue1'
p3053
(dp3054
g45
(lp3055
(lp3056
S'ENSG00000178175'
p3057
aFinf
ag49
(g51
S'C.w\xfcd(\x80?'
tRp3058
ag49
(g51
S'\x00\xb4}m\x8c\xe1\xa3?'
tRp3059
aasg4
g5
((lp3060
S'ENSG00000129467'
p3061
aS'ENSG00000160447'
p3062
aS'ENSG00000127463'
p3063
aS'ENSG00000198756'
p3064
aS'ENSG00000153162'
p3065
aS'ENSG00000124074'
p3066
aS'ENSG00000150938'
p3067
atRp3068
ssS'tomato4'
p3069
(dp3070
g45
(lp3071
(lp3072
S'ENSG00000073969'
p3073
aFinf
ag49
(g51
S';.w\xfcd(p?'
tRp3074
ag49
(g51
S'\x00.w\xfcd(p?'
tRp3075
aasg4
g5
((lp3076
S'ENSG00000051596'
p3077
aS'ENSG00000197747'
p3078
aS'ENSG00000160014'
p3079
aS'ENSG00000196072'
p3080
aS'ENSG00000126790'
p3081
aS'ENSG00000108592'
p3082
aS'ENSG00000170876'
p3083
aS'ENSG00000072840'
p3084
atRp3085
ssS'yellow4'
p3086
(dp3087
g45
(lp3088
(lp3089
S'ENSG00000135740'
p3090
aFinf
ag49
(g51
S'l\xc5\xb2z\x97<x?'
tRp3091
ag49
(g51
S'@M\xb2\x8e\x9a\xbd\xa7?'
tRp3092
aa(lp3093
S'ENSG00000112541'
p3094
aFinf
ag49
(g51
S'l\xc5\xb2z\x97<x?'
tRp3095
ag49
(g51
S'@M\xb2\x8e\x9a\xbd\xa7?'
tRp3096
aasg4
g5
((lp3097
S'ENSG00000253958'
p3098
aS'ENSG00000185627'
p3099
aS'ENSG00000136444'
p3100
aS'ENSG00000178796'
p3101
aS'ENSG00000142082'
p3102
aS'ENSG00000075643'
p3103
aS'ENSG00000164142'
p3104
aS'ENSG00000145824'
p3105
aS'ENSG00000100319'
p3106
aS'ENSG00000088766'
p3107
aS'ENSG00000142494'
p3108
aS'ENSG00000134072'
p3109
atRp3110
ssS'greenyellow'
p3111
(dp3112
g45
(lp3113
(lp3114
S'ENSG00000157554'
p3115
aFinf
ag49
(g51
S'A\xcf\x12Y\xc7\xfd6?'
tRp3116
ag49
(g51
S'\x80A\x8b6c\x80u?'
tRp3117
aasg4
g5
((lp3118
S'ENSG00000128849'
p3119
aS'ENSG00000112378'
p3120
aS'ENSG00000206503'
p3121
aS'ENSG00000166265'
p3122
aS'ENSG00000082438'
p3123
aS'ENSG00000172819'
p3124
aS'ENSG00000091409'
p3125
aS'ENSG00000101331'
p3126
aS'ENSG00000099957'
p3127
aS'ENSG00000170430'
p3128
aS'ENSG00000249751'
p3129
aS'ENSG00000135917'
p3130
aS'ENSG00000197943'
p3131
aS'ENSG00000133313'
p3132
aS'ENSG00000128284'
p3133
aS'ENSG00000166750'
p3134
aS'ENSG00000145920'
p3135
aS'ENSG00000135272'
p3136
aS'ENSG00000143106'
p3137
aS'ENSG00000100191'
p3138
aS'ENSG00000198774'
p3139
aS'ENSG00000204520'
p3140
atRp3141
ssS'tomato2'
p3142
(dp3143
g45
(lp3144
(lp3145
g2280
aFinf
ag49
(g51
S'B1w\xfcd(p?'
tRp3146
ag49
(g51
S'\x80\x04}d< \x80?'
tRp3147
aa(lp3148
g2284
aFinf
ag49
(g51
S'\xb0\xc0\xb2z\x97<x?'
tRp3149
ag49
(g51
S'\x80\x04}d< \x80?'
tRp3150
aasg4
g5
((lp3151
S'ENSG00000106733'
p3152
aS'ENSG00000006125'
p3153
aS'ENSG00000155254'
p3154
aS'ENSG00000111344'
p3155
aS'ENSG00000214046'
p3156
aS'ENSG00000080166'
p3157
aS'ENSG00000166796'
p3158
aS'ENSG00000167261'
p3159
aS'ENSG00000156687'
p3160
atRp3161
ssS'navajowhite4'
p3162
(dp3163
g4
g5
((lp3164
S'ENSG00000189157'
p3165
aS'ENSG00000188316'
p3166
aS'ENSG00000010270'
p3167
aS'ENSG00000064115'
p3168
aS'ENSG00000184939'
p3169
aS'ENSG00000155749'
p3170
aS'ENSG00000132837'
p3171
aS'ENSG00000011523'
p3172
atRp3173
ssS'magenta3'
p3174
(dp3175
g45
(lp3176
(lp3177
S'ENSG00000176788'
p3178
aFinf
ag49
(g51
S'l\xc5\xb2z\x97<x?'
tRp3179
ag49
(g51
S'@M\xb2\x8e\x9a\xbd\xa7?'
tRp3180
aa(lp3181
S'ENSG00000122194'
p3182
aFinf
ag49
(g51
S'l\xc5\xb2z\x97<x?'
tRp3183
ag49
(g51
S'@M\xb2\x8e\x9a\xbd\xa7?'
tRp3184
aasg4
g5
((lp3185
S'ENSG00000175548'
p3186
aS'ENSG00000115414'
p3187
aS'ENSG00000198856'
p3188
aS'ENSG00000120805'
p3189
aS'ENSG00000243566'
p3190
aS'ENSG00000081923'
p3191
aS'ENSG00000141127'
p3192
aS'ENSG00000163631'
p3193
aS'ENSG00000153574'
p3194
aS'ENSG00000067221'
p3195
atRp3196
ssS'lightseagreen'
p3197
(dp3198
g4
g5
((lp3199
S'ENSG00000140543'
p3200
aS'ENSG00000196104'
p3201
aS'ENSG00000189366'
p3202
aS'ENSG00000114547'
p3203
aS'ENSG00000087237'
p3204
atRp3205
ssS'navajowhite1'
p3206
(dp3207
g4
g5
((lp3208
S'ENSG00000119397'
p3209
aS'ENSG00000116874'
p3210
aS'ENSG00000162669'
p3211
aS'ENSG00000125878'
p3212
aS'ENSG00000183172'
p3213
aS'ENSG00000138750'
p3214
aS'ENSG00000134744'
p3215
aS'ENSG00000163879'
p3216
aS'ENSG00000142794'
p3217
aS'ENSG00000143515'
p3218
aS'ENSG00000109920'
p3219
atRp3220
ssS'navajowhite2'
p3221
(dp3222
g4
g5
((lp3223
S'ENSG00000184983'
p3224
aS'ENSG00000151276'
p3225
aS'ENSG00000112218'
p3226
aS'ENSG00000112763'
p3227
aS'ENSG00000070371'
p3228
aS'ENSG00000171649'
p3229
aS'ENSG00000088543'
p3230
aS'ENSG00000213965'
p3231
aS'ENSG00000116857'
p3232
aS'ENSG00000178952'
p3233
aS'ENSG00000167323'
p3234
aS'ENSG00000165113'
p3235
aS'ENSG00000048462'
p3236
atRp3237
ssS'magenta2'
p3238
(dp3239
g4
g5
((lp3240
S'ENSG00000180104'
p3241
aS'ENSG00000244752'
p3242
aS'ENSG00000104731'
p3243
aS'ENSG00000204599'
p3244
aS'ENSG00000171435'
p3245
aS'ENSG00000172410'
p3246
aS'ENSG00000110660'
p3247
aS'ENSG00000165480'
p3248
aS'ENSG00000100461'
p3249
atRp3250
ssS'sienna'
p3251
(dp3252
g4
g5
((lp3253
S'ENSG00000168032'
p3254
aS'ENSG00000122557'
p3255
aS'ENSG00000115339'
p3256
aS'ENSG00000185304'
p3257
aS'ENSG00000113263'
p3258
aS'ENSG00000204962'
p3259
aS'ENSG00000171045'
p3260
aS'ENSG00000135476'
p3261
atRp3262
ssS'pink1'
p3263
(dp3264
g45
(lp3265
(lp3266
S'ENSG00000115665'
p3267
aFinf
ag49
(g51
S'l\xc5\xb2z\x97<x?'
tRp3268
ag49
(g51
S'@M\xb2\x8e\x9a\xbd\xa7?'
tRp3269
aa(lp3270
S'ENSG00000225968'
p3271
aFinf
ag49
(g51
S'l\xc5\xb2z\x97<x?'
tRp3272
ag49
(g51
S'@M\xb2\x8e\x9a\xbd\xa7?'
tRp3273
aa(lp3274
S'ENSG00000187714'
p3275
aFinf
ag49
(g51
S'l\xc5\xb2z\x97<x?'
tRp3276
ag49
(g51
S'@M\xb2\x8e\x9a\xbd\xa7?'
tRp3277
aasg4
g5
((lp3278
S'ENSG00000101337'
p3279
aS'ENSG00000108219'
p3280
aS'ENSG00000152784'
p3281
aS'ENSG00000206527'
p3282
aS'ENSG00000122025'
p3283
aS'ENSG00000134201'
p3284
aS'ENSG00000145495'
p3285
aS'ENSG00000050165'
p3286
atRp3287
ssS'mediumpurple'
p3288
(dp3289
g45
(lp3290
(lp3291
S'ENSG00000125285'
p3292
aFinf
ag49
(g51
S'2.w\xfcd(`?'
tRp3293
ag49
(g51
S'\x00.w\xfcd(`?'
tRp3294
aasg4
g5
((lp3295
S'ENSG00000239306'
p3296
aS'ENSG00000103111'
p3297
aS'ENSG00000196381'
p3298
aS'ENSG00000244405'
p3299
aS'ENSG00000090520'
p3300
aS'ENSG00000196263'
p3301
aS'ENSG00000173846'
p3302
aS'ENSG00000147509'
p3303
aS'ENSG00000061987'
p3304
aS'ENSG00000105221'
p3305
atRp3306
ssS'mediumpurple1'
p3307
(dp3308
g4
g5
((lp3309
S'ENSG00000101255'
p3310
aS'ENSG00000145979'
p3311
aS'ENSG00000078142'
p3312
aS'ENSG00000164048'
p3313
aS'ENSG00000157823'
p3314
aS'ENSG00000196071'
p3315
aS'ENSG00000138796'
p3316
aS'ENSG00000203663'
p3317
aS'ENSG00000163382'
p3318
aS'ENSG00000135835'
p3319
atRp3320
ssS'wheat3'
p3321
(dp3322
g45
(lp3323
(lp3324
S'ENSG00000135709'
p3325
aFinf
ag49
(g51
S'C.w\xfcd(\x80?'
tRp3326
ag49
(g51
S'`\x9c\x0b1~\xc3\xa7?'
tRp3327
aasg4
g5
((lp3328
S'ENSG00000173250'
p3329
aS'ENSG00000123610'
p3330
aS'ENSG00000080224'
p3331
aS'ENSG00000100714'
p3332
aS'ENSG00000106714'
p3333
aS'ENSG00000138623'
p3334
aS'ENSG00000101188'
p3335
aS'ENSG00000057294'
p3336
atRp3337
ssS'lightcoral'
p3338
(dp3339
g45
(lp3340
(lp3341
S'ENSG00000163297'
p3342
aFinf
ag49
(g51
S'B1w\xfcd(p?'
tRp3343
ag49
(g51
S'\x80\x04}d< \x80?'
tRp3344
aa(lp3345
S'ENSG00000006432'
p3346
aFinf
ag49
(g51
S'B1w\xfcd(p?'
tRp3347
ag49
(g51
S'\x80\x04}d< \x80?'
tRp3348
aasg4
g5
((lp3349
S'ENSG00000145990'
p3350
aS'ENSG00000132932'
p3351
aS'ENSG00000135437'
p3352
aS'ENSG00000153898'
p3353
aS'ENSG00000135631'
p3354
aS'ENSG00000198624'
p3355
aS'ENSG00000196196'
p3356
aS'ENSG00000226124'
p3357
aS'ENSG00000157322'
p3358
aS'ENSG00000182196'
p3359
aS'ENSG00000034239'
p3360
aS'ENSG00000123444'
p3361
atRp3362
ssS'orangered'
p3363
(dp3364
g45
(lp3365
(lp3366
S'ENSG00000100473'
p3367
aFinf
ag49
(g51
S'B1w\xfcd(p?'
tRp3368
ag49
(g51
S'\x80\x04}d< \x80?'
tRp3369
aa(lp3370
S'ENSG00000258525'
p3371
aFinf
ag49
(g51
S'B1w\xfcd(p?'
tRp3372
ag49
(g51
S'\x80\x04}d< \x80?'
tRp3373
aasg4
g5
((lp3374
S'ENSG00000168803'
p3375
aS'ENSG00000189045'
p3376
aS'ENSG00000137713'
p3377
aS'ENSG00000163497'
p3378
aS'ENSG00000196418'
p3379
aS'ENSG00000013810'
p3380
aS'ENSG00000163320'
p3381
aS'ENSG00000136895'
p3382
aS'ENSG00000185187'
p3383
aS'ENSG00000151292'
p3384
atRp3385
ssS'navajowhite'
p3386
(dp3387
g4
g5
((lp3388
S'ENSG00000065883'
p3389
aS'ENSG00000142156'
p3390
aS'ENSG00000065060'
p3391
aS'ENSG00000069275'
p3392
aS'ENSG00000055950'
p3393
aS'ENSG00000058729'
p3394
aS'ENSG00000175536'
p3395
aS'ENSG00000183891'
p3396
aS'ENSG00000121335'
p3397
aS'ENSG00000159228'
p3398
atRp3399
ssS'pink3'
p3400
(dp3401
g45
(lp3402
(lp3403
S'ENSG00000112309'
p3404
aFinf
ag49
(g51
S'l\xc5\xb2z\x97<x?'
tRp3405
ag49
(g51
S'`c\xbc\x84%\xe9\xa1?'
tRp3406
aa(lp3407
S'ENSG00000165443'
p3408
aFinf
ag49
(g51
S'l\xc5\xb2z\x97<x?'
tRp3409
ag49
(g51
S'`c\xbc\x84%\xe9\xa1?'
tRp3410
aa(lp3411
g781
ag49
(g51
S'\x00\x00\x00\x00\x00\xe0T@'
tRp3412
ag49
(g51
S'L\xddU\xaa\xda\x17\x98?'
tRp3413
ag49
(g51
S'\x80\xa474|\xc3\xa7?'
tRp3414
aa(lp3415
g2633
ag49
(g51
S'\x00\x00\x00\x00\x00po@'
tRp3416
ag49
(g51
S'\xd1u\xb6eT0\x88?'
tRp3417
ag49
(g51
S'\x80\xa474|\xc3\xa7?'
tRp3418
aa(lp3419
S'ENSG00000197959'
p3420
ag49
(g51
S'\x00\x00\x00\x00\x00`_@'
tRp3421
ag49
(g51
S'\x1e\x941\x18\x10\x1b\x92?'
tRp3422
ag49
(g51
S'\x80\xa474|\xc3\xa7?'
tRp3423
aa(lp3424
S'ENSG00000112981'
p3425
ag49
(g51
S'\x00\x00\x00\x00\x00po@'
tRp3426
ag49
(g51
S'\xd1u\xb6eT0\x88?'
tRp3427
ag49
(g51
S'\x80\xa474|\xc3\xa7?'
tRp3428
aasg4
g5
((lp3429
S'ENSG00000130717'
p3430
aS'ENSG00000102466'
p3431
aS'ENSG00000117640'
p3432
aS'ENSG00000104059'
p3433
aS'ENSG00000140623'
p3434
aS'ENSG00000197375'
p3435
aS'ENSG00000162366'
p3436
aS'ENSG00000112357'
p3437
aS'ENSG00000147408'
p3438
aS'ENSG00000159650'
p3439
atRp3440
ssS'steelblue1'
p3441
(dp3442
g4
g5
((lp3443
S'ENSG00000152954'
p3444
aS'ENSG00000243678'
p3445
aS'ENSG00000213246'
p3446
aS'ENSG00000108384'
p3447
aS'ENSG00000204147'
p3448
atRp3449
ssS'mediumpurple3'
p3450
(dp3451
g45
(lp3452
(lp3453
S'ENSG00000164078'
p3454
aFinf
ag49
(g51
S';.w\xfcd(p?'
tRp3455
ag49
(g51
S'\x802\xf5\xef%$\x88?'
tRp3456
aa(lp3457
g1665
ag49
(g51
S'\x00\x00\x00\x00\x00\x80\x7f@'
tRp3458
ag49
(g51
S'\xa2\x14#\xa0N$\x80?'
tRp3459
ag49
(g51
S'\xa0{\x7f\xb0\x05\x14\x90?'
tRp3460
aa(lp3461
g1022
ag49
(g51
S'\x00\x00\x00\x00\x00\x10O@'
tRp3462
ag49
(g51
S'\xeb#\x11]\xa8\x08\xa2?'
tRp3463
ag49
(g51
S'\xf0#\x11]\xa8\x08\xa2?'
tRp3464
aasg4
g5
((lp3465
S'ENSG00000250506'
p3466
aS'ENSG00000103199'
p3467
aS'ENSG00000257949'
p3468
aS'ENSG00000148606'
p3469
aS'ENSG00000115282'
p3470
aS'ENSG00000165929'
p3471
aS'ENSG00000183513'
p3472
aS'ENSG00000213341'
p3473
aS'ENSG00000096093'
p3474
aS'ENSG00000184809'
p3475
aS'ENSG00000138777'
p3476
aS'ENSG00000204618'
p3477
aS'ENSG00000170871'
p3478
aS'ENSG00000184385'
p3479
atRp3480
ssS'burlywood'
p3481
(dp3482
g45
(lp3483
(lp3484
S'ENSG00000148408'
p3485
aFinf
ag49
(g51
S';.w\xfcd(p?'
tRp3486
ag49
(g51
S'\x00\x91\xc1\xaa\xfb\x0f\x90?'
tRp3487
aa(lp3488
S'ENSG00000146216'
p3489
aFinf
ag49
(g51
S';.w\xfcd(p?'
tRp3490
ag49
(g51
S'\x00\x91\xc1\xaa\xfb\x0f\x90?'
tRp3491
aa(lp3492
S'ENSG00000152969'
p3493
aFinf
ag49
(g51
S';.w\xfcd(p?'
tRp3494
ag49
(g51
S'\x00\x91\xc1\xaa\xfb\x0f\x90?'
tRp3495
aa(lp3496
g574
ag49
(g51
S'\x00\x00\x00\x00\x00\x00Y@'
tRp3497
ag49
(g51
S'\x07\xfa;\xc6\xef\x1d\x98?'
tRp3498
ag49
(g51
S'\x00\xfa;\xc6\xef\x1d\x98?'
tRp3499
aasg4
g5
((lp3500
S'ENSG00000145198'
p3501
aS'ENSG00000131711'
p3502
aS'ENSG00000145777'
p3503
aS'ENSG00000198648'
p3504
aS'ENSG00000105849'
p3505
aS'ENSG00000103148'
p3506
aS'ENSG00000128245'
p3507
aS'ENSG00000105220'
p3508
atRp3509
ssS'royalblue'
p3510
(dp3511
g45
(lp3512
(lp3513
g642
ag49
(g51
S'\xa4p=\n\xd7\xa3M@'
tRp3514
ag49
(g51
S'\xdb\t\xef\x9fWV"?'
tRp3515
ag49
(g51
S'\x00\xa3\xacf?-i?'
tRp3516
aa(lp3517
S'ENSG00000185022'
p3518
ag49
(g51
S'UUUUU\xb5T@'
tRp3519
ag49
(g51
S'\xcfW`r\xb1\x1eU?'
tRp3520
ag49
(g51
S'\xc0\xb9rZ\x8d]\x9b?'
tRp3521
aasg4
g5
((lp3522
S'ENSG00000081041'
p3523
aS'ENSG00000119973'
p3524
aS'ENSG00000112715'
p3525
aS'ENSG00000188820'
p3526
aS'ENSG00000172086'
p3527
aS'ENSG00000038210'
p3528
aS'ENSG00000187815'
p3529
aS'ENSG00000179598'
p3530
aS'ENSG00000171574'
p3531
aS'ENSG00000132854'
p3532
aS'ENSG00000168209'
p3533
aS'ENSG00000134363'
p3534
aS'ENSG00000124116'
p3535
aS'ENSG00000236624'
p3536
aS'ENSG00000206127'
p3537
aS'ENSG00000174899'
p3538
aS'ENSG00000115548'
p3539
aS'ENSG00000104765'
p3540
atRp3541
ssS'blanchedalmond'
p3542
(dp3543
g4
g5
((lp3544
S'ENSG00000157916'
p3545
aS'ENSG00000143156'
p3546
aS'ENSG00000016864'
p3547
aS'ENSG00000204427'
p3548
aS'ENSG00000086289'
p3549
aS'ENSG00000115446'
p3550
aS'ENSG00000156875'
p3551
aS'ENSG00000168350'
p3552
atRp3553
ssS'mistyrose1'
p3554
(dp3555
g45
(lp3556
(lp3557
S'ENSG00000237166'
p3558
aFinf
ag49
(g51
S'l\xc5\xb2z\x97<x?'
tRp3559
ag49
(g51
S'\xe0X\\\x82\xf6\x11\x92?'
tRp3560
aa(lp3561
S'ENSG00000141540'
p3562
aFinf
ag49
(g51
S'l\xc5\xb2z\x97<x?'
tRp3563
ag49
(g51
S'\xe0X\\\x82\xf6\x11\x92?'
tRp3564
aa(lp3565
g1562
ag49
(g51
S'\x00\x00\x00\x00\x00\xe0T@'
tRp3566
ag49
(g51
S'L\xddU\xaa\xda\x17\x98?'
tRp3567
ag49
(g51
S'@\xddU\xaa\xda\x17\x98?'
tRp3568
aasg4
g5
((lp3569
S'ENSG00000244607'
p3570
aS'ENSG00000122477'
p3571
aS'ENSG00000196159'
p3572
aS'ENSG00000164111'
p3573
aS'ENSG00000079215'
p3574
aS'ENSG00000110104'
p3575
atRp3576
ssS'peru'
p3577
(dp3578
g4
g5
((lp3579
S'ENSG00000142546'
p3580
aS'ENSG00000117475'
p3581
aS'ENSG00000068137'
p3582
aS'ENSG00000162148'
p3583
aS'ENSG00000188385'
p3584
aS'ENSG00000185414'
p3585
aS'ENSG00000135951'
p3586
atRp3587
ssS'aquamarine'
p3588
(dp3589
g4
g5
((lp3590
S'ENSG00000168038'
p3591
aS'ENSG00000130997'
p3592
aS'ENSG00000172167'
p3593
aS'ENSG00000153561'
p3594
aS'ENSG00000149646'
p3595
aS'ENSG00000165392'
p3596
aS'ENSG00000101052'
p3597
atRp3598
ssS'white'
p3599
(dp3600
g4
g5
((lp3601
S'ENSG00000241058'
p3602
aS'ENSG00000214253'
p3603
aS'ENSG00000083807'
p3604
aS'ENSG00000213741'
p3605
aS'ENSG00000105193'
p3606
aS'ENSG00000165948'
p3607
aS'ENSG00000163395'
p3608
aS'ENSG00000221983'
p3609
aS'ENSG00000197958'
p3610
aS'ENSG00000108107'
p3611
aS'ENSG00000054148'
p3612
aS'ENSG00000186468'
p3613
aS'ENSG00000234465'
p3614
aS'ENSG00000177868'
p3615
aS'ENSG00000135486'
p3616
atRp3617
ssS'tan4'
p3618
(dp3619
g45
(lp3620
(lp3621
S'ENSG00000133477'
p3622
aFinf
ag49
(g51
S'\xce\xf9\x94;~2\x84?'
tRp3623
ag49
(g51
S'\x00\xcd\xa7\x15\x82\xe6\xa3?'
tRp3624
aa(lp3625
S'ENSG00000142632'
p3626
aFinf
ag49
(g51
S'\xce\xf9\x94;~2\x84?'
tRp3627
ag49
(g51
S'\x00\xcd\xa7\x15\x82\xe6\xa3?'
tRp3628
aasg4
g5
((lp3629
S'ENSG00000198203'
p3630
aS'ENSG00000164251'
p3631
aS'ENSG00000165269'
p3632
aS'ENSG00000235109'
p3633
aS'ENSG00000160097'
p3634
aS'ENSG00000104870'
p3635
aS'ENSG00000166682'
p3636
aS'ENSG00000204420'
p3637
aS'ENSG00000204421'
p3638
aS'ENSG00000173452'
p3639
atRp3640
ssS'tan3'
p3641
(dp3642
g4
g5
((lp3643
S'ENSG00000108064'
p3644
aS'ENSG00000146678'
p3645
aS'ENSG00000169689'
p3646
aS'ENSG00000127540'
p3647
aS'ENSG00000186132'
p3648
aS'ENSG00000130695'
p3649
aS'ENSG00000180071'
p3650
aS'ENSG00000124562'
p3651
aS'ENSG00000213214'
p3652
atRp3653
ssS'tan2'
p3654
(dp3655
g45
(lp3656
(lp3657
S'ENSG00000184368'
p3658
aFinf
ag49
(g51
S'l\xc5\xb2z\x97<x?'
tRp3659
ag49
(g51
S'\x80\xfd\xd4\x00\xbd\x05\x98?'
tRp3660
aa(lp3661
S'ENSG00000167964'
p3662
aFinf
ag49
(g51
S'l\xc5\xb2z\x97<x?'
tRp3663
ag49
(g51
S'\x80\xfd\xd4\x00\xbd\x05\x98?'
tRp3664
aa(lp3665
S'ENSG00000172782'
p3666
ag49
(g51
S'\x00\x00\x00\x00\x00@O@'
tRp3667
ag49
(g51
S'\xe4\x16\xee\x04\x8d\x0e\x9e?'
tRp3668
ag49
(g51
S'P\xf17\xf4\x15\xf2\xa1?'
tRp3669
aa(lp3670
g2585
ag49
(g51
S'\x00\x00\x00\x00\x00`_@'
tRp3671
ag49
(g51
S'\x1e\x941\x18\x10\x1b\x92?'
tRp3672
ag49
(g51
S'P\xf17\xf4\x15\xf2\xa1?'
tRp3673
aasg4
g5
((lp3674
S'ENSG00000259803'
p3675
aS'ENSG00000173404'
p3676
aS'ENSG00000165966'
p3677
aS'ENSG00000179148'
p3678
aS'ENSG00000100612'
p3679
aS'ENSG00000132510'
p3680
aS'ENSG00000057593'
p3681
aS'ENSG00000171160'
p3682
aS'ENSG00000055211'
p3683
atRp3684
ssS'tan1'
p3685
(dp3686
g4
g5
((lp3687
S'ENSG00000108306'
p3688
aS'ENSG00000166788'
p3689
aS'ENSG00000196655'
p3690
aS'ENSG00000121406'
p3691
aS'ENSG00000154768'
p3692
aS'ENSG00000204711'
p3693
aS'ENSG00000146833'
p3694
aS'ENSG00000173480'
p3695
atRp3696
ssS'royalblue3'
p3697
(dp3698
g4
g5
((lp3699
S'ENSG00000188596'
p3700
aS'ENSG00000213920'
p3701
aS'ENSG00000121900'
p3702
aS'ENSG00000115598'
p3703
aS'ENSG00000081853'
p3704
aS'ENSG00000150403'
p3705
aS'ENSG00000170889'
p3706
aS'ENSG00000226180'
p3707
aS'ENSG00000133657'
p3708
atRp3709
ssS'tomato'
p3710
(dp3711
g45
(lp3712
(lp3713
S'ENSG00000141294'
p3714
aFinf
ag49
(g51
S'2.w\xfcd(`?'
tRp3715
ag49
(g51
S'\xc0D\x936,\x1c\x80?'
tRp3716
aa(lp3717
S'ENSG00000118492'
p3718
aFinf
ag49
(g51
S'B1w\xfcd(p?'
tRp3719
ag49
(g51
S'\xc07\xf5\xef%$\x88?'
tRp3720
aa(lp3721
S'ENSG00000197826'
p3722
aFinf
ag49
(g51
S'B1w\xfcd(p?'
tRp3723
ag49
(g51
S'\xc07\xf5\xef%$\x88?'
tRp3724
aa(lp3725
S'ENSG00000171595'
p3726
aFinf
ag49
(g51
S'B1w\xfcd(p?'
tRp3727
ag49
(g51
S'\xc07\xf5\xef%$\x88?'
tRp3728
aasg4
g5
((lp3729
S'ENSG00000076003'
p3730
aS'ENSG00000105479'
p3731
aS'ENSG00000100024'
p3732
aS'ENSG00000112339'
p3733
aS'ENSG00000162889'
p3734
aS'ENSG00000093000'
p3735
aS'ENSG00000167799'
p3736
aS'ENSG00000112851'
p3737
aS'ENSG00000118514'
p3738
atRp3739
ssS'ivory'
p3740
(dp3741
g4
g5
((lp3742
S'ENSG00000162409'
p3743
aS'ENSG00000188610'
p3744
aS'ENSG00000214087'
p3745
aS'ENSG00000086619'
p3746
aS'ENSG00000243414'
p3747
aS'ENSG00000121413'
p3748
aS'ENSG00000156574'
p3749
aS'ENSG00000006282'
p3750
aS'ENSG00000011376'
p3751
aS'ENSG00000049283'
p3752
aS'ENSG00000112992'
p3753
aS'ENSG00000175322'
p3754
aS'ENSG00000205809'
p3755
aS'ENSG00000072134'
p3756
atRp3757
ssS'dodgerblue'
p3758
(dp3759
g4
g5
((lp3760
S'ENSG00000156253'
p3761
aS'ENSG00000132781'
p3762
aS'ENSG00000176142'
p3763
aS'ENSG00000160961'
p3764
aS'ENSG00000215018'
p3765
atRp3766
ssS'lightyellow'
p3767
(dp3768
g45
(lp3769
(lp3770
S'ENSG00000221963'
p3771
aFinf
ag49
(g51
S'\xd8\x98\x9c\xf8)\x86\x08?'
tRp3772
ag49
(g51
S'\x00\xe0Qe\x9ft5?'
tRp3773
aa(lp3774
S'ENSG00000100336'
p3775
aFinf
ag49
(g51
S'C.w\xfcd(\x80?'
tRp3776
ag49
(g51
S'`\x9c\x0b1~\xc3\xa7?'
tRp3777
aa(lp3778
S'ENSG00000103316'
p3779
aFinf
ag49
(g51
S'C.w\xfcd(\x80?'
tRp3780
ag49
(g51
S'`\x9c\x0b1~\xc3\xa7?'
tRp3781
aa(lp3782
S'ENSG00000104635'
p3783
aFinf
ag49
(g51
S'C.w\xfcd(\x80?'
tRp3784
ag49
(g51
S'`\x9c\x0b1~\xc3\xa7?'
tRp3785
aasg4
g5
((lp3786
S'ENSG00000178802'
p3787
aS'ENSG00000167772'
p3788
aS'ENSG00000120784'
p3789
aS'ENSG00000182240'
p3790
aS'ENSG00000185875'
p3791
aS'ENSG00000100336'
p3792
aS'ENSG00000023228'
p3793
aS'ENSG00000197775'
p3794
aS'ENSG00000160310'
p3795
aS'ENSG00000112599'
p3796
aS'ENSG00000143224'
p3797
aS'ENSG00000166189'
p3798
aS'ENSG00000141665'
p3799
aS'ENSG00000164049'
p3800
aS'ENSG00000114902'
p3801
aS'ENSG00000141013'
p3802
aS'ENSG00000067182'
p3803
aS'ENSG00000125630'
p3804
atRp3805
ssS'paleturquoise1'
p3806
(dp3807
g45
(lp3808
(lp3809
S'ENSG00000163536'
p3810
ag49
(g51
S'\x00\x00\x00\x00\x00P_@'
tRp3811
ag49
(g51
S'\x81y\xf0m\x0e\x1e\x94?'
tRp3812
ag49
(g51
S'\x90t\xde\xb4w\xeb\xa3?'
tRp3813
aa(lp3814
S'ENSG00000185742'
p3815
ag49
(g51
S'\x92$I\x92$\xc9Q@'
tRp3816
ag49
(g51
S'qv*v\xc8\x0b\xa0?'
tRp3817
ag49
(g51
S'\x90t\xde\xb4w\xeb\xa3?'
tRp3818
aasg4
g5
((lp3819
S'ENSG00000214376'
p3820
aS'ENSG00000185338'
p3821
aS'ENSG00000171714'
p3822
aS'ENSG00000138399'
p3823
aS'ENSG00000166794'
p3824
aS'ENSG00000133103'
p3825
aS'ENSG00000129083'
p3826
atRp3827
ssS'lightyellow3'
p3828
(dp3829
g45
(lp3830
(lp3831
S'ENSG00000186868'
p3832
aFinf
ag49
(g51
S';.w\xfcd(p?'
tRp3833
ag49
(g51
S'\x802\xf5\xef%$\x88?'
tRp3834
aa(lp3835
g333
ag49
(g51
S'\x00\x00\x00\x00\x00\x80\x7f@'
tRp3836
ag49
(g51
S'\xa2\x14#\xa0N$\x80?'
tRp3837
ag49
(g51
S'\xa0{\x7f\xb0\x05\x14\x90?'
tRp3838
aa(lp3839
g3666
ag49
(g51
S'\x00\x00\x00\x00\x00P_@'
tRp3840
ag49
(g51
S'\x81y\xf0m\x0e\x1e\x94?'
tRp3841
ag49
(g51
S'\x80y\xf0m\x0e\x1e\x94?'
tRp3842
aasg4
g5
((lp3843
S'ENSG00000171368'
p3844
aS'ENSG00000186106'
p3845
aS'ENSG00000142530'
p3846
aS'ENSG00000135070'
p3847
aS'ENSG00000136861'
p3848
atRp3849
ssS'chocolate'
p3850
(dp3851
g45
(lp3852
(lp3853
S'ENSG00000135525'
p3854
aFinf
ag49
(g51
S';.w\xfcd(p?'
tRp3855
ag49
(g51
S'\x00.w\xfcd(p?'
tRp3856
aasg4
g5
((lp3857
S'ENSG00000124613'
p3858
aS'ENSG00000134007'
p3859
aS'ENSG00000240344'
p3860
aS'ENSG00000137500'
p3861
aS'ENSG00000135778'
p3862
aS'ENSG00000133800'
p3863
aS'ENSG00000135773'
p3864
atRp3865
ssS'lightpink2'
p3866
(dp3867
g45
(lp3868
(lp3869
S'ENSG00000138080'
p3870
aFinf
ag49
(g51
S'2.w\xfcd(`?'
tRp3871
ag49
(g51
S'\x80\x17z\xb0P$p?'
tRp3872
aa(lp3873
g2103
aFinf
ag49
(g51
S'\xb0\xc0\xb2z\x97<x?'
tRp3874
ag49
(g51
S'\x80\xc0\xb2z\x97<x?'
tRp3875
aasg4
g5
((lp3876
S'ENSG00000105717'
p3877
aS'ENSG00000071967'
p3878
aS'ENSG00000153902'
p3879
aS'ENSG00000132749'
p3880
aS'ENSG00000145388'
p3881
aS'ENSG00000090487'
p3882
aS'ENSG00000203817'
p3883
aS'ENSG00000165406'
p3884
aS'ENSG00000074695'
p3885
aS'ENSG00000169087'
p3886
atRp3887
ssS'lightpink3'
p3888
(dp3889
g4
g5
((lp3890
S'ENSG00000196776'
p3891
aS'ENSG00000070061'
p3892
aS'ENSG00000188895'
p3893
aS'ENSG00000149231'
p3894
aS'ENSG00000037757'
p3895
aS'ENSG00000130590'
p3896
aS'ENSG00000179029'
p3897
aS'ENSG00000125885'
p3898
aS'ENSG00000001036'
p3899
aS'ENSG00000126226'
p3900
aS'ENSG00000146540'
p3901
atRp3902
ssS'lightpink1'
p3903
(dp3904
g4
g5
((lp3905
S'ENSG00000153066'
p3906
aS'ENSG00000163162'
p3907
aS'ENSG00000132170'
p3908
aS'ENSG00000185340'
p3909
aS'ENSG00000142197'
p3910
aS'ENSG00000151348'
p3911
aS'ENSG00000016402'
p3912
aS'ENSG00000251655'
p3913
aS'ENSG00000165388'
p3914
atRp3915
ssS'darkgrey'
p3916
(dp3917
g4
g5
((lp3918
S'ENSG00000180777'
p3919
aS'ENSG00000135916'
p3920
aS'ENSG00000185105'
p3921
aS'ENSG00000085741'
p3922
aS'ENSG00000120322'
p3923
aS'ENSG00000137266'
p3924
aS'ENSG00000106546'
p3925
aS'ENSG00000187773'
p3926
aS'ENSG00000164404'
p3927
aS'ENSG00000132471'
p3928
aS'ENSG00000114698'
p3929
aS'ENSG00000181541'
p3930
aS'ENSG00000206344'
p3931
aS'ENSG00000101200'
p3932
aS'ENSG00000112033'
p3933
aS'ENSG00000110680'
p3934
aS'ENSG00000010626'
p3935
atRp3936
ssS'lightpink4'
p3937
(dp3938
g45
(lp3939
(lp3940
S'ENSG00000157103'
p3941
ag49
(g51
S'\x00\x00\x00\x00\x00\x80\x7f@'
tRp3942
ag49
(g51
S'\xa2\x14#\xa0N$\x80?'
tRp3943
ag49
(g51
S'`^\x11\xfd\xbb\x05\x98?'
tRp3944
aa(lp3945
S'ENSG00000109738'
p3946
ag49
(g51
S'\x00\x00\x00\x00\x00po@'
tRp3947
ag49
(g51
S'\x91l\xb6eT0\x88?'
tRp3948
ag49
(g51
S'\xc0)\x89\xd6\xc2\x0b\x98?'
tRp3949
aa(lp3950
g946
ag49
(g51
S'\x00\x00\x00\x00\x00P_@'
tRp3951
ag49
(g51
S'\x81y\xf0m\x0e\x1e\x94?'
tRp3952
ag49
(g51
S'\xc0)\x89\xd6\xc2\x0b\x98?'
tRp3953
aasg4
g5
((lp3954
S'ENSG00000134851'
p3955
aS'ENSG00000146151'
p3956
aS'ENSG00000101695'
p3957
aS'ENSG00000133805'
p3958
aS'ENSG00000150627'
p3959
aS'ENSG00000151632'
p3960
aS'ENSG00000198046'
p3961
aS'ENSG00000181381'
p3962
aS'ENSG00000136827'
p3963
aS'ENSG00000166822'
p3964
aS'ENSG00000137941'
p3965
aS'ENSG00000131943'
p3966
aS'ENSG00000126561'
p3967
atRp3968
ssS'darkseagreen3'
p3969
(dp3970
g4
g5
((lp3971
S'ENSG00000075213'
p3972
aS'ENSG00000239713'
p3973
aS'ENSG00000169598'
p3974
aS'ENSG00000115310'
p3975
aS'ENSG00000026103'
p3976
aS'ENSG00000112541'
p3977
aS'ENSG00000136997'
p3978
aS'ENSG00000164951'
p3979
aS'ENSG00000112186'
p3980
aS'ENSG00000077616'
p3981
aS'ENSG00000138814'
p3982
atRp3983
ssS'mintcream'
p3984
(dp3985
g4
g5
((lp3986
S'ENSG00000171984'
p3987
aS'ENSG00000119401'
p3988
aS'ENSG00000113734'
p3989
aS'ENSG00000155640'
p3990
aS'ENSG00000100156'
p3991
atRp3992
ssS'antiquewhite'
p3993
(dp3994
g4
g5
((lp3995
S'ENSG00000184937'
p3996
aS'ENSG00000108244'
p3997
aS'ENSG00000040608'
p3998
aS'ENSG00000185519'
p3999
aS'ENSG00000064270'
p4000
aS'ENSG00000183798'
p4001
aS'ENSG00000183662'
p4002
aS'ENSG00000196890'
p4003
atRp4004
ssS'darkorange2'
p4005
(dp4006
g4
g5
((lp4007
S'ENSG00000172986'
p4008
aS'ENSG00000131844'
p4009
aS'ENSG00000204525'
p4010
aS'ENSG00000182093'
p4011
aS'ENSG00000182362'
p4012
aS'ENSG00000133812'
p4013
aS'ENSG00000221947'
p4014
aS'ENSG00000087338'
p4015
aS'ENSG00000255529'
p4016
aS'ENSG00000162620'
p4017
aS'ENSG00000117245'
p4018
aS'ENSG00000154059'
p4019
aS'ENSG00000239665'
p4020
atRp4021
ssS'cornsilk2'
p4022
(dp4023
g45
(lp4024
(lp4025
S'ENSG00000003987'
p4026
aFinf
ag49
(g51
S'l\xc5\xb2z\x97<x?'
tRp4027
ag49
(g51
S'`c\xbc\x84%\xe9\xa1?'
tRp4028
aasg4
g5
((lp4029
S'ENSG00000146433'
p4030
aS'ENSG00000115604'
p4031
aS'ENSG00000168772'
p4032
aS'ENSG00000115594'
p4033
aS'ENSG00000169900'
p4034
aS'ENSG00000115602'
p4035
aS'ENSG00000068001'
p4036
atRp4037
ssS'khaki2'
p4038
(dp4039
g45
(lp4040
(lp4041
g2284
aFinf
ag49
(g51
S'\xb0\xc0\xb2z\x97<x?'
tRp4042
ag49
(g51
S'\x80\xc0\xb2z\x97<x?'
tRp4043
aasg4
g5
((lp4044
S'ENSG00000042317'
p4045
aS'ENSG00000160886'
p4046
aS'ENSG00000130193'
p4047
aS'ENSG00000159259'
p4048
aS'ENSG00000118197'
p4049
aS'ENSG00000165548'
p4050
atRp4051
ssS'moccasin'
p4052
(dp4053
g45
(lp4054
(lp4055
S'ENSG00000150093'
p4056
ag49
(g51
S'\x00\x00\x00\x00\x00`_@'
tRp4057
ag49
(g51
S'\x1e\x941\x18\x10\x1b\x92?'
tRp4058
ag49
(g51
S'P\xf17\xf4\x15\xf2\xa1?'
tRp4059
aa(lp4060
S'ENSG00000103154'
p4061
ag49
(g51
S'33333\xf3H@'
tRp4062
ag49
(g51
S'\xfc\r\xd0!\x95\xff\xa1?'
tRp4063
ag49
(g51
S'\x00\x0e\xd0!\x95\xff\xa1?'
tRp4064
aasg4
g5
((lp4065
S'ENSG00000120324'
p4066
aS'ENSG00000140057'
p4067
aS'ENSG00000004838'
p4068
aS'ENSG00000078747'
p4069
aS'ENSG00000219435'
p4070
aS'ENSG00000180902'
p4071
aS'ENSG00000130816'
p4072
aS'ENSG00000182481'
p4073
aS'ENSG00000170959'
p4074
atRp4075
ssS'chocolate1'
p4076
(dp4077
g4
g5
((lp4078
S'ENSG00000203943'
p4079
aS'ENSG00000253251'
p4080
aS'ENSG00000095539'
p4081
aS'ENSG00000164733'
p4082
aS'ENSG00000174307'
p4083
aS'ENSG00000175538'
p4084
aS'ENSG00000179163'
p4085
aS'ENSG00000183734'
p4086
atRp4087
ssS'chocolate2'
p4088
(dp4089
g4
g5
((lp4090
S'ENSG00000196189'
p4091
aS'ENSG00000057252'
p4092
aS'ENSG00000204632'
p4093
aS'ENSG00000110237'
p4094
aS'ENSG00000162836'
p4095
aS'ENSG00000164068'
p4096
aS'ENSG00000228696'
p4097
aS'ENSG00000108264'
p4098
atRp4099
ssS'chocolate3'
p4100
(dp4101
g45
(lp4102
(lp4103
S'ENSG00000104894'
p4104
aFinf
ag49
(g51
S'2.w\xfcd(`?'
tRp4105
ag49
(g51
S'\x80\x17z\xb0P$p?'
tRp4106
aa(lp4107
S'ENSG00000162511'
p4108
aFinf
ag49
(g51
S'B1w\xfcd(p?'
tRp4109
ag49
(g51
S'\x801w\xfcd(p?'
tRp4110
aasg4
g5
((lp4111
S'ENSG00000120533'
p4112
aS'ENSG00000154240'
p4113
aS'ENSG00000205560'
p4114
aS'ENSG00000184900'
p4115
aS'ENSG00000178202'
p4116
aS'ENSG00000172687'
p4117
aS'ENSG00000122641'
p4118
aS'ENSG00000115944'
p4119
aS'ENSG00000184402'
p4120
atRp4121
ssS'chocolate4'
p4122
(dp4123
g4
g5
((lp4124
S'ENSG00000148290'
p4125
aS'ENSG00000144647'
p4126
aS'ENSG00000177239'
p4127
aS'ENSG00000161395'
p4128
aS'ENSG00000213533'
p4129
aS'ENSG00000149328'
p4130
aS'ENSG00000180096'
p4131
aS'ENSG00000070413'
p4132
aS'ENSG00000139133'
p4133
aS'ENSG00000162882'
p4134
atRp4135
ssS'darkslateblue'
p4136
(dp4137
g4
g5
((lp4138
S'ENSG00000150995'
p4139
aS'ENSG00000145087'
p4140
aS'ENSG00000112874'
p4141
aS'ENSG00000149781'
p4142
aS'ENSG00000106069'
p4143
aS'ENSG00000023516'
p4144
aS'ENSG00000248905'
p4145
aS'ENSG00000132938'
p4146
aS'ENSG00000172915'
p4147
aS'ENSG00000171246'
p4148
aS'ENSG00000156011'
p4149
aS'ENSG00000144290'
p4150
aS'ENSG00000163848'
p4151
atRp4152
ssS'lightskyblue'
p4153
(dp4154
g4
g5
((lp4155
S'ENSG00000119403'
p4156
aS'ENSG00000172346'
p4157
aS'ENSG00000104497'
p4158
aS'ENSG00000122034'
p4159
aS'ENSG00000135740'
p4160
aS'ENSG00000120910'
p4161
aS'ENSG00000116898'
p4162
atRp4163
ssS'violetred2'
p4164
(dp4165
g4
g5
((lp4166
S'ENSG00000183066'
p4167
aS'ENSG00000153107'
p4168
aS'ENSG00000109854'
p4169
aS'ENSG00000119844'
p4170
aS'ENSG00000174738'
p4171
aS'ENSG00000140497'
p4172
atRp4173
ssS'salmon1'
p4174
(dp4175
g45
(lp4176
(lp4177
g3425
aFinf
ag49
(g51
S'B1w\xfcd(p?'
tRp4178
ag49
(g51
S'\xc07\xf5\xef%$\x88?'
tRp4179
aa(lp4180
g781
aFinf
ag49
(g51
S'N,w\xfcd(\x80?'
tRp4181
ag49
(g51
S'@\xdb\xbf$<*\x88?'
tRp4182
aa(lp4183
g3420
aFinf
ag49
(g51
S'\xb0\xc0\xb2z\x97<x?'
tRp4184
ag49
(g51
S'@\xdb\xbf$<*\x88?'
tRp4185
aasg4
g5
((lp4186
S'ENSG00000165271'
p4187
aS'ENSG00000100288'
p4188
aS'ENSG00000013573'
p4189
aS'ENSG00000136819'
p4190
aS'ENSG00000157470'
p4191
aS'ENSG00000177082'
p4192
aS'ENSG00000151360'
p4193
aS'ENSG00000138434'
p4194
aS'ENSG00000108797'
p4195
aS'ENSG00000204227'
p4196
atRp4197
ssS'thistle'
p4198
(dp4199
g45
(lp4200
(lp4201
S'ENSG00000160963'
p4202
aFinf
ag49
(g51
S'C.w\xfcd(\x80?'
tRp4203
ag49
(g51
S'`\x9c\x0b1~\xc3\xa7?'
tRp4204
aasg4
g5
((lp4205
S'ENSG00000177679'
p4206
aS'ENSG00000188211'
p4207
aS'ENSG00000183654'
p4208
aS'ENSG00000072736'
p4209
aS'ENSG00000171962'
p4210
aS'ENSG00000155158'
p4211
aS'ENSG00000240038'
p4212
aS'ENSG00000070886'
p4213
aS'ENSG00000105928'
p4214
aS'ENSG00000239672'
p4215
aS'ENSG00000144285'
p4216
atRp4217
ssS'deeppink'
p4218
(dp4219
g4
g5
((lp4220
S'ENSG00000166896'
p4221
aS'ENSG00000189350'
p4222
aS'ENSG00000135744'
p4223
aS'ENSG00000177084'
p4224
aS'ENSG00000130147'
p4225
aS'ENSG00000182851'
p4226
aS'ENSG00000163686'
p4227
aS'ENSG00000116729'
p4228
aS'ENSG00000110888'
p4229
aS'ENSG00000101290'
p4230
atRp4231
ssS'plum'
p4232
(dp4233
g4
g5
((lp4234
S'ENSG00000121957'
p4235
aS'ENSG00000142185'
p4236
aS'ENSG00000143158'
p4237
aS'ENSG00000151883'
p4238
aS'ENSG00000133704'
p4239
aS'ENSG00000104808'
p4240
aS'ENSG00000115355'
p4241
aS'ENSG00000164615'
p4242
aS'ENSG00000162746'
p4243
aS'ENSG00000174007'
p4244
aS'ENSG00000170776'
p4245
aS'ENSG00000243244'
p4246
atRp4247
ssS'goldenrod4'
p4248
(dp4249
g45
(lp4250
(lp4251
g2585
ag49
(g51
S'\x00\x00\x00\x00\x00po@'
tRp4252
ag49
(g51
S'\x91l\xb6eT0\x88?'
tRp4253
ag49
(g51
S'\xa0{\x7f\xb0\x05\x14\x90?'
tRp4254
aa(lp4255
g2558
ag49
(g51
S'\x00\x00\x00\x00\x00\x80\x7f@'
tRp4256
ag49
(g51
S'\xa2\x14#\xa0N$\x80?'
tRp4257
ag49
(g51
S'\xa0{\x7f\xb0\x05\x14\x90?'
tRp4258
aasg4
g5
((lp4259
S'ENSG00000088298'
p4260
aS'ENSG00000112486'
p4261
aS'ENSG00000179477'
p4262
aS'ENSG00000163032'
p4263
aS'ENSG00000162039'
p4264
aS'ENSG00000065485'
p4265
aS'ENSG00000140284'
p4266
atRp4267
ssS'palegreen3'
p4268
(dp4269
g4
g5
((lp4270
S'ENSG00000163918'
p4271
aS'ENSG00000155393'
p4272
aS'ENSG00000104866'
p4273
aS'ENSG00000123989'
p4274
aS'ENSG00000198663'
p4275
atRp4276
ssS'palegreen4'
p4277
(dp4278
g4
g5
((lp4279
S'ENSG00000159917'
p4280
aS'ENSG00000185684'
p4281
aS'ENSG00000160282'
p4282
aS'ENSG00000160284'
p4283
aS'ENSG00000116830'
p4284
aS'ENSG00000125450'
p4285
atRp4286
ssS'goldenrod3'
p4287
(dp4288
g4
g5
((lp4289
S'ENSG00000162777'
p4290
aS'ENSG00000233927'
p4291
aS'ENSG00000169629'
p4292
aS'ENSG00000064419'
p4293
aS'ENSG00000196693'
p4294
aS'ENSG00000182858'
p4295
atRp4296
ssS'darkgoldenrod'
p4297
(dp4298
g4
g5
((lp4299
S'ENSG00000116288'
p4300
aS'ENSG00000127947'
p4301
aS'ENSG00000150455'
p4302
aS'ENSG00000135698'
p4303
aS'ENSG00000155975'
p4304
aS'ENSG00000171530'
p4305
atRp4306
ssS'red1'
p4307
(dp4308
g45
(lp4309
(lp4310
S'ENSG00000163071'
p4311
aFinf
ag49
(g51
S';.w\xfcd(p?'
tRp4312
ag49
(g51
S'`\xaf\xa3\x1b\x96\xf1\x9b?'
tRp4313
aa(lp4314
S'ENSG00000166483'
p4315
aFinf
ag49
(g51
S';.w\xfcd(p?'
tRp4316
ag49
(g51
S'`\xaf\xa3\x1b\x96\xf1\x9b?'
tRp4317
aa(lp4318
g1578
ag49
(g51
S'\x00\x00\x00\x00\x00\x80\x7f@'
tRp4319
ag49
(g51
S'\xa2\x14#\xa0N$\x80?'
tRp4320
ag49
(g51
S' \xbfb?\x99\xdc\xa3?'
tRp4321
aa(lp4322
S'ENSG00000135272'
p4323
ag49
(g51
S'\x00\x00\x00\x00\x00\x80\x7f@'
tRp4324
ag49
(g51
S'\xa2\x14#\xa0N$\x80?'
tRp4325
ag49
(g51
S' \xbfb?\x99\xdc\xa3?'
tRp4326
aa(lp4327
S'ENSG00000184792'
p4328
ag49
(g51
S'\x00\x00\x00\x00\x00po@'
tRp4329
ag49
(g51
S'\x91l\xb6eT0\x88?'
tRp4330
ag49
(g51
S' \xbfb?\x99\xdc\xa3?'
tRp4331
aa(lp4332
S'ENSG00000139998'
p4333
ag49
(g51
S'\x00\x00\x00\x00\x00P_@'
tRp4334
ag49
(g51
S'\x81y\xf0m\x0e\x1e\x94?'
tRp4335
ag49
(g51
S' \xbfb?\x99\xdc\xa3?'
tRp4336
aa(lp4337
g1591
ag49
(g51
S'\x00\x00\x00\x00\x00\x80\x7f@'
tRp4338
ag49
(g51
S'\xa2\x14#\xa0N$\x80?'
tRp4339
ag49
(g51
S' \xbfb?\x99\xdc\xa3?'
tRp4340
aasg4
g5
((lp4341
S'ENSG00000172244'
p4342
aS'ENSG00000181896'
p4343
aS'ENSG00000117748'
p4344
aS'ENSG00000082497'
p4345
aS'ENSG00000128408'
p4346
aS'ENSG00000164675'
p4347
aS'ENSG00000179902'
p4348
aS'ENSG00000176531'
p4349
atRp4350
ssS'mediumorchid'
p4351
(dp4352
g45
(lp4353
(lp4354
S'ENSG00000168329'
p4355
aFinf
ag49
(g51
S'2.w\xfcd(`?'
tRp4356
ag49
(g51
S'\x00.w\xfcd(`?'
tRp4357
aasg4
g5
((lp4358
S'ENSG00000124215'
p4359
aS'ENSG00000120693'
p4360
aS'ENSG00000146707'
p4361
aS'ENSG00000122729'
p4362
aS'ENSG00000197992'
p4363
aS'ENSG00000206535'
p4364
aS'ENSG00000163492'
p4365
aS'ENSG00000163913'
p4366
aS'ENSG00000262874'
p4367
aS'ENSG00000170074'
p4368
aS'ENSG00000249109'
p4369
aS'ENSG00000188372'
p4370
atRp4371
ssS'maroon'
p4372
(dp4373
g45
(lp4374
(lp4375
S'ENSG00000145794'
p4376
aFinf
ag49
(g51
S'2.w\xfcd(`?'
tRp4377
ag49
(g51
S'\x00.w\xfcd(`?'
tRp4378
aasg4
g5
((lp4379
S'ENSG00000117500'
p4380
aS'ENSG00000074603'
p4381
aS'ENSG00000106012'
p4382
aS'ENSG00000178809'
p4383
aS'ENSG00000105875'
p4384
aS'ENSG00000088002'
p4385
aS'ENSG00000112041'
p4386
aS'ENSG00000181444'
p4387
aS'ENSG00000234545'
p4388
aS'ENSG00000163795'
p4389
aS'ENSG00000214402'
p4390
aS'ENSG00000128536'
p4391
aS'ENSG00000065457'
p4392
atRp4393
ssS'lightcyan1'
p4394
(dp4395
g45
(lp4396
(lp4397
S'ENSG00000152104'
p4398
aFinf
ag49
(g51
S'2.w\xfcd(`?'
tRp4399
ag49
(g51
S'\x80^\x87\t#\x1e\x84?'
tRp4400
aa(lp4401
S'ENSG00000187079'
p4402
aFinf
ag49
(g51
S'2.w\xfcd(`?'
tRp4403
ag49
(g51
S'\x80^\x87\t#\x1e\x84?'
tRp4404
aa(lp4405
S'ENSG00000166147'
p4406
aFinf
ag49
(g51
S'2.w\xfcd(`?'
tRp4407
ag49
(g51
S'\x80^\x87\t#\x1e\x84?'
tRp4408
aa(lp4409
S'ENSG00000146648'
p4410
aFinf
ag49
(g51
S'\xb0\xc0\xb2z\x97<x?'
tRp4411
ag49
(g51
S'@\xdb\xbf$<*\x88?'
tRp4412
aa(lp4413
g832
aFinf
ag49
(g51
S'N,w\xfcd(\x80?'
tRp4414
ag49
(g51
S'@\xdb\xbf$<*\x88?'
tRp4415
aasg4
g5
((lp4416
S'ENSG00000145113'
p4417
aS'ENSG00000176945'
p4418
aS'ENSG00000180817'
p4419
aS'ENSG00000174718'
p4420
aS'ENSG00000121570'
p4421
aS'ENSG00000228716'
p4422
aS'ENSG00000235098'
p4423
aS'ENSG00000131979'
p4424
aS'ENSG00000241043'
p4425
aS'ENSG00000111799'
p4426
aS'ENSG00000163535'
p4427
aS'ENSG00000129946'
p4428
aS'ENSG00000212124'
p4429
aS'ENSG00000145734'
p4430
atRp4431
ssS'turquoise2'
p4432
(dp4433
g4
g5
((lp4434
S'ENSG00000172613'
p4435
aS'ENSG00000259511'
p4436
aS'ENSG00000150667'
p4437
aS'ENSG00000111530'
p4438
aS'ENSG00000137802'
p4439
aS'ENSG00000100764'
p4440
aS'ENSG00000138785'
p4441
atRp4442
ssS'burlywood1'
p4443
(dp4444
g4
g5
((lp4445
S'ENSG00000163607'
p4446
aS'ENSG00000105607'
p4447
aS'ENSG00000115364'
p4448
aS'ENSG00000103168'
p4449
aS'ENSG00000262246'
p4450
aS'ENSG00000163682'
p4451
aS'ENSG00000197705'
p4452
atRp4453
ssS'seashell3'
p4454
(dp4455
g45
(lp4456
(lp4457
S'ENSG00000144619'
p4458
aFinf
ag49
(g51
S'B1w\xfcd(p?'
tRp4459
ag49
(g51
S'\xc07\xf5\xef%$\x88?'
tRp4460
aa(lp4461
S'ENSG00000140538'
p4462
aFinf
ag49
(g51
S'B1w\xfcd(p?'
tRp4463
ag49
(g51
S'\xc07\xf5\xef%$\x88?'
tRp4464
aa(lp4465
S'ENSG00000122756'
p4466
aFinf
ag49
(g51
S'B1w\xfcd(p?'
tRp4467
ag49
(g51
S'\xc07\xf5\xef%$\x88?'
tRp4468
aasg4
g5
((lp4469
S'ENSG00000141391'
p4470
aS'ENSG00000011243'
p4471
aS'ENSG00000124201'
p4472
aS'ENSG00000092094'
p4473
aS'ENSG00000168026'
p4474
aS'ENSG00000072571'
p4475
aS'ENSG00000164307'
p4476
atRp4477
ssS'burlywood3'
p4478
(dp4479
g45
(lp4480
(lp4481
S'ENSG00000088992'
p4482
aFinf
ag49
(g51
S';.w\xfcd(p?'
tRp4483
ag49
(g51
S'\xe0\xbaO8w\xdf\x9f?'
tRp4484
aasg4
g5
((lp4485
S'ENSG00000182263'
p4486
aS'ENSG00000113621'
p4487
aS'ENSG00000159337'
p4488
aS'ENSG00000126246'
p4489
aS'ENSG00000115290'
p4490
atRp4491
ssS'burlywood2'
p4492
(dp4493
g45
(lp4494
(lp4495
S'ENSG00000239998'
p4496
aFinf
ag49
(g51
S'2.w\xfcd(`?'
tRp4497
ag49
(g51
S'\x80\xbe\x07\xa6\\0x?'
tRp4498
aa(lp4499
S'ENSG00000186818'
p4500
aFinf
ag49
(g51
S'2.w\xfcd(`?'
tRp4501
ag49
(g51
S'\x80\xbe\x07\xa6\\0x?'
tRp4502
aa(lp4503
S'ENSG00000198223'
p4504
aFinf
ag49
(g51
S'2.w\xfcd(`?'
tRp4505
ag49
(g51
S'\x80\xbe\x07\xa6\\0x?'
tRp4506
aasg4
g5
((lp4507
S'ENSG00000153044'
p4508
aS'ENSG00000162819'
p4509
aS'ENSG00000107959'
p4510
aS'ENSG00000196455'
p4511
aS'ENSG00000162711'
p4512
aS'ENSG00000104774'
p4513
atRp4514
ssS'violet'
p4515
(dp4516
g4
g5
((lp4517
S'ENSG00000115902'
p4518
aS'ENSG00000113231'
p4519
aS'ENSG00000135298'
p4520
aS'ENSG00000114631'
p4521
aS'ENSG00000152092'
p4522
aS'ENSG00000164398'
p4523
aS'ENSG00000181619'
p4524
aS'ENSG00000246705'
p4525
aS'ENSG00000130414'
p4526
aS'ENSG00000165379'
p4527
aS'ENSG00000140092'
p4528
aS'ENSG00000175356'
p4529
aS'ENSG00000118322'
p4530
aS'ENSG00000222046'
p4531
aS'ENSG00000101349'
p4532
atRp4533
ssS'magenta'
p4534
(dp4535
g45
(lp4536
(lp4537
S'ENSG00000090006'
p4538
aFinf
ag49
(g51
S';.w\xfcd(p?'
tRp4539
ag49
(g51
S' Az,\xb9\xff\x97?'
tRp4540
aa(lp4541
S'ENSG00000047648'
p4542
aFinf
ag49
(g51
S';.w\xfcd(p?'
tRp4543
ag49
(g51
S' Az,\xb9\xff\x97?'
tRp4544
aa(lp4545
g3718
ag49
(g51
S'\x00\x00\x00\x00\x00\x80\x7f@'
tRp4546
ag49
(g51
S'\xa2\x14#\xa0N$\x80?'
tRp4547
ag49
(g51
S'@\x0eB\xcfj\xe7\x9f?'
tRp4548
aa(lp4549
g3722
ag49
(g51
S'\x00\x00\x00\x00\x00\x80\x7f@'
tRp4550
ag49
(g51
S'\xa2\x14#\xa0N$\x80?'
tRp4551
ag49
(g51
S'@\x0eB\xcfj\xe7\x9f?'
tRp4552
aa(lp4553
g3726
ag49
(g51
S'\x00\x00\x00\x00\x00\x80\x7f@'
tRp4554
ag49
(g51
S'\xa2\x14#\xa0N$\x80?'
tRp4555
ag49
(g51
S'@\x0eB\xcfj\xe7\x9f?'
tRp4556
aa(lp4557
g1022
ag49
(g51
S'\x00\x00\x00\x00\x00\x10O@'
tRp4558
ag49
(g51
S'\xeb#\x11]\xa8\x08\xa2?'
tRp4559
ag49
(g51
S'\xf0#\x11]\xa8\x08\xa2?'
tRp4560
aasg4
g5
((lp4561
S'ENSG00000196821'
p4562
aS'ENSG00000147862'
p4563
aS'ENSG00000166783'
p4564
aS'ENSG00000087365'
p4565
aS'ENSG00000166261'
p4566
aS'ENSG00000166664'
p4567
aS'ENSG00000196235'
p4568
aS'ENSG00000196704'
p4569
aS'ENSG00000100129'
p4570
aS'ENSG00000137054'
p4571
aS'ENSG00000167881'
p4572
aS'ENSG00000125734'
p4573
aS'ENSG00000125755'
p4574
aS'ENSG00000188833'
p4575
aS'ENSG00000141252'
p4576
aS'ENSG00000018699'
p4577
aS'ENSG00000178602'
p4578
aS'ENSG00000129351'
p4579
aS'ENSG00000198750'
p4580
aS'ENSG00000165923'
p4581
aS'ENSG00000141198'
p4582
aS'ENSG00000129158'
p4583
aS'ENSG00000242616'
p4584
atRp4585
ssS'rosybrown'
p4586
(dp4587
g4
g5
((lp4588
S'ENSG00000197122'
p4589
aS'ENSG00000184047'
p4590
aS'ENSG00000125375'
p4591
aS'ENSG00000119638'
p4592
aS'ENSG00000183208'
p4593
atRp4594
ssS'turquoise4'
p4595
(dp4596
g4
g5
((lp4597
S'ENSG00000064703'
p4598
aS'ENSG00000131845'
p4599
aS'ENSG00000117834'
p4600
aS'ENSG00000198231'
p4601
aS'ENSG00000177981'
p4602
aS'ENSG00000067334'
p4603
atRp4604
ssS'pink'
p4605
(dp4606
g4
g5
((lp4607
S'ENSG00000168505'
p4608
aS'ENSG00000013583'
p4609
aS'ENSG00000184925'
p4610
aS'ENSG00000169490'
p4611
aS'ENSG00000213853'
p4612
aS'ENSG00000102575'
p4613
aS'ENSG00000166426'
p4614
aS'ENSG00000220205'
p4615
aS'ENSG00000164122'
p4616
aS'ENSG00000158258'
p4617
aS'ENSG00000178343'
p4618
aS'ENSG00000105983'
p4619
aS'ENSG00000205856'
p4620
aS'ENSG00000158825'
p4621
aS'ENSG00000110651'
p4622
aS'ENSG00000075303'
p4623
aS'ENSG00000164171'
p4624
aS'ENSG00000154080'
p4625
aS'ENSG00000134545'
p4626
aS'ENSG00000255994'
p4627
aS'ENSG00000042445'
p4628
aS'ENSG00000143222'
p4629
aS'ENSG00000143771'
p4630
aS'ENSG00000123243'
p4631
atRp4632
ssS'lightblue'
p4633
(dp4634
g45
(lp4635
(lp4636
S'ENSG00000169679'
p4637
aFinf
ag49
(g51
S'2.w\xfcd(`?'
tRp4638
ag49
(g51
S'\xc0D\x936,\x1c\x80?'
tRp4639
aa(lp4640
g4458
aFinf
ag49
(g51
S'B1w\xfcd(p?'
tRp4641
ag49
(g51
S'\xc07\xf5\xef%$\x88?'
tRp4642
aa(lp4643
g4462
aFinf
ag49
(g51
S'B1w\xfcd(p?'
tRp4644
ag49
(g51
S'\xc07\xf5\xef%$\x88?'
tRp4645
aa(lp4646
g4466
aFinf
ag49
(g51
S'B1w\xfcd(p?'
tRp4647
ag49
(g51
S'\xc07\xf5\xef%$\x88?'
tRp4648
aasg4
g5
((lp4649
S'ENSG00000215012'
p4650
aS'ENSG00000100162'
p4651
aS'ENSG00000172159'
p4652
aS'ENSG00000176641'
p4653
aS'ENSG00000133059'
p4654
aS'ENSG00000143322'
p4655
aS'ENSG00000120071'
p4656
atRp4657
ssS'mistyrose2'
p4658
(dp4659
g4
g5
((lp4660
S'ENSG00000053702'
p4661
aS'ENSG00000170703'
p4662
aS'ENSG00000177000'
p4663
aS'ENSG00000128040'
p4664
aS'ENSG00000156711'
p4665
aS'ENSG00000170558'
p4666
aS'ENSG00000101160'
p4667
atRp4668
ssS'slateblue'
p4669
(dp4670
g4
g5
((lp4671
S'ENSG00000139531'
p4672
aS'ENSG00000110060'
p4673
aS'ENSG00000107643'
p4674
aS'ENSG00000169926'
p4675
aS'ENSG00000125124'
p4676
aS'ENSG00000240682'
p4677
aS'ENSG00000243725'
p4678
aS'ENSG00000156853'
p4679
aS'ENSG00000137857'
p4680
aS'ENSG00000162928'
p4681
atRp4682
ssS'sienna4'
p4683
(dp4684
g4
g5
((lp4685
S'ENSG00000139351'
p4686
aS'ENSG00000165060'
p4687
aS'ENSG00000001460'
p4688
aS'ENSG00000186235'
p4689
aS'ENSG00000125877'
p4690
aS'ENSG00000113716'
p4691
aS'ENSG00000110665'
p4692
aS'ENSG00000100519'
p4693
aS'ENSG00000188312'
p4694
aS'ENSG00000118690'
p4695
aS'ENSG00000163138'
p4696
atRp4697
ssS'darkorange'
p4698
(dp4699
g45
(lp4700
(lp4701
g1908
ag49
(g51
S'\x00\x00\x00\x00\x00\x80\x7f@'
tRp4702
ag49
(g51
S'\xa2\x14#\xa0N$\x80?'
tRp4703
ag49
(g51
S'\xc0\x14#\xa0N$\x80?'
tRp4704
aasg4
g5
((lp4705
S'ENSG00000115761'
p4706
aS'ENSG00000168925'
p4707
aS'ENSG00000101307'
p4708
aS'ENSG00000134759'
p4709
aS'ENSG00000162004'
p4710
aS'ENSG00000132465'
p4711
aS'ENSG00000187021'
p4712
aS'ENSG00000106526'
p4713
aS'ENSG00000241945'
p4714
aS'ENSG00000149084'
p4715
aS'ENSG00000250565'
p4716
aS'ENSG00000197181'
p4717
aS'ENSG00000164808'
p4718
aS'ENSG00000183605'
p4719
aS'ENSG00000096088'
p4720
atRp4721
ssS'powderblue'
p4722
(dp4723
g45
(lp4724
(lp4725
g1274
ag49
(g51
S'\x00\x00\x00\x00\x00po@'
tRp4726
ag49
(g51
S'\xd1u\xb6eT0\x88?'
tRp4727
ag49
(g51
S'\xc0C\xed\xe7\x96\xd5\xa4?'
tRp4728
aa(lp4729
S'ENSG00000143365'
p4730
aFinf
ag49
(g51
S'l\xc5\xb2z\x97<x?'
tRp4731
ag49
(g51
S'\xc0C\xed\xe7\x96\xd5\xa4?'
tRp4732
aa(lp4733
g1279
ag49
(g51
S'\x00\x00\x00\x00\x00po@'
tRp4734
ag49
(g51
S'\xd1u\xb6eT0\x88?'
tRp4735
ag49
(g51
S'\xc0C\xed\xe7\x96\xd5\xa4?'
tRp4736
aa(lp4737
S'ENSG00000197506'
p4738
aFinf
ag49
(g51
S'l\xc5\xb2z\x97<x?'
tRp4739
ag49
(g51
S'\xc0C\xed\xe7\x96\xd5\xa4?'
tRp4740
aa(lp4741
S'ENSG00000183421'
p4742
aFinf
ag49
(g51
S'l\xc5\xb2z\x97<x?'
tRp4743
ag49
(g51
S'\xc0C\xed\xe7\x96\xd5\xa4?'
tRp4744
aa(lp4745
S'ENSG00000075275'
p4746
aFinf
ag49
(g51
S'l\xc5\xb2z\x97<x?'
tRp4747
ag49
(g51
S'\xc0C\xed\xe7\x96\xd5\xa4?'
tRp4748
aa(lp4749
g1288
ag49
(g51
S'\x00\x00\x00\x00\x00`_@'
tRp4750
ag49
(g51
S'\x1e\x941\x18\x10\x1b\x92?'
tRp4751
ag49
(g51
S'\xc0C\xed\xe7\x96\xd5\xa4?'
tRp4752
aasg4
g5
((lp4753
S'ENSG00000186529'
p4754
aS'ENSG00000142233'
p4755
aS'ENSG00000225940'
p4756
aS'ENSG00000091157'
p4757
aS'ENSG00000008438'
p4758
aS'ENSG00000029639'
p4759
aS'ENSG00000186204'
p4760
aS'ENSG00000012223'
p4761
aS'ENSG00000259495'
p4762
atRp4763
ssS'red4'
p4764
(dp4765
g45
(lp4766
(lp4767
S'ENSG00000187955'
p4768
ag49
(g51
S'\x00\x00\x00\x00\x00\x80\x7f@'
tRp4769
ag49
(g51
S'\xa2\x14#\xa0N$\x80?'
tRp4770
ag49
(g51
S' \xbfb?\x99\xdc\xa3?'
tRp4771
aa(lp4772
g1883
ag49
(g51
S'\x00\x00\x00\x00\x00po@'
tRp4773
ag49
(g51
S'\x91l\xb6eT0\x88?'
tRp4774
ag49
(g51
S'\x90\x9b74|\xc3\xa7?'
tRp4775
aa(lp4776
S'ENSG00000078804'
p4777
ag49
(g51
S'\x00\x00\x00\x00\x00P_@'
tRp4778
ag49
(g51
S'\x81y\xf0m\x0e\x1e\x94?'
tRp4779
ag49
(g51
S'\x90\x9b74|\xc3\xa7?'
tRp4780
aa(lp4781
S'ENSG00000108387'
p4782
ag49
(g51
S'\x00\x00\x00\x00\x00po@'
tRp4783
ag49
(g51
S'\x91l\xb6eT0\x88?'
tRp4784
ag49
(g51
S'\x90\x9b74|\xc3\xa7?'
tRp4785
aa(lp4786
S'ENSG00000180354'
p4787
ag49
(g51
S'\x00\x00\x00\x00\x00P_@'
tRp4788
ag49
(g51
S'\x81y\xf0m\x0e\x1e\x94?'
tRp4789
ag49
(g51
S'\x90\x9b74|\xc3\xa7?'
tRp4790
aasg4
g5
((lp4791
S'ENSG00000155275'
p4792
aS'ENSG00000163281'
p4793
aS'ENSG00000165072'
p4794
aS'ENSG00000242612'
p4795
aS'ENSG00000172818'
p4796
aS'ENSG00000187908'
p4797
aS'ENSG00000198865'
p4798
atRp4799
ssS'snow'
p4800
(dp4801
g45
(lp4802
(lp4803
S'ENSG00000248485'
p4804
aFinf
ag49
(g51
S'[\xfd\x94;~2\x84?'
tRp4805
ag49
(g51
S'@\xfd\x94;~2\x84?'
tRp4806
aasg4
g5
((lp4807
S'ENSG00000153214'
p4808
aS'ENSG00000173809'
p4809
aS'ENSG00000100600'
p4810
aS'ENSG00000157379'
p4811
aS'ENSG00000170627'
p4812
aS'ENSG00000138764'
p4813
atRp4814
ssS'mistyrose4'
p4815
(dp4816
g4
g5
((lp4817
S'ENSG00000157429'
p4818
aS'ENSG00000145040'
p4819
aS'ENSG00000089280'
p4820
aS'ENSG00000196793'
p4821
aS'ENSG00000059691'
p4822
aS'ENSG00000173535'
p4823
aS'ENSG00000101639'
p4824
aS'ENSG00000162909'
p4825
aS'ENSG00000110768'
p4826
atRp4827
ssS'mediumblue'
p4828
(dp4829
g45
(lp4830
(lp4831
S'ENSG00000169604'
p4832
aFinf
ag49
(g51
S'\xce\xf9\x94;~2\x84?'
tRp4833
ag49
(g51
S'\x00\xcd\xa7\x15\x82\xe6\xa3?'
tRp4834
aa(lp4835
S'ENSG00000189184'
p4836
aFinf
ag49
(g51
S'\xce\xf9\x94;~2\x84?'
tRp4837
ag49
(g51
S'\x00\xcd\xa7\x15\x82\xe6\xa3?'
tRp4838
aa(lp4839
S'ENSG00000125872'
p4840
aFinf
ag49
(g51
S'\xce\xf9\x94;~2\x84?'
tRp4841
ag49
(g51
S'\x00\xcd\xa7\x15\x82\xe6\xa3?'
tRp4842
aa(lp4843
S'ENSG00000112562'
p4844
aFinf
ag49
(g51
S'\xce\xf9\x94;~2\x84?'
tRp4845
ag49
(g51
S'\x00\xcd\xa7\x15\x82\xe6\xa3?'
tRp4846
aasg4
g5
((lp4847
S'ENSG00000112706'
p4848
aS'ENSG00000008517'
p4849
aS'ENSG00000144063'
p4850
aS'ENSG00000151468'
p4851
aS'ENSG00000150630'
p4852
atRp4853
ssS'seashell4'
p4854
(dp4855
g4
g5
((lp4856
S'ENSG00000178297'
p4857
aS'ENSG00000113593'
p4858
aS'ENSG00000066923'
p4859
aS'ENSG00000258289'
p4860
aS'ENSG00000087116'
p4861
aS'ENSG00000235878'
p4862
aS'ENSG00000173566'
p4863
atRp4864
ssS'lightcyan'
p4865
(dp4866
g45
(lp4867
(lp4868
S'ENSG00000171714'
p4869
aFinf
ag49
(g51
S'C.w\xfcd(\x80?'
tRp4870
ag49
(g51
S'\x00\xb4}m\x8c\xe1\xa3?'
tRp4871
aa(lp4872
S'ENSG00000087258'
p4873
aFinf
ag49
(g51
S'C.w\xfcd(\x80?'
tRp4874
ag49
(g51
S'\x00\xb4}m\x8c\xe1\xa3?'
tRp4875
aa(lp4876
S'ENSG00000134533'
p4877
aFinf
ag49
(g51
S'C.w\xfcd(\x80?'
tRp4878
ag49
(g51
S'\x00\xb4}m\x8c\xe1\xa3?'
tRp4879
aa(lp4880
S'ENSG00000179915'
p4881
aFinf
ag49
(g51
S'C.w\xfcd(\x80?'
tRp4882
ag49
(g51
S'\x00\xb4}m\x8c\xe1\xa3?'
tRp4883
aa(lp4884
g574
ag49
(g51
S'\x9a\x99\x99\x99\x99\x99@@'
tRp4885
ag49
(g51
S'\x05\xea\xe2\x7f\x1c\xe1\xa7?'
tRp4886
ag49
(g51
S'\x00\xea\xe2\x7f\x1c\xe1\xa7?'
tRp4887
aasg4
g5
((lp4888
S'ENSG00000105287'
p4889
aS'ENSG00000188672'
p4890
aS'ENSG00000166436'
p4891
aS'ENSG00000100360'
p4892
aS'ENSG00000204954'
p4893
aS'ENSG00000166965'
p4894
aS'ENSG00000188517'
p4895
aS'ENSG00000175866'
p4896
aS'ENSG00000154153'
p4897
aS'ENSG00000140323'
p4898
aS'ENSG00000177301'
p4899
aS'ENSG00000184160'
p4900
aS'ENSG00000108272'
p4901
aS'ENSG00000160191'
p4902
aS'ENSG00000162378'
p4903
aS'ENSG00000171217'
p4904
aS'ENSG00000145476'
p4905
aS'ENSG00000104818'
p4906
aS'ENSG00000248469'
p4907
atRp4908
ssS'sienna1'
p4909
(dp4910
g45
(lp4911
(lp4912
S'ENSG00000175161'
p4913
aFinf
ag49
(g51
S';.w\xfcd(p?'
tRp4914
ag49
(g51
S'\x00\x01}d< \x80?'
tRp4915
aa(lp4916
g3941
ag49
(g51
S'\x00\x00\x00\x00\x00\x80\x7f@'
tRp4917
ag49
(g51
S'\xa2\x14#\xa0N$\x80?'
tRp4918
ag49
(g51
S'\xc0\x14#\xa0N$\x80?'
tRp4919
aasg4
g5
((lp4920
S'ENSG00000165355'
p4921
aS'ENSG00000111269'
p4922
aS'ENSG00000114166'
p4923
aS'ENSG00000187837'
p4924
aS'ENSG00000137561'
p4925
aS'ENSG00000148824'
p4926
aS'ENSG00000109339'
p4927
aS'ENSG00000153406'
p4928
aS'ENSG00000146834'
p4929
atRp4930
ssS'midnightblue'
p4931
(dp4932
g4
g5
((lp4933
S'ENSG00000151748'
p4934
aS'ENSG00000161714'
p4935
aS'ENSG00000108055'
p4936
aS'ENSG00000124275'
p4937
aS'ENSG00000167695'
p4938
aS'ENSG00000093183'
p4939
aS'ENSG00000109919'
p4940
aS'ENSG00000023608'
p4941
aS'ENSG00000113812'
p4942
aS'ENSG00000170632'
p4943
aS'ENSG00000141452'
p4944
aS'ENSG00000136824'
p4945
aS'ENSG00000103550'
p4946
aS'ENSG00000070785'
p4947
aS'ENSG00000180855'
p4948
aS'ENSG00000154719'
p4949
aS'ENSG00000099785'
p4950
aS'ENSG00000147687'
p4951
aS'ENSG00000172058'
p4952
atRp4953
ssS'paleturquoise'
p4954
(dp4955
g45
(lp4956
(lp4957
S'ENSG00000100842'
p4958
aFinf
ag49
(g51
S'`\xc5\xb2z\x97<\x88?'
tRp4959
ag49
(g51
S'\xf0\xd677\x97\xf6\xa1?'
tRp4960
aa(lp4961
S'ENSG00000124249'
p4962
ag49
(g51
S'\x00\x00\x00\x00\x00\x00Y@'
tRp4963
ag49
(g51
S'\x87\xfe;\xc6\xef\x1d\x98?'
tRp4964
ag49
(g51
S'\xe0&\x90\xb7;\xd5\xa7?'
tRp4965
aa(lp4966
S'ENSG00000189292'
p4967
ag49
(g51
S'\x00\x00\x00\x00\x00\x00Y@'
tRp4968
ag49
(g51
S'\x87\xfe;\xc6\xef\x1d\x98?'
tRp4969
ag49
(g51
S'\xe0&\x90\xb7;\xd5\xa7?'
tRp4970
aasg4
g5
((lp4971
S'ENSG00000132434'
p4972
aS'ENSG00000088538'
p4973
aS'ENSG00000130201'
p4974
aS'ENSG00000176194'
p4975
aS'ENSG00000115325'
p4976
aS'ENSG00000171503'
p4977
aS'ENSG00000156113'
p4978
aS'ENSG00000104332'
p4979
aS'ENSG00000128683'
p4980
aS'ENSG00000075391'
p4981
aS'ENSG00000055732'
p4982
aS'ENSG00000217702'
p4983
aS'ENSG00000257242'
p4984
aS'ENSG00000157445'
p4985
aS'ENSG00000171735'
p4986
atRp4987
ssS'olivedrab3'
p4988
(dp4989
g4
g5
((lp4990
S'ENSG00000174194'
p4991
aS'ENSG00000173762'
p4992
aS'ENSG00000196966'
p4993
aS'ENSG00000255748'
p4994
aS'ENSG00000167711'
p4995
atRp4996
ssS'orangered3'
p4997
(dp4998
g45
(lp4999
(lp5000
S'ENSG00000106571'
p5001
aFinf
ag49
(g51
S';.w\xfcd(p?'
tRp5002
ag49
(g51
S'\x00\x91\xc1\xaa\xfb\x0f\x90?'
tRp5003
aa(lp5004
g1800
ag49
(g51
S'\x00\x00\x00\x00\x00\x80\x7f@'
tRp5005
ag49
(g51
S'\xa2\x14#\xa0N$\x80?'
tRp5006
ag49
(g51
S'`^\x11\xfd\xbb\x05\x98?'
tRp5007
aa(lp5008
g4410
ag49
(g51
S'\x00\x00\x00\x00\x00po@'
tRp5009
ag49
(g51
S'\x91l\xb6eT0\x88?'
tRp5010
ag49
(g51
S'\xc0)\x89\xd6\xc2\x0b\x98?'
tRp5011
aa(lp5012
g832
ag49
(g51
S'\xab\xaa\xaa\xaa\xaa\xead@'
tRp5013
ag49
(g51
S'o\xd5z\xe7!\x1c\x90?'
tRp5014
ag49
(g51
S'\xc0)\x89\xd6\xc2\x0b\x98?'
tRp5015
aasg4
g5
((lp5016
S'ENSG00000198156'
p5017
aS'ENSG00000175166'
p5018
aS'ENSG00000128218'
p5019
aS'ENSG00000144524'
p5020
aS'ENSG00000025039'
p5021
aS'ENSG00000213471'
p5022
aS'ENSG00000156502'
p5023
aS'ENSG00000141756'
p5024
aS'ENSG00000204219'
p5025
aS'ENSG00000138696'
p5026
aS'ENSG00000135480'
p5027
aS'ENSG00000155463'
p5028
atRp5029
ssS'deeppink2'
p5030
(dp5031
g4
g5
((lp5032
S'ENSG00000085999'
p5033
aS'ENSG00000166435'
p5034
aS'ENSG00000196365'
p5035
aS'ENSG00000103671'
p5036
aS'ENSG00000111665'
p5037
aS'ENSG00000111664'
p5038
aS'ENSG00000256061'
p5039
aS'ENSG00000119328'
p5040
aS'ENSG00000162929'
p5041
atRp5042
ssS'deeppink1'
p5043
(dp5044
g4
g5
((lp5045
S'ENSG00000171729'
p5046
aS'ENSG00000132313'
p5047
aS'ENSG00000153560'
p5048
aS'ENSG00000140950'
p5049
aS'ENSG00000130518'
p5050
aS'ENSG00000073584'
p5051
aS'ENSG00000165661'
p5052
aS'ENSG00000114735'
p5053
aS'ENSG00000189339'
p5054
atRp5055
ssS'orangered4'
p5056
(dp5057
g4
g5
((lp5058
S'ENSG00000105186'
p5059
aS'ENSG00000131849'
p5060
aS'ENSG00000175893'
p5061
aS'ENSG00000151148'
p5062
aS'ENSG00000152223'
p5063
aS'ENSG00000197619'
p5064
aS'ENSG00000106683'
p5065
aS'ENSG00000180787'
p5066
aS'ENSG00000140995'
p5067
aS'ENSG00000138231'
p5068
aS'ENSG00000100997'
p5069
aS'ENSG00000134809'
p5070
aS'ENSG00000144026'
p5071
aS'ENSG00000198951'
p5072
atRp5073
ssS'thistle3'
p5074
(dp5075
g45
(lp5076
(lp5077
S'ENSG00000085563'
p5078
aFinf
ag49
(g51
S'C.w\xfcd(\x80?'
tRp5079
ag49
(g51
S'\xa0\x99\xb3if\xef\x9f?'
tRp5080
aa(lp5081
S'ENSG00000111077'
p5082
aFinf
ag49
(g51
S'C.w\xfcd(\x80?'
tRp5083
ag49
(g51
S'\xa0\x99\xb3if\xef\x9f?'
tRp5084
aa(lp5085
S'ENSG00000129355'
p5086
ag49
(g51
S'\xab\xaa\xaa\xaa\xaa\xead@'
tRp5087
ag49
(g51
S'j\xdaz\xe7!\x1c\x90?'
tRp5088
ag49
(g51
S'\xe0\x15\xde\xf9a\xf7\x9f?'
tRp5089
aa(lp5090
g1413
ag49
(g51
S'r\x1c\xc7q\x1c\xc7K@'
tRp5091
ag49
(g51
S'\xf9\x12\x8a\x97\xb4\x03\xa0?'
tRp5092
ag49
(g51
S'\x00\x13\x8a\x97\xb4\x03\xa0?'
tRp5093
aasg4
g5
((lp5094
S'ENSG00000084072'
p5095
aS'ENSG00000141140'
p5096
aS'ENSG00000127863'
p5097
aS'ENSG00000125772'
p5098
aS'ENSG00000165816'
p5099
aS'ENSG00000167434'
p5100
aS'ENSG00000175324'
p5101
aS'ENSG00000198551'
p5102
aS'ENSG00000082175'
p5103
aS'ENSG00000127472'
p5104
aS'ENSG00000234444'
p5105
atRp5106
ssS'thistle2'
p5107
(dp5108
g4
g5
((lp5109
S'ENSG00000120265'
p5110
aS'ENSG00000140876'
p5111
aS'ENSG00000103353'
p5112
aS'ENSG00000180398'
p5113
aS'ENSG00000176022'
p5114
aS'ENSG00000146530'
p5115
aS'ENSG00000111142'
p5116
aS'ENSG00000116791'
p5117
aS'ENSG00000162623'
p5118
aS'ENSG00000175395'
p5119
aS'ENSG00000166268'
p5120
aS'ENSG00000139726'
p5121
aS'ENSG00000106367'
p5122
atRp5123
ssS'thistle1'
p5124
(dp5125
g45
(lp5126
(lp5127
S'ENSG00000168135'
p5128
aFinf
ag49
(g51
S'l\xc5\xb2z\x97<x?'
tRp5129
ag49
(g51
S'@\xe0\xbf$<*\x88?'
tRp5130
aa(lp5131
g2348
ag49
(g51
S'\x00\x00\x00\x00\x00po@'
tRp5132
ag49
(g51
S'\xd1u\xb6eT0\x88?'
tRp5133
ag49
(g51
S'\xc0u\xb6eT0\x88?'
tRp5134
aasg4
g5
((lp5135
S'ENSG00000197043'
p5136
aS'ENSG00000119632'
p5137
aS'ENSG00000134539'
p5138
aS'ENSG00000068615'
p5139
aS'ENSG00000164136'
p5140
aS'ENSG00000130768'
p5141
aS'ENSG00000143344'
p5142
aS'ENSG00000072958'
p5143
aS'ENSG00000177984'
p5144
aS'ENSG00000126062'
p5145
aS'ENSG00000146278'
p5146
aS'ENSG00000103034'
p5147
aS'ENSG00000133639'
p5148
atRp5149
ssS'sienna2'
p5150
(dp5151
g4
g5
((lp5152
S'ENSG00000099800'
p5153
aS'ENSG00000186501'
p5154
aS'ENSG00000261701'
p5155
aS'ENSG00000081842'
p5156
aS'ENSG00000149541'
p5157
aS'ENSG00000257017'
p5158
aS'ENSG00000122140'
p5159
aS'ENSG00000104915'
p5160
aS'ENSG00000075131'
p5161
aS'ENSG00000152582'
p5162
atRp5163
ssS'salmon'
p5164
(dp5165
g45
(lp5166
(lp5167
S'ENSG00000157782'
p5168
aFinf
ag49
(g51
S'C.w\xfcd(\x80?'
tRp5169
ag49
(g51
S'\xa0\x99\xb3if\xef\x9f?'
tRp5170
aa(lp5171
S'ENSG00000185437'
p5172
aFinf
ag49
(g51
S'C.w\xfcd(\x80?'
tRp5173
ag49
(g51
S'\xa0\x99\xb3if\xef\x9f?'
tRp5174
aasg4
g5
((lp5175
S'ENSG00000151806'
p5176
aS'ENSG00000188611'
p5177
aS'ENSG00000198842'
p5178
aS'ENSG00000183291'
p5179
aS'ENSG00000197530'
p5180
aS'ENSG00000146085'
p5181
aS'ENSG00000099625'
p5182
aS'ENSG00000213445'
p5183
aS'ENSG00000182272'
p5184
aS'ENSG00000197226'
p5185
aS'ENSG00000101440'
p5186
aS'ENSG00000138744'
p5187
aS'ENSG00000108106'
p5188
aS'ENSG00000177192'
p5189
aS'ENSG00000051523'
p5190
aS'ENSG00000160460'
p5191
aS'ENSG00000141994'
p5192
aS'ENSG00000115561'
p5193
aS'ENSG00000170128'
p5194
aS'ENSG00000144559'
p5195
aS'ENSG00000129968'
p5196
atRp5197
ssS'thistle4'
p5198
(dp5199
g4
g5
((lp5200
S'ENSG00000125347'
p5201
aS'ENSG00000172375'
p5202
aS'ENSG00000083454'
p5203
aS'ENSG00000168539'
p5204
aS'ENSG00000030110'
p5205
aS'ENSG00000131778'
p5206
aS'ENSG00000063015'
p5207
aS'ENSG00000118160'
p5208
aS'ENSG00000167178'
p5209
aS'ENSG00000142408'
p5210
atRp5211
ssS'palevioletred'
p5212
(dp5213
g4
g5
((lp5214
S'ENSG00000174446'
p5215
aS'ENSG00000100038'
p5216
aS'ENSG00000204572'
p5217
aS'ENSG00000163312'
p5218
aS'ENSG00000131374'
p5219
aS'ENSG00000163938'
p5220
aS'ENSG00000133466'
p5221
aS'ENSG00000163961'
p5222
aS'ENSG00000103496'
p5223
atRp5224
ssS'oldlace'
p5225
(dp5226
g4
g5
((lp5227
S'ENSG00000099984'
p5228
aS'ENSG00000132676'
p5229
aS'ENSG00000206077'
p5230
aS'ENSG00000188818'
p5231
aS'ENSG00000099974'
p5232
aS'ENSG00000133433'
p5233
aS'ENSG00000154309'
p5234
atRp5235
ssS'royalblue2'
p5236
(dp5237
g45
(lp5238
(lp5239
g203
aFinf
ag49
(g51
S'[\xfd\x94;~2\x84?'
tRp5240
ag49
(g51
S'@\xfd\x94;~2\x84?'
tRp5241
aasg4
g5
((lp5242
S'ENSG00000204653'
p5243
aS'ENSG00000132681'
p5244
aS'ENSG00000214706'
p5245
aS'ENSG00000095066'
p5246
aS'ENSG00000101246'
p5247
aS'ENSG00000109534'
p5248
aS'ENSG00000125812'
p5249
aS'ENSG00000108963'
p5250
aS'ENSG00000204859'
p5251
atRp5252
ssS'honeydew1'
p5253
(dp5254
g4
g5
((lp5255
S'ENSG00000185745'
p5256
aS'ENSG00000115415'
p5257
aS'ENSG00000123179'
p5258
aS'ENSG00000160932'
p5259
aS'ENSG00000152778'
p5260
aS'ENSG00000136514'
p5261
aS'ENSG00000138496'
p5262
aS'ENSG00000086232'
p5263
aS'ENSG00000157601'
p5264
aS'ENSG00000239332'
p5265
aS'ENSG00000108424'
p5266
aS'ENSG00000143036'
p5267
atRp5268
ssS'hotpink3'
p5269
(dp5270
g4
g5
((lp5271
S'ENSG00000164291'
p5272
aS'ENSG00000175711'
p5273
aS'ENSG00000166347'
p5274
aS'ENSG00000117480'
p5275
aS'ENSG00000152240'
p5276
aS'ENSG00000136636'
p5277
atRp5278
ssS'hotpink2'
p5279
(dp5280
g4
g5
((lp5281
S'ENSG00000204920'
p5282
aS'ENSG00000197020'
p5283
aS'ENSG00000185278'
p5284
aS'ENSG00000008018'
p5285
aS'ENSG00000182118'
p5286
atRp5287
ssS'mediumpurple2'
p5288
(dp5289
g4
g5
((lp5290
S'ENSG00000104299'
p5291
aS'ENSG00000084628'
p5292
aS'ENSG00000110844'
p5293
aS'ENSG00000116580'
p5294
aS'ENSG00000100395'
p5295
aS'ENSG00000107833'
p5296
aS'ENSG00000036549'
p5297
aS'ENSG00000125149'
p5298
aS'ENSG00000152942'
p5299
aS'ENSG00000138346'
p5300
aS'ENSG00000162144'
p5301
aS'ENSG00000155666'
p5302
atRp5303
ssS'lightgreen'
p5304
(dp5305
g45
(lp5306
(lp5307
S'ENSG00000169071'
p5308
aFinf
ag49
(g51
S'2.w\xfcd(`?'
tRp5309
ag49
(g51
S'\x80\xbe\x07\xa6\\0x?'
tRp5310
aa(lp5311
S'ENSG00000177045'
p5312
aFinf
ag49
(g51
S'2.w\xfcd(`?'
tRp5313
ag49
(g51
S'\x80\xbe\x07\xa6\\0x?'
tRp5314
aa(lp5315
S'ENSG00000138771'
p5316
aFinf
ag49
(g51
S'2.w\xfcd(`?'
tRp5317
ag49
(g51
S'\x80\xbe\x07\xa6\\0x?'
tRp5318
aasg4
g5
((lp5319
S'ENSG00000119878'
p5320
aS'ENSG00000140873'
p5321
aS'ENSG00000161542'
p5322
aS'ENSG00000104447'
p5323
aS'ENSG00000106404'
p5324
aS'ENSG00000152926'
p5325
aS'ENSG00000183346'
p5326
aS'ENSG00000170290'
p5327
aS'ENSG00000133983'
p5328
aS'ENSG00000120008'
p5329
aS'ENSG00000106603'
p5330
aS'ENSG00000152944'
p5331
aS'ENSG00000165105'
p5332
aS'ENSG00000163960'
p5333
aS'ENSG00000196151'
p5334
aS'ENSG00000197008'
p5335
aS'ENSG00000148384'
p5336
aS'ENSG00000213462'
p5337
atRp5338
ssS'mediumpurple4'
p5339
(dp5340
g4
g5
((lp5341
S'ENSG00000110075'
p5342
aS'ENSG00000161021'
p5343
aS'ENSG00000205464'
p5344
aS'ENSG00000100577'
p5345
aS'ENSG00000198633'
p5346
aS'ENSG00000132740'
p5347
aS'ENSG00000041988'
p5348
aS'ENSG00000100099'
p5349
aS'ENSG00000147905'
p5350
aS'ENSG00000137764'
p5351
aS'ENSG00000087008'
p5352
atRp5353
ssS'pink4'
p5354
(dp5355
g45
(lp5356
(lp5357
S'ENSG00000070808'
p5358
ag49
(g51
S'\x00\x00\x00\x00\x00po@'
tRp5359
ag49
(g51
S'\x91l\xb6eT0\x88?'
tRp5360
ag49
(g51
S' \xbfb?\x99\xdc\xa3?'
tRp5361
aa(lp5362
g48
ag49
(g51
S'\xab\xaa\xaa\xaa\xaa\xcaT@'
tRp5363
ag49
(g51
S'!p]\xf0\xc5\x1b\x9c?'
tRp5364
ag49
(g51
S' \xbfb?\x99\xdc\xa3?'
tRp5365
aa(lp5366
S'ENSG00000139364'
p5367
ag49
(g51
S'\x00\x00\x00\x00\x00\x80\x7f@'
tRp5368
ag49
(g51
S'\xa2\x14#\xa0N$\x80?'
tRp5369
ag49
(g51
S' \xbfb?\x99\xdc\xa3?'
tRp5370
aa(lp5371
S'ENSG00000109158'
p5372
ag49
(g51
S'\x00\x00\x00\x00\x00\x80\x7f@'
tRp5373
ag49
(g51
S'\xa2\x14#\xa0N$\x80?'
tRp5374
ag49
(g51
S' \xbfb?\x99\xdc\xa3?'
tRp5375
aa(lp5376
S'ENSG00000114948'
p5377
ag49
(g51
S'\x00\x00\x00\x00\x00po@'
tRp5378
ag49
(g51
S'\x91l\xb6eT0\x88?'
tRp5379
ag49
(g51
S' \xbfb?\x99\xdc\xa3?'
tRp5380
aasg4
g5
((lp5381
S'ENSG00000136108'
p5382
aS'ENSG00000112619'
p5383
aS'ENSG00000176155'
p5384
aS'ENSG00000104722'
p5385
aS'ENSG00000178381'
p5386
aS'ENSG00000140955'
p5387
aS'ENSG00000160299'
p5388
aS'ENSG00000143630'
p5389
aS'ENSG00000171303'
p5390
aS'ENSG00000141750'
p5391
aS'ENSG00000171903'
p5392
atRp5393
ssS'paleturquoise3'
p5394
(dp5395
g4
g5
((lp5396
S'ENSG00000155085'
p5397
aS'ENSG00000092330'
p5398
aS'ENSG00000100304'
p5399
aS'ENSG00000271303'
p5400
aS'ENSG00000100441'
p5401
aS'ENSG00000146535'
p5402
aS'ENSG00000023909'
p5403
aS'ENSG00000139899'
p5404
atRp5405
ssS'hotpink4'
p5406
(dp5407
g45
(lp5408
(lp5409
S'ENSG00000236279'
p5410
aFinf
ag49
(g51
S'2.w\xfcd(`?'
tRp5411
ag49
(g51
S'\x80\xbe\x07\xa6\\0x?'
tRp5412
aa(lp5413
S'ENSG00000177875'
p5414
aFinf
ag49
(g51
S'2.w\xfcd(`?'
tRp5415
ag49
(g51
S'\x80\xbe\x07\xa6\\0x?'
tRp5416
aa(lp5417
g2357
aFinf
ag49
(g51
S'N,w\xfcd(\x80?'
tRp5418
ag49
(g51
S'@,w\xfcd(\x80?'
tRp5419
aasg4
g5
((lp5420
S'ENSG00000117280'
p5421
aS'ENSG00000132563'
p5422
aS'ENSG00000148343'
p5423
aS'ENSG00000137877'
p5424
aS'ENSG00000139921'
p5425
aS'ENSG00000149150'
p5426
aS'ENSG00000125863'
p5427
atRp5428
ssS'khaki4'
p5429
(dp5430
g4
g5
((lp5431
S'ENSG00000144746'
p5432
aS'ENSG00000144043'
p5433
aS'ENSG00000198848'
p5434
aS'ENSG00000197774'
p5435
aS'ENSG00000183060'
p5436
aS'ENSG00000090238'
p5437
aS'ENSG00000096092'
p5438
aS'ENSG00000103479'
p5439
atRp5440
ssS'darkolivegreen4'
p5441
(dp5442
g4
g5
((lp5443
S'ENSG00000128463'
p5444
aS'ENSG00000113068'
p5445
aS'ENSG00000168653'
p5446
aS'ENSG00000128581'
p5447
aS'ENSG00000164500'
p5448
aS'ENSG00000150316'
p5449
aS'ENSG00000120860'
p5450
aS'ENSG00000254531'
p5451
aS'ENSG00000164088'
p5452
aS'ENSG00000119705'
p5453
aS'ENSG00000242485'
p5454
atRp5455
ssS'darkseagreen4'
p5456
(dp5457
g45
(lp5458
(lp5459
S'ENSG00000264672'
p5460
aFinf
ag49
(g51
S'l\xc5\xb2z\x97<x?'
tRp5461
ag49
(g51
S'`c\xbc\x84%\xe9\xa1?'
tRp5462
aa(lp5463
S'ENSG00000116675'
p5464
aFinf
ag49
(g51
S'l\xc5\xb2z\x97<x?'
tRp5465
ag49
(g51
S'`c\xbc\x84%\xe9\xa1?'
tRp5466
aa(lp5467
S'ENSG00000108821'
p5468
aFinf
ag49
(g51
S'l\xc5\xb2z\x97<x?'
tRp5469
ag49
(g51
S'`c\xbc\x84%\xe9\xa1?'
tRp5470
aasg4
g5
((lp5471
S'ENSG00000184208'
p5472
aS'ENSG00000197971'
p5473
aS'ENSG00000176623'
p5474
aS'ENSG00000100053'
p5475
aS'ENSG00000108349'
p5476
aS'ENSG00000198382'
p5477
aS'ENSG00000204947'
p5478
aS'ENSG00000069974'
p5479
aS'ENSG00000150093'
p5480
aS'ENSG00000163946'
p5481
aS'ENSG00000125817'
p5482
aS'ENSG00000176485'
p5483
atRp5484
ssS'darkolivegreen1'
p5485
(dp5486
g45
(lp5487
(lp5488
g1702
ag49
(g51
S'\x00\x00\x00\x00\x00\x80\x7f@'
tRp5489
ag49
(g51
S'\xa2\x14#\xa0N$\x80?'
tRp5490
ag49
(g51
S'\xa0{\x7f\xb0\x05\x14\x90?'
tRp5491
aa(lp5492
g3815
ag49
(g51
S'\x92$I\x92$\xc9Q@'
tRp5493
ag49
(g51
S'qv*v\xc8\x0b\xa0?'
tRp5494
ag49
(g51
S'pv*v\xc8\x0b\xa0?'
tRp5495
aasg4
g5
((lp5496
S'ENSG00000153495'
p5497
aS'ENSG00000121741'
p5498
aS'ENSG00000152049'
p5499
aS'ENSG00000163536'
p5500
aS'ENSG00000144357'
p5501
aS'ENSG00000118707'
p5502
aS'ENSG00000110446'
p5503
aS'ENSG00000167840'
p5504
aS'ENSG00000060491'
p5505
atRp5506
ssS'darkseagreen2'
p5507
(dp5508
g4
g5
((lp5509
S'ENSG00000134962'
p5510
aS'ENSG00000168843'
p5511
aS'ENSG00000091490'
p5512
aS'ENSG00000148180'
p5513
aS'ENSG00000140522'
p5514
aS'ENSG00000076258'
p5515
aS'ENSG00000145730'
p5516
aS'ENSG00000145708'
p5517
aS'ENSG00000022556'
p5518
aS'ENSG00000214491'
p5519
atRp5520
ssS'darkseagreen1'
p5521
(dp5522
g45
(lp5523
(lp5524
S'ENSG00000142875'
p5525
ag49
(g51
S'\x00\x00\x00\x00\x00\xc0T@'
tRp5526
ag49
(g51
S'\r\xef\x88Hv\xdbR?'
tRp5527
ag49
(g51
S'\x00n o+s\x87?'
tRp5528
aa(lp5529
S'ENSG00000118733'
p5530
ag49
(g51
S'\x11\x11\x11\x11\x11\x91P@'
tRp5531
ag49
(g51
S"!>\x95'\x93KZ?"
tRp5532
ag49
(g51
S"\x00\x9a\xd8'\x96d\x8d?"
tRp5533
aasg4
g5
((lp5534
S'ENSG00000134954'
p5535
aS'ENSG00000114544'
p5536
aS'ENSG00000156787'
p5537
aS'ENSG00000185551'
p5538
aS'ENSG00000181826'
p5539
aS'ENSG00000241978'
p5540
aS'ENSG00000152670'
p5541
aS'ENSG00000137962'
p5542
aS'ENSG00000177370'
p5543
atRp5544
ssS'darkolivegreen2'
p5545
(dp5546
g4
g5
((lp5547
S'ENSG00000175931'
p5548
aS'ENSG00000237765'
p5549
aS'ENSG00000121940'
p5550
aS'ENSG00000133661'
p5551
aS'ENSG00000179979'
p5552
aS'ENSG00000177465'
p5553
aS'ENSG00000141295'
p5554
aS'ENSG00000177352'
p5555
aS'ENSG00000163945'
p5556
aS'ENSG00000180357'
p5557
atRp5558
ssS'lavenderblush'
p5559
(dp5560
g4
g5
((lp5561
S'ENSG00000196378'
p5562
aS'ENSG00000174792'
p5563
aS'ENSG00000110169'
p5564
aS'ENSG00000238243'
p5565
aS'ENSG00000173918'
p5566
aS'ENSG00000186891'
p5567
aS'ENSG00000070731'
p5568
aS'ENSG00000006740'
p5569
aS'ENSG00000111077'
p5570
atRp5571
ssS'lightyellow4'
p5572
(dp5573
g4
g5
((lp5574
S'ENSG00000154803'
p5575
aS'ENSG00000171469'
p5576
aS'ENSG00000161010'
p5577
aS'ENSG00000002016'
p5578
aS'ENSG00000136122'
p5579
aS'ENSG00000102858'
p5580
atRp5581
ssS'salmon2'
p5582
(dp5583
g4
g5
((lp5584
S'ENSG00000141519'
p5585
aS'ENSG00000213402'
p5586
aS'ENSG00000168079'
p5587
aS'ENSG00000163931'
p5588
aS'ENSG00000197846'
p5589
aS'ENSG00000046604'
p5590
aS'ENSG00000084207'
p5591
aS'ENSG00000166250'
p5592
aS'ENSG00000031691'
p5593
aS'ENSG00000181019'
p5594
aS'ENSG00000134905'
p5595
atRp5596
ssS'salmon4'
p5597
(dp5598
g45
(lp5599
(lp5600
S'ENSG00000171130'
p5601
ag49
(g51
S'\x00\x00\x00\x00\x00po@'
tRp5602
ag49
(g51
S'\xd1u\xb6eT0\x88?'
tRp5603
ag49
(g51
S'\xe02\x89\xd6\xc2\x0b\x98?'
tRp5604
aa(lp5605
g2418
ag49
(g51
S'33333\xf3H@'
tRp5606
ag49
(g51
S'\xfc\r\xd0!\x95\xff\xa1?'
tRp5607
ag49
(g51
S'\x00\x0e\xd0!\x95\xff\xa1?'
tRp5608
aasg4
g5
((lp5609
S'ENSG00000174226'
p5610
aS'ENSG00000065665'
p5611
aS'ENSG00000187134'
p5612
aS'ENSG00000152527'
p5613
aS'ENSG00000163394'
p5614
aS'ENSG00000164938'
p5615
aS'ENSG00000081818'
p5616
aS'ENSG00000188011'
p5617
aS'ENSG00000157214'
p5618
aS'ENSG00000110900'
p5619
aS'ENSG00000158856'
p5620
aS'ENSG00000116991'
p5621
aS'ENSG00000136425'
p5622
atRp5623
ssS'rosybrown1'
p5624
(dp5625
g45
(lp5626
(lp5627
g1017
ag49
(g51
S'\xab\xaa\xaa\xaa\xaa\xead@'
tRp5628
ag49
(g51
S'o\xd5z\xe7!\x1c\x90?'
tRp5629
ag49
(g51
S'\xf0ch\xc3b\xc9\xa7?'
tRp5630
aa(lp5631
g1022
ag49
(g51
S'\x00\x00\x00\x00\x00\x10O@'
tRp5632
ag49
(g51
S'\xeb#\x11]\xa8\x08\xa2?'
tRp5633
ag49
(g51
S'\xf0ch\xc3b\xc9\xa7?'
tRp5634
aa(lp5635
g1027
ag49
(g51
S'\xab\xaa\xaa\xaa\xaa\xead@'
tRp5636
ag49
(g51
S'o\xd5z\xe7!\x1c\x90?'
tRp5637
ag49
(g51
S'\xf0ch\xc3b\xc9\xa7?'
tRp5638
aasg4
g5
((lp5639
S'ENSG00000113083'
p5640
aS'ENSG00000143450'
p5641
aS'ENSG00000128891'
p5642
aS'ENSG00000020922'
p5643
aS'ENSG00000166509'
p5644
aS'ENSG00000122417'
p5645
atRp5646
ssS'linen'
p5647
(dp5648
g4
g5
((lp5649
S'ENSG00000157349'
p5650
aS'ENSG00000187624'
p5651
aS'ENSG00000164010'
p5652
aS'ENSG00000136197'
p5653
aS'ENSG00000145675'
p5654
aS'ENSG00000167074'
p5655
aS'ENSG00000185271'
p5656
aS'ENSG00000141720'
p5657
atRp5658
ssS'green'
p5659
(dp5660
g4
g5
((lp5661
S'ENSG00000086205'
p5662
aS'ENSG00000115935'
p5663
aS'ENSG00000125484'
p5664
aS'ENSG00000072422'
p5665
aS'ENSG00000149089'
p5666
aS'ENSG00000008283'
p5667
aS'ENSG00000172461'
p5668
aS'ENSG00000064651'
p5669
aS'ENSG00000167641'
p5670
aS'ENSG00000154678'
p5671
aS'ENSG00000205111'
p5672
aS'ENSG00000173726'
p5673
aS'ENSG00000157978'
p5674
aS'ENSG00000133121'
p5675
aS'ENSG00000166086'
p5676
aS'ENSG00000026025'
p5677
aS'ENSG00000179178'
p5678
aS'ENSG00000166394'
p5679
aS'ENSG00000152689'
p5680
aS'ENSG00000111145'
p5681
aS'ENSG00000057704'
p5682
aS'ENSG00000182013'
p5683
aS'ENSG00000259363'
p5684
aS'ENSG00000119125'
p5685
aS'ENSG00000100731'
p5686
aS'ENSG00000198502'
p5687
atRp5688
ssS'blueviolet'
p5689
(dp5690
g45
(lp5691
(lp5692
S'ENSG00000123570'
p5693
aFinf
ag49
(g51
S';.w\xfcd(p?'
tRp5694
ag49
(g51
S'\x00.w\xfcd(p?'
tRp5695
aasg4
g5
((lp5696
S'ENSG00000013725'
p5697
aS'ENSG00000100350'
p5698
aS'ENSG00000100373'
p5699
aS'ENSG00000170439'
p5700
aS'ENSG00000160695'
p5701
aS'ENSG00000204969'
p5702
aS'ENSG00000101079'
p5703
aS'ENSG00000074590'
p5704
aS'ENSG00000100410'
p5705
aS'ENSG00000106976'
p5706
atRp5707
ssS'brown2'
p5708
(dp5709
g4
g5
((lp5710
S'ENSG00000145425'
p5711
aS'ENSG00000114942'
p5712
aS'ENSG00000184206'
p5713
aS'ENSG00000054219'
p5714
aS'ENSG00000086570'
p5715
aS'ENSG00000187688'
p5716
aS'ENSG00000112306'
p5717
aS'ENSG00000138600'
p5718
aS'ENSG00000162722'
p5719
aS'ENSG00000167553'
p5720
aS'ENSG00000120437'
p5721
atRp5722
ssS'brown3'
p5723
(dp5724
g45
(lp5725
(lp5726
g5358
aFinf
ag49
(g51
S'\xb0\xc0\xb2z\x97<x?'
tRp5727
ag49
(g51
S' \x1c\xde`\xdc\t\x94?'
tRp5728
aa(lp5729
g48
aFinf
ag49
(g51
S'\xd1\x8c\xd0\xb9\xb0F\x8c?'
tRp5730
ag49
(g51
S' \x1c\xde`\xdc\t\x94?'
tRp5731
aa(lp5732
g5367
aFinf
ag49
(g51
S'B1w\xfcd(p?'
tRp5733
ag49
(g51
S' \x1c\xde`\xdc\t\x94?'
tRp5734
aa(lp5735
g5372
aFinf
ag49
(g51
S'B1w\xfcd(p?'
tRp5736
ag49
(g51
S' \x1c\xde`\xdc\t\x94?'
tRp5737
aa(lp5738
g5377
aFinf
ag49
(g51
S'\xb0\xc0\xb2z\x97<x?'
tRp5739
ag49
(g51
S' \x1c\xde`\xdc\t\x94?'
tRp5740
aasg4
g5
((lp5741
S'ENSG00000162753'
p5742
aS'ENSG00000124191'
p5743
aS'ENSG00000198885'
p5744
aS'ENSG00000118705'
p5745
aS'ENSG00000155130'
p5746
aS'ENSG00000198482'
p5747
aS'ENSG00000231500'
p5748
aS'ENSG00000070476'
p5749
aS'ENSG00000118564'
p5750
atRp5751
ssS'brown1'
p5752
(dp5753
g4
g5
((lp5754
S'ENSG00000123453'
p5755
aS'ENSG00000205669'
p5756
aS'ENSG00000100033'
p5757
aS'ENSG00000153113'
p5758
aS'ENSG00000101400'
p5759
aS'ENSG00000176894'
p5760
aS'ENSG00000143819'
p5761
aS'ENSG00000115239'
p5762
aS'ENSG00000188199'
p5763
atRp5764
ssS'steelblue'
p5765
(dp5766
g4
g5
((lp5767
S'ENSG00000204290'
p5768
aS'ENSG00000157653'
p5769
aS'ENSG00000183067'
p5770
aS'ENSG00000099977'
p5771
aS'ENSG00000218537'
p5772
aS'ENSG00000159307'
p5773
aS'ENSG00000171236'
p5774
aS'ENSG00000143199'
p5775
aS'ENSG00000205281'
p5776
aS'ENSG00000242852'
p5777
aS'ENSG00000155926'
p5778
aS'ENSG00000103313'
p5779
aS'ENSG00000100079'
p5780
aS'ENSG00000184674'
p5781
aS'ENSG00000084676'
p5782
atRp5783
ssS'brown4'
p5784
(dp5785
g45
(lp5786
(lp5787
g3946
aFinf
ag49
(g51
S'\xb0\xc0\xb2z\x97<x?'
tRp5788
ag49
(g51
S'@\xdb\xbf$<*\x88?'
tRp5789
aa(lp5790
g946
aFinf
ag49
(g51
S'[\xfd\x94;~2\x84?'
tRp5791
ag49
(g51
S'@\xdb\xbf$<*\x88?'
tRp5792
aasg4
g5
((lp5793
S'ENSG00000196199'
p5794
aS'ENSG00000141027'
p5795
aS'ENSG00000184903'
p5796
aS'ENSG00000143157'
p5797
aS'ENSG00000187630'
p5798
aS'ENSG00000164346'
p5799
aS'ENSG00000104738'
p5800
aS'ENSG00000169925'
p5801
aS'ENSG00000106605'
p5802
aS'ENSG00000105369'
p5803
aS'ENSG00000102796'
p5804
aS'ENSG00000198520'
p5805
aS'ENSG00000198018'
p5806
atRp5807
ss.