(dp1
S'tan'
p2
(dp3
S'module_genes'
p4
c__builtin__
set
p5
((lp6
S'ENSG00000106125'
p7
aS'ENSG00000122550'
p8
aS'ENSG00000214102'
p9
aS'ENSG00000151458'
p10
aS'ENSG00000140836'
p11
aS'ENSG00000165338'
p12
aS'ENSG00000164081'
p13
aS'ENSG00000186792'
p14
aS'ENSG00000126460'
p15
aS'ENSG00000134245'
p16
aS'ENSG00000120647'
p17
aS'ENSG00000253710'
p18
aS'ENSG00000198756'
p19
aS'ENSG00000109501'
p20
aS'ENSG00000155111'
p21
aS'ENSG00000054282'
p22
aS'ENSG00000108591'
p23
aS'ENSG00000133103'
p24
aS'ENSG00000128285'
p25
aS'ENSG00000165511'
p26
aS'ENSG00000198924'
p27
aS'ENSG00000186684'
p28
aS'ENSG00000121897'
p29
aS'ENSG00000146842'
p30
aS'ENSG00000005801'
p31
aS'ENSG00000141556'
p32
aS'ENSG00000179912'
p33
aS'ENSG00000137764'
p34
aS'ENSG00000196730'
p35
aS'ENSG00000164082'
p36
atRp37
ssS'mistyrose'
p38
(dp39
S'driver_genes'
p40
(lp41
(lp42
S'ENSG00000182253'
p43
acnumpy.core.multiarray
scalar
p44
(cnumpy
dtype
p45
(S'f8'
I0
I1
tRp46
(I3
S'<'
NNNI-1
I-1
I0
tbS'\x00\x00\x00\x00\x00\x90\x88@'
tRp47
ag44
(g46
S'\x80G\x90\x00\x9a\xc0t?'
tRp48
ag44
(g46
S'\xc0\x08\x84(\xcd\xad\x99?'
tRp49
aasg4
g5
((lp50
S'ENSG00000197223'
p51
aS'ENSG00000152291'
p52
aS'ENSG00000006071'
p53
aS'ENSG00000197321'
p54
aS'ENSG00000145354'
p55
aS'ENSG00000116095'
p56
aS'ENSG00000005882'
p57
aS'ENSG00000105723'
p58
aS'ENSG00000130177'
p59
aS'ENSG00000107779'
p60
aS'ENSG00000139921'
p61
aS'ENSG00000255529'
p62
aS'ENSG00000182952'
p63
aS'ENSG00000109270'
p64
aS'ENSG00000115084'
p65
aS'ENSG00000089693'
p66
atRp67
ssS'orange4'
p68
(dp69
g4
g5
((lp70
S'ENSG00000057468'
p71
aS'ENSG00000127337'
p72
aS'ENSG00000132953'
p73
aS'ENSG00000131398'
p74
aS'ENSG00000175591'
p75
aS'ENSG00000146530'
p76
aS'ENSG00000182472'
p77
aS'ENSG00000163703'
p78
aS'ENSG00000139998'
p79
aS'ENSG00000090382'
p80
aS'ENSG00000129317'
p81
aS'ENSG00000138785'
p82
aS'ENSG00000154001'
p83
aS'ENSG00000174405'
p84
atRp85
ssS'firebrick'
p86
(dp87
g40
(lp88
(lp89
S'ENSG00000250133'
p90
aFinf
ag44
(g46
S'\x0b\xfe\xc1\x82\xf9\xc3T?'
tRp91
ag44
(g46
S'\xc0\xe4\xe6\xe3s\xac\x84?'
tRp92
aa(lp93
S'ENSG00000123364'
p94
aFinf
ag44
(g46
S'\x0b\xfe\xc1\x82\xf9\xc3T?'
tRp95
ag44
(g46
S'\xc0\xe4\xe6\xe3s\xac\x84?'
tRp96
aa(lp97
S'ENSG00000180818'
p98
aFinf
ag44
(g46
S'\x0b\xfe\xc1\x82\xf9\xc3T?'
tRp99
ag44
(g46
S'\xc0\xe4\xe6\xe3s\xac\x84?'
tRp100
aa(lp101
S'ENSG00000205426'
p102
aFinf
ag44
(g46
S'\xfa\x01\xc2\x82\xf9\xc3d?'
tRp103
ag44
(g46
S'@_\x90\x94]\xd3\x89?'
tRp104
aa(lp105
S'ENSG00000102243'
p106
aFinf
ag44
(g46
S'\xff\x05\xc2\x82\xf9\xc3t?'
tRp107
ag44
(g46
S'\xa0\xb0jy\xaf\x9b\x94?'
tRp108
aasg4
g5
((lp109
S'ENSG00000116157'
p110
aS'ENSG00000071967'
p111
aS'ENSG00000183066'
p112
aS'ENSG00000148229'
p113
aS'ENSG00000151746'
p114
aS'ENSG00000161642'
p115
aS'ENSG00000197013'
p116
aS'ENSG00000170540'
p117
aS'ENSG00000035862'
p118
aS'ENSG00000119681'
p119
aS'ENSG00000170876'
p120
aS'ENSG00000178462'
p121
aS'ENSG00000103599'
p122
aS'ENSG00000198521'
p123
atRp124
ssS'indianred'
p125
(dp126
g4
g5
((lp127
S'ENSG00000183150'
p128
aS'ENSG00000132199'
p129
aS'ENSG00000168807'
p130
aS'ENSG00000156374'
p131
aS'ENSG00000115307'
p132
aS'ENSG00000128294'
p133
aS'ENSG00000203756'
p134
aS'ENSG00000144021'
p135
aS'ENSG00000163870'
p136
aS'ENSG00000113119'
p137
aS'ENSG00000176953'
p138
aS'ENSG00000157796'
p139
aS'ENSG00000162929'
p140
atRp141
ssS'orange1'
p142
(dp143
g4
g5
((lp144
S'ENSG00000110063'
p145
aS'ENSG00000250565'
p146
aS'ENSG00000241106'
p147
aS'ENSG00000066379'
p148
aS'ENSG00000185664'
p149
aS'ENSG00000161395'
p150
aS'ENSG00000037241'
p151
aS'ENSG00000114054'
p152
aS'ENSG00000128829'
p153
aS'ENSG00000066230'
p154
atRp155
ssS'orange3'
p156
(dp157
g4
g5
((lp158
S'ENSG00000185104'
p159
aS'ENSG00000120833'
p160
aS'ENSG00000164326'
p161
aS'ENSG00000057757'
p162
aS'ENSG00000108179'
p163
aS'ENSG00000143845'
p164
aS'ENSG00000112763'
p165
aS'ENSG00000177301'
p166
aS'ENSG00000168268'
p167
aS'ENSG00000162746'
p168
aS'ENSG00000124006'
p169
aS'ENSG00000153208'
p170
aS'ENSG00000181656'
p171
atRp172
ssS'orange2'
p173
(dp174
g40
(lp175
(lp176
S'ENSG00000026751'
p177
aFinf
ag44
(g46
S'\xdb4\xa1\x8e\x11\xfc\xca>'
tRp178
ag44
(g46
S'\x00\xe0<*L\x9c\x17?'
tRp179
aa(lp180
S'ENSG00000117091'
p181
aFinf
ag44
(g46
S'\xdf\x07\xb7uPL\t?'
tRp182
ag44
(g46
S'\x00\x92\xba\xbf\xf6TU?'
tRp183
aa(lp184
S'ENSG00000145287'
p185
aFinf
ag44
(g46
S'\xdf\x07\xb7uPL\t?'
tRp186
ag44
(g46
S'\x00\x92\xba\xbf\xf6TU?'
tRp187
aa(lp188
S'ENSG00000182866'
p189
aFinf
ag44
(g46
S'\xdf\x07\xb7uPL\t?'
tRp190
ag44
(g46
S'\x00\x92\xba\xbf\xf6TU?'
tRp191
aa(lp192
S'ENSG00000197471'
p193
aFinf
ag44
(g46
S'\x96\xcd\x99\x85k\xb5\x11?'
tRp194
ag44
(g46
S'\x00\xe0\xb1\x90\xd9\x8aZ?'
tRp195
aa(lp196
S'ENSG00000168071'
p197
aFinf
ag44
(g46
S'o[u\xc0\x93[\x1e?'
tRp198
ag44
(g46
S'\x00*\xe7\x16\xb6\xcae?'
tRp199
aa(lp200
S'ENSG00000205744'
p201
aFinf
ag44
(g46
S'o[u\xc0\x93[\x1e?'
tRp202
ag44
(g46
S'\x00*\xe7\x16\xb6\xcae?'
tRp203
aa(lp204
S'ENSG00000132465'
p205
aFinf
ag44
(g46
S"Ux\x92\x16\x9f0'?"
tRp206
ag44
(g46
S'\x00g\xf8\x9e\x0bbn?'
tRp207
aa(lp208
S'ENSG00000198286'
p209
aFinf
ag44
(g46
S"Ux\x92\x16\x9f0'?"
tRp210
ag44
(g46
S'\x00g\xf8\x9e\x0bbn?'
tRp211
aa(lp212
S'ENSG00000115085'
p213
aFinf
ag44
(g46
S'\x1e%\x16\x1b\xf2\xd3+?'
tRp214
ag44
(g46
S'\x00g\xf8\x9e\x0bbn?'
tRp215
aa(lp216
S'ENSG00000198851'
p217
aFinf
ag44
(g46
S"Ux\x92\x16\x9f0'?"
tRp218
ag44
(g46
S'\x00g\xf8\x9e\x0bbn?'
tRp219
aa(lp220
S'ENSG00000163121'
p221
aFinf
ag44
(g46
S"Ux\x92\x16\x9f0'?"
tRp222
ag44
(g46
S'\x00g\xf8\x9e\x0bbn?'
tRp223
aa(lp224
S'ENSG00000110934'
p225
aFinf
ag44
(g46
S'\xc6C\xea\xb2\x9aq0?'
tRp226
ag44
(g46
S'\x80\x86/\x17\xb1ip?'
tRp227
aa(lp228
S'ENSG00000010671'
p229
aFinf
ag44
(g46
S'\xc6C\xea\xb2\x9aq0?'
tRp230
ag44
(g46
S'\x80\x86/\x17\xb1ip?'
tRp231
aa(lp232
S'ENSG00000174130'
p233
aFinf
ag44
(g46
S'\xb8.\x00g\xc6"6?'
tRp234
ag44
(g46
S'\x80\xf8=##\xc1p?'
tRp235
aa(lp236
S'ENSG00000104894'
p237
aFinf
ag44
(g46
S'\x03\x98f{4/3?'
tRp238
ag44
(g46
S'\x80\xf8=##\xc1p?'
tRp239
aa(lp240
S'ENSG00000123338'
p241
aFinf
ag44
(g46
S'\x03\x98f{4/3?'
tRp242
ag44
(g46
S'\x80\xf8=##\xc1p?'
tRp243
aa(lp244
S'ENSG00000143226'
p245
aFinf
ag44
(g46
S'\x03\x98f{4/3?'
tRp246
ag44
(g46
S'\x80\xf8=##\xc1p?'
tRp247
aa(lp248
S'ENSG00000023892'
p249
aFinf
ag44
(g46
S'\x84S>~\xa6 @?'
tRp250
ag44
(g46
S'\x00\xc0\x1e\xdbe\x1dt?'
tRp251
aa(lp252
S'ENSG00000136250'
p253
aFinf
ag44
(g46
S'T\xb2E\xba_\x06B?'
tRp254
ag44
(g46
S'\x80\t\xf8^\xc3;t?'
tRp255
aa(lp256
S'ENSG00000125637'
p257
aFinf
ag44
(g46
S'\xd3|\xb3\xd7sYH?'
tRp258
ag44
(g46
S'\x80\t\xf8^\xc3;t?'
tRp259
aa(lp260
S'ENSG00000183918'
p261
aFinf
ag44
(g46
S'+\xc4\xc5\xed\xc2\x17M?'
tRp262
ag44
(g46
S'\x80\t\xf8^\xc3;t?'
tRp263
aa(lp264
S'ENSG00000185811'
p265
aFinf
ag44
(g46
S'!a\xf5Y\x1d\xabJ?'
tRp266
ag44
(g46
S'\x80\t\xf8^\xc3;t?'
tRp267
aa(lp268
S'ENSG00000076944'
p269
aFinf
ag44
(g46
S'\x8f\x90\xdb\x07\x15\x07D?'
tRp270
ag44
(g46
S'\x80\t\xf8^\xc3;t?'
tRp271
aa(lp272
S'ENSG00000116824'
p273
aFinf
ag44
(g46
S'\xd3|\xb3\xd7sYH?'
tRp274
ag44
(g46
S'\x80\t\xf8^\xc3;t?'
tRp275
aa(lp276
S'ENSG00000081237'
p277
aFinf
ag44
(g46
S'T\xb2E\xba_\x06B?'
tRp278
ag44
(g46
S'\x80\t\xf8^\xc3;t?'
tRp279
aa(lp280
S'ENSG00000115165'
p281
ag44
(g46
S'\x00\x00\x00\x00\x00\x90\x88@'
tRp282
ag44
(g46
S'\x80G\x90\x00\x9a\xc0t?'
tRp283
ag44
(g46
S'@\xa7\xd4\xb8$\xb3\x84?'
tRp284
aa(lp285
S'ENSG00000147168'
p286
ag44
(g46
S'\x00\x00\x00\x00\x00\x90\x88@'
tRp287
ag44
(g46
S'\x80G\x90\x00\x9a\xc0t?'
tRp288
ag44
(g46
S'@\xa7\xd4\xb8$\xb3\x84?'
tRp289
aasg4
g5
((lp290
S'ENSG00000035720'
p291
aS'ENSG00000233232'
p292
aS'ENSG00000258875'
p293
aS'ENSG00000196966'
p294
aS'ENSG00000164938'
p295
aS'ENSG00000213132'
p296
aS'ENSG00000110777'
p297
aS'ENSG00000122224'
p298
aS'ENSG00000137975'
p299
aS'ENSG00000116852'
p300
aS'ENSG00000051108'
p301
atRp302
ssS'darkolivegreen'
p303
(dp304
g4
g5
((lp305
S'ENSG00000121481'
p306
aS'ENSG00000174444'
p307
aS'ENSG00000197958'
p308
aS'ENSG00000083845'
p309
aS'ENSG00000165714'
p310
aS'ENSG00000138326'
p311
aS'ENSG00000116251'
p312
aS'ENSG00000161016'
p313
aS'ENSG00000005075'
p314
aS'ENSG00000152782'
p315
aS'ENSG00000164587'
p316
aS'ENSG00000152520'
p317
aS'ENSG00000188846'
p318
aS'ENSG00000186468'
p319
aS'ENSG00000160014'
p320
aS'ENSG00000161970'
p321
aS'ENSG00000138468'
p322
aS'ENSG00000142937'
p323
aS'ENSG00000170889'
p324
aS'ENSG00000089157'
p325
aS'ENSG00000105373'
p326
aS'ENSG00000100348'
p327
aS'ENSG00000221983'
p328
atRp329
ssS'grey60'
p330
(dp331
g4
g5
((lp332
S'ENSG00000175315'
p333
aS'ENSG00000092203'
p334
aS'ENSG00000204592'
p335
aS'ENSG00000173156'
p336
aS'ENSG00000206503'
p337
aS'ENSG00000162836'
p338
aS'ENSG00000026950'
p339
aS'ENSG00000204642'
p340
aS'ENSG00000213676'
p341
aS'ENSG00000185880'
p342
aS'ENSG00000169248'
p343
aS'ENSG00000256073'
p344
aS'ENSG00000060491'
p345
aS'ENSG00000119682'
p346
aS'ENSG00000187522'
p347
aS'ENSG00000136986'
p348
aS'ENSG00000234745'
p349
aS'ENSG00000124508'
p350
aS'ENSG00000139899'
p351
aS'ENSG00000166710'
p352
aS'ENSG00000133661'
p353
aS'ENSG00000186470'
p354
aS'ENSG00000221990'
p355
aS'ENSG00000116663'
p356
aS'ENSG00000168394'
p357
aS'ENSG00000205045'
p358
aS'ENSG00000138755'
p359
atRp360
ssS'darkseagreen'
p361
(dp362
g4
g5
((lp363
S'ENSG00000140157'
p364
aS'ENSG00000106400'
p365
aS'ENSG00000112208'
p366
aS'ENSG00000175220'
p367
aS'ENSG00000187097'
p368
aS'ENSG00000108639'
p369
aS'ENSG00000113811'
p370
aS'ENSG00000064687'
p371
aS'ENSG00000214253'
p372
aS'ENSG00000187391'
p373
aS'ENSG00000039650'
p374
aS'ENSG00000198874'
p375
aS'ENSG00000112210'
p376
atRp377
ssS'mediumorchid4'
p378
(dp379
g4
g5
((lp380
S'ENSG00000259803'
p381
aS'ENSG00000129910'
p382
aS'ENSG00000153786'
p383
aS'ENSG00000158315'
p384
aS'ENSG00000013364'
p385
aS'ENSG00000125772'
p386
aS'ENSG00000182986'
p387
aS'ENSG00000165322'
p388
aS'ENSG00000112378'
p389
aS'ENSG00000182141'
p390
aS'ENSG00000188295'
p391
aS'ENSG00000125450'
p392
aS'ENSG00000186832'
p393
aS'ENSG00000125447'
p394
atRp395
ssS'pink2'
p396
(dp397
g40
(lp398
(lp399
S'ENSG00000187151'
p400
ag44
(g46
S'\x00\x00\x00\x00\x00\x90\x88@'
tRp401
ag44
(g46
S'\x80G\x90\x00\x9a\xc0t?'
tRp402
ag44
(g46
S'`\x07I\xe0Wc\xa4?'
tRp403
aa(lp404
S'ENSG00000163815'
p405
ag44
(g46
S'\x00\x00\x00\x00\x00\x90\x88@'
tRp406
ag44
(g46
S'\x80G\x90\x00\x9a\xc0t?'
tRp407
ag44
(g46
S'`\x07I\xe0Wc\xa4?'
tRp408
aa(lp409
S'ENSG00000109794'
p410
ag44
(g46
S'\x00\x00\x00\x00\x00\x90\x88@'
tRp411
ag44
(g46
S'\x80G\x90\x00\x9a\xc0t?'
tRp412
ag44
(g46
S'`\x07I\xe0Wc\xa4?'
tRp413
aasg4
g5
((lp414
S'ENSG00000167377'
p415
aS'ENSG00000134873'
p416
aS'ENSG00000124588'
p417
aS'ENSG00000143248'
p418
aS'ENSG00000112357'
p419
aS'ENSG00000168411'
p420
aS'ENSG00000138658'
p421
aS'ENSG00000101624'
p422
aS'ENSG00000161021'
p423
aS'ENSG00000116194'
p424
aS'ENSG00000142856'
p425
aS'ENSG00000072682'
p426
aS'ENSG00000110931'
p427
aS'ENSG00000183783'
p428
atRp429
ssS'green4'
p430
(dp431
g4
g5
((lp432
S'ENSG00000166562'
p433
aS'ENSG00000239264'
p434
aS'ENSG00000198270'
p435
aS'ENSG00000169223'
p436
aS'ENSG00000239713'
p437
aS'ENSG00000169220'
p438
aS'ENSG00000076662'
p439
aS'ENSG00000153789'
p440
aS'ENSG00000091490'
p441
aS'ENSG00000237693'
p442
aS'ENSG00000197168'
p443
aS'ENSG00000175354'
p444
aS'ENSG00000145882'
p445
aS'ENSG00000229453'
p446
aS'ENSG00000070081'
p447
aS'ENSG00000151233'
p448
atRp449
ssS'green1'
p450
(dp451
g4
g5
((lp452
S'ENSG00000138138'
p453
aS'ENSG00000198053'
p454
aS'ENSG00000163933'
p455
aS'ENSG00000169570'
p456
aS'ENSG00000113578'
p457
aS'ENSG00000107854'
p458
aS'ENSG00000187676'
p459
aS'ENSG00000167311'
p460
aS'ENSG00000151468'
p461
aS'ENSG00000113396'
p462
aS'ENSG00000112309'
p463
aS'ENSG00000070413'
p464
atRp465
ssS'green3'
p466
(dp467
g40
(lp468
(lp469
S'ENSG00000197321'
p470
aFinf
ag44
(g46
S'\x16\xfe\xc1\x82\xf9\xc3d?'
tRp471
ag44
(g46
S'``9UB \xa3?'
tRp472
aasg4
g5
((lp473
S'ENSG00000213024'
p474
aS'ENSG00000161847'
p475
aS'ENSG00000067798'
p476
aS'ENSG00000168826'
p477
aS'ENSG00000116580'
p478
aS'ENSG00000115816'
p479
aS'ENSG00000198160'
p480
aS'ENSG00000144736'
p481
aS'ENSG00000135119'
p482
aS'ENSG00000180185'
p483
aS'ENSG00000117523'
p484
aS'ENSG00000170523'
p485
aS'ENSG00000117222'
p486
aS'ENSG00000186891'
p487
aS'ENSG00000171903'
p488
atRp489
ssS'green2'
p490
(dp491
g40
(lp492
(lp493
S'ENSG00000165810'
p494
ag44
(g46
S'\xe48\x8e\xe38\x8ee@'
tRp495
ag44
(g46
S'\x81-\xc9\xb9\x118\x9e>'
tRp496
ag44
(g46
S'\x00\x80\x99\xba@\xf1\xf1>'
tRp497
aa(lp498
S'ENSG00000204301'
p499
ag44
(g46
S'\x13\xdaKh/\xa1\\@'
tRp500
ag44
(g46
S'\x8d\xb7\xb1\x19C|\xb9>'
tRp501
ag44
(g46
S'\x00@\x1b\xc8xw\r?'
tRp502
aa(lp503
S'ENSG00000135218'
p504
ag44
(g46
S'\x00\x00\x00\x00\x00N\x82@'
tRp505
ag44
(g46
S'\x92\xaa`G%\xb1\xbc>'
tRp506
ag44
(g46
S'\x00\x00\xa4P\x85#\x10?'
tRp507
aa(lp508
S'ENSG00000161649'
p509
ag44
(g46
S'\x00\x00\x00\x00\x00N\x82@'
tRp510
ag44
(g46
S'\x92\xaa`G%\xb1\xbc>'
tRp511
ag44
(g46
S'\x00\x00\xa4P\x85#\x10?'
tRp512
aa(lp513
S'ENSG00000125878'
p514
ag44
(g46
S'fffff\x86s@'
tRp515
ag44
(g46
S'J\x16\xb0\xfeSs*?'
tRp516
ag44
(g46
S'\x00\xc2W\xbd\xa1\x02|?'
tRp517
aa(lp518
S'ENSG00000115306'
p519
ag44
(g46
S'\xaf\xa1\xbc\x86\xf2\x1a:@'
tRp520
ag44
(g46
S'jI\xeb\xb4\x04w,?'
tRp521
ag44
(g46
S'\x80n\x88A\xaf@}?'
tRp522
aa(lp523
S'ENSG00000197279'
p524
ag44
(g46
S'm\xd6fm\xd6f9@'
tRp525
ag44
(g46
S'\x06o\x11\x19\xf1H/?'
tRp526
ag44
(g46
S'\x80_S\xe2a+\x7f?'
tRp527
aa(lp528
S'ENSG00000175161'
p529
ag44
(g46
S'\x00\x00\x00\x00\x00\xf4A@'
tRp530
ag44
(g46
S'?ds\xd5\xd7\xa09?'
tRp531
ag44
(g46
S'@r\xd2\xce\xac\xae\x88?'
tRp532
aa(lp533
S'ENSG00000065325'
p534
ag44
(g46
S'\x00\x00\x00\x00\x00\xf4A@'
tRp535
ag44
(g46
S'?ds\xd5\xd7\xa09?'
tRp536
ag44
(g46
S'@r\xd2\xce\xac\xae\x88?'
tRp537
aa(lp538
S'ENSG00000113319'
p539
ag44
(g46
S'\x00\x00\x00\x00\x00\xf4A@'
tRp540
ag44
(g46
S'?ds\xd5\xd7\xa09?'
tRp541
ag44
(g46
S'@r\xd2\xce\xac\xae\x88?'
tRp542
aasg4
g5
((lp543
S'ENSG00000174951'
p544
aS'ENSG00000170509'
p545
aS'ENSG00000165028'
p546
aS'ENSG00000103199'
p547
aS'ENSG00000125878'
p548
aS'ENSG00000138411'
p549
aS'ENSG00000145708'
p550
aS'ENSG00000087495'
p551
aS'ENSG00000137944'
p552
aS'ENSG00000137968'
p553
aS'ENSG00000117245'
p554
aS'ENSG00000141469'
p555
aS'ENSG00000171928'
p556
atRp557
ssS'darkgoldenrod4'
p558
(dp559
g4
g5
((lp560
S'ENSG00000066583'
p561
aS'ENSG00000125851'
p562
aS'ENSG00000104327'
p563
aS'ENSG00000028116'
p564
aS'ENSG00000163281'
p565
aS'ENSG00000100285'
p566
aS'ENSG00000104537'
p567
aS'ENSG00000101489'
p568
aS'ENSG00000087087'
p569
aS'ENSG00000165868'
p570
aS'ENSG00000083067'
p571
aS'ENSG00000081059'
p572
aS'ENSG00000184144'
p573
aS'ENSG00000169085'
p574
atRp575
ssS'magenta4'
p576
(dp577
g4
g5
((lp578
S'ENSG00000009830'
p579
aS'ENSG00000171105'
p580
aS'ENSG00000161267'
p581
aS'ENSG00000249915'
p582
aS'ENSG00000111328'
p583
aS'ENSG00000105607'
p584
aS'ENSG00000113812'
p585
aS'ENSG00000156398'
p586
aS'ENSG00000008382'
p587
aS'ENSG00000026103'
p588
aS'ENSG00000164024'
p589
aS'ENSG00000169738'
p590
aS'ENSG00000130921'
p591
aS'ENSG00000140396'
p592
aS'ENSG00000182568'
p593
aS'ENSG00000154222'
p594
aS'ENSG00000140521'
p595
aS'ENSG00000183463'
p596
aS'ENSG00000100991'
p597
atRp598
ssS'magenta3'
p599
(dp600
g4
g5
((lp601
S'ENSG00000169592'
p602
aS'ENSG00000104870'
p603
aS'ENSG00000011451'
p604
aS'ENSG00000141391'
p605
aS'ENSG00000174021'
p606
aS'ENSG00000115310'
p607
aS'ENSG00000096654'
p608
aS'ENSG00000166582'
p609
aS'ENSG00000171792'
p610
aS'ENSG00000196705'
p611
aS'ENSG00000162927'
p612
aS'ENSG00000103326'
p613
aS'ENSG00000178966'
p614
aS'ENSG00000197056'
p615
aS'ENSG00000105750'
p616
aS'ENSG00000173890'
p617
aS'ENSG00000105281'
p618
atRp619
ssS'darkgoldenrod1'
p620
(dp621
g40
(lp622
(lp623
S'ENSG00000185565'
p624
aFinf
ag44
(g46
S':\xfd"D\xf6%o?'
tRp625
ag44
(g46
S' \x9c\x18\x08\xe9#\x97?'
tRp626
aa(lp627
S'ENSG00000148082'
p628
aFinf
ag44
(g46
S':\xfd"D\xf6%o?'
tRp629
ag44
(g46
S' \x9c\x18\x08\xe9#\x97?'
tRp630
aa(lp631
S'ENSG00000159166'
p632
ag44
(g46
S'\x00\x00\x00\x00\x00\x88x@'
tRp633
ag44
(g46
S'\x1a\x95\x8d\xbd\xd7\x1b\x7f?'
tRp634
ag44
(g46
S'`\x8ba\xff\x92\xc1\x9e?'
tRp635
aa(lp636
S'ENSG00000100170'
p637
ag44
(g46
S'\x00\x00\x00\x00\x00\x80h@'
tRp638
ag44
(g46
S' \xa7\x8e\x8eLM\x87?'
tRp639
ag44
(g46
S'@\xe7\x1bMCG\xa1?'
tRp640
aasg4
g5
((lp641
S'ENSG00000167693'
p642
aS'ENSG00000188612'
p643
aS'ENSG00000213465'
p644
aS'ENSG00000182923'
p645
aS'ENSG00000096006'
p646
aS'ENSG00000105568'
p647
aS'ENSG00000187094'
p648
aS'ENSG00000101400'
p649
aS'ENSG00000122477'
p650
aS'ENSG00000175287'
p651
aS'ENSG00000129055'
p652
atRp653
ssS'magenta1'
p654
(dp655
g4
g5
((lp656
S'ENSG00000178852'
p657
aS'ENSG00000256812'
p658
aS'ENSG00000147813'
p659
aS'ENSG00000139625'
p660
aS'ENSG00000113073'
p661
aS'ENSG00000179477'
p662
aS'ENSG00000164331'
p663
aS'ENSG00000256660'
p664
aS'ENSG00000113360'
p665
aS'ENSG00000116032'
p666
aS'ENSG00000259207'
p667
aS'ENSG00000140104'
p668
aS'ENSG00000172322'
p669
atRp670
ssS'darkgoldenrod3'
p671
(dp672
g4
g5
((lp673
S'ENSG00000144214'
p674
aS'ENSG00000180953'
p675
aS'ENSG00000166997'
p676
aS'ENSG00000143374'
p677
aS'ENSG00000151640'
p678
aS'ENSG00000180481'
p679
aS'ENSG00000101353'
p680
aS'ENSG00000198892'
p681
aS'ENSG00000101079'
p682
aS'ENSG00000159082'
p683
aS'ENSG00000158079'
p684
aS'ENSG00000099330'
p685
aS'ENSG00000164885'
p686
atRp687
ssS'skyblue3'
p688
(dp689
g4
g5
((lp690
S'ENSG00000133460'
p691
aS'ENSG00000132670'
p692
aS'ENSG00000203791'
p693
aS'ENSG00000240654'
p694
aS'ENSG00000113719'
p695
aS'ENSG00000084072'
p696
aS'ENSG00000254999'
p697
aS'ENSG00000172986'
p698
aS'ENSG00000168734'
p699
aS'ENSG00000122674'
p700
aS'ENSG00000151465'
p701
aS'ENSG00000119446'
p702
aS'ENSG00000152583'
p703
aS'ENSG00000154856'
p704
aS'ENSG00000106077'
p705
aS'ENSG00000159658'
p706
aS'ENSG00000175348'
p707
aS'ENSG00000139505'
p708
aS'ENSG00000096996'
p709
aS'ENSG00000166454'
p710
aS'ENSG00000180398'
p711
aS'ENSG00000175582'
p712
aS'ENSG00000163812'
p713
atRp714
ssS'black'
p715
(dp716
g40
(lp717
(lp718
g205
ag44
(g46
S'\x9a\xa6i\x9a\xa6iH@'
tRp719
ag44
(g46
S'H\\@\xe1:\xf2\xec>'
tRp720
ag44
(g46
S'\x00\x9cR\x86\x05\xe5C?'
tRp721
aa(lp722
g217
ag44
(g46
S'\x9a\xa6i\x9a\xa6iH@'
tRp723
ag44
(g46
S'H\\@\xe1:\xf2\xec>'
tRp724
ag44
(g46
S'\x00\x9cR\x86\x05\xe5C?'
tRp725
aa(lp726
g213
ag44
(g46
S'UUUUUUE@'
tRp727
ag44
(g46
S'\xf1(\xbe u\x82\xf5>'
tRp728
ag44
(g46
S'\x00\xd4\x11\xe9/8L?'
tRp729
aa(lp730
g233
ag44
(g46
S'\xe9\xa2\x8b.\xba\xe8>@'
tRp731
ag44
(g46
S'\xfb\xee*\xaf\xff\xd7\x0c?'
tRp732
ag44
(g46
S'\x00o\xc6O,ub?'
tRp733
aa(lp734
g193
ag44
(g46
S'33333\xf3L@'
tRp735
ag44
(g46
S'\x92\xb6\rc>\xf7\x1e?'
tRp736
ag44
(g46
S'\x00%\xfb\xc4!Os?'
tRp737
aa(lp738
g253
ag44
(g46
S'\xc5\xa8\xe1oS\x8c6@'
tRp739
ag44
(g46
S'\x0b,\x91\x90\x93\xba#?'
tRp740
ag44
(g46
S'\x807\xc6\xb0\xd1\xf9w?'
tRp741
aa(lp742
g277
ag44
(g46
S'\xc5\xa8\xe1oS\x8c6@'
tRp743
ag44
(g46
S'\x0b,\x91\x90\x93\xba#?'
tRp744
ag44
(g46
S'\x807\xc6\xb0\xd1\xf9w?'
tRp745
aa(lp746
g197
ag44
(g46
S'\x00\x00\x00\x00\x00@C@'
tRp747
ag44
(g46
S'\xa8 \xf5(\xdc92?'
tRp748
ag44
(g46
S'\xc0\x91R\xf2!\xd4\x84?'
tRp749
aa(lp750
g201
ag44
(g46
S'\x00\x00\x00\x00\x00@C@'
tRp751
ag44
(g46
S'\xa8 \xf5(\xdc92?'
tRp752
ag44
(g46
S'\xc0\x91R\xf2!\xd4\x84?'
tRp753
aa(lp754
g273
ag44
(g46
S' \x16)\x03O\xb72@'
tRp755
ag44
(g46
S'xs\xace\x8b\x1a2?'
tRp756
ag44
(g46
S'\xc0\x91R\xf2!\xd4\x84?'
tRp757
aa(lp758
g265
ag44
(g46
S'R[Im%\xb51@'
tRp759
ag44
(g46
S'\xf6k[C)\xb65?'
tRp760
ag44
(g46
S'\x80\x16\x8e\xe0`\xf1\x86?'
tRp761
aa(lp762
g261
ag44
(g46
S'\xcd\xcc\xcc\xcc\xcc\xcc0@'
tRp763
ag44
(g46
S'\xbd\xc506\xd7\xcf9?'
tRp764
ag44
(g46
S'\x00\x01\xfa^\x91s\x8a?'
tRp765
aa(lp766
g209
ag44
(g46
S'\xcd\xcc\xcc\xcc\xcc\xcc<@'
tRp767
ag44
(g46
S'{\xc0\xe7\x82L\x8fA?'
tRp768
ag44
(g46
S'\xe0S\xa8\xd5(j\x91?'
tRp769
aa(lp770
g221
ag44
(g46
S'\xcd\xcc\xcc\xcc\xcc\xcc<@'
tRp771
ag44
(g46
S'{\xc0\xe7\x82L\x8fA?'
tRp772
ag44
(g46
S'\xe0S\xa8\xd5(j\x91?'
tRp773
aa(lp774
g225
ag44
(g46
S'{\x14\xaeG\xe1\xfa6@'
tRp775
ag44
(g46
S'\xfcp\xbc\xdfg\xdbM?'
tRp776
ag44
(g46
S'\xe0\xdb\xcf\x1a\xd2\x9f\x9b?'
tRp777
aa(lp778
g229
ag44
(g46
S'{\x14\xaeG\xe1\xfa6@'
tRp779
ag44
(g46
S'\xfcp\xbc\xdfg\xdbM?'
tRp780
ag44
(g46
S'\xe0\xdb\xcf\x1a\xd2\x9f\x9b?'
tRp781
aa(lp782
g237
ag44
(g46
S']t\xd1E\x17\xdd4@'
tRp783
ag44
(g46
S'K}u\xc7g\xd1R?'
tRp784
ag44
(g46
S"\x80R\xbb'\x846\xa0?"
tRp785
aa(lp786
g241
ag44
(g46
S']t\xd1E\x17\xdd4@'
tRp787
ag44
(g46
S'K}u\xc7g\xd1R?'
tRp788
ag44
(g46
S"\x80R\xbb'\x846\xa0?"
tRp789
aa(lp790
g245
ag44
(g46
S']t\xd1E\x17\xdd4@'
tRp791
ag44
(g46
S'K}u\xc7g\xd1R?'
tRp792
ag44
(g46
S"\x80R\xbb'\x846\xa0?"
tRp793
aasg4
g5
((lp794
S'ENSG00000172575'
p795
aS'ENSG00000075884'
p796
aS'ENSG00000158717'
p797
aS'ENSG00000107742'
p798
aS'ENSG00000167895'
p799
aS'ENSG00000166501'
p800
aS'ENSG00000136490'
p801
aS'ENSG00000196199'
p802
aS'ENSG00000213402'
p803
aS'ENSG00000185697'
p804
aS'ENSG00000110203'
p805
aS'ENSG00000096968'
p806
aS'ENSG00000115085'
p807
aS'ENSG00000173200'
p808
aS'ENSG00000159202'
p809
aS'ENSG00000182866'
p810
aS'ENSG00000104894'
p811
aS'ENSG00000073861'
p812
aS'ENSG00000127152'
p813
aS'ENSG00000172543'
p814
aS'ENSG00000114948'
p815
aS'ENSG00000127952'
p816
aS'ENSG00000037757'
p817
aS'ENSG00000150637'
p818
aS'ENSG00000141127'
p819
aS'ENSG00000112799'
p820
aS'ENSG00000104976'
p821
aS'ENSG00000198945'
p822
aS'ENSG00000089012'
p823
aS'ENSG00000138964'
p824
aS'ENSG00000117090'
p825
aS'ENSG00000152969'
p826
aS'ENSG00000127824'
p827
atRp828
ssS'mediumorchid3'
p829
(dp830
g4
g5
((lp831
S'ENSG00000174446'
p832
aS'ENSG00000123545'
p833
aS'ENSG00000143093'
p834
aS'ENSG00000198633'
p835
aS'ENSG00000178075'
p836
aS'ENSG00000136104'
p837
aS'ENSG00000187068'
p838
aS'ENSG00000026652'
p839
aS'ENSG00000059122'
p840
aS'ENSG00000137575'
p841
aS'ENSG00000177981'
p842
aS'ENSG00000103811'
p843
aS'ENSG00000184677'
p844
atRp845
ssS'yellow2'
p846
(dp847
g4
g5
((lp848
S'ENSG00000100249'
p849
aS'ENSG00000164048'
p850
aS'ENSG00000106003'
p851
aS'ENSG00000137198'
p852
aS'ENSG00000164045'
p853
aS'ENSG00000132017'
p854
aS'ENSG00000160271'
p855
aS'ENSG00000166965'
p856
aS'ENSG00000152254'
p857
aS'ENSG00000140525'
p858
aS'ENSG00000139618'
p859
aS'ENSG00000163959'
p860
aS'ENSG00000181350'
p861
aS'ENSG00000132406'
p862
aS'ENSG00000134905'
p863
aS'ENSG00000214871'
p864
atRp865
ssS'orange'
p866
(dp867
g4
g5
((lp868
S'ENSG00000115421'
p869
aS'ENSG00000196642'
p870
aS'ENSG00000134874'
p871
aS'ENSG00000006652'
p872
aS'ENSG00000197912'
p873
aS'ENSG00000183741'
p874
aS'ENSG00000146830'
p875
aS'ENSG00000146386'
p876
aS'ENSG00000119707'
p877
aS'ENSG00000180104'
p878
aS'ENSG00000120837'
p879
aS'ENSG00000173898'
p880
aS'ENSG00000258839'
p881
aS'ENSG00000167765'
p882
aS'ENSG00000196542'
p883
aS'ENSG00000154655'
p884
aS'ENSG00000103253'
p885
aS'ENSG00000206432'
p886
aS'ENSG00000149922'
p887
aS'ENSG00000145692'
p888
aS'ENSG00000205581'
p889
aS'ENSG00000112701'
p890
aS'ENSG00000135744'
p891
aS'ENSG00000103249'
p892
aS'ENSG00000103245'
p893
atRp894
ssS'mediumorchid2'
p895
(dp896
g4
g5
((lp897
S'ENSG00000017797'
p898
aS'ENSG00000139697'
p899
aS'ENSG00000189269'
p900
aS'ENSG00000167646'
p901
aS'ENSG00000169903'
p902
aS'ENSG00000126231'
p903
aS'ENSG00000126581'
p904
aS'ENSG00000179195'
p905
aS'ENSG00000130270'
p906
aS'ENSG00000130560'
p907
aS'ENSG00000187860'
p908
atRp909
ssS'brown'
p910
(dp911
g40
(lp912
(lp913
S'ENSG00000081760'
p914
ag44
(g46
S'\x00\x00\x00\x00\x00P\x80@'
tRp915
ag44
(g46
S"\x84\x92\x05'\xdb;\x19?"
tRp916
ag44
(g46
S'\x00X\xd8Y\x88\xe7b?'
tRp917
aa(lp918
S'ENSG00000169710'
p919
ag44
(g46
S'\x00\x00\x00\x00\x00P\x80@'
tRp920
ag44
(g46
S"\x84\x92\x05'\xdb;\x19?"
tRp921
ag44
(g46
S'\x00X\xd8Y\x88\xe7b?'
tRp922
aa(lp923
S'ENSG00000119927'
p924
ag44
(g46
S'\x00\x00\x00\x00\x00P\x80@'
tRp925
ag44
(g46
S"\x84\x92\x05'\xdb;\x19?"
tRp926
ag44
(g46
S'\x00X\xd8Y\x88\xe7b?'
tRp927
aa(lp928
S'ENSG00000134962'
p929
ag44
(g46
S'\xab\xaa\xaa\xaa\xaaJp@'
tRp930
ag44
(g46
S'\x04"\xbd\xe2m+)?'
tRp931
ag44
(g46
S'\x00@%\xeec|p?'
tRp932
aa(lp933
S'ENSG00000130173'
p934
ag44
(g46
S'\xab\xaa\xaa\xaa\xaaJp@'
tRp935
ag44
(g46
S'\x04"\xbd\xe2m+)?'
tRp936
ag44
(g46
S'\x00@%\xeec|p?'
tRp937
aa(lp938
S'ENSG00000100075'
p939
ag44
(g46
S'\x1c\xc7q\x1c\xc7\xb1e@'
tRp940
ag44
(g46
S'0\xfa\xf8\x8a\xdc\xeb4?'
tRp941
ag44
(g46
S'\x00g_g\xd8\xc5x?'
tRp942
aa(lp943
S'ENSG00000167588'
p944
ag44
(g46
S'\x1c\xc7q\x1c\xc7\xb1e@'
tRp945
ag44
(g46
S'0\xfa\xf8\x8a\xdc\xeb4?'
tRp946
ag44
(g46
S'\x00g_g\xd8\xc5x?'
tRp947
aa(lp948
S'ENSG00000164638'
p949
ag44
(g46
S'\x1c\xc7q\x1c\xc7\xb1e@'
tRp950
ag44
(g46
S'0\xfa\xf8\x8a\xdc\xeb4?'
tRp951
ag44
(g46
S'\x00g_g\xd8\xc5x?'
tRp952
aa(lp953
S'ENSG00000062282'
p954
ag44
(g46
S'wwwww\xf7Y@'
tRp955
ag44
(g46
S'\xba\xb8rw\x0b\xdbE?'
tRp956
ag44
(g46
S'\x00\xae\xc1\xae$\xbf\x85?'
tRp957
aasg4
g5
((lp958
S'ENSG00000146085'
p959
aS'ENSG00000167100'
p960
aS'ENSG00000124613'
p961
aS'ENSG00000141294'
p962
aS'ENSG00000155876'
p963
aS'ENSG00000198911'
p964
aS'ENSG00000103485'
p965
aS'ENSG00000152404'
p966
aS'ENSG00000254521'
p967
aS'ENSG00000109084'
p968
aS'ENSG00000152527'
p969
aS'ENSG00000149485'
p970
aS'ENSG00000184786'
p971
aS'ENSG00000111011'
p972
aS'ENSG00000101425'
p973
aS'ENSG00000001630'
p974
aS'ENSG00000198765'
p975
aS'ENSG00000163904'
p976
aS'ENSG00000174327'
p977
aS'ENSG00000173727'
p978
aS'ENSG00000204920'
p979
aS'ENSG00000105499'
p980
aS'ENSG00000167113'
p981
aS'ENSG00000125124'
p982
aS'ENSG00000145217'
p983
aS'ENSG00000163466'
p984
aS'ENSG00000052802'
p985
aS'ENSG00000184992'
p986
aS'ENSG00000100344'
p987
aS'ENSG00000101574'
p988
aS'ENSG00000134824'
p989
aS'ENSG00000158161'
p990
aS'ENSG00000101557'
p991
aS'ENSG00000170903'
p992
aS'ENSG00000187688'
p993
aS'ENSG00000149292'
p994
aS'ENSG00000147439'
p995
aS'ENSG00000120437'
p996
atRp997
ssS'turquoise'
p998
(dp999
g4
g5
((lp1000
S'ENSG00000124733'
p1001
aS'ENSG00000171503'
p1002
aS'ENSG00000076344'
p1003
aS'ENSG00000149231'
p1004
aS'ENSG00000011405'
p1005
aS'ENSG00000229833'
p1006
aS'ENSG00000164405'
p1007
aS'ENSG00000172955'
p1008
aS'ENSG00000273079'
p1009
aS'ENSG00000106086'
p1010
aS'ENSG00000116990'
p1011
aS'ENSG00000175538'
p1012
aS'ENSG00000103528'
p1013
aS'ENSG00000101098'
p1014
aS'ENSG00000095002'
p1015
aS'ENSG00000196159'
p1016
aS'ENSG00000176340'
p1017
aS'ENSG00000156411'
p1018
aS'ENSG00000147684'
p1019
aS'ENSG00000173267'
p1020
aS'ENSG00000180574'
p1021
aS'ENSG00000058063'
p1022
aS'ENSG00000114904'
p1023
aS'ENSG00000186716'
p1024
aS'ENSG00000242852'
p1025
aS'ENSG00000108468'
p1026
aS'ENSG00000232237'
p1027
aS'ENSG00000226976'
p1028
aS'ENSG00000158769'
p1029
aS'ENSG00000116678'
p1030
aS'ENSG00000143028'
p1031
aS'ENSG00000150401'
p1032
aS'ENSG00000176732'
p1033
aS'ENSG00000204099'
p1034
aS'ENSG00000188895'
p1035
aS'ENSG00000175322'
p1036
aS'ENSG00000165626'
p1037
aS'ENSG00000132740'
p1038
aS'ENSG00000141759'
p1039
aS'ENSG00000090238'
p1040
aS'ENSG00000100418'
p1041
aS'ENSG00000164591'
p1042
aS'ENSG00000226742'
p1043
aS'ENSG00000153989'
p1044
aS'ENSG00000172167'
p1045
aS'ENSG00000157036'
p1046
aS'ENSG00000154252'
p1047
aS'ENSG00000224877'
p1048
aS'ENSG00000107404'
p1049
aS'ENSG00000063245'
p1050
aS'ENSG00000101004'
p1051
aS'ENSG00000116785'
p1052
aS'ENSG00000143631'
p1053
aS'ENSG00000152669'
p1054
aS'ENSG00000164951'
p1055
aS'ENSG00000099849'
p1056
aS'ENSG00000103248'
p1057
aS'ENSG00000196683'
p1058
aS'ENSG00000180992'
p1059
aS'ENSG00000109390'
p1060
aS'ENSG00000124134'
p1061
atRp1062
ssS'wheat3'
p1063
(dp1064
g4
g5
((lp1065
S'ENSG00000174788'
p1066
aS'ENSG00000169184'
p1067
aS'ENSG00000081692'
p1068
aS'ENSG00000129925'
p1069
aS'ENSG00000176209'
p1070
aS'ENSG00000163820'
p1071
aS'ENSG00000204186'
p1072
aS'ENSG00000176222'
p1073
aS'ENSG00000176915'
p1074
aS'ENSG00000183648'
p1075
aS'ENSG00000165934'
p1076
aS'ENSG00000169507'
p1077
aS'ENSG00000117533'
p1078
atRp1079
ssS'antiquewhite3'
p1080
(dp1081
g4
g5
((lp1082
S'ENSG00000129465'
p1083
aS'ENSG00000117395'
p1084
aS'ENSG00000085760'
p1085
aS'ENSG00000116704'
p1086
aS'ENSG00000078674'
p1087
aS'ENSG00000165630'
p1088
aS'ENSG00000073584'
p1089
aS'ENSG00000185187'
p1090
aS'ENSG00000140153'
p1091
aS'ENSG00000135870'
p1092
aS'ENSG00000146352'
p1093
aS'ENSG00000105254'
p1094
atRp1095
ssS'antiquewhite2'
p1096
(dp1097
g40
(lp1098
(lp1099
g632
ag44
(g46
S'\x00\x00\x00\x00\x00\x90\x88@'
tRp1100
ag44
(g46
S'\x80G\x90\x00\x9a\xc0t?'
tRp1101
ag44
(g46
S'@\xa2\xad\xfev\xe2\xa1?'
tRp1102
aa(lp1103
g637
ag44
(g46
S'\x00\x00\x00\x00\x00\x88x@'
tRp1104
ag44
(g46
S'R\x89\x8d\xbd\xd7\x1b\x7f?'
tRp1105
ag44
(g46
S'\x80\xdf\x8e|\x9d\xe4\xa6?'
tRp1106
aasg4
g5
((lp1107
S'ENSG00000113971'
p1108
aS'ENSG00000160321'
p1109
aS'ENSG00000174442'
p1110
aS'ENSG00000163293'
p1111
aS'ENSG00000196109'
p1112
aS'ENSG00000132881'
p1113
aS'ENSG00000164535'
p1114
aS'ENSG00000197134'
p1115
aS'ENSG00000163406'
p1116
aS'ENSG00000197360'
p1117
aS'ENSG00000198515'
p1118
aS'ENSG00000147364'
p1119
aS'ENSG00000258289'
p1120
aS'ENSG00000174194'
p1121
aS'ENSG00000146278'
p1122
aS'ENSG00000204305'
p1123
aS'ENSG00000147408'
p1124
aS'ENSG00000145949'
p1125
atRp1126
ssS'antiquewhite1'
p1127
(dp1128
g4
g5
((lp1129
S'ENSG00000109133'
p1130
aS'ENSG00000187678'
p1131
aS'ENSG00000143376'
p1132
aS'ENSG00000244405'
p1133
aS'ENSG00000162769'
p1134
aS'ENSG00000167578'
p1135
aS'ENSG00000184206'
p1136
aS'ENSG00000126214'
p1137
aS'ENSG00000126215'
p1138
aS'ENSG00000205281'
p1139
aS'ENSG00000184402'
p1140
aS'ENSG00000111679'
p1141
aS'ENSG00000144136'
p1142
aS'ENSG00000131669'
p1143
aS'ENSG00000116898'
p1144
aS'ENSG00000137747'
p1145
atRp1146
ssS'antiquewhite4'
p1147
(dp1148
g4
g5
((lp1149
S'ENSG00000198185'
p1150
aS'ENSG00000171471'
p1151
aS'ENSG00000087076'
p1152
aS'ENSG00000115073'
p1153
aS'ENSG00000121486'
p1154
aS'ENSG00000132313'
p1155
aS'ENSG00000166333'
p1156
aS'ENSG00000162783'
p1157
aS'ENSG00000166938'
p1158
aS'ENSG00000101751'
p1159
aS'ENSG00000166971'
p1160
aS'ENSG00000143553'
p1161
aS'ENSG00000152944'
p1162
aS'ENSG00000125753'
p1163
aS'ENSG00000124641'
p1164
aS'ENSG00000134815'
p1165
aS'ENSG00000090470'
p1166
aS'ENSG00000156990'
p1167
aS'ENSG00000171202'
p1168
aS'ENSG00000075624'
p1169
aS'ENSG00000072832'
p1170
atRp1171
ssS'indianred4'
p1172
(dp1173
g4
g5
((lp1174
S'ENSG00000174950'
p1175
aS'ENSG00000158258'
p1176
aS'ENSG00000183657'
p1177
aS'ENSG00000109163'
p1178
aS'ENSG00000119632'
p1179
aS'ENSG00000158623'
p1180
aS'ENSG00000157227'
p1181
aS'ENSG00000154258'
p1182
aS'ENSG00000167202'
p1183
aS'ENSG00000097007'
p1184
aS'ENSG00000170471'
p1185
aS'ENSG00000075651'
p1186
aS'ENSG00000109205'
p1187
aS'ENSG00000183762'
p1188
aS'ENSG00000149488'
p1189
aS'ENSG00000100968'
p1190
aS'ENSG00000116962'
p1191
aS'ENSG00000135862'
p1192
aS'ENSG00000182752'
p1193
aS'ENSG00000181027'
p1194
atRp1195
ssS'yellow'
p1196
(dp1197
g40
(lp1198
(lp1199
S'ENSG00000248441'
p1200
ag44
(g46
S'\x00\x00\x00\x00\x00P\x80@'
tRp1201
ag44
(g46
S"\x84\x92\x05'\xdb;\x19?"
tRp1202
ag44
(g46
S'\x00\x89p\xbeN(y?'
tRp1203
aa(lp1204
S'ENSG00000103710'
p1205
ag44
(g46
S'\x00\x00\x00\x00\x00P\x80@'
tRp1206
ag44
(g46
S"\x84\x92\x05'\xdb;\x19?"
tRp1207
ag44
(g46
S'\x00\x89p\xbeN(y?'
tRp1208
aa(lp1209
S'ENSG00000106511'
p1210
ag44
(g46
S'\x00\x00\x00\x00\x00P\x80@'
tRp1211
ag44
(g46
S"\x84\x92\x05'\xdb;\x19?"
tRp1212
ag44
(g46
S'\x00\x89p\xbeN(y?'
tRp1213
aa(lp1214
S'ENSG00000133392'
p1215
ag44
(g46
S'\x00\x00\x00\x00\x00P\x80@'
tRp1216
ag44
(g46
S"\x84\x92\x05'\xdb;\x19?"
tRp1217
ag44
(g46
S'\x00\x89p\xbeN(y?'
tRp1218
aa(lp1219
S'ENSG00000134369'
p1220
ag44
(g46
S'\xab\xaa\xaa\xaa\xaaJp@'
tRp1221
ag44
(g46
S'\x04"\xbd\xe2m+)?'
tRp1222
ag44
(g46
S'\x00\xc1\x9b.\x9fv\x87?'
tRp1223
aa(lp1224
S'ENSG00000221818'
p1225
ag44
(g46
S'\xab\xaa\xaa\xaa\xaaJp@'
tRp1226
ag44
(g46
S'\x04"\xbd\xe2m+)?'
tRp1227
ag44
(g46
S'\x00\xc1\x9b.\x9fv\x87?'
tRp1228
aa(lp1229
S'ENSG00000188517'
p1230
ag44
(g46
S'\xab\xaa\xaa\xaa\xaaJp@'
tRp1231
ag44
(g46
S'\x04"\xbd\xe2m+)?'
tRp1232
ag44
(g46
S'\x00\xc1\x9b.\x9fv\x87?'
tRp1233
aa(lp1234
S'ENSG00000105971'
p1235
ag44
(g46
S'\x00\x00\x00\x00\x00@`@'
tRp1236
ag44
(g46
S'+"CMVM??'
tRp1237
ag44
(g46
S" \xc3\xf7'C\x82\x9b?"
tRp1238
aa(lp1239
S'ENSG00000105974'
p1240
ag44
(g46
S'\x00\x00\x00\x00\x00@`@'
tRp1241
ag44
(g46
S'+"CMVM??'
tRp1242
ag44
(g46
S" \xc3\xf7'C\x82\x9b?"
tRp1243
aa(lp1244
S'ENSG00000142611'
p1245
ag44
(g46
S'wwwww\xf7Y@'
tRp1246
ag44
(g46
S'\xba\xb8rw\x0b\xdbE?'
tRp1247
ag44
(g46
S'@\xd8&\xf8\xa9r\xa2?'
tRp1248
aasg4
g5
((lp1249
S'ENSG00000160145'
p1250
aS'ENSG00000108465'
p1251
aS'ENSG00000206052'
p1252
aS'ENSG00000197619'
p1253
aS'ENSG00000203880'
p1254
aS'ENSG00000097021'
p1255
aS'ENSG00000161860'
p1256
aS'ENSG00000037474'
p1257
aS'ENSG00000168116'
p1258
aS'ENSG00000176124'
p1259
aS'ENSG00000164124'
p1260
aS'ENSG00000109576'
p1261
aS'ENSG00000186184'
p1262
aS'ENSG00000133739'
p1263
aS'ENSG00000162585'
p1264
aS'ENSG00000100744'
p1265
aS'ENSG00000167702'
p1266
aS'ENSG00000133107'
p1267
aS'ENSG00000103021'
p1268
aS'ENSG00000132153'
p1269
aS'ENSG00000179397'
p1270
aS'ENSG00000108947'
p1271
aS'ENSG00000161265'
p1272
aS'ENSG00000111737'
p1273
aS'ENSG00000168792'
p1274
aS'ENSG00000089847'
p1275
aS'ENSG00000122008'
p1276
aS'ENSG00000116199'
p1277
aS'ENSG00000187954'
p1278
aS'ENSG00000180881'
p1279
aS'ENSG00000165684'
p1280
aS'ENSG00000177483'
p1281
aS'ENSG00000100890'
p1282
aS'ENSG00000081277'
p1283
aS'ENSG00000250067'
p1284
aS'ENSG00000116350'
p1285
atRp1286
ssS'lightsteelblue'
p1287
(dp1288
g40
(lp1289
(lp1290
S'ENSG00000170099'
p1291
aFinf
ag44
(g46
S' YIX<\xf9"?'
tRp1292
ag44
(g46
S'\x00\xbf\xe0D\xf7\xf3b?'
tRp1293
aa(lp1294
S'ENSG00000174827'
p1295
ag44
(g46
S'\x00\x00\x00\x00\x008H@'
tRp1296
ag44
(g46
S'@e\x7f\x14tOa?'
tRp1297
ag44
(g46
S'\xc0\xf5\x19\xd00\xfb\x9f?'
tRp1298
aasg4
g5
((lp1299
S'ENSG00000167608'
p1300
aS'ENSG00000196208'
p1301
aS'ENSG00000124302'
p1302
aS'ENSG00000189298'
p1303
aS'ENSG00000198576'
p1304
aS'ENSG00000111907'
p1305
aS'ENSG00000109738'
p1306
aS'ENSG00000134755'
p1307
aS'ENSG00000214530'
p1308
aS'ENSG00000248905'
p1309
aS'ENSG00000197249'
p1310
aS'ENSG00000186314'
p1311
aS'ENSG00000056736'
p1312
aS'ENSG00000130299'
p1313
aS'ENSG00000153406'
p1314
aS'ENSG00000177697'
p1315
aS'ENSG00000140263'
p1316
aS'ENSG00000163517'
p1317
aS'ENSG00000119698'
p1318
aS'ENSG00000021488'
p1319
atRp1320
ssS'bisque4'
p1321
(dp1322
g4
g5
((lp1323
S'ENSG00000256223'
p1324
aS'ENSG00000170145'
p1325
aS'ENSG00000136048'
p1326
aS'ENSG00000161800'
p1327
aS'ENSG00000119723'
p1328
aS'ENSG00000204991'
p1329
aS'ENSG00000133657'
p1330
aS'ENSG00000146054'
p1331
aS'ENSG00000149054'
p1332
aS'ENSG00000241043'
p1333
aS'ENSG00000183060'
p1334
aS'ENSG00000227124'
p1335
aS'ENSG00000007312'
p1336
aS'ENSG00000198909'
p1337
aS'ENSG00000079332'
p1338
aS'ENSG00000146859'
p1339
aS'ENSG00000008838'
p1340
aS'ENSG00000105939'
p1341
aS'ENSG00000080709'
p1342
aS'ENSG00000175970'
p1343
aS'ENSG00000187741'
p1344
aS'ENSG00000033178'
p1345
atRp1346
ssS'cyan'
p1347
(dp1348
g4
g5
((lp1349
S'ENSG00000189159'
p1350
aS'ENSG00000256269'
p1351
aS'ENSG00000126254'
p1352
aS'ENSG00000183172'
p1353
aS'ENSG00000205189'
p1354
aS'ENSG00000076685'
p1355
aS'ENSG00000135698'
p1356
aS'ENSG00000214106'
p1357
aS'ENSG00000110002'
p1358
aS'ENSG00000198951'
p1359
aS'ENSG00000204001'
p1360
aS'ENSG00000088305'
p1361
aS'ENSG00000116830'
p1362
aS'ENSG00000184508'
p1363
aS'ENSG00000072135'
p1364
aS'ENSG00000148219'
p1365
aS'ENSG00000123213'
p1366
aS'ENSG00000109854'
p1367
aS'ENSG00000115840'
p1368
aS'ENSG00000166359'
p1369
aS'ENSG00000135090'
p1370
aS'ENSG00000198589'
p1371
aS'ENSG00000099821'
p1372
aS'ENSG00000185201'
p1373
aS'ENSG00000139433'
p1374
aS'ENSG00000213347'
p1375
aS'ENSG00000112053'
p1376
aS'ENSG00000163138'
p1377
atRp1378
ssS'navajowhite3'
p1379
(dp1380
g4
g5
((lp1381
S'ENSG00000184428'
p1382
aS'ENSG00000217455'
p1383
aS'ENSG00000136059'
p1384
aS'ENSG00000163297'
p1385
aS'ENSG00000100033'
p1386
aS'ENSG00000183628'
p1387
aS'ENSG00000242441'
p1388
aS'ENSG00000122778'
p1389
aS'ENSG00000116906'
p1390
aS'ENSG00000068781'
p1391
aS'ENSG00000108666'
p1392
aS'ENSG00000122133'
p1393
aS'ENSG00000137513'
p1394
aS'ENSG00000164404'
p1395
aS'ENSG00000197054'
p1396
atRp1397
ssS'mediumorchid1'
p1398
(dp1399
g4
g5
((lp1400
S'ENSG00000113575'
p1401
aS'ENSG00000115661'
p1402
aS'ENSG00000148572'
p1403
aS'ENSG00000205212'
p1404
aS'ENSG00000040199'
p1405
aS'ENSG00000162877'
p1406
aS'ENSG00000198673'
p1407
aS'ENSG00000143771'
p1408
aS'ENSG00000182771'
p1409
atRp1410
ssS'bisque2'
p1411
(dp1412
g4
g5
((lp1413
S'ENSG00000174953'
p1414
aS'ENSG00000197768'
p1415
aS'ENSG00000171757'
p1416
aS'ENSG00000004866'
p1417
aS'ENSG00000147912'
p1418
aS'ENSG00000142794'
p1419
aS'ENSG00000108963'
p1420
aS'ENSG00000102893'
p1421
aS'ENSG00000160293'
p1422
atRp1423
ssS'bisque3'
p1424
(dp1425
g40
(lp1426
(lp1427
S'ENSG00000250295'
p1428
aFinf
ag44
(g46
S'\xfa\x01\xc2\x82\xf9\xc3d?'
tRp1429
ag44
(g46
S"\x00\xceL'\xc4\x11\x7f?"
tRp1430
aa(lp1431
S'ENSG00000246022'
p1432
aFinf
ag44
(g46
S'\xff\x05\xc2\x82\xf9\xc3t?'
tRp1433
ag44
(g46
S'@\x10\xae\xda\x7f\xb6\x84?'
tRp1434
aa(lp1435
S'ENSG00000144908'
p1436
aFinf
ag44
(g46
S'\xa3\xe1\x95\xea\xb9w\xa3?'
tRp1437
ag44
(g46
S'\xa0\xe1\x95\xea\xb9w\xa3?'
tRp1438
aasg4
g5
((lp1439
S'ENSG00000186230'
p1440
aS'ENSG00000121039'
p1441
aS'ENSG00000015133'
p1442
aS'ENSG00000166452'
p1443
aS'ENSG00000100227'
p1444
aS'ENSG00000197775'
p1445
aS'ENSG00000187630'
p1446
aS'ENSG00000108799'
p1447
aS'ENSG00000157326'
p1448
aS'ENSG00000187736'
p1449
aS'ENSG00000131795'
p1450
atRp1451
ssS'skyblue'
p1452
(dp1453
g4
g5
((lp1454
S'ENSG00000136250'
p1455
aS'ENSG00000176842'
p1456
aS'ENSG00000155085'
p1457
aS'ENSG00000173950'
p1458
aS'ENSG00000110660'
p1459
aS'ENSG00000115306'
p1460
aS'ENSG00000100997'
p1461
aS'ENSG00000160593'
p1462
aS'ENSG00000151806'
p1463
aS'ENSG00000100234'
p1464
aS'ENSG00000168779'
p1465
aS'ENSG00000197465'
p1466
aS'ENSG00000113716'
p1467
aS'ENSG00000204084'
p1468
aS'ENSG00000111796'
p1469
aS'ENSG00000107099'
p1470
aS'ENSG00000198169'
p1471
aS'ENSG00000103512'
p1472
aS'ENSG00000174080'
p1473
aS'ENSG00000183889'
p1474
aS'ENSG00000148824'
p1475
aS'ENSG00000168275'
p1476
aS'ENSG00000103226'
p1477
aS'ENSG00000105866'
p1478
atRp1479
ssS'darkturquoise'
p1480
(dp1481
g4
g5
((lp1482
S'ENSG00000170448'
p1483
aS'ENSG00000185633'
p1484
aS'ENSG00000178217'
p1485
aS'ENSG00000130595'
p1486
aS'ENSG00000128641'
p1487
aS'ENSG00000160194'
p1488
aS'ENSG00000168874'
p1489
aS'ENSG00000178175'
p1490
aS'ENSG00000224132'
p1491
aS'ENSG00000120662'
p1492
aS'ENSG00000188517'
p1493
aS'ENSG00000222040'
p1494
aS'ENSG00000106367'
p1495
aS'ENSG00000204301'
p1496
aS'ENSG00000188611'
p1497
aS'ENSG00000224383'
p1498
aS'ENSG00000108622'
p1499
aS'ENSG00000128408'
p1500
aS'ENSG00000177302'
p1501
aS'ENSG00000168903'
p1502
aS'ENSG00000090372'
p1503
aS'ENSG00000130943'
p1504
aS'ENSG00000095787'
p1505
aS'ENSG00000182851'
p1506
aS'ENSG00000161664'
p1507
atRp1508
ssS'cyan1'
p1509
(dp1510
g4
g5
((lp1511
S'ENSG00000241058'
p1512
aS'ENSG00000168101'
p1513
aS'ENSG00000054392'
p1514
aS'ENSG00000148848'
p1515
aS'ENSG00000041988'
p1516
aS'ENSG00000204977'
p1517
aS'ENSG00000197808'
p1518
aS'ENSG00000175895'
p1519
aS'ENSG00000132275'
p1520
aS'ENSG00000116117'
p1521
atRp1522
ssS'darkgreen'
p1523
(dp1524
g4
g5
((lp1525
S'ENSG00000188211'
p1526
aS'ENSG00000088280'
p1527
aS'ENSG00000110042'
p1528
aS'ENSG00000122481'
p1529
aS'ENSG00000140395'
p1530
aS'ENSG00000114698'
p1531
aS'ENSG00000139985'
p1532
aS'ENSG00000164309'
p1533
aS'ENSG00000174032'
p1534
aS'ENSG00000148700'
p1535
aS'ENSG00000162631'
p1536
aS'ENSG00000189129'
p1537
aS'ENSG00000111877'
p1538
aS'ENSG00000257008'
p1539
aS'ENSG00000157087'
p1540
aS'ENSG00000163041'
p1541
aS'ENSG00000087206'
p1542
aS'ENSG00000137265'
p1543
aS'ENSG00000173960'
p1544
aS'ENSG00000120860'
p1545
aS'ENSG00000166006'
p1546
aS'ENSG00000132570'
p1547
aS'ENSG00000169599'
p1548
aS'ENSG00000185567'
p1549
aS'ENSG00000140323'
p1550
aS'ENSG00000160229'
p1551
atRp1552
ssS'rosybrown4'
p1553
(dp1554
g40
(lp1555
(lp1556
S'ENSG00000125851'
p1557
aFinf
ag44
(g46
S'\xde\r\xc2\x82\xf9\xc3\x94?'
tRp1558
ag44
(g46
S'\xe0\r\xc2\x82\xf9\xc3\x94?'
tRp1559
aasg4
g5
((lp1560
S'ENSG00000116213'
p1561
aS'ENSG00000182077'
p1562
aS'ENSG00000127483'
p1563
aS'ENSG00000092929'
p1564
aS'ENSG00000163161'
p1565
aS'ENSG00000065413'
p1566
aS'ENSG00000182362'
p1567
aS'ENSG00000170619'
p1568
aS'ENSG00000175110'
p1569
aS'ENSG00000119787'
p1570
aS'ENSG00000100473'
p1571
aS'ENSG00000143575'
p1572
atRp1573
ssS'darkviolet'
p1574
(dp1575
g4
g5
((lp1576
S'ENSG00000179698'
p1577
aS'ENSG00000099625'
p1578
aS'ENSG00000215912'
p1579
aS'ENSG00000109113'
p1580
aS'ENSG00000120322'
p1581
aS'ENSG00000138459'
p1582
aS'ENSG00000050130'
p1583
aS'ENSG00000167920'
p1584
aS'ENSG00000103510'
p1585
aS'ENSG00000054277'
p1586
aS'ENSG00000169313'
p1587
aS'ENSG00000144401'
p1588
aS'ENSG00000205307'
p1589
aS'ENSG00000214517'
p1590
aS'ENSG00000169410'
p1591
aS'ENSG00000244509'
p1592
aS'ENSG00000213199'
p1593
aS'ENSG00000162881'
p1594
aS'ENSG00000242866'
p1595
aS'ENSG00000127364'
p1596
atRp1597
ssS'peachpuff4'
p1598
(dp1599
g4
g5
((lp1600
S'ENSG00000186432'
p1601
aS'ENSG00000136856'
p1602
aS'ENSG00000079974'
p1603
aS'ENSG00000119231'
p1604
aS'ENSG00000121653'
p1605
aS'ENSG00000144134'
p1606
aS'ENSG00000143382'
p1607
aS'ENSG00000114735'
p1608
aS'ENSG00000183665'
p1609
aS'ENSG00000167191'
p1610
atRp1611
ssS'slateblue4'
p1612
(dp1613
g4
g5
((lp1614
S'ENSG00000090432'
p1615
aS'ENSG00000114544'
p1616
aS'ENSG00000112031'
p1617
aS'ENSG00000012822'
p1618
aS'ENSG00000227500'
p1619
aS'ENSG00000131165'
p1620
aS'ENSG00000163131'
p1621
aS'ENSG00000111450'
p1622
aS'ENSG00000188807'
p1623
aS'ENSG00000114744'
p1624
atRp1625
ssS'slateblue3'
p1626
(dp1627
g4
g5
((lp1628
S'ENSG00000187122'
p1629
aS'ENSG00000038532'
p1630
aS'ENSG00000107518'
p1631
aS'ENSG00000133704'
p1632
aS'ENSG00000140955'
p1633
aS'ENSG00000103168'
p1634
aS'ENSG00000180988'
p1635
aS'ENSG00000091157'
p1636
aS'ENSG00000163536'
p1637
aS'ENSG00000134283'
p1638
aS'ENSG00000103037'
p1639
atRp1640
ssS'slateblue2'
p1641
(dp1642
g4
g5
((lp1643
S'ENSG00000182093'
p1644
aS'ENSG00000255468'
p1645
aS'ENSG00000157578'
p1646
aS'ENSG00000085415'
p1647
aS'ENSG00000174915'
p1648
aS'ENSG00000122375'
p1649
aS'ENSG00000122367'
p1650
aS'ENSG00000185499'
p1651
aS'ENSG00000185437'
p1652
aS'ENSG00000073670'
p1653
aS'ENSG00000061676'
p1654
aS'ENSG00000140416'
p1655
aS'ENSG00000145623'
p1656
atRp1657
ssS'slateblue1'
p1658
(dp1659
g40
(lp1660
(lp1661
S'ENSG00000125266'
p1662
ag44
(g46
S'\xab\xaa\xaa\xaa\xaaJp@'
tRp1663
ag44
(g46
S'\x11\x12\xbd\xe2m+)?'
tRp1664
ag44
(g46
S'\x00\xb8L\x83\xe5.\x8a?'
tRp1665
aa(lp1666
S'ENSG00000160145'
p1667
ag44
(g46
S'\x00\x00\x00\x00\x00hh@'
tRp1668
ag44
(g46
S'\xc6\xc0\x83\xca]\xd82?'
tRp1669
ag44
(g46
S'\xe0\x91u\xa4\xea@\x93?'
tRp1670
aa(lp1671
S'ENSG00000136237'
p1672
ag44
(g46
S'\x00\x00\x00\x00\x00hh@'
tRp1673
ag44
(g46
S'\xc6\xc0\x83\xca]\xd82?'
tRp1674
ag44
(g46
S'\xe0\x91u\xa4\xea@\x93?'
tRp1675
aa(lp1676
S'ENSG00000112541'
p1677
ag44
(g46
S'\x00\x00\x00\x00\x00hh@'
tRp1678
ag44
(g46
S'\xc6\xc0\x83\xca]\xd82?'
tRp1679
ag44
(g46
S'\xe0\x91u\xa4\xea@\x93?'
tRp1680
aa(lp1681
S'ENSG00000102755'
p1682
ag44
(g46
S'\x00\x00\x00\x00\x00hh@'
tRp1683
ag44
(g46
S'\xc6\xc0\x83\xca]\xd82?'
tRp1684
ag44
(g46
S'\xe0\x91u\xa4\xea@\x93?'
tRp1685
aa(lp1686
S'ENSG00000046889'
p1687
ag44
(g46
S'\x00\x00\x00\x00\x00\x80c@'
tRp1688
ag44
(g46
S'z\xb1h\xd9\xa2V:?'
tRp1689
ag44
(g46
S'\x00\xaa\xfc\x80\x804\x99?'
tRp1690
aa(lp1691
S'ENSG00000145283'
p1692
ag44
(g46
S'\x00\x00\x00\x00\x00\x80c@'
tRp1693
ag44
(g46
S'z\xb1h\xd9\xa2V:?'
tRp1694
ag44
(g46
S'\x00\xaa\xfc\x80\x804\x99?'
tRp1695
aasg4
g5
((lp1696
S'ENSG00000148935'
p1697
aS'ENSG00000173406'
p1698
aS'ENSG00000214113'
p1699
aS'ENSG00000122390'
p1700
aS'ENSG00000262621'
p1701
aS'ENSG00000260259'
p1702
aS'ENSG00000146469'
p1703
aS'ENSG00000178015'
p1704
aS'ENSG00000172938'
p1705
aS'ENSG00000090316'
p1706
aS'ENSG00000257365'
p1707
aS'ENSG00000082126'
p1708
aS'ENSG00000224982'
p1709
aS'ENSG00000145241'
p1710
atRp1711
ssS'indianred1'
p1712
(dp1713
g4
g5
((lp1714
S'ENSG00000106723'
p1715
aS'ENSG00000167103'
p1716
aS'ENSG00000112624'
p1717
aS'ENSG00000128944'
p1718
aS'ENSG00000154803'
p1719
aS'ENSG00000161180'
p1720
aS'ENSG00000198815'
p1721
aS'ENSG00000158062'
p1722
aS'ENSG00000167595'
p1723
aS'ENSG00000213648'
p1724
aS'ENSG00000167302'
p1725
aS'ENSG00000198876'
p1726
aS'ENSG00000171045'
p1727
aS'ENSG00000167193'
p1728
atRp1729
ssS'lightpink'
p1730
(dp1731
g40
(lp1732
(lp1733
S'ENSG00000206172'
p1734
ag44
(g46
S'\x00\x00\x00\x00\x00P\x80@'
tRp1735
ag44
(g46
S"\x84\x92\x05'\xdb;\x19?"
tRp1736
ag44
(g46
S'\x000o^\x8a`L?'
tRp1737
aa(lp1738
S'ENSG00000172482'
p1739
aFinf
ag44
(g46
S'\xa2}r\xe3\xf7\xf4y?'
tRp1740
ag44
(g46
S'\xd0T\x84\xb5oc\xa9?'
tRp1741
aasg4
g5
((lp1742
S'ENSG00000150672'
p1743
aS'ENSG00000188536'
p1744
aS'ENSG00000198610'
p1745
aS'ENSG00000183386'
p1746
aS'ENSG00000196565'
p1747
aS'ENSG00000138376'
p1748
aS'ENSG00000223609'
p1749
aS'ENSG00000156096'
p1750
aS'ENSG00000111906'
p1751
aS'ENSG00000166669'
p1752
aS'ENSG00000183520'
p1753
aS'ENSG00000166750'
p1754
aS'ENSG00000164253'
p1755
atRp1756
ssS'red'
p1757
(dp1758
g4
g5
((lp1759
S'ENSG00000157823'
p1760
aS'ENSG00000121988'
p1761
aS'ENSG00000123992'
p1762
aS'ENSG00000130669'
p1763
aS'ENSG00000116685'
p1764
aS'ENSG00000130159'
p1765
aS'ENSG00000203797'
p1766
aS'ENSG00000183527'
p1767
aS'ENSG00000164603'
p1768
aS'ENSG00000185298'
p1769
aS'ENSG00000151687'
p1770
aS'ENSG00000167851'
p1771
aS'ENSG00000204149'
p1772
aS'ENSG00000172748'
p1773
aS'ENSG00000105928'
p1774
aS'ENSG00000163848'
p1775
aS'ENSG00000135931'
p1776
aS'ENSG00000104611'
p1777
aS'ENSG00000181396'
p1778
aS'ENSG00000152217'
p1779
aS'ENSG00000197345'
p1780
aS'ENSG00000077585'
p1781
aS'ENSG00000164323'
p1782
aS'ENSG00000147889'
p1783
aS'ENSG00000061455'
p1784
aS'ENSG00000241553'
p1785
aS'ENSG00000091656'
p1786
aS'ENSG00000148719'
p1787
aS'ENSG00000144741'
p1788
aS'ENSG00000164031'
p1789
aS'ENSG00000167118'
p1790
aS'ENSG00000143995'
p1791
aS'ENSG00000181523'
p1792
aS'ENSG00000130517'
p1793
atRp1794
ssS'limegreen'
p1795
(dp1796
g4
g5
((lp1797
S'ENSG00000184574'
p1798
aS'ENSG00000106113'
p1799
aS'ENSG00000127561'
p1800
aS'ENSG00000117410'
p1801
aS'ENSG00000134444'
p1802
aS'ENSG00000171492'
p1803
aS'ENSG00000168242'
p1804
aS'ENSG00000133740'
p1805
aS'ENSG00000237765'
p1806
aS'ENSG00000125869'
p1807
atRp1808
ssS'darkmagenta'
p1809
(dp1810
g4
g5
((lp1811
S'ENSG00000171295'
p1812
aS'ENSG00000197971'
p1813
aS'ENSG00000137601'
p1814
aS'ENSG00000174564'
p1815
aS'ENSG00000188906'
p1816
aS'ENSG00000118961'
p1817
aS'ENSG00000186409'
p1818
aS'ENSG00000012124'
p1819
aS'ENSG00000112531'
p1820
aS'ENSG00000161714'
p1821
aS'ENSG00000196814'
p1822
aS'ENSG00000170632'
p1823
aS'ENSG00000197927'
p1824
aS'ENSG00000105559'
p1825
aS'ENSG00000013306'
p1826
aS'ENSG00000204967'
p1827
aS'ENSG00000163319'
p1828
aS'ENSG00000126266'
p1829
aS'ENSG00000148297'
p1830
aS'ENSG00000153898'
p1831
aS'ENSG00000105695'
p1832
aS'ENSG00000138593'
p1833
aS'ENSG00000114757'
p1834
atRp1835
ssS'indianred3'
p1836
(dp1837
g4
g5
((lp1838
S'ENSG00000180767'
p1839
aS'ENSG00000127241'
p1840
aS'ENSG00000106526'
p1841
aS'ENSG00000010704'
p1842
aS'ENSG00000106538'
p1843
aS'ENSG00000092094'
p1844
aS'ENSG00000054803'
p1845
aS'ENSG00000213930'
p1846
aS'ENSG00000225119'
p1847
aS'ENSG00000120519'
p1848
aS'ENSG00000106868'
p1849
aS'ENSG00000196460'
p1850
aS'ENSG00000157214'
p1851
aS'ENSG00000127399'
p1852
aS'ENSG00000185271'
p1853
aS'ENSG00000104804'
p1854
aS'ENSG00000127252'
p1855
atRp1856
ssS'plum3'
p1857
(dp1858
g4
g5
((lp1859
S'ENSG00000081721'
p1860
aS'ENSG00000205571'
p1861
aS'ENSG00000166573'
p1862
aS'ENSG00000168569'
p1863
aS'ENSG00000180855'
p1864
aS'ENSG00000142252'
p1865
aS'ENSG00000170322'
p1866
aS'ENSG00000159110'
p1867
aS'ENSG00000049449'
p1868
aS'ENSG00000240038'
p1869
aS'ENSG00000163554'
p1870
aS'ENSG00000158122'
p1871
aS'ENSG00000243646'
p1872
aS'ENSG00000249437'
p1873
aS'ENSG00000102854'
p1874
aS'ENSG00000165660'
p1875
aS'ENSG00000240857'
p1876
aS'ENSG00000115339'
p1877
aS'ENSG00000172058'
p1878
atRp1879
ssS'plum2'
p1880
(dp1881
g40
(lp1882
(lp1883
S'ENSG00000213213'
p1884
aFinf
ag44
(g46
S'\x16\xfe\xc1\x82\xf9\xc3d?'
tRp1885
ag44
(g46
S"\x00\xc8L'\xc4\x11\x7f?"
tRp1886
aa(lp1887
S'ENSG00000099769'
p1888
aFinf
ag44
(g46
S'\x16\xfe\xc1\x82\xf9\xc3d?'
tRp1889
ag44
(g46
S"\x00\xc8L'\xc4\x11\x7f?"
tRp1890
aasg4
g5
((lp1891
S'ENSG00000254852'
p1892
aS'ENSG00000130649'
p1893
aS'ENSG00000186399'
p1894
aS'ENSG00000137709'
p1895
aS'ENSG00000178115'
p1896
aS'ENSG00000129518'
p1897
aS'ENSG00000104064'
p1898
aS'ENSG00000188000'
p1899
aS'ENSG00000242384'
p1900
aS'ENSG00000104472'
p1901
aS'ENSG00000152348'
p1902
aS'ENSG00000177469'
p1903
aS'ENSG00000101181'
p1904
aS'ENSG00000204775'
p1905
aS'ENSG00000102780'
p1906
aS'ENSG00000012061'
p1907
aS'ENSG00000057019'
p1908
aS'ENSG00000205464'
p1909
aS'ENSG00000110799'
p1910
aS'ENSG00000115317'
p1911
aS'ENSG00000186532'
p1912
aS'ENSG00000105447'
p1913
atRp1914
ssS'plum1'
p1915
(dp1916
g40
(lp1917
(lp1918
g499
ag44
(g46
S'33333SS@'
tRp1919
ag44
(g46
S'\xfbK\xc6\xf4\x8a\xdd\x11?'
tRp1920
ag44
(g46
S'\x00\xa4(\x05\x05\x1f^?'
tRp1921
aasg4
g5
((lp1922
S'ENSG00000140873'
p1923
aS'ENSG00000186496'
p1924
aS'ENSG00000183038'
p1925
aS'ENSG00000165810'
p1926
aS'ENSG00000166037'
p1927
aS'ENSG00000121691'
p1928
aS'ENSG00000144895'
p1929
aS'ENSG00000143379'
p1930
aS'ENSG00000171723'
p1931
aS'ENSG00000189007'
p1932
aS'ENSG00000189433'
p1933
aS'ENSG00000133027'
p1934
aS'ENSG00000065154'
p1935
aS'ENSG00000142910'
p1936
aS'ENSG00000126458'
p1937
aS'ENSG00000116539'
p1938
aS'ENSG00000144488'
p1939
aS'ENSG00000010319'
p1940
aS'ENSG00000181315'
p1941
aS'ENSG00000137825'
p1942
aS'ENSG00000065328'
p1943
aS'ENSG00000106615'
p1944
aS'ENSG00000186452'
p1945
atRp1946
ssS'lemonchiffon4'
p1947
(dp1948
g40
(lp1949
(lp1950
S'ENSG00000100033'
p1951
ag44
(g46
S'\xb7m\xdb\xb6m\xdb[@'
tRp1952
ag44
(g46
S'\x04<e\xf3\\\xac\x94?'
tRp1953
ag44
(g46
S'\x00<e\xf3\\\xac\x94?'
tRp1954
aasg4
g5
((lp1955
S'ENSG00000049167'
p1956
aS'ENSG00000162994'
p1957
aS'ENSG00000198794'
p1958
aS'ENSG00000108448'
p1959
aS'ENSG00000141744'
p1960
aS'ENSG00000071894'
p1961
aS'ENSG00000183569'
p1962
aS'ENSG00000107443'
p1963
aS'ENSG00000142684'
p1964
atRp1965
ssS'saddlebrown'
p1966
(dp1967
g4
g5
((lp1968
S'ENSG00000161544'
p1969
aS'ENSG00000197226'
p1970
aS'ENSG00000111530'
p1971
aS'ENSG00000117569'
p1972
aS'ENSG00000105287'
p1973
aS'ENSG00000211456'
p1974
aS'ENSG00000007129'
p1975
aS'ENSG00000126217'
p1976
aS'ENSG00000074660'
p1977
aS'ENSG00000149357'
p1978
aS'ENSG00000142798'
p1979
aS'ENSG00000163219'
p1980
aS'ENSG00000130755'
p1981
aS'ENSG00000157978'
p1982
aS'ENSG00000146535'
p1983
aS'ENSG00000157833'
p1984
aS'ENSG00000175264'
p1985
aS'ENSG00000204947'
p1986
aS'ENSG00000235098'
p1987
aS'ENSG00000103966'
p1988
aS'ENSG00000090565'
p1989
aS'ENSG00000154133'
p1990
aS'ENSG00000197362'
p1991
aS'ENSG00000118308'
p1992
atRp1993
ssS'lightgoldenrodyellow'
p1994
(dp1995
g4
g5
((lp1996
S'ENSG00000003393'
p1997
aS'ENSG00000134138'
p1998
aS'ENSG00000030110'
p1999
aS'ENSG00000133937'
p2000
aS'ENSG00000135164'
p2001
aS'ENSG00000184613'
p2002
aS'ENSG00000156603'
p2003
aS'ENSG00000180376'
p2004
aS'ENSG00000142405'
p2005
aS'ENSG00000170917'
p2006
aS'ENSG00000138772'
p2007
aS'ENSG00000159079'
p2008
atRp2009
ssS'lavender'
p2010
(dp2011
g4
g5
((lp2012
S'ENSG00000150893'
p2013
aS'ENSG00000177191'
p2014
aS'ENSG00000162981'
p2015
aS'ENSG00000107020'
p2016
aS'ENSG00000069943'
p2017
aS'ENSG00000036672'
p2018
aS'ENSG00000143458'
p2019
aS'ENSG00000205362'
p2020
aS'ENSG00000125148'
p2021
aS'ENSG00000153902'
p2022
aS'ENSG00000169715'
p2023
aS'ENSG00000115107'
p2024
aS'ENSG00000173480'
p2025
atRp2026
ssS'lightgoldenrod4'
p2027
(dp2028
g4
g5
((lp2029
S'ENSG00000165502'
p2030
aS'ENSG00000099937'
p2031
aS'ENSG00000174718'
p2032
aS'ENSG00000142173'
p2033
aS'ENSG00000163576'
p2034
aS'ENSG00000099940'
p2035
aS'ENSG00000170473'
p2036
aS'ENSG00000116731'
p2037
aS'ENSG00000167333'
p2038
aS'ENSG00000163026'
p2039
atRp2040
ssS'yellowgreen'
p2041
(dp2042
g40
(lp2043
(lp2044
S'ENSG00000160180'
p2045
ag44
(g46
S'\x00\x00\x00\x00\x00Ph@'
tRp2046
ag44
(g46
S'H\xe4}\x9b\xceZ\xe5>'
tRp2047
ag44
(g46
S'\x00\xe8\xa3+iYJ?'
tRp2048
aa(lp2049
S'ENSG00000067606'
p2050
ag44
(g46
S'\xb7m\xdb\xb6m\x9bK@'
tRp2051
ag44
(g46
S'U\x0c0J\x90\x1f\x1f?'
tRp2052
ag44
(g46
S'\x00\xbd\xc7\x8f\x1b\xe1\x82?'
tRp2053
aa(lp2054
S'ENSG00000149527'
p2055
ag44
(g46
S'\x00\x00\x00\x00\x00 H@'
tRp2056
ag44
(g46
S'kr\x0bG3F%?'
tRp2057
ag44
(g46
S'\x00\x10\x8f\x915p\x89?'
tRp2058
aa(lp2059
S'ENSG00000161082'
p2060
ag44
(g46
S'\x00\x00\x00\x00\x00@C@'
tRp2061
ag44
(g46
S'\xfb\x11\xf5(\xdc92?'
tRp2062
ag44
(g46
S'`\xcdq\xacQk\x95?'
tRp2063
aasg4
g5
((lp2064
S'ENSG00000124593'
p2065
aS'ENSG00000189056'
p2066
aS'ENSG00000102452'
p2067
aS'ENSG00000153253'
p2068
aS'ENSG00000180532'
p2069
aS'ENSG00000152784'
p2070
aS'ENSG00000181778'
p2071
aS'ENSG00000125378'
p2072
aS'ENSG00000181982'
p2073
aS'ENSG00000132334'
p2074
aS'ENSG00000162913'
p2075
aS'ENSG00000122733'
p2076
aS'ENSG00000127586'
p2077
aS'ENSG00000108107'
p2078
aS'ENSG00000101224'
p2079
aS'ENSG00000141655'
p2080
aS'ENSG00000166847'
p2081
aS'ENSG00000139209'
p2082
aS'ENSG00000172061'
p2083
aS'ENSG00000157211'
p2084
aS'ENSG00000051128'
p2085
aS'ENSG00000160439'
p2086
aS'ENSG00000056661'
p2087
atRp2088
ssS'orangered1'
p2089
(dp2090
g40
(lp2091
(lp2092
S'ENSG00000173269'
p2093
aFinf
ag44
(g46
S'\xff\x05\xc2\x82\xf9\xc3t?'
tRp2094
ag44
(g46
S'@\x8f\xf9\xd3\xee\xb1\x99?'
tRp2095
aasg4
g5
((lp2096
S'ENSG00000010244'
p2097
aS'ENSG00000130714'
p2098
aS'ENSG00000163728'
p2099
aS'ENSG00000132424'
p2100
aS'ENSG00000118579'
p2101
aS'ENSG00000196648'
p2102
aS'ENSG00000108848'
p2103
aS'ENSG00000243284'
p2104
aS'ENSG00000171109'
p2105
aS'ENSG00000188004'
p2106
aS'ENSG00000214415'
p2107
aS'ENSG00000020922'
p2108
aS'ENSG00000101191'
p2109
aS'ENSG00000089335'
p2110
aS'ENSG00000162613'
p2111
aS'ENSG00000214357'
p2112
aS'ENSG00000162910'
p2113
atRp2114
ssS'lightgoldenrod3'
p2115
(dp2116
g4
g5
((lp2117
S'ENSG00000005981'
p2118
aS'ENSG00000105852'
p2119
aS'ENSG00000156253'
p2120
aS'ENSG00000221829'
p2121
aS'ENSG00000179111'
p2122
aS'ENSG00000137563'
p2123
atRp2124
ssS'royalblue2'
p2125
(dp2126
g4
g5
((lp2127
S'ENSG00000183722'
p2128
aS'ENSG00000130202'
p2129
aS'ENSG00000129103'
p2130
aS'ENSG00000143156'
p2131
aS'ENSG00000106565'
p2132
aS'ENSG00000117519'
p2133
aS'ENSG00000197774'
p2134
aS'ENSG00000168243'
p2135
aS'ENSG00000166341'
p2136
aS'ENSG00000002933'
p2137
aS'ENSG00000111879'
p2138
aS'ENSG00000166407'
p2139
aS'ENSG00000132003'
p2140
aS'ENSG00000197165'
p2141
atRp2142
ssS'darkorchid4'
p2143
(dp2144
g40
(lp2145
(lp2146
S'ENSG00000117228'
p2147
aFinf
ag44
(g46
S'\xff\x05\xc2\x82\xf9\xc3t?'
tRp2148
ag44
(g46
S'\x00!\xcf\xe0S\xe5\xa1?'
tRp2149
aa(lp2150
S'ENSG00000177606'
p2151
aFinf
ag44
(g46
S'\xff\x05\xc2\x82\xf9\xc3t?'
tRp2152
ag44
(g46
S'\x00!\xcf\xe0S\xe5\xa1?'
tRp2153
aa(lp2154
S'ENSG00000027869'
p2155
aFinf
ag44
(g46
S'=hr\xe3\xf7\xf4y?'
tRp2156
ag44
(g46
S'\x00!\xcf\xe0S\xe5\xa1?'
tRp2157
aa(lp2158
g261
aFinf
ag44
(g46
S'\xd4\xe9"D\xf6%\x9f?'
tRp2159
ag44
(g46
S'\x00!\xcf\xe0S\xe5\xa1?'
tRp2160
aa(lp2161
S'ENSG00000162772'
p2162
aFinf
ag44
(g46
S'=hr\xe3\xf7\xf4y?'
tRp2163
ag44
(g46
S'\x00!\xcf\xe0S\xe5\xa1?'
tRp2164
aa(lp2165
S'ENSG00000101082'
p2166
aFinf
ag44
(g46
S'\xff\x05\xc2\x82\xf9\xc3t?'
tRp2167
ag44
(g46
S'\x00!\xcf\xe0S\xe5\xa1?'
tRp2168
aa(lp2169
g1951
aFinf
ag44
(g46
S'\xee\t\xc2\x82\xf9\xc3\x84?'
tRp2170
ag44
(g46
S'\x00!\xcf\xe0S\xe5\xa1?'
tRp2171
aasg4
g5
((lp2172
S'ENSG00000183426'
p2173
aS'ENSG00000205078'
p2174
aS'ENSG00000233024'
p2175
aS'ENSG00000145040'
p2176
aS'ENSG00000160200'
p2177
aS'ENSG00000103111'
p2178
aS'ENSG00000104901'
p2179
aS'ENSG00000148110'
p2180
aS'ENSG00000196943'
p2181
aS'ENSG00000183793'
p2182
atRp2183
ssS'violetred4'
p2184
(dp2185
g4
g5
((lp2186
S'ENSG00000128463'
p2187
aS'ENSG00000214872'
p2188
aS'ENSG00000204740'
p2189
aS'ENSG00000162267'
p2190
aS'ENSG00000142039'
p2191
aS'ENSG00000187479'
p2192
aS'ENSG00000136819'
p2193
aS'ENSG00000108823'
p2194
aS'ENSG00000189403'
p2195
aS'ENSG00000101365'
p2196
atRp2197
ssS'blue'
p2198
(dp2199
g4
g5
((lp2200
S'ENSG00000047056'
p2201
aS'ENSG00000133710'
p2202
aS'ENSG00000144824'
p2203
aS'ENSG00000171298'
p2204
aS'ENSG00000198912'
p2205
aS'ENSG00000149084'
p2206
aS'ENSG00000100461'
p2207
aS'ENSG00000177156'
p2208
aS'ENSG00000100504'
p2209
aS'ENSG00000185000'
p2210
aS'ENSG00000175518'
p2211
aS'ENSG00000040275'
p2212
aS'ENSG00000111254'
p2213
aS'ENSG00000106771'
p2214
aS'ENSG00000178934'
p2215
aS'ENSG00000187775'
p2216
aS'ENSG00000160213'
p2217
aS'ENSG00000167644'
p2218
aS'ENSG00000100075'
p2219
aS'ENSG00000094975'
p2220
aS'ENSG00000136247'
p2221
aS'ENSG00000187446'
p2222
aS'ENSG00000166183'
p2223
aS'ENSG00000139624'
p2224
aS'ENSG00000171234'
p2225
aS'ENSG00000198089'
p2226
aS'ENSG00000196655'
p2227
aS'ENSG00000160285'
p2228
aS'ENSG00000165555'
p2229
aS'ENSG00000178896'
p2230
aS'ENSG00000091513'
p2231
aS'ENSG00000160299'
p2232
aS'ENSG00000235878'
p2233
aS'ENSG00000089327'
p2234
aS'ENSG00000058453'
p2235
aS'ENSG00000157426'
p2236
aS'ENSG00000049249'
p2237
aS'ENSG00000186766'
p2238
aS'ENSG00000160226'
p2239
aS'ENSG00000119242'
p2240
aS'ENSG00000169062'
p2241
aS'ENSG00000057294'
p2242
atRp2243
ssS'rosybrown2'
p2244
(dp2245
g4
g5
((lp2246
S'ENSG00000189042'
p2247
aS'ENSG00000143452'
p2248
aS'ENSG00000182685'
p2249
aS'ENSG00000184207'
p2250
aS'ENSG00000163935'
p2251
aS'ENSG00000051382'
p2252
aS'ENSG00000182446'
p2253
aS'ENSG00000118855'
p2254
atRp2255
ssS'honeydew'
p2256
(dp2257
g40
(lp2258
(lp2259
S'ENSG00000105894'
p2260
aFinf
ag44
(g46
S':\xfd"D\xf6%o?'
tRp2261
ag44
(g46
S'\xe0\xe2\xeb8\x14\xbd\xa8?'
tRp2262
aa(lp2263
S'ENSG00000167964'
p2264
aFinf
ag44
(g46
S':\xfd"D\xf6%o?'
tRp2265
ag44
(g46
S'\xe0\xe2\xeb8\x14\xbd\xa8?'
tRp2266
aasg4
g5
((lp2267
S'ENSG00000249087'
p2268
aS'ENSG00000180884'
p2269
aS'ENSG00000183281'
p2270
aS'ENSG00000131626'
p2271
aS'ENSG00000168824'
p2272
aS'ENSG00000162402'
p2273
aS'ENSG00000242110'
p2274
aS'ENSG00000005884'
p2275
aS'ENSG00000242220'
p2276
aS'ENSG00000175334'
p2277
aS'ENSG00000125945'
p2278
aS'ENSG00000108417'
p2279
aS'ENSG00000064313'
p2280
aS'ENSG00000125551'
p2281
aS'ENSG00000116675'
p2282
aS'ENSG00000137675'
p2283
aS'ENSG00000155592'
p2284
aS'ENSG00000139631'
p2285
aS'ENSG00000163807'
p2286
atRp2287
ssS'cornflowerblue'
p2288
(dp2289
g40
(lp2290
(lp2291
S'ENSG00000174804'
p2292
aFinf
ag44
(g46
S'!\xfe\xc1\x82\xf9\xc3t?'
tRp2293
ag44
(g46
S' \x9a\x92F\x9e\xe4\xa6?'
tRp2294
aasg4
g5
((lp2295
S'ENSG00000027001'
p2296
aS'ENSG00000169203'
p2297
aS'ENSG00000166435'
p2298
aS'ENSG00000168958'
p2299
aS'ENSG00000165799'
p2300
aS'ENSG00000120539'
p2301
aS'ENSG00000160282'
p2302
aS'ENSG00000159915'
p2303
aS'ENSG00000197992'
p2304
aS'ENSG00000173210'
p2305
aS'ENSG00000160284'
p2306
aS'ENSG00000186838'
p2307
aS'ENSG00000111834'
p2308
aS'ENSG00000075399'
p2309
aS'ENSG00000145416'
p2310
atRp2311
ssS'khaki3'
p2312
(dp2313
g4
g5
((lp2314
S'ENSG00000137731'
p2315
aS'ENSG00000018699'
p2316
aS'ENSG00000197614'
p2317
aS'ENSG00000113758'
p2318
aS'ENSG00000167258'
p2319
aS'ENSG00000102572'
p2320
aS'ENSG00000083828'
p2321
aS'ENSG00000181652'
p2322
aS'ENSG00000196476'
p2323
aS'ENSG00000157349'
p2324
atRp2325
ssS'purple'
p2326
(dp2327
g4
g5
((lp2328
S'ENSG00000163155'
p2329
aS'ENSG00000138303'
p2330
aS'ENSG00000128789'
p2331
aS'ENSG00000213965'
p2332
aS'ENSG00000217702'
p2333
aS'ENSG00000133835'
p2334
aS'ENSG00000108424'
p2335
aS'ENSG00000100299'
p2336
aS'ENSG00000109184'
p2337
aS'ENSG00000130638'
p2338
aS'ENSG00000189306'
p2339
aS'ENSG00000106052'
p2340
aS'ENSG00000114520'
p2341
aS'ENSG00000171121'
p2342
aS'ENSG00000164815'
p2343
aS'ENSG00000188732'
p2344
aS'ENSG00000123191'
p2345
aS'ENSG00000182218'
p2346
aS'ENSG00000082153'
p2347
aS'ENSG00000089775'
p2348
aS'ENSG00000103671'
p2349
aS'ENSG00000168259'
p2350
aS'ENSG00000181827'
p2351
aS'ENSG00000163468'
p2352
aS'ENSG00000089737'
p2353
aS'ENSG00000169180'
p2354
aS'ENSG00000155229'
p2355
aS'ENSG00000156261'
p2356
aS'ENSG00000180353'
p2357
aS'ENSG00000143776'
p2358
aS'ENSG00000154175'
p2359
aS'ENSG00000172890'
p2360
atRp2361
ssS'olivedrab4'
p2362
(dp2363
g4
g5
((lp2364
S'ENSG00000160323'
p2365
aS'ENSG00000123179'
p2366
aS'ENSG00000099949'
p2367
aS'ENSG00000254986'
p2368
aS'ENSG00000092529'
p2369
aS'ENSG00000131558'
p2370
aS'ENSG00000126070'
p2371
aS'ENSG00000151470'
p2372
aS'ENSG00000162600'
p2373
aS'ENSG00000173992'
p2374
atRp2375
ssS'wheat1'
p2376
(dp2377
g4
g5
((lp2378
S'ENSG00000171819'
p2379
aS'ENSG00000180773'
p2380
aS'ENSG00000198182'
p2381
aS'ENSG00000180340'
p2382
aS'ENSG00000175785'
p2383
aS'ENSG00000125775'
p2384
aS'ENSG00000101198'
p2385
aS'ENSG00000183798'
p2386
aS'ENSG00000064787'
p2387
aS'ENSG00000104231'
p2388
aS'ENSG00000180332'
p2389
atRp2390
ssS'palevioletred1'
p2391
(dp2392
g4
g5
((lp2393
S'ENSG00000172716'
p2394
aS'ENSG00000104419'
p2395
aS'ENSG00000168427'
p2396
aS'ENSG00000078747'
p2397
aS'ENSG00000070371'
p2398
aS'ENSG00000169967'
p2399
aS'ENSG00000162779'
p2400
aS'ENSG00000167553'
p2401
aS'ENSG00000125520'
p2402
aS'ENSG00000104783'
p2403
aS'ENSG00000165752'
p2404
aS'ENSG00000187959'
p2405
aS'ENSG00000105339'
p2406
aS'ENSG00000038002'
p2407
aS'ENSG00000069667'
p2408
aS'ENSG00000135314'
p2409
aS'ENSG00000170430'
p2410
atRp2411
ssS'palevioletred2'
p2412
(dp2413
g4
g5
((lp2414
S'ENSG00000118096'
p2415
aS'ENSG00000253598'
p2416
aS'ENSG00000108861'
p2417
aS'ENSG00000107679'
p2418
aS'ENSG00000172888'
p2419
aS'ENSG00000007168'
p2420
aS'ENSG00000135390'
p2421
aS'ENSG00000122335'
p2422
aS'ENSG00000268942'
p2423
aS'ENSG00000124198'
p2424
aS'ENSG00000135336'
p2425
aS'ENSG00000182372'
p2426
aS'ENSG00000140386'
p2427
aS'ENSG00000157259'
p2428
aS'ENSG00000206127'
p2429
aS'ENSG00000115350'
p2430
aS'ENSG00000138495'
p2431
aS'ENSG00000137038'
p2432
aS'ENSG00000170759'
p2433
atRp2434
ssS'palevioletred3'
p2435
(dp2436
g4
g5
((lp2437
S'ENSG00000168495'
p2438
aS'ENSG00000182827'
p2439
aS'ENSG00000197157'
p2440
aS'ENSG00000184840'
p2441
aS'ENSG00000157020'
p2442
aS'ENSG00000100023'
p2443
aS'ENSG00000152380'
p2444
aS'ENSG00000120805'
p2445
aS'ENSG00000176142'
p2446
aS'ENSG00000123453'
p2447
aS'ENSG00000000460'
p2448
aS'ENSG00000114354'
p2449
aS'ENSG00000253506'
p2450
aS'ENSG00000132432'
p2451
aS'ENSG00000072849'
p2452
aS'ENSG00000129946'
p2453
aS'ENSG00000172785'
p2454
aS'ENSG00000197712'
p2455
aS'ENSG00000134825'
p2456
aS'ENSG00000151834'
p2457
aS'ENSG00000090615'
p2458
atRp2459
ssS'coral3'
p2460
(dp2461
g40
(lp2462
(lp2463
S'ENSG00000197757'
p2464
ag44
(g46
S'fffff\x86s@'
tRp2465
ag44
(g46
S'J\x16\xb0\xfeSs*?'
tRp2466
ag44
(g46
S'\x80\xedj\xfc\xf9\x7fp?'
tRp2467
aasg4
g5
((lp2468
S'ENSG00000160294'
p2469
aS'ENSG00000198353'
p2470
aS'ENSG00000164506'
p2471
aS'ENSG00000166546'
p2472
aS'ENSG00000136111'
p2473
aS'ENSG00000183549'
p2474
aS'ENSG00000183032'
p2475
aS'ENSG00000135637'
p2476
aS'ENSG00000197757'
p2477
aS'ENSG00000027644'
p2478
aS'ENSG00000143702'
p2479
aS'ENSG00000267534'
p2480
aS'ENSG00000196482'
p2481
aS'ENSG00000037965'
p2482
aS'ENSG00000175029'
p2483
aS'ENSG00000203666'
p2484
aS'ENSG00000182095'
p2485
aS'ENSG00000153707'
p2486
atRp2487
ssS'coral2'
p2488
(dp2489
g40
(lp2490
(lp2491
S'ENSG00000118513'
p2492
aFinf
ag44
(g46
S'a\xa3\xca\x13w\x8d\x8c?'
tRp2493
ag44
(g46
S'`\x8f\x0e7\x06\x1e\xa5?'
tRp2494
aasg4
g5
((lp2495
S'ENSG00000142002'
p2496
aS'ENSG00000158828'
p2497
aS'ENSG00000182534'
p2498
aS'ENSG00000134265'
p2499
aS'ENSG00000170310'
p2500
aS'ENSG00000063854'
p2501
aS'ENSG00000063046'
p2502
aS'ENSG00000181240'
p2503
aS'ENSG00000133597'
p2504
aS'ENSG00000137207'
p2505
aS'ENSG00000177868'
p2506
aS'ENSG00000136783'
p2507
aS'ENSG00000108839'
p2508
aS'ENSG00000164978'
p2509
aS'ENSG00000237190'
p2510
aS'ENSG00000095485'
p2511
aS'ENSG00000154813'
p2512
aS'ENSG00000158014'
p2513
aS'ENSG00000094914'
p2514
aS'ENSG00000225362'
p2515
aS'ENSG00000154889'
p2516
atRp2517
ssS'coral1'
p2518
(dp2519
g4
g5
((lp2520
S'ENSG00000107798'
p2521
aS'ENSG00000198218'
p2522
aS'ENSG00000196378'
p2523
aS'ENSG00000205853'
p2524
aS'ENSG00000106638'
p2525
aS'ENSG00000009950'
p2526
aS'ENSG00000154957'
p2527
aS'ENSG00000111653'
p2528
aS'ENSG00000157869'
p2529
aS'ENSG00000173875'
p2530
aS'ENSG00000181894'
p2531
aS'ENSG00000158773'
p2532
aS'ENSG00000214562'
p2533
aS'ENSG00000147789'
p2534
aS'ENSG00000102870'
p2535
aS'ENSG00000163866'
p2536
aS'ENSG00000114331'
p2537
aS'ENSG00000236104'
p2538
aS'ENSG00000177669'
p2539
aS'ENSG00000146221'
p2540
aS'ENSG00000150076'
p2541
atRp2542
ssS'deepskyblue4'
p2543
(dp2544
g40
(lp2545
(lp2546
S'ENSG00000146005'
p2547
aFinf
ag44
(g46
S'\x0b\xfe\xc1\x82\xf9\xc3T?'
tRp2548
ag44
(g46
S'\xc0\xa4"3\xd4\x19\x82?'
tRp2549
aa(lp2550
S'ENSG00000067840'
p2551
aFinf
ag44
(g46
S'$\xf7"D\xf6%o?'
tRp2552
ag44
(g46
S'\xc0\x97\x18\x08\xe9#\x97?'
tRp2553
aa(lp2554
S'ENSG00000159784'
p2555
aFinf
ag44
(g46
S'$\xf7"D\xf6%o?'
tRp2556
ag44
(g46
S'\xc0\x97\x18\x08\xe9#\x97?'
tRp2557
aa(lp2558
S'ENSG00000260807'
p2559
aFinf
ag44
(g46
S'$\xf7"D\xf6%o?'
tRp2560
ag44
(g46
S'\xc0\x97\x18\x08\xe9#\x97?'
tRp2561
aa(lp2562
S'ENSG00000100146'
p2563
aFinf
ag44
(g46
S'+\xfd"D\xf6%\x7f?'
tRp2564
ag44
(g46
S'\x80\x10\xfb\x9e\x1b/\x97?'
tRp2565
aa(lp2566
g2060
aFinf
ag44
(g46
S'>\xa6=\xba:\xdf\x90?'
tRp2567
ag44
(g46
S'\xc01\xc9\xcfR\xe9\x9e?'
tRp2568
aa(lp2569
S'ENSG00000172508'
p2570
aFinf
ag44
(g46
S'\x12\x03#D\xf6%\x8f?'
tRp2571
ag44
(g46
S'\xc01\xc9\xcfR\xe9\x9e?'
tRp2572
aasg4
g5
((lp2573
S'ENSG00000125170'
p2574
aS'ENSG00000110076'
p2575
aS'ENSG00000148296'
p2576
aS'ENSG00000139977'
p2577
aS'ENSG00000169689'
p2578
aS'ENSG00000187051'
p2579
aS'ENSG00000138175'
p2580
aS'ENSG00000164219'
p2581
aS'ENSG00000007080'
p2582
aS'ENSG00000126870'
p2583
aS'ENSG00000113595'
p2584
atRp2585
ssS'rosybrown3'
p2586
(dp2587
g4
g5
((lp2588
S'ENSG00000256436'
p2589
aS'ENSG00000109794'
p2590
aS'ENSG00000183346'
p2591
aS'ENSG00000185386'
p2592
aS'ENSG00000164344'
p2593
aS'ENSG00000183137'
p2594
aS'ENSG00000188130'
p2595
aS'ENSG00000126838'
p2596
aS'ENSG00000082258'
p2597
aS'ENSG00000145476'
p2598
atRp2599
ssS'cornsilk'
p2600
(dp2601
g4
g5
((lp2602
S'ENSG00000134851'
p2603
aS'ENSG00000129467'
p2604
aS'ENSG00000165060'
p2605
aS'ENSG00000136874'
p2606
aS'ENSG00000117280'
p2607
aS'ENSG00000130193'
p2608
aS'ENSG00000176834'
p2609
aS'ENSG00000172594'
p2610
aS'ENSG00000143434'
p2611
aS'ENSG00000163239'
p2612
aS'ENSG00000124406'
p2613
aS'ENSG00000168297'
p2614
aS'ENSG00000179918'
p2615
atRp2616
ssS'indianred2'
p2617
(dp2618
g40
(lp2619
(lp2620
S'ENSG00000142973'
p2621
aFinf
ag44
(g46
S'Ly|\xb6I\xcd\x9c>'
tRp2622
ag44
(g46
S'\x00\x00\xc7\xd7xs\xf2>'
tRp2623
aa(lp2624
S'ENSG00000186160'
p2625
aFinf
ag44
(g46
S'\xae\xca\x99\x85k\xb5\x11?'
tRp2626
ag44
(g46
S'\x00*\xee\rQ\x1bf?'
tRp2627
aa(lp2628
S'ENSG00000196376'
p2629
ag44
(g46
S'fffff\x86s@'
tRp2630
ag44
(g46
S'J\x16\xb0\xfeSs*?'
tRp2631
ag44
(g46
S'\x80f\xfb\x0c\x7f\x0e\x80?'
tRp2632
aa(lp2633
S'ENSG00000188783'
p2634
ag44
(g46
S'fffff\x86s@'
tRp2635
ag44
(g46
S'J\x16\xb0\xfeSs*?'
tRp2636
ag44
(g46
S'\x80f\xfb\x0c\x7f\x0e\x80?'
tRp2637
aa(lp2638
S'ENSG00000131831'
p2639
ag44
(g46
S'fffff\x86s@'
tRp2640
ag44
(g46
S'J\x16\xb0\xfeSs*?'
tRp2641
ag44
(g46
S'\x80f\xfb\x0c\x7f\x0e\x80?'
tRp2642
aa(lp2643
S'ENSG00000106537'
p2644
ag44
(g46
S'\x00\x00\x00\x00\x00\x80c@'
tRp2645
ag44
(g46
S'F\xadh\xd9\xa2V:?'
tRp2646
ag44
(g46
S'@\xe1\xe1\xbd[l\x8d?'
tRp2647
aa(lp2648
S'ENSG00000129595'
p2649
ag44
(g46
S'\x00\x00\x00\x00\x00\x80c@'
tRp2650
ag44
(g46
S'F\xadh\xd9\xa2V:?'
tRp2651
ag44
(g46
S'@\xe1\xe1\xbd[l\x8d?'
tRp2652
aa(lp2653
S'ENSG00000147642'
p2654
ag44
(g46
S'\x00\x00\x00\x00\x00\x80c@'
tRp2655
ag44
(g46
S'F\xadh\xd9\xa2V:?'
tRp2656
ag44
(g46
S'@\xe1\xe1\xbd[l\x8d?'
tRp2657
aa(lp2658
S'ENSG00000156453'
p2659
ag44
(g46
S'\x00\x00\x00\x00\x00\x80c@'
tRp2660
ag44
(g46
S'F\xadh\xd9\xa2V:?'
tRp2661
ag44
(g46
S'@\xe1\xe1\xbd[l\x8d?'
tRp2662
aa(lp2663
S'ENSG00000183386'
p2664
ag44
(g46
S'wwwww\xf7Y@'
tRp2665
ag44
(g46
S'f\xa7rw\x0b\xdbE?'
tRp2666
ag44
(g46
S'\x80\xc1\xfa\x02\x96\xa1\x95?'
tRp2667
aa(lp2668
S'ENSG00000197291'
p2669
ag44
(g46
S'wwwww\xf7Y@'
tRp2670
ag44
(g46
S'f\xa7rw\x0b\xdbE?'
tRp2671
ag44
(g46
S'\x80\xc1\xfa\x02\x96\xa1\x95?'
tRp2672
aa(lp2673
S'ENSG00000214578'
p2674
ag44
(g46
S'33333sS@'
tRp2675
ag44
(g46
S'\xa96\x8f\xe6|RP?'
tRp2676
ag44
(g46
S'\xc0V\xc7*\x89*\x9e?'
tRp2677
aa(lp2678
S'ENSG00000132970'
p2679
ag44
(g46
S'33333sS@'
tRp2680
ag44
(g46
S'\xa96\x8f\xe6|RP?'
tRp2681
ag44
(g46
S'\xc0V\xc7*\x89*\x9e?'
tRp2682
aasg4
g5
((lp2683
S'ENSG00000186160'
p2684
aS'ENSG00000125844'
p2685
aS'ENSG00000186377'
p2686
aS'ENSG00000080644'
p2687
aS'ENSG00000168993'
p2688
aS'ENSG00000105825'
p2689
aS'ENSG00000221953'
p2690
aS'ENSG00000187624'
p2691
aS'ENSG00000185619'
p2692
aS'ENSG00000156689'
p2693
aS'ENSG00000162365'
p2694
aS'ENSG00000047457'
p2695
aS'ENSG00000138381'
p2696
aS'ENSG00000106780'
p2697
aS'ENSG00000164334'
p2698
atRp2699
ssS'coral4'
p2700
(dp2701
g40
(lp2702
(lp2703
S'ENSG00000123838'
p2704
ag44
(g46
S'\x00\x00\x00\x00\x00\x88x@'
tRp2705
ag44
(g46
S'R\x89\x8d\xbd\xd7\x1b\x7f?'
tRp2706
ag44
(g46
S'\x80\x89\x8d\xbd\xd7\x1b\x7f?'
tRp2707
aasg4
g5
((lp2708
S'ENSG00000123843'
p2709
aS'ENSG00000038358'
p2710
aS'ENSG00000188321'
p2711
aS'ENSG00000132694'
p2712
aS'ENSG00000162669'
p2713
aS'ENSG00000115947'
p2714
aS'ENSG00000196151'
p2715
aS'ENSG00000153339'
p2716
aS'ENSG00000166016'
p2717
aS'ENSG00000134058'
p2718
aS'ENSG00000188629'
p2719
aS'ENSG00000196663'
p2720
aS'ENSG00000116198'
p2721
aS'ENSG00000069248'
p2722
aS'ENSG00000091136'
p2723
aS'ENSG00000198677'
p2724
atRp2725
ssS'lightblue2'
p2726
(dp2727
g4
g5
((lp2728
S'ENSG00000164418'
p2729
aS'ENSG00000115423'
p2730
aS'ENSG00000104723'
p2731
aS'ENSG00000204406'
p2732
aS'ENSG00000064726'
p2733
aS'ENSG00000171823'
p2734
aS'ENSG00000247121'
p2735
aS'ENSG00000154134'
p2736
aS'ENSG00000155093'
p2737
aS'ENSG00000011105'
p2738
aS'ENSG00000138346'
p2739
aS'ENSG00000156042'
p2740
aS'ENSG00000102967'
p2741
aS'ENSG00000185324'
p2742
atRp2743
ssS'lightblue3'
p2744
(dp2745
g4
g5
((lp2746
S'ENSG00000127980'
p2747
aS'ENSG00000184990'
p2748
aS'ENSG00000213462'
p2749
aS'ENSG00000152926'
p2750
aS'ENSG00000127838'
p2751
aS'ENSG00000110700'
p2752
aS'ENSG00000108381'
p2753
aS'ENSG00000188385'
p2754
aS'ENSG00000186204'
p2755
aS'ENSG00000161202'
p2756
aS'ENSG00000040531'
p2757
aS'ENSG00000146350'
p2758
aS'ENSG00000178338'
p2759
aS'ENSG00000169131'
p2760
aS'ENSG00000131969'
p2761
atRp2762
ssS'lightblue1'
p2763
(dp2764
g4
g5
((lp2765
S'ENSG00000103202'
p2766
aS'ENSG00000108389'
p2767
aS'ENSG00000157827'
p2768
aS'ENSG00000175137'
p2769
aS'ENSG00000160949'
p2770
aS'ENSG00000047617'
p2771
aS'ENSG00000267041'
p2772
aS'ENSG00000126746'
p2773
aS'ENSG00000140623'
p2774
aS'ENSG00000111554'
p2775
aS'ENSG00000152223'
p2776
aS'ENSG00000154719'
p2777
aS'ENSG00000105497'
p2778
atRp2779
ssS'lightslateblue'
p2780
(dp2781
g4
g5
((lp2782
S'ENSG00000178814'
p2783
aS'ENSG00000077420'
p2784
aS'ENSG00000169885'
p2785
aS'ENSG00000179119'
p2786
aS'ENSG00000068615'
p2787
aS'ENSG00000180509'
p2788
aS'ENSG00000234511'
p2789
aS'ENSG00000142082'
p2790
aS'ENSG00000085832'
p2791
aS'ENSG00000138600'
p2792
aS'ENSG00000108395'
p2793
aS'ENSG00000243627'
p2794
aS'ENSG00000121005'
p2795
aS'ENSG00000158109'
p2796
aS'ENSG00000146555'
p2797
aS'ENSG00000111785'
p2798
aS'ENSG00000099290'
p2799
atRp2800
ssS'lightblue4'
p2801
(dp2802
g4
g5
((lp2803
S'ENSG00000213762'
p2804
aS'ENSG00000245680'
p2805
aS'ENSG00000124299'
p2806
aS'ENSG00000140993'
p2807
aS'ENSG00000180479'
p2808
aS'ENSG00000178229'
p2809
aS'ENSG00000198093'
p2810
aS'ENSG00000152439'
p2811
aS'ENSG00000105136'
p2812
aS'ENSG00000131845'
p2813
aS'ENSG00000150433'
p2814
aS'ENSG00000171649'
p2815
aS'ENSG00000182552'
p2816
aS'ENSG00000121417'
p2817
aS'ENSG00000152127'
p2818
aS'ENSG00000164597'
p2819
aS'ENSG00000144036'
p2820
atRp2821
ssS'lightsteelblue1'
p2822
(dp2823
g4
g5
((lp2824
S'ENSG00000086205'
p2825
aS'ENSG00000103978'
p2826
aS'ENSG00000139220'
p2827
aS'ENSG00000269855'
p2828
aS'ENSG00000185340'
p2829
aS'ENSG00000145287'
p2830
aS'ENSG00000162520'
p2831
aS'ENSG00000168539'
p2832
aS'ENSG00000198142'
p2833
aS'ENSG00000111615'
p2834
aS'ENSG00000182600'
p2835
aS'ENSG00000104918'
p2836
aS'ENSG00000153246'
p2837
aS'ENSG00000178773'
p2838
aS'ENSG00000173272'
p2839
aS'ENSG00000127249'
p2840
aS'ENSG00000133665'
p2841
aS'ENSG00000177383'
p2842
aS'ENSG00000179913'
p2843
aS'ENSG00000145879'
p2844
aS'ENSG00000182580'
p2845
aS'ENSG00000163220'
p2846
aS'ENSG00000056487'
p2847
atRp2848
ssS'skyblue4'
p2849
(dp2850
g4
g5
((lp2851
S'ENSG00000090487'
p2852
aS'ENSG00000131591'
p2853
aS'ENSG00000132031'
p2854
aS'ENSG00000183255'
p2855
aS'ENSG00000127578'
p2856
aS'ENSG00000197562'
p2857
aS'ENSG00000138075'
p2858
aS'ENSG00000172340'
p2859
aS'ENSG00000100580'
p2860
aS'ENSG00000136279'
p2861
aS'ENSG00000177082'
p2862
aS'ENSG00000162623'
p2863
aS'ENSG00000112290'
p2864
aS'ENSG00000161996'
p2865
aS'ENSG00000118965'
p2866
aS'ENSG00000127366'
p2867
aS'ENSG00000115364'
p2868
aS'ENSG00000146243'
p2869
atRp2870
ssS'deepskyblue'
p2871
(dp2872
g4
g5
((lp2873
S'ENSG00000186051'
p2874
aS'ENSG00000188511'
p2875
aS'ENSG00000204655'
p2876
aS'ENSG00000166927'
p2877
aS'ENSG00000164485'
p2878
aS'ENSG00000110344'
p2879
aS'ENSG00000166928'
p2880
aS'ENSG00000162714'
p2881
aS'ENSG00000204428'
p2882
aS'ENSG00000162885'
p2883
aS'ENSG00000134809'
p2884
aS'ENSG00000176531'
p2885
atRp2886
ssS'skyblue1'
p2887
(dp2888
g40
(lp2889
(lp2890
S'ENSG00000158806'
p2891
aFinf
ag44
(g46
S':\xfd"D\xf6%o?'
tRp2892
ag44
(g46
S'@\x9bA\xc8\xc2E\x87?'
tRp2893
aa(lp2894
S'ENSG00000111344'
p2895
ag44
(g46
S'\x00\x00\x00\x00\x00\x80h@'
tRp2896
ag44
(g46
S' \xa7\x8e\x8eLM\x87?'
tRp2897
ag44
(g46
S'\x80\x82\x02\xdd\\+\x97?'
tRp2898
aa(lp2899
S'ENSG00000110195'
p2900
ag44
(g46
S'\x00\x00\x00\x00\x00@P@'
tRp2901
ag44
(g46
S'jvW\x064\x0c\x9b?'
tRp2902
ag44
(g46
S'`vW\x064\x0c\x9b?'
tRp2903
aasg4
g5
((lp2904
S'ENSG00000223865'
p2905
aS'ENSG00000197943'
p2906
aS'ENSG00000175764'
p2907
aS'ENSG00000139549'
p2908
aS'ENSG00000122376'
p2909
aS'ENSG00000155957'
p2910
aS'ENSG00000182400'
p2911
aS'ENSG00000196126'
p2912
aS'ENSG00000183638'
p2913
aS'ENSG00000139597'
p2914
aS'ENSG00000138750'
p2915
aS'ENSG00000197181'
p2916
aS'ENSG00000179344'
p2917
aS'ENSG00000154328'
p2918
aS'ENSG00000019505'
p2919
aS'ENSG00000145757'
p2920
aS'ENSG00000198502'
p2921
aS'ENSG00000196735'
p2922
aS'ENSG00000151474'
p2923
aS'ENSG00000241839'
p2924
atRp2925
ssS'darkred'
p2926
(dp2927
g4
g5
((lp2928
S'ENSG00000259511'
p2929
aS'ENSG00000182307'
p2930
aS'ENSG00000124882'
p2931
aS'ENSG00000125726'
p2932
aS'ENSG00000080345'
p2933
aS'ENSG00000142327'
p2934
aS'ENSG00000160216'
p2935
aS'ENSG00000198707'
p2936
aS'ENSG00000071909'
p2937
aS'ENSG00000172500'
p2938
aS'ENSG00000172728'
p2939
aS'ENSG00000166415'
p2940
aS'ENSG00000119328'
p2941
aS'ENSG00000124164'
p2942
aS'ENSG00000133265'
p2943
aS'ENSG00000117009'
p2944
aS'ENSG00000172548'
p2945
aS'ENSG00000085982'
p2946
aS'ENSG00000010539'
p2947
aS'ENSG00000182379'
p2948
aS'ENSG00000140105'
p2949
aS'ENSG00000178665'
p2950
aS'ENSG00000157764'
p2951
aS'ENSG00000188690'
p2952
aS'ENSG00000101413'
p2953
aS'ENSG00000131435'
p2954
atRp2955
ssS'skyblue2'
p2956
(dp2957
g4
g5
((lp2958
S'ENSG00000241973'
p2959
aS'ENSG00000219545'
p2960
aS'ENSG00000171806'
p2961
aS'ENSG00000149743'
p2962
aS'ENSG00000174373'
p2963
aS'ENSG00000167770'
p2964
aS'ENSG00000174891'
p2965
aS'ENSG00000143061'
p2966
aS'ENSG00000187079'
p2967
aS'ENSG00000143633'
p2968
aS'ENSG00000139405'
p2969
aS'ENSG00000204843'
p2970
aS'ENSG00000129480'
p2971
aS'ENSG00000126790'
p2972
aS'ENSG00000119314'
p2973
aS'ENSG00000075131'
p2974
aS'ENSG00000125971'
p2975
aS'ENSG00000122678'
p2976
aS'ENSG00000106628'
p2977
aS'ENSG00000243317'
p2978
aS'ENSG00000089154'
p2979
atRp2980
ssS'lavenderblush1'
p2981
(dp2982
g4
g5
((lp2983
S'ENSG00000105556'
p2984
aS'ENSG00000133962'
p2985
aS'ENSG00000107731'
p2986
aS'ENSG00000197965'
p2987
aS'ENSG00000108384'
p2988
aS'ENSG00000151364'
p2989
aS'ENSG00000082701'
p2990
aS'ENSG00000183186'
p2991
aS'ENSG00000154768'
p2992
aS'ENSG00000165929'
p2993
aS'ENSG00000178980'
p2994
aS'ENSG00000129988'
p2995
aS'ENSG00000119509'
p2996
aS'ENSG00000174007'
p2997
aS'ENSG00000108590'
p2998
aS'ENSG00000101310'
p2999
atRp3000
ssS'lavenderblush3'
p3001
(dp3002
g40
(lp3003
(lp3004
S'ENSG00000131746'
p3005
ag44
(g46
S'\x17]t\xd1E\x97Q@'
tRp3006
ag44
(g46
S'&+\x97\xa0J5X?'
tRp3007
ag44
(g46
S'\xc0H_\x87\\k\x99?'
tRp3008
aasg4
g5
((lp3009
S'ENSG00000197557'
p3010
aS'ENSG00000112276'
p3011
aS'ENSG00000243414'
p3012
aS'ENSG00000163141'
p3013
aS'ENSG00000249852'
p3014
aS'ENSG00000103044'
p3015
aS'ENSG00000159166'
p3016
aS'ENSG00000171346'
p3017
aS'ENSG00000105793'
p3018
aS'ENSG00000171345'
p3019
aS'ENSG00000189334'
p3020
aS'ENSG00000169035'
p3021
aS'ENSG00000162069'
p3022
aS'ENSG00000128422'
p3023
aS'ENSG00000186212'
p3024
aS'ENSG00000183742'
p3025
aS'ENSG00000129437'
p3026
aS'ENSG00000165568'
p3027
aS'ENSG00000006453'
p3028
aS'ENSG00000170421'
p3029
aS'ENSG00000141219'
p3030
atRp3031
ssS'lavenderblush2'
p3032
(dp3033
g4
g5
((lp3034
S'ENSG00000176049'
p3035
aS'ENSG00000152492'
p3036
aS'ENSG00000011243'
p3037
aS'ENSG00000043143'
p3038
aS'ENSG00000151883'
p3039
aS'ENSG00000187815'
p3040
aS'ENSG00000228716'
p3041
aS'ENSG00000144191'
p3042
aS'ENSG00000196456'
p3043
aS'ENSG00000177663'
p3044
aS'ENSG00000125618'
p3045
aS'ENSG00000095713'
p3046
aS'ENSG00000138829'
p3047
aS'ENSG00000089094'
p3048
aS'ENSG00000204237'
p3049
aS'ENSG00000110367'
p3050
aS'ENSG00000069493'
p3051
aS'ENSG00000008735'
p3052
aS'ENSG00000104450'
p3053
atRp3054
ssS'aliceblue'
p3055
(dp3056
g40
(lp3057
(lp3058
S'ENSG00000185559'
p3059
aFinf
ag44
(g46
S'\x0b\xfe\xc1\x82\xf9\xc3T?'
tRp3060
ag44
(g46
S'\x00I\x90G%\xe4y?'
tRp3061
aa(lp3062
S'ENSG00000123700'
p3063
aFinf
ag44
(g46
S'\x0b\xfe\xc1\x82\xf9\xc3T?'
tRp3064
ag44
(g46
S'\x00I\x90G%\xe4y?'
tRp3065
aa(lp3066
S'ENSG00000237560'
p3067
aFinf
ag44
(g46
S'\xfa\x01\xc2\x82\xf9\xc3d?'
tRp3068
ag44
(g46
S'\x00I\x90G%\xe4y?'
tRp3069
aa(lp3070
S'ENSG00000113494'
p3071
aFinf
ag44
(g46
S'\x0b\xfe\xc1\x82\xf9\xc3T?'
tRp3072
ag44
(g46
S'\x00I\x90G%\xe4y?'
tRp3073
aasg4
g5
((lp3074
S'ENSG00000196236'
p3075
aS'ENSG00000164294'
p3076
aS'ENSG00000173531'
p3077
aS'ENSG00000079150'
p3078
aS'ENSG00000056558'
p3079
aS'ENSG00000181016'
p3080
aS'ENSG00000182551'
p3081
aS'ENSG00000158104'
p3082
aS'ENSG00000066185'
p3083
aS'ENSG00000116774'
p3084
aS'ENSG00000166268'
p3085
aS'ENSG00000108797'
p3086
aS'ENSG00000148396'
p3087
aS'ENSG00000120913'
p3088
aS'ENSG00000137275'
p3089
atRp3090
ssS'lightskyblue2'
p3091
(dp3092
g4
g5
((lp3093
S'ENSG00000144580'
p3094
aS'ENSG00000149503'
p3095
aS'ENSG00000099889'
p3096
aS'ENSG00000226479'
p3097
aS'ENSG00000153132'
p3098
aS'ENSG00000160298'
p3099
aS'ENSG00000117481'
p3100
aS'ENSG00000203804'
p3101
aS'ENSG00000100281'
p3102
aS'ENSG00000183763'
p3103
aS'ENSG00000196584'
p3104
aS'ENSG00000168395'
p3105
aS'ENSG00000146918'
p3106
atRp3107
ssS'lightskyblue3'
p3108
(dp3109
g4
g5
((lp3110
S'ENSG00000254636'
p3111
aS'ENSG00000157150'
p3112
aS'ENSG00000213398'
p3113
aS'ENSG00000142102'
p3114
aS'ENSG00000166206'
p3115
aS'ENSG00000012779'
p3116
aS'ENSG00000221923'
p3117
aS'ENSG00000171953'
p3118
aS'ENSG00000173626'
p3119
aS'ENSG00000261794'
p3120
aS'ENSG00000180611'
p3121
aS'ENSG00000124145'
p3122
aS'ENSG00000049130'
p3123
aS'ENSG00000139613'
p3124
atRp3125
ssS'blue1'
p3126
(dp3127
g40
(lp3128
(lp3129
g1245
aFinf
ag44
(g46
S'\xc9\xc4iRz+\x82?'
tRp3130
ag44
(g46
S'\xa04\x0b\t\xd8\x16\x92?'
tRp3131
aa(lp3132
S'ENSG00000139220'
p3133
aFinf
ag44
(g46
S'RqFK\xb8\xa8\xa8?'
tRp3134
ag44
(g46
S'PqFK\xb8\xa8\xa8?'
tRp3135
aasg4
g5
((lp3136
S'ENSG00000101019'
p3137
aS'ENSG00000197928'
p3138
aS'ENSG00000112874'
p3139
aS'ENSG00000130734'
p3140
aS'ENSG00000185689'
p3141
aS'ENSG00000100330'
p3142
aS'ENSG00000189339'
p3143
aS'ENSG00000196604'
p3144
aS'ENSG00000075826'
p3145
aS'ENSG00000139990'
p3146
aS'ENSG00000081913'
p3147
aS'ENSG00000137941'
p3148
aS'ENSG00000141646'
p3149
aS'ENSG00000118197'
p3150
atRp3151
ssS'blue3'
p3152
(dp3153
g4
g5
((lp3154
S'ENSG00000121236'
p3155
aS'ENSG00000178031'
p3156
aS'ENSG00000142449'
p3157
aS'ENSG00000171199'
p3158
aS'ENSG00000205930'
p3159
aS'ENSG00000130559'
p3160
aS'ENSG00000181333'
p3161
aS'ENSG00000124507'
p3162
aS'ENSG00000112977'
p3163
aS'ENSG00000135333'
p3164
aS'ENSG00000102683'
p3165
aS'ENSG00000248458'
p3166
aS'ENSG00000196535'
p3167
aS'ENSG00000198250'
p3168
aS'ENSG00000171201'
p3169
atRp3170
ssS'blue2'
p3171
(dp3172
g4
g5
((lp3173
S'ENSG00000146281'
p3174
aS'ENSG00000138041'
p3175
aS'ENSG00000213512'
p3176
aS'ENSG00000100099'
p3177
aS'ENSG00000007520'
p3178
aS'ENSG00000130656'
p3179
aS'ENSG00000163714'
p3180
aS'ENSG00000145439'
p3181
aS'ENSG00000145725'
p3182
aS'ENSG00000184731'
p3183
aS'ENSG00000145780'
p3184
aS'ENSG00000107105'
p3185
aS'ENSG00000108733'
p3186
aS'ENSG00000196139'
p3187
aS'ENSG00000142166'
p3188
aS'ENSG00000175106'
p3189
aS'ENSG00000228300'
p3190
aS'ENSG00000154548'
p3191
aS'ENSG00000164074'
p3192
aS'ENSG00000104497'
p3193
atRp3194
ssS'blue4'
p3195
(dp3196
g40
(lp3197
(lp3198
S'ENSG00000166819'
p3199
ag44
(g46
S'N\xc1\xcb)xyA@'
tRp3200
ag44
(g46
S'\xc0\xb3\xf9/\x8e\x83(?'
tRp3201
ag44
(g46
S'\x00\x1bV\x06\xb1\x0fm?'
tRp3202
aa(lp3203
g944
ag44
(g46
S'\x00\x00\x00\x00\x00@`@'
tRp3204
ag44
(g46
S'\x10.CMVM??'
tRp3205
ag44
(g46
S'\x80\xc6\xbb\xaf?\x89\x81?'
tRp3206
aasg4
g5
((lp3207
S'ENSG00000063761'
p3208
aS'ENSG00000119927'
p3209
aS'ENSG00000123473'
p3210
aS'ENSG00000103932'
p3211
aS'ENSG00000133317'
p3212
aS'ENSG00000171700'
p3213
aS'ENSG00000129187'
p3214
aS'ENSG00000152503'
p3215
aS'ENSG00000171160'
p3216
aS'ENSG00000132436'
p3217
aS'ENSG00000005249'
p3218
aS'ENSG00000186453'
p3219
aS'ENSG00000237172'
p3220
aS'ENSG00000124253'
p3221
aS'ENSG00000162384'
p3222
aS'ENSG00000138207'
p3223
aS'ENSG00000146833'
p3224
atRp3225
ssS'lightskyblue4'
p3226
(dp3227
g4
g5
((lp3228
S'ENSG00000178222'
p3229
aS'ENSG00000187049'
p3230
aS'ENSG00000178252'
p3231
aS'ENSG00000160886'
p3232
aS'ENSG00000167780'
p3233
aS'ENSG00000184465'
p3234
aS'ENSG00000203907'
p3235
aS'ENSG00000269048'
p3236
aS'ENSG00000065600'
p3237
aS'ENSG00000102978'
p3238
aS'ENSG00000187695'
p3239
aS'ENSG00000157103'
p3240
aS'ENSG00000080007'
p3241
aS'ENSG00000113384'
p3242
aS'ENSG00000123427'
p3243
atRp3244
ssS'plum4'
p3245
(dp3246
g4
g5
((lp3247
S'ENSG00000086102'
p3248
aS'ENSG00000094755'
p3249
aS'ENSG00000157895'
p3250
aS'ENSG00000148655'
p3251
aS'ENSG00000088179'
p3252
aS'ENSG00000167555'
p3253
aS'ENSG00000167562'
p3254
aS'ENSG00000133985'
p3255
aS'ENSG00000213246'
p3256
aS'ENSG00000100626'
p3257
aS'ENSG00000196196'
p3258
aS'ENSG00000240344'
p3259
aS'ENSG00000135747'
p3260
aS'ENSG00000181885'
p3261
aS'ENSG00000125611'
p3262
aS'ENSG00000248874'
p3263
aS'ENSG00000133055'
p3264
atRp3265
ssS'yellow3'
p3266
(dp3267
g4
g5
((lp3268
S'ENSG00000189046'
p3269
aS'ENSG00000136108'
p3270
aS'ENSG00000141140'
p3271
aS'ENSG00000133706'
p3272
aS'ENSG00000110092'
p3273
aS'ENSG00000197111'
p3274
aS'ENSG00000172922'
p3275
aS'ENSG00000205937'
p3276
aS'ENSG00000128050'
p3277
aS'ENSG00000077348'
p3278
aS'ENSG00000134987'
p3279
aS'ENSG00000128203'
p3280
aS'ENSG00000158483'
p3281
aS'ENSG00000172927'
p3282
aS'ENSG00000100462'
p3283
aS'ENSG00000141504'
p3284
aS'ENSG00000183049'
p3285
aS'ENSG00000157240'
p3286
atRp3287
ssS'floralwhite'
p3288
(dp3289
g4
g5
((lp3290
S'ENSG00000176974'
p3291
aS'ENSG00000113231'
p3292
aS'ENSG00000113318'
p3293
aS'ENSG00000163320'
p3294
aS'ENSG00000125952'
p3295
aS'ENSG00000166012'
p3296
aS'ENSG00000244165'
p3297
aS'ENSG00000128298'
p3298
aS'ENSG00000183092'
p3299
aS'ENSG00000137880'
p3300
aS'ENSG00000182749'
p3301
aS'ENSG00000137877'
p3302
aS'ENSG00000167525'
p3303
aS'ENSG00000054611'
p3304
aS'ENSG00000091129'
p3305
aS'ENSG00000158186'
p3306
aS'ENSG00000131943'
p3307
aS'ENSG00000153060'
p3308
aS'ENSG00000253729'
p3309
aS'ENSG00000078070'
p3310
aS'ENSG00000160307'
p3311
aS'ENSG00000155313'
p3312
atRp3313
ssS'coral'
p3314
(dp3315
g40
(lp3316
(lp3317
S'ENSG00000168539'
p3318
aFinf
ag44
(g46
S':\xfd"D\xf6%o?'
tRp3319
ag44
(g46
S'@L\xd5(\x99\xf8\x8e?'
tRp3320
aa(lp3321
S'ENSG00000139865'
p3322
ag44
(g46
S'\x00\x00\x00\x00\x00\x80h@'
tRp3323
ag44
(g46
S' \xa7\x8e\x8eLM\x87?'
tRp3324
ag44
(g46
S'@\xe7\x1bMCG\xa1?'
tRp3325
aa(lp3326
S'ENSG00000256124'
p3327
ag44
(g46
S'\x00\x00\x00\x00\x00P`@'
tRp3328
ag44
(g46
S'r/\xb5E\xa1\x07\x8f?'
tRp3329
ag44
(g46
S'@\xe7\x1bMCG\xa1?'
tRp3330
aasg4
g5
((lp3331
S'ENSG00000166788'
p3332
aS'ENSG00000139160'
p3333
aS'ENSG00000089558'
p3334
aS'ENSG00000041353'
p3335
aS'ENSG00000179774'
p3336
aS'ENSG00000224389'
p3337
aS'ENSG00000100053'
p3338
aS'ENSG00000244731'
p3339
aS'ENSG00000146909'
p3340
aS'ENSG00000103534'
p3341
aS'ENSG00000039139'
p3342
aS'ENSG00000184357'
p3343
aS'ENSG00000150403'
p3344
aS'ENSG00000125398'
p3345
aS'ENSG00000198000'
p3346
aS'ENSG00000230873'
p3347
aS'ENSG00000231852'
p3348
aS'ENSG00000132669'
p3349
atRp3350
ssS'whitesmoke'
p3351
(dp3352
g40
(lp3353
(lp3354
S'ENSG00000175063'
p3355
aFinf
ag44
(g46
S'\x16\xfe\xc1\x82\xf9\xc3d?'
tRp3356
ag44
(g46
S'@Z\x90\x94]\xd3\x89?'
tRp3357
aa(lp3358
S'ENSG00000250334'
p3359
aFinf
ag44
(g46
S'\x16\xfe\xc1\x82\xf9\xc3d?'
tRp3360
ag44
(g46
S'@Z\x90\x94]\xd3\x89?'
tRp3361
aa(lp3362
S'ENSG00000162062'
p3363
aFinf
ag44
(g46
S'\x16\xfe\xc1\x82\xf9\xc3d?'
tRp3364
ag44
(g46
S'@Z\x90\x94]\xd3\x89?'
tRp3365
aa(lp3366
S'ENSG00000131747'
p3367
ag44
(g46
S'\xcd\xcc\xcc\xcc\xcc\x8cc@'
tRp3368
ag44
(g46
S'\tl\xad\xf3\xa9\x0c\x8f?'
tRp3369
ag44
(g46
S'@1\x17\xd7h\xd0\x9e?'
tRp3370
aa(lp3371
S'ENSG00000148773'
p3372
ag44
(g46
S'\xc7q\x1c\xc7q\x9cU@'
tRp3373
ag44
(g46
S'@\x1e\xc2j\x05\xcf\x99?'
tRp3374
ag44
(g46
S'@1\x17\xd7h\xd0\x9e?'
tRp3375
aasg4
g5
((lp3376
S'ENSG00000161618'
p3377
aS'ENSG00000243708'
p3378
aS'ENSG00000189171'
p3379
aS'ENSG00000196418'
p3380
aS'ENSG00000033050'
p3381
aS'ENSG00000243789'
p3382
aS'ENSG00000165501'
p3383
aS'ENSG00000101236'
p3384
aS'ENSG00000132330'
p3385
aS'ENSG00000111665'
p3386
aS'ENSG00000111664'
p3387
aS'ENSG00000176769'
p3388
aS'ENSG00000115163'
p3389
aS'ENSG00000136143'
p3390
atRp3391
ssS'paleturquoise4'
p3392
(dp3393
g4
g5
((lp3394
S'ENSG00000203691'
p3395
aS'ENSG00000247077'
p3396
aS'ENSG00000249931'
p3397
aS'ENSG00000196605'
p3398
aS'ENSG00000086061'
p3399
aS'ENSG00000130695'
p3400
aS'ENSG00000129347'
p3401
aS'ENSG00000064012'
p3402
aS'ENSG00000123297'
p3403
aS'ENSG00000106608'
p3404
aS'ENSG00000100483'
p3405
aS'ENSG00000048544'
p3406
aS'ENSG00000164308'
p3407
aS'ENSG00000138380'
p3408
atRp3409
ssS'firebrick3'
p3410
(dp3411
g40
(lp3412
(lp3413
S'ENSG00000162892'
p3414
ag44
(g46
S'\x00\x00\x00\x00\x00\x88x@'
tRp3415
ag44
(g46
S'R\x89\x8d\xbd\xd7\x1b\x7f?'
tRp3416
ag44
(g46
S"\x00\xca>%\xa2'\x97?"
tRp3417
aasg4
g5
((lp3418
S'ENSG00000103275'
p3419
aS'ENSG00000168653'
p3420
aS'ENSG00000213741'
p3421
aS'ENSG00000164008'
p3422
aS'ENSG00000165392'
p3423
aS'ENSG00000172428'
p3424
aS'ENSG00000166482'
p3425
aS'ENSG00000134248'
p3426
aS'ENSG00000167383'
p3427
aS'ENSG00000147454'
p3428
aS'ENSG00000125743'
p3429
aS'ENSG00000116977'
p3430
aS'ENSG00000198258'
p3431
aS'ENSG00000267508'
p3432
aS'ENSG00000099814'
p3433
aS'ENSG00000111581'
p3434
aS'ENSG00000204978'
p3435
atRp3436
ssS'firebrick2'
p3437
(dp3438
g40
(lp3439
(lp3440
S'ENSG00000154358'
p3441
ag44
(g46
S'ZZZZZ\xfa{@'
tRp3442
ag44
(g46
S'\x82\xc0\x14SC\xd6\xf0<'
tRp3443
ag44
(g46
S'\x00\x00\x00\x00\x00PV='
tRp3444
aa(lp3445
S'ENSG00000155657'
p3446
ag44
(g46
S'\x00\x00\x00\x00\x00\x12{@'
tRp3447
ag44
(g46
S'\xad\xf2n7(\xf3\xf2<'
tRp3448
ag44
(g46
S'\x00\x00\x00\x00\x00\xa4X='
tRp3449
aa(lp3450
S'ENSG00000164309'
p3451
ag44
(g46
S'\x00\x00\x00\x00\x00\x08x@'
tRp3452
ag44
(g46
S'\x00P!\xe1\xdb\xe7\x02='
tRp3453
ag44
(g46
S'\x00\x00\x00\x00\x00Xh='
tRp3454
aa(lp3455
S'ENSG00000138798'
p3456
ag44
(g46
S'9\x8e\xe38\x8e\xc3i@'
tRp3457
ag44
(g46
S'1{|#u\x0f\x7f='
tRp3458
ag44
(g46
S'\x00\x00\x00\x00\xcf\xa7\xe3='
tRp3459
aa(lp3460
S'ENSG00000115221'
p3461
ag44
(g46
S'\xf9\x96o\xf9\x96\xafg@'
tRp3462
ag44
(g46
S'U\xca[M\xae1\x8f='
tRp3463
ag44
(g46
S'\x00\x00\x00\x00\x18\x7f\xf3='
tRp3464
aa(lp3465
S'ENSG00000109061'
p3466
ag44
(g46
S'\x00\x00\x00\x00\x00\xc0{@'
tRp3467
ag44
(g46
S'H\xb5\xc8uNq{>'
tRp3468
ag44
(g46
S'\x00\x00\xe0\xff\xe9\xef\xe0>'
tRp3469
aa(lp3470
S'ENSG00000198125'
p3471
ag44
(g46
S'\x00\x00\x00\x00\x00\xc0{@'
tRp3472
ag44
(g46
S'H\xb5\xc8uNq{>'
tRp3473
ag44
(g46
S'\x00\x00\xe0\xff\xe9\xef\xe0>'
tRp3474
aa(lp3475
S'ENSG00000104879'
p3476
aFinf
ag44
(g46
S"]\x89\x92\x16\x9f0'?"
tRp3477
ag44
(g46
S'\x80Uqs\xb0\xb6\x8b?'
tRp3478
aasg4
g5
((lp3479
S'ENSG00000173991'
p3480
aS'ENSG00000101306'
p3481
aS'ENSG00000115523'
p3482
aS'ENSG00000129170'
p3483
aS'ENSG00000170290'
p3484
aS'ENSG00000184544'
p3485
aS'ENSG00000139168'
p3486
aS'ENSG00000168530'
p3487
aS'ENSG00000090263'
p3488
aS'ENSG00000116883'
p3489
aS'ENSG00000109061'
p3490
aS'ENSG00000108515'
p3491
aS'ENSG00000129991'
p3492
aS'ENSG00000143318'
p3493
aS'ENSG00000118194'
p3494
atRp3495
ssS'steelblue3'
p3496
(dp3497
g4
g5
((lp3498
S'ENSG00000105186'
p3499
aS'ENSG00000141252'
p3500
aS'ENSG00000213639'
p3501
aS'ENSG00000176390'
p3502
aS'ENSG00000111696'
p3503
aS'ENSG00000138592'
p3504
aS'ENSG00000155729'
p3505
aS'ENSG00000188199'
p3506
atRp3507
ssS'darksalmon'
p3508
(dp3509
g40
(lp3510
(lp3511
S'ENSG00000141574'
p3512
ag44
(g46
S'\x00\x00\x00\x00\x00\x88x@'
tRp3513
ag44
(g46
S'R\x89\x8d\xbd\xd7\x1b\x7f?'
tRp3514
ag44
(g46
S'\x80\x89\x8d\xbd\xd7\x1b\x7f?'
tRp3515
aasg4
g5
((lp3516
S'ENSG00000196189'
p3517
aS'ENSG00000141068'
p3518
aS'ENSG00000087095'
p3519
aS'ENSG00000115919'
p3520
aS'ENSG00000145555'
p3521
aS'ENSG00000235109'
p3522
aS'ENSG00000171055'
p3523
aS'ENSG00000135617'
p3524
aS'ENSG00000198952'
p3525
aS'ENSG00000133226'
p3526
aS'ENSG00000185404'
p3527
aS'ENSG00000156931'
p3528
atRp3529
ssS'steelblue4'
p3530
(dp3531
g40
(lp3532
(lp3533
S'ENSG00000154133'
p3534
aFinf
ag44
(g46
S'a\xa3\xca\x13w\x8d\x8c?'
tRp3535
ag44
(g46
S'\x80\xa3\xca\x13w\x8d\x8c?'
tRp3536
aasg4
g5
((lp3537
S'ENSG00000140876'
p3538
aS'ENSG00000135297'
p3539
aS'ENSG00000166960'
p3540
aS'ENSG00000127580'
p3541
aS'ENSG00000255284'
p3542
aS'ENSG00000198917'
p3543
aS'ENSG00000177595'
p3544
aS'ENSG00000177600'
p3545
aS'ENSG00000146205'
p3546
aS'ENSG00000002919'
p3547
atRp3548
ssS'sienna3'
p3549
(dp3550
g40
(lp3551
(lp3552
g3372
ag44
(g46
S'\x00\x00\x00\x00\x00Z\xbb@'
tRp3553
ag44
(g46
S'p\xef\x97V\xe3\xa0\x17<'
tRp3554
ag44
(g46
S'\x00\x00\x00\x00\x00\x00\x00\x00'
tRp3555
aa(lp3556
g3367
ag44
(g46
S'\x00\x00\x00\x00\x00P\x88@'
tRp3557
ag44
(g46
S'\xf8\xd2\x83O7\x8a\x04>'
tRp3558
ag44
(g46
S'\x00\x00\x00\xb0\xda\xd2U>'
tRp3559
aa(lp3560
S'ENSG00000186185'
p3561
aFinf
ag44
(g46
S'\xbd\x85\xd5\x1bo$L>'
tRp3562
ag44
(g46
S'\x00\x00\xc0.\x92\x05\x9d>'
tRp3563
aa(lp3564
S'ENSG00000171848'
p3565
aFinf
ag44
(g46
S'\xbd\x85\xd5\x1bo$L>'
tRp3566
ag44
(g46
S'\x00\x00\xc0.\x92\x05\x9d>'
tRp3567
aa(lp3568
S'ENSG00000183856'
p3569
aFinf
ag44
(g46
S'\xbd\x85\xd5\x1bo$L>'
tRp3570
ag44
(g46
S'\x00\x00\xc0.\x92\x05\x9d>'
tRp3571
aa(lp3572
S'ENSG00000146670'
p3573
aFinf
ag44
(g46
S'{\x8c!\n\xf6\xaf\xb8>'
tRp3574
ag44
(g46
S'\x00\x80\xb0L\xd6$\x07?'
tRp3575
aa(lp3576
S'ENSG00000111206'
p3577
aFinf
ag44
(g46
S'{\x8c!\n\xf6\xaf\xb8>'
tRp3578
ag44
(g46
S'\x00\x80\xb0L\xd6$\x07?'
tRp3579
aa(lp3580
S'ENSG00000066279'
p3581
aFinf
ag44
(g46
S' YIX<\xf9"?'
tRp3582
ag44
(g46
S'\x00j\x9c<\xc9\x91p?'
tRp3583
aa(lp3584
S'ENSG00000088325'
p3585
aFinf
ag44
(g46
S' YIX<\xf9"?'
tRp3586
ag44
(g46
S'\x00j\x9c<\xc9\x91p?'
tRp3587
aasg4
g5
((lp3588
S'ENSG00000011426'
p3589
aS'ENSG00000138160'
p3590
aS'ENSG00000109674'
p3591
aS'ENSG00000051180'
p3592
aS'ENSG00000142945'
p3593
aS'ENSG00000152253'
p3594
aS'ENSG00000174371'
p3595
aS'ENSG00000178295'
p3596
aS'ENSG00000014138'
p3597
aS'ENSG00000151725'
p3598
aS'ENSG00000137812'
p3599
aS'ENSG00000089685'
p3600
aS'ENSG00000204209'
p3601
aS'ENSG00000150750'
p3602
aS'ENSG00000169607'
p3603
aS'ENSG00000106462'
p3604
aS'ENSG00000072571'
p3605
aS'ENSG00000160957'
p3606
aS'ENSG00000129810'
p3607
aS'ENSG00000164251'
p3608
aS'ENSG00000161888'
p3609
aS'ENSG00000254667'
p3610
aS'ENSG00000109805'
p3611
atRp3612
ssS'firebrick4'
p3613
(dp3614
g4
g5
((lp3615
S'ENSG00000157617'
p3616
aS'ENSG00000214456'
p3617
aS'ENSG00000215845'
p3618
aS'ENSG00000184436'
p3619
aS'ENSG00000184900'
p3620
aS'ENSG00000176624'
p3621
aS'ENSG00000248712'
p3622
aS'ENSG00000204366'
p3623
aS'ENSG00000139197'
p3624
aS'ENSG00000168005'
p3625
aS'ENSG00000167671'
p3626
aS'ENSG00000106948'
p3627
aS'ENSG00000084207'
p3628
aS'ENSG00000129667'
p3629
aS'ENSG00000138796'
p3630
aS'ENSG00000135437'
p3631
aS'ENSG00000099810'
p3632
aS'ENSG00000099875'
p3633
aS'ENSG00000111077'
p3634
aS'ENSG00000128346'
p3635
atRp3636
ssS'dodgerblue1'
p3637
(dp3638
g4
g5
((lp3639
S'ENSG00000117600'
p3640
aS'ENSG00000122085'
p3641
aS'ENSG00000146242'
p3642
aS'ENSG00000163528'
p3643
aS'ENSG00000171302'
p3644
aS'ENSG00000113361'
p3645
aS'ENSG00000185070'
p3646
aS'ENSG00000187867'
p3647
aS'ENSG00000164604'
p3648
atRp3649
ssS'dodgerblue2'
p3650
(dp3651
g4
g5
((lp3652
S'ENSG00000160818'
p3653
aS'ENSG00000080293'
p3654
aS'ENSG00000164934'
p3655
aS'ENSG00000167914'
p3656
aS'ENSG00000243725'
p3657
aS'ENSG00000243137'
p3658
aS'ENSG00000057608'
p3659
aS'ENSG00000159231'
p3660
aS'ENSG00000167088'
p3661
atRp3662
ssS'dodgerblue3'
p3663
(dp3664
g40
(lp3665
(lp3666
S'ENSG00000101489'
p3667
aFinf
ag44
(g46
S'\x0b\xfe\xc1\x82\xf9\xc3T?'
tRp3668
ag44
(g46
S'\x00\xfe\xc1\x82\xf9\xc3T?'
tRp3669
aasg4
g5
((lp3670
S'ENSG00000176148'
p3671
aS'ENSG00000119878'
p3672
aS'ENSG00000151552'
p3673
aS'ENSG00000165985'
p3674
aS'ENSG00000104081'
p3675
aS'ENSG00000049656'
p3676
aS'ENSG00000100147'
p3677
aS'ENSG00000150656'
p3678
aS'ENSG00000113141'
p3679
aS'ENSG00000130347'
p3680
aS'ENSG00000169087'
p3681
atRp3682
ssS'dodgerblue4'
p3683
(dp3684
g4
g5
((lp3685
S'ENSG00000153495'
p3686
aS'ENSG00000182263'
p3687
aS'ENSG00000162063'
p3688
aS'ENSG00000102606'
p3689
aS'ENSG00000172578'
p3690
aS'ENSG00000173376'
p3691
aS'ENSG00000135324'
p3692
aS'ENSG00000175536'
p3693
aS'ENSG00000240563'
p3694
aS'ENSG00000119969'
p3695
aS'ENSG00000100889'
p3696
aS'ENSG00000136492'
p3697
aS'ENSG00000004534'
p3698
atRp3699
ssS'lightskyblue1'
p3700
(dp3701
g4
g5
((lp3702
S'ENSG00000166896'
p3703
aS'ENSG00000184227'
p3704
aS'ENSG00000198944'
p3705
aS'ENSG00000158158'
p3706
aS'ENSG00000179151'
p3707
aS'ENSG00000142188'
p3708
aS'ENSG00000250673'
p3709
aS'ENSG00000171877'
p3710
aS'ENSG00000187105'
p3711
aS'ENSG00000119673'
p3712
aS'ENSG00000154229'
p3713
atRp3714
ssS'tomato4'
p3715
(dp3716
g4
g5
((lp3717
S'ENSG00000125266'
p3718
aS'ENSG00000108950'
p3719
aS'ENSG00000120693'
p3720
aS'ENSG00000139537'
p3721
aS'ENSG00000082397'
p3722
aS'ENSG00000150687'
p3723
aS'ENSG00000164683'
p3724
aS'ENSG00000154710'
p3725
aS'ENSG00000185304'
p3726
aS'ENSG00000110514'
p3727
aS'ENSG00000174640'
p3728
aS'ENSG00000162444'
p3729
atRp3730
ssS'yellow4'
p3731
(dp3732
g4
g5
((lp3733
S'ENSG00000136280'
p3734
aS'ENSG00000183570'
p3735
aS'ENSG00000184497'
p3736
aS'ENSG00000140403'
p3737
aS'ENSG00000105808'
p3738
aS'ENSG00000223510'
p3739
aS'ENSG00000100304'
p3740
aS'ENSG00000187010'
p3741
aS'ENSG00000130300'
p3742
aS'ENSG00000100300'
p3743
aS'ENSG00000168255'
p3744
aS'ENSG00000146263'
p3745
aS'ENSG00000139797'
p3746
aS'ENSG00000167969'
p3747
aS'ENSG00000170667'
p3748
aS'ENSG00000153936'
p3749
aS'ENSG00000180113'
p3750
aS'ENSG00000100106'
p3751
aS'ENSG00000196465'
p3752
aS'ENSG00000130201'
p3753
atRp3754
ssS'greenyellow'
p3755
(dp3756
g4
g5
((lp3757
S'ENSG00000141013'
p3758
aS'ENSG00000008300'
p3759
aS'ENSG00000141971'
p3760
aS'ENSG00000241322'
p3761
aS'ENSG00000198954'
p3762
aS'ENSG00000132383'
p3763
aS'ENSG00000120645'
p3764
aS'ENSG00000185345'
p3765
aS'ENSG00000213672'
p3766
aS'ENSG00000174903'
p3767
aS'ENSG00000167720'
p3768
aS'ENSG00000096060'
p3769
aS'ENSG00000001460'
p3770
aS'ENSG00000161573'
p3771
aS'ENSG00000107651'
p3772
aS'ENSG00000196152'
p3773
aS'ENSG00000242247'
p3774
aS'ENSG00000105072'
p3775
aS'ENSG00000127220'
p3776
aS'ENSG00000172803'
p3777
aS'ENSG00000058729'
p3778
aS'ENSG00000215252'
p3779
aS'ENSG00000141905'
p3780
aS'ENSG00000008256'
p3781
aS'ENSG00000124383'
p3782
aS'ENSG00000128891'
p3783
aS'ENSG00000164307'
p3784
aS'ENSG00000158125'
p3785
aS'ENSG00000154645'
p3786
aS'ENSG00000198018'
p3787
aS'ENSG00000117525'
p3788
atRp3789
ssS'tomato2'
p3790
(dp3791
g40
(lp3792
(lp3793
g939
aFinf
ag44
(g46
S'=hr\xe3\xf7\xf4y?'
tRp3794
ag44
(g46
S'\x80\x82\x0cg\xcd\x16\x7f?'
tRp3795
aa(lp3796
S'ENSG00000198682'
p3797
aFinf
ag44
(g46
S'$\xf7"D\xf6%o?'
tRp3798
ag44
(g46
S'\x80\x82\x0cg\xcd\x16\x7f?'
tRp3799
aasg4
g5
((lp3800
S'ENSG00000136925'
p3801
aS'ENSG00000205084'
p3802
aS'ENSG00000143398'
p3803
aS'ENSG00000037637'
p3804
aS'ENSG00000055070'
p3805
aS'ENSG00000179134'
p3806
aS'ENSG00000129219'
p3807
aS'ENSG00000119650'
p3808
aS'ENSG00000100211'
p3809
aS'ENSG00000166347'
p3810
aS'ENSG00000063978'
p3811
aS'ENSG00000100068'
p3812
aS'ENSG00000144233'
p3813
aS'ENSG00000139055'
p3814
atRp3815
ssS'navajowhite4'
p3816
(dp3817
g4
g5
((lp3818
S'ENSG00000143373'
p3819
aS'ENSG00000092098'
p3820
aS'ENSG00000162755'
p3821
aS'ENSG00000119383'
p3822
aS'ENSG00000172273'
p3823
aS'ENSG00000000457'
p3824
aS'ENSG00000078900'
p3825
aS'ENSG00000105519'
p3826
aS'ENSG00000070731'
p3827
aS'ENSG00000164574'
p3828
aS'ENSG00000053108'
p3829
aS'ENSG00000083544'
p3830
aS'ENSG00000099991'
p3831
atRp3832
ssS'mediumorchid'
p3833
(dp3834
g4
g5
((lp3835
S'ENSG00000139517'
p3836
aS'ENSG00000197535'
p3837
aS'ENSG00000080845'
p3838
aS'ENSG00000104731'
p3839
aS'ENSG00000173218'
p3840
aS'ENSG00000111224'
p3841
aS'ENSG00000188312'
p3842
aS'ENSG00000139182'
p3843
aS'ENSG00000133703'
p3844
aS'ENSG00000124191'
p3845
aS'ENSG00000122512'
p3846
aS'ENSG00000158825'
p3847
aS'ENSG00000171476'
p3848
aS'ENSG00000240694'
p3849
aS'ENSG00000244607'
p3850
aS'ENSG00000170011'
p3851
aS'ENSG00000162849'
p3852
aS'ENSG00000167889'
p3853
aS'ENSG00000172667'
p3854
aS'ENSG00000185088'
p3855
aS'ENSG00000134207'
p3856
atRp3857
ssS'navajowhite1'
p3858
(dp3859
g40
(lp3860
(lp3861
S'ENSG00000169291'
p3862
aFinf
ag44
(g46
S'\x16\xfe\xc1\x82\xf9\xc3d?'
tRp3863
ag44
(g46
S'@Z\xc8\xc3\xcb\xaf\x84?'
tRp3864
aasg4
g5
((lp3865
S'ENSG00000182511'
p3866
aS'ENSG00000166224'
p3867
aS'ENSG00000173327'
p3868
aS'ENSG00000151773'
p3869
aS'ENSG00000149218'
p3870
aS'ENSG00000162782'
p3871
aS'ENSG00000153048'
p3872
aS'ENSG00000101442'
p3873
aS'ENSG00000168404'
p3874
aS'ENSG00000184916'
p3875
aS'ENSG00000109689'
p3876
aS'ENSG00000198939'
p3877
aS'ENSG00000169435'
p3878
aS'ENSG00000066735'
p3879
aS'ENSG00000011295'
p3880
aS'ENSG00000108264'
p3881
aS'ENSG00000139620'
p3882
aS'ENSG00000102743'
p3883
aS'ENSG00000136371'
p3884
atRp3885
ssS'navajowhite2'
p3886
(dp3887
g40
(lp3888
(lp3889
S'ENSG00000145107'
p3890
aFinf
ag44
(g46
S'\x8d>\x16\x1b\xf2\xd3+?'
tRp3891
ag44
(g46
S'\x80\xd8qe\n\xed\x89?'
tRp3892
aa(lp3893
S'ENSG00000235897'
p3894
aFinf
ag44
(g46
S'\x8d>\x16\x1b\xf2\xd3+?'
tRp3895
ag44
(g46
S'\x80\xd8qe\n\xed\x89?'
tRp3896
aasg4
g5
((lp3897
S'ENSG00000010278'
p3898
aS'ENSG00000173391'
p3899
aS'ENSG00000178789'
p3900
aS'ENSG00000135541'
p3901
aS'ENSG00000164733'
p3902
aS'ENSG00000105700'
p3903
aS'ENSG00000101160'
p3904
aS'ENSG00000147614'
p3905
aS'ENSG00000146070'
p3906
aS'ENSG00000188763'
p3907
aS'ENSG00000213853'
p3908
aS'ENSG00000112149'
p3909
aS'ENSG00000205809'
p3910
aS'ENSG00000102575'
p3911
aS'ENSG00000136689'
p3912
aS'ENSG00000171931'
p3913
aS'ENSG00000137976'
p3914
aS'ENSG00000105376'
p3915
aS'ENSG00000181045'
p3916
aS'ENSG00000169436'
p3917
aS'ENSG00000135094'
p3918
atRp3919
ssS'magenta2'
p3920
(dp3921
g4
g5
((lp3922
S'ENSG00000109790'
p3923
aS'ENSG00000153317'
p3924
aS'ENSG00000196357'
p3925
aS'ENSG00000183654'
p3926
aS'ENSG00000130414'
p3927
aS'ENSG00000164111'
p3928
aS'ENSG00000186522'
p3929
aS'ENSG00000189067'
p3930
aS'ENSG00000116473'
p3931
aS'ENSG00000170832'
p3932
aS'ENSG00000022567'
p3933
aS'ENSG00000044115'
p3934
aS'ENSG00000023191'
p3935
aS'ENSG00000125970'
p3936
aS'ENSG00000068654'
p3937
atRp3938
ssS'sienna'
p3939
(dp3940
g4
g5
((lp3941
S'ENSG00000167114'
p3942
aS'ENSG00000101546'
p3943
aS'ENSG00000179331'
p3944
aS'ENSG00000156103'
p3945
aS'ENSG00000162437'
p3946
aS'ENSG00000136040'
p3947
aS'ENSG00000248540'
p3948
aS'ENSG00000187773'
p3949
aS'ENSG00000114999'
p3950
aS'ENSG00000186469'
p3951
aS'ENSG00000122642'
p3952
aS'ENSG00000167178'
p3953
aS'ENSG00000168461'
p3954
atRp3955
ssS'pink1'
p3956
(dp3957
g4
g5
((lp3958
S'ENSG00000110075'
p3959
aS'ENSG00000106266'
p3960
aS'ENSG00000127481'
p3961
aS'ENSG00000134014'
p3962
aS'ENSG00000170291'
p3963
aS'ENSG00000158411'
p3964
aS'ENSG00000146707'
p3965
aS'ENSG00000104142'
p3966
aS'ENSG00000188372'
p3967
aS'ENSG00000135968'
p3968
aS'ENSG00000015568'
p3969
aS'ENSG00000166140'
p3970
aS'ENSG00000158792'
p3971
atRp3972
ssS'mediumpurple'
p3973
(dp3974
g40
(lp3975
(lp3976
S'ENSG00000142615'
p3977
aFinf
ag44
(g46
S'\x8d[u\xc0\x93[\x1e?'
tRp3978
ag44
(g46
S'\x00\xb0w\xd4}Ju?'
tRp3979
aa(lp3980
S'ENSG00000168925'
p3981
aFinf
ag44
(g46
S'\x8d[u\xc0\x93[\x1e?'
tRp3982
ag44
(g46
S'\x00\xb0w\xd4}Ju?'
tRp3983
aa(lp3984
S'ENSG00000162438'
p3985
aFinf
ag44
(g46
S'\x8d[u\xc0\x93[\x1e?'
tRp3986
ag44
(g46
S'\x00\xb0w\xd4}Ju?'
tRp3987
aa(lp3988
S'ENSG00000189001'
p3989
aFinf
ag44
(g46
S'\x8d[u\xc0\x93[\x1e?'
tRp3990
ag44
(g46
S'\x00\xb0w\xd4}Ju?'
tRp3991
aa(lp3992
S'ENSG00000179751'
p3993
aFinf
ag44
(g46
S'\x8d[u\xc0\x93[\x1e?'
tRp3994
ag44
(g46
S'\x00\xb0w\xd4}Ju?'
tRp3995
aasg4
g5
((lp3996
S'ENSG00000100577'
p3997
aS'ENSG00000091704'
p3998
aS'ENSG00000157005'
p3999
aS'ENSG00000163216'
p4000
aS'ENSG00000051009'
p4001
aS'ENSG00000178363'
p4002
aS'ENSG00000003509'
p4003
aS'ENSG00000121742'
p4004
aS'ENSG00000165474'
p4005
aS'ENSG00000117360'
p4006
aS'ENSG00000167656'
p4007
aS'ENSG00000205420'
p4008
aS'ENSG00000203859'
p4009
aS'ENSG00000243480'
p4010
aS'ENSG00000203785'
p4011
atRp4012
ssS'lightcoral'
p4013
(dp4014
g40
(lp4015
(lp4016
S'ENSG00000224389'
p4017
ag44
(g46
S'\x00\x00\x00\x00\x00\x90\x88@'
tRp4018
ag44
(g46
S'\x80G\x90\x00\x9a\xc0t?'
tRp4019
ag44
(g46
S'@\xa7\xd4\xb8$\xb3\x84?'
tRp4020
aa(lp4021
S'ENSG00000159403'
p4022
ag44
(g46
S'\xcd\xcc\xcc\xcc\xcc\x8cc@'
tRp4023
ag44
(g46
S'\tl\xad\xf3\xa9\x0c\x8f?'
tRp4024
ag44
(g46
S'\x00l\xad\xf3\xa9\x0c\x8f?'
tRp4025
aasg4
g5
((lp4026
S'ENSG00000115289'
p4027
aS'ENSG00000105771'
p4028
aS'ENSG00000145817'
p4029
aS'ENSG00000099995'
p4030
aS'ENSG00000130175'
p4031
aS'ENSG00000186235'
p4032
aS'ENSG00000178233'
p4033
aS'ENSG00000164118'
p4034
aS'ENSG00000243649'
p4035
aS'ENSG00000087365'
p4036
aS'ENSG00000084676'
p4037
aS'ENSG00000088038'
p4038
aS'ENSG00000100441'
p4039
aS'ENSG00000103148'
p4040
aS'ENSG00000034239'
p4041
aS'ENSG00000170627'
p4042
aS'ENSG00000151917'
p4043
aS'ENSG00000176476'
p4044
aS'ENSG00000110871'
p4045
aS'ENSG00000077458'
p4046
atRp4047
ssS'orangered'
p4048
(dp4049
g4
g5
((lp4050
S'ENSG00000100038'
p4051
aS'ENSG00000090621'
p4052
aS'ENSG00000109180'
p4053
aS'ENSG00000113558'
p4054
aS'ENSG00000100714'
p4055
aS'ENSG00000184860'
p4056
aS'ENSG00000100908'
p4057
aS'ENSG00000177034'
p4058
aS'ENSG00000164346'
p4059
aS'ENSG00000107104'
p4060
aS'ENSG00000242715'
p4061
aS'ENSG00000134042'
p4062
aS'ENSG00000215375'
p4063
aS'ENSG00000170425'
p4064
aS'ENSG00000188171'
p4065
aS'ENSG00000166004'
p4066
atRp4067
ssS'navajowhite'
p4068
(dp4069
g4
g5
((lp4070
S'ENSG00000165156'
p4071
aS'ENSG00000203685'
p4072
aS'ENSG00000166313'
p4073
aS'ENSG00000111237'
p4074
aS'ENSG00000100982'
p4075
aS'ENSG00000243566'
p4076
aS'ENSG00000151327'
p4077
aS'ENSG00000103043'
p4078
aS'ENSG00000143224'
p4079
aS'ENSG00000151612'
p4080
aS'ENSG00000116791'
p4081
aS'ENSG00000170382'
p4082
aS'ENSG00000112139'
p4083
aS'ENSG00000102753'
p4084
aS'ENSG00000109171'
p4085
aS'ENSG00000135976'
p4086
aS'ENSG00000105270'
p4087
atRp4088
ssS'pink3'
p4089
(dp4090
g4
g5
((lp4091
S'ENSG00000125534'
p4092
aS'ENSG00000172247'
p4093
aS'ENSG00000198060'
p4094
aS'ENSG00000108375'
p4095
aS'ENSG00000162139'
p4096
aS'ENSG00000146540'
p4097
aS'ENSG00000187091'
p4098
aS'ENSG00000135622'
p4099
aS'ENSG00000099817'
p4100
aS'ENSG00000124767'
p4101
aS'ENSG00000111676'
p4102
aS'ENSG00000055955'
p4103
aS'ENSG00000136144'
p4104
aS'ENSG00000139344'
p4105
aS'ENSG00000206535'
p4106
aS'ENSG00000099785'
p4107
atRp4108
ssS'mediumpurple3'
p4109
(dp4110
g4
g5
((lp4111
S'ENSG00000178982'
p4112
aS'ENSG00000171130'
p4113
aS'ENSG00000155850'
p4114
aS'ENSG00000163697'
p4115
aS'ENSG00000176473'
p4116
aS'ENSG00000104969'
p4117
aS'ENSG00000167740'
p4118
aS'ENSG00000183431'
p4119
aS'ENSG00000108813'
p4120
aS'ENSG00000188554'
p4121
aS'ENSG00000197548'
p4122
aS'ENSG00000113303'
p4123
aS'ENSG00000060642'
p4124
aS'ENSG00000122873'
p4125
aS'ENSG00000140043'
p4126
aS'ENSG00000089101'
p4127
aS'ENSG00000241186'
p4128
aS'ENSG00000121542'
p4129
aS'ENSG00000087085'
p4130
aS'ENSG00000139636'
p4131
aS'ENSG00000111961'
p4132
aS'ENSG00000188234'
p4133
aS'ENSG00000162144'
p4134
atRp4135
ssS'burlywood'
p4136
(dp4137
g4
g5
((lp4138
S'ENSG00000112812'
p4139
aS'ENSG00000113621'
p4140
aS'ENSG00000169031'
p4141
aS'ENSG00000133805'
p4142
aS'ENSG00000168938'
p4143
aS'ENSG00000160087'
p4144
aS'ENSG00000063127'
p4145
aS'ENSG00000091844'
p4146
aS'ENSG00000176014'
p4147
aS'ENSG00000167280'
p4148
aS'ENSG00000203668'
p4149
aS'ENSG00000081052'
p4150
atRp4151
ssS'royalblue'
p4152
(dp4153
g40
(lp4154
(lp4155
g1436
aFinf
ag44
(g46
S'\xa3\xe1\x95\xea\xb9w\xa3?'
tRp4156
ag44
(g46
S'\xa0\xe1\x95\xea\xb9w\xa3?'
tRp4157
aasg4
g5
((lp4158
S'ENSG00000125787'
p4159
aS'ENSG00000198131'
p4160
aS'ENSG00000166529'
p4161
aS'ENSG00000109101'
p4162
aS'ENSG00000067208'
p4163
aS'ENSG00000140319'
p4164
aS'ENSG00000168038'
p4165
aS'ENSG00000152484'
p4166
aS'ENSG00000155542'
p4167
aS'ENSG00000169403'
p4168
aS'ENSG00000028203'
p4169
aS'ENSG00000162882'
p4170
aS'ENSG00000115129'
p4171
aS'ENSG00000165282'
p4172
aS'ENSG00000196072'
p4173
aS'ENSG00000176293'
p4174
aS'ENSG00000144230'
p4175
aS'ENSG00000169994'
p4176
aS'ENSG00000176155'
p4177
aS'ENSG00000221838'
p4178
aS'ENSG00000124831'
p4179
aS'ENSG00000141642'
p4180
aS'ENSG00000122643'
p4181
aS'ENSG00000141458'
p4182
aS'ENSG00000176593'
p4183
aS'ENSG00000258366'
p4184
atRp4185
ssS'blanchedalmond'
p4186
(dp4187
g40
(lp4188
(lp4189
g2704
aFinf
ag44
(g46
S'$\xf7"D\xf6%o?'
tRp4190
ag44
(g46
S'@F\xd5(\x99\xf8\x8e?'
tRp4191
aa(lp4192
S'ENSG00000165905'
p4193
aFinf
ag44
(g46
S'\xc9\xc4iRz+\x82?'
tRp4194
ag44
(g46
S'`\xd5\xcb|\x7f\x03\x9b?'
tRp4195
aa(lp4196
S'ENSG00000164695'
p4197
aFinf
ag44
(g46
S'\xc9\xc4iRz+\x82?'
tRp4198
ag44
(g46
S'`\xd5\xcb|\x7f\x03\x9b?'
tRp4199
aa(lp4200
S'ENSG00000171219'
p4201
aFinf
ag44
(g46
S'\xc9\xc4iRz+\x82?'
tRp4202
ag44
(g46
S'`\xd5\xcb|\x7f\x03\x9b?'
tRp4203
aasg4
g5
((lp4204
S'ENSG00000197937'
p4205
aS'ENSG00000204049'
p4206
aS'ENSG00000172382'
p4207
aS'ENSG00000203705'
p4208
aS'ENSG00000188505'
p4209
aS'ENSG00000151208'
p4210
aS'ENSG00000138399'
p4211
aS'ENSG00000170949'
p4212
aS'ENSG00000170954'
p4213
aS'ENSG00000228032'
p4214
aS'ENSG00000181031'
p4215
aS'ENSG00000069849'
p4216
aS'ENSG00000022556'
p4217
atRp4218
ssS'mistyrose1'
p4219
(dp4220
g4
g5
((lp4221
S'ENSG00000145979'
p4222
aS'ENSG00000013561'
p4223
aS'ENSG00000175581'
p4224
aS'ENSG00000232629'
p4225
aS'ENSG00000126088'
p4226
aS'ENSG00000237541'
p4227
aS'ENSG00000143185'
p4228
atRp4229
ssS'peru'
p4230
(dp4231
g40
(lp4232
(lp4233
S'ENSG00000254363'
p4234
aFinf
ag44
(g46
S':\xfd"D\xf6%o?'
tRp4235
ag44
(g46
S'\x80\x80\xea\xd3\xa5\xbc\x9e?'
tRp4236
aasg4
g5
((lp4237
S'ENSG00000235268'
p4238
aS'ENSG00000166220'
p4239
aS'ENSG00000163206'
p4240
aS'ENSG00000187166'
p4241
aS'ENSG00000163467'
p4242
aS'ENSG00000198326'
p4243
aS'ENSG00000124678'
p4244
aS'ENSG00000166796'
p4245
aS'ENSG00000177143'
p4246
aS'ENSG00000188051'
p4247
aS'ENSG00000165443'
p4248
atRp4249
ssS'aquamarine'
p4250
(dp4251
g4
g5
((lp4252
S'ENSG00000158246'
p4253
aS'ENSG00000166478'
p4254
aS'ENSG00000183621'
p4255
aS'ENSG00000162641'
p4256
aS'ENSG00000182134'
p4257
aS'ENSG00000171103'
p4258
aS'ENSG00000001167'
p4259
aS'ENSG00000157379'
p4260
aS'ENSG00000087116'
p4261
aS'ENSG00000168528'
p4262
atRp4263
ssS'white'
p4264
(dp4265
g4
g5
((lp4266
S'ENSG00000124731'
p4267
aS'ENSG00000115738'
p4268
aS'ENSG00000198099'
p4269
aS'ENSG00000011590'
p4270
aS'ENSG00000162341'
p4271
aS'ENSG00000118418'
p4272
aS'ENSG00000153234'
p4273
aS'ENSG00000255374'
p4274
aS'ENSG00000176907'
p4275
aS'ENSG00000134107'
p4276
aS'ENSG00000187758'
p4277
aS'ENSG00000204147'
p4278
aS'ENSG00000144815'
p4279
aS'ENSG00000170153'
p4280
aS'ENSG00000125046'
p4281
aS'ENSG00000177182'
p4282
aS'ENSG00000144407'
p4283
aS'ENSG00000171223'
p4284
aS'ENSG00000142178'
p4285
aS'ENSG00000101307'
p4286
aS'ENSG00000171174'
p4287
aS'ENSG00000170909'
p4288
aS'ENSG00000188707'
p4289
aS'ENSG00000186074'
p4290
atRp4291
ssS'tan4'
p4292
(dp4293
g4
g5
((lp4294
S'ENSG00000068097'
p4295
aS'ENSG00000148290'
p4296
aS'ENSG00000175893'
p4297
aS'ENSG00000116151'
p4298
aS'ENSG00000151445'
p4299
aS'ENSG00000173597'
p4300
aS'ENSG00000181392'
p4301
aS'ENSG00000104361'
p4302
aS'ENSG00000134198'
p4303
aS'ENSG00000254685'
p4304
aS'ENSG00000183617'
p4305
aS'ENSG00000116783'
p4306
aS'ENSG00000100647'
p4307
aS'ENSG00000135842'
p4308
aS'ENSG00000120063'
p4309
aS'ENSG00000180902'
p4310
aS'ENSG00000100628'
p4311
atRp4312
ssS'tan3'
p4313
(dp4314
g4
g5
((lp4315
S'ENSG00000176783'
p4316
aS'ENSG00000137486'
p4317
aS'ENSG00000178927'
p4318
aS'ENSG00000168802'
p4319
aS'ENSG00000186652'
p4320
aS'ENSG00000149474'
p4321
aS'ENSG00000184470'
p4322
aS'ENSG00000203630'
p4323
aS'ENSG00000165983'
p4324
aS'ENSG00000170381'
p4325
aS'ENSG00000141959'
p4326
aS'ENSG00000085465'
p4327
aS'ENSG00000124570'
p4328
aS'ENSG00000115866'
p4329
aS'ENSG00000132394'
p4330
atRp4331
ssS'tan2'
p4332
(dp4333
g4
g5
((lp4334
S'ENSG00000081041'
p4335
aS'ENSG00000163938'
p4336
aS'ENSG00000197217'
p4337
aS'ENSG00000221869'
p4338
aS'ENSG00000107968'
p4339
aS'ENSG00000147457'
p4340
aS'ENSG00000168778'
p4341
aS'ENSG00000136997'
p4342
aS'ENSG00000136158'
p4343
aS'ENSG00000174652'
p4344
aS'ENSG00000111850'
p4345
aS'ENSG00000204227'
p4346
aS'ENSG00000146223'
p4347
aS'ENSG00000160961'
p4348
atRp4349
ssS'tan1'
p4350
(dp4351
g40
(lp4352
(lp4353
S'ENSG00000145321'
p4354
aFinf
ag44
(g46
S'\xae\xca\x99\x85k\xb5\x11?'
tRp4355
ag44
(g46
S'\x00\xc6F\xb5!\xbal?'
tRp4356
aa(lp4357
S'ENSG00000101076'
p4358
aFinf
ag44
(g46
S'\xae\xca\x99\x85k\xb5\x11?'
tRp4359
ag44
(g46
S'\x00\xc6F\xb5!\xbal?'
tRp4360
aasg4
g5
((lp4361
S'ENSG00000173335'
p4362
aS'ENSG00000132693'
p4363
aS'ENSG00000171497'
p4364
aS'ENSG00000118271'
p4365
aS'ENSG00000156222'
p4366
aS'ENSG00000172113'
p4367
aS'ENSG00000111671'
p4368
aS'ENSG00000055957'
p4369
aS'ENSG00000172482'
p4370
aS'ENSG00000134812'
p4371
aS'ENSG00000117601'
p4372
aS'ENSG00000138109'
p4373
atRp4374
ssS'royalblue3'
p4375
(dp4376
g4
g5
((lp4377
S'ENSG00000138172'
p4378
aS'ENSG00000184232'
p4379
aS'ENSG00000152767'
p4380
aS'ENSG00000103351'
p4381
aS'ENSG00000178685'
p4382
aS'ENSG00000178209'
p4383
aS'ENSG00000160055'
p4384
aS'ENSG00000243678'
p4385
aS'ENSG00000106686'
p4386
aS'ENSG00000164610'
p4387
aS'ENSG00000145777'
p4388
aS'ENSG00000121064'
p4389
aS'ENSG00000143222'
p4390
aS'ENSG00000139323'
p4391
aS'ENSG00000182993'
p4392
atRp4393
ssS'tomato'
p4394
(dp4395
g40
(lp4396
(lp4397
g3534
aFinf
ag44
(g46
S'a\xa3\xca\x13w\x8d\x8c?'
tRp4398
ag44
(g46
S'\x80\xa3\xca\x13w\x8d\x8c?'
tRp4399
aasg4
g5
((lp4400
S'ENSG00000212670'
p4401
aS'ENSG00000141429'
p4402
aS'ENSG00000183576'
p4403
aS'ENSG00000160049'
p4404
aS'ENSG00000018408'
p4405
aS'ENSG00000162852'
p4406
aS'ENSG00000059758'
p4407
aS'ENSG00000167236'
p4408
aS'ENSG00000198478'
p4409
aS'ENSG00000168497'
p4410
aS'ENSG00000206344'
p4411
aS'ENSG00000204632'
p4412
aS'ENSG00000198898'
p4413
aS'ENSG00000128928'
p4414
aS'ENSG00000267596'
p4415
atRp4416
ssS'ivory'
p4417
(dp4418
g40
(lp4419
(lp4420
S'ENSG00000265489'
p4421
ag44
(g46
S'%I\x92$I\x92[@'
tRp4422
ag44
(g46
S'\xdb\xe5x&Y\x83t>'
tRp4423
ag44
(g46
S'\x00\x00/\x0c+\x8d\xe3>'
tRp4424
aa(lp4425
S'ENSG00000152583'
p4426
ag44
(g46
S'%I\x92$I\x92[@'
tRp4427
ag44
(g46
S'\xdb\xe5x&Y\x83t>'
tRp4428
ag44
(g46
S'\x00\x00/\x0c+\x8d\xe3>'
tRp4429
aa(lp4430
S'ENSG00000131471'
p4431
ag44
(g46
S'ffffffI@'
tRp4432
ag44
(g46
S'W:\xff\x13\x19\x88\x82>'
tRp4433
ag44
(g46
S'\x00\x004(\x8e_\xf1>'
tRp4434
aa(lp4435
S'ENSG00000141052'
p4436
ag44
(g46
S'ffffffI@'
tRp4437
ag44
(g46
S'W:\xff\x13\x19\x88\x82>'
tRp4438
ag44
(g46
S'\x00\x004(\x8e_\xf1>'
tRp4439
aa(lp4440
S'ENSG00000169418'
p4441
ag44
(g46
S'ffffffI@'
tRp4442
ag44
(g46
S'W:\xff\x13\x19\x88\x82>'
tRp4443
ag44
(g46
S'\x00\x004(\x8e_\xf1>'
tRp4444
aa(lp4445
S'ENSG00000101955'
p4446
ag44
(g46
S'ffffffI@'
tRp4447
ag44
(g46
S'W:\xff\x13\x19\x88\x82>'
tRp4448
ag44
(g46
S'\x00\x004(\x8e_\xf1>'
tRp4449
aa(lp4450
S'ENSG00000109610'
p4451
ag44
(g46
S'ffffffI@'
tRp4452
ag44
(g46
S'W:\xff\x13\x19\x88\x82>'
tRp4453
ag44
(g46
S'\x00\x004(\x8e_\xf1>'
tRp4454
aa(lp4455
S'ENSG00000102802'
p4456
ag44
(g46
S'\x00\x00\x00\x00\x00\xc8G@'
tRp4457
ag44
(g46
S'\x07YF-\xa7O\x89>'
tRp4458
ag44
(g46
S'\x00\x00\x9f-\x80\xbd\xf6>'
tRp4459
aa(lp4460
S'ENSG00000103942'
p4461
ag44
(g46
S'\x00\x00\x00\x00\x00\xc8G@'
tRp4462
ag44
(g46
S'\x07YF-\xa7O\x89>'
tRp4463
ag44
(g46
S'\x00\x00\x9f-\x80\xbd\xf6>'
tRp4464
aa(lp4465
S'ENSG00000076706'
p4466
ag44
(g46
S'\x00\x00\x00\x00\x00\xc8G@'
tRp4467
ag44
(g46
S'\x07YF-\xa7O\x89>'
tRp4468
ag44
(g46
S'\x00\x00\x9f-\x80\xbd\xf6>'
tRp4469
aa(lp4470
S'ENSG00000148671'
p4471
ag44
(g46
S'\x00\x00\x00\x00\x00\xc8G@'
tRp4472
ag44
(g46
S'\x07YF-\xa7O\x89>'
tRp4473
ag44
(g46
S'\x00\x00\x9f-\x80\xbd\xf6>'
tRp4474
aa(lp4475
S'ENSG00000095637'
p4476
ag44
(g46
S'ZZZZZZF@'
tRp4477
ag44
(g46
S'\xc2\xae\xb0=\x0c\x02\x91>'
tRp4478
ag44
(g46
S'\x00\x80\xb3Hr\x7f\xfd>'
tRp4479
aa(lp4480
S'ENSG00000173175'
p4481
ag44
(g46
S'ZZZZZZF@'
tRp4482
ag44
(g46
S'\xc2\xae\xb0=\x0c\x02\x91>'
tRp4483
ag44
(g46
S'\x00\x80\xb3Hr\x7f\xfd>'
tRp4484
aa(lp4485
S'ENSG00000065923'
p4486
ag44
(g46
S'ZZZZZZF@'
tRp4487
ag44
(g46
S'\xc2\xae\xb0=\x0c\x02\x91>'
tRp4488
ag44
(g46
S'\x00\x80\xb3Hr\x7f\xfd>'
tRp4489
aa(lp4490
S'ENSG00000177666'
p4491
ag44
(g46
S'UUUUU\x15E@'
tRp4492
ag44
(g46
S';\xbf\xe2\x84\x9f\x86\x96>'
tRp4493
ag44
(g46
S'\x00\xc0\xec9\x80\x01\x03?'
tRp4494
aa(lp4495
S'ENSG00000221866'
p4496
ag44
(g46
S'UUUUU\x15E@'
tRp4497
ag44
(g46
S';\xbf\xe2\x84\x9f\x86\x96>'
tRp4498
ag44
(g46
S'\x00\xc0\xec9\x80\x01\x03?'
tRp4499
aa(lp4500
S'ENSG00000186205'
p4501
ag44
(g46
S'UUUUU\x15E@'
tRp4502
ag44
(g46
S';\xbf\xe2\x84\x9f\x86\x96>'
tRp4503
ag44
(g46
S'\x00\xc0\xec9\x80\x01\x03?'
tRp4504
aa(lp4505
S'ENSG00000076555'
p4506
ag44
(g46
S'UUUUU\x15E@'
tRp4507
ag44
(g46
S';\xbf\xe2\x84\x9f\x86\x96>'
tRp4508
ag44
(g46
S'\x00\xc0\xec9\x80\x01\x03?'
tRp4509
aa(lp4510
S'ENSG00000183807'
p4511
ag44
(g46
S'%I\x92$I*Q@'
tRp4512
ag44
(g46
S'2n\xf8\x18\x84\x9b\x99>'
tRp4513
ag44
(g46
S'\x00@\xb6\x88@\xce\x04?'
tRp4514
aa(lp4515
S'ENSG00000163430'
p4516
ag44
(g46
S'(\xaf\xa1\xbc\x86\xf2C@'
tRp4517
ag44
(g46
S's\xa3\xc5(\xefp\x9d>'
tRp4518
ag44
(g46
S'\x00\x00\xf3\xb5\xbd\xb0\x07?'
tRp4519
aa(lp4520
g3456
ag44
(g46
S'\xe0\x07~\xe0\x07~:@'
tRp4521
ag44
(g46
S'\xdd\xfd\x05r\x12\xf1\xae>'
tRp4522
ag44
(g46
S'\x00\xc0\xbds\xcf\xa7\x18?'
tRp4523
aa(lp4524
S'ENSG00000163239'
p4525
ag44
(g46
S'\x16\xb2\x90\x85,d@@'
tRp4526
ag44
(g46
S'\x1b\xe5Q\xcb\xc87\xb3>'
tRp4527
ag44
(g46
S'\x00 \xab\x0b\x97S\x1e?'
tRp4528
aa(lp4529
S'ENSG00000204262'
p4530
ag44
(g46
S'\x16\xb2\x90\x85,d@@'
tRp4531
ag44
(g46
S'\x1b\xe5Q\xcb\xc87\xb3>'
tRp4532
ag44
(g46
S'\x00 \xab\x0b\x97S\x1e?'
tRp4533
aa(lp4534
S'ENSG00000135917'
p4535
ag44
(g46
S'"y\x1b\x92\xb7!9@'
tRp4536
ag44
(g46
S'[\xeb\x8c8\xc2\x08\xb5>'
tRp4537
ag44
(g46
S'\x00\x90\xb6\xb8\x84D ?'
tRp4538
aa(lp4539
S'ENSG00000164692'
p4540
ag44
(g46
S'\x00\x00\x00\x00\x00`?@'
tRp4541
ag44
(g46
S'zB\x0bmi\xdc\xb7>'
tRp4542
ag44
(g46
S'\x000\x00#nD"?'
tRp4543
aa(lp4544
g1436
ag44
(g46
S'\x00\x00\x00\x00\x00`?@'
tRp4545
ag44
(g46
S'zB\x0bmi\xdc\xb7>'
tRp4546
ag44
(g46
S'\x000\x00#nD"?'
tRp4547
aa(lp4548
g3461
ag44
(g46
S'\x00\x00\x00\x00\x00\x808@'
tRp4549
ag44
(g46
S'\xd7\xc8\xaf\xb5\x80e\xb8>'
tRp4550
ag44
(g46
S'\x00\xd0\x9f\xb5\xcdK"?'
tRp4551
aa(lp4552
S'ENSG00000134871'
p4553
ag44
(g46
S"'vb'v\xe2<@"
tRp4554
ag44
(g46
S'k\xbaj\xbf\xab\xf6\xc1>'
tRp4555
ag44
(g46
S'\x00P\xdf\x11w\xa9*?'
tRp4556
aa(lp4557
S'ENSG00000175445'
p4558
ag44
(g46
S'\x00\x00\x00\x00\x00\xc0:@'
tRp4559
ag44
(g46
S'n\xd8\xbb\x80JM\xca>'
tRp4560
ag44
(g46
S'\x00\xf8\xec+\nP3?'
tRp4561
aa(lp4562
S'ENSG00000112214'
p4563
ag44
(g46
S'\xcd\xcc\xcc\xcc\xccLS@'
tRp4564
ag44
(g46
S'\x1c\xf6e@\x96V\xcf>'
tRp4565
ag44
(g46
S'\x00\x08\x00\xc4\xe8\xc36?'
tRp4566
aa(lp4567
S'ENSG00000169692'
p4568
ag44
(g46
S'\x8c.\xba\xe8\xa2\x8b6@'
tRp4569
ag44
(g46
S'\x85\xf7\xa9\x1d\xa0\xd6\xde>'
tRp4570
ag44
(g46
S'\x00\x1cm&\n\xfcE?'
tRp4571
aa(lp4572
S'ENSG00000176435'
p4573
ag44
(g46
S'8\xca\xee7\xca\xee?@'
tRp4574
ag44
(g46
S'\x1b\x83\xffU\xea\x98\xde>'
tRp4575
ag44
(g46
S'\x00\x1cm&\n\xfcE?'
tRp4576
aa(lp4577
S'ENSG00000162618'
p4578
ag44
(g46
S'\xf1g\xc2\x9f\t\x7f<@'
tRp4579
ag44
(g46
S'u\x1dH\xaf"R\xe8>'
tRp4580
ag44
(g46
S'\x004\xeb8~\x17Q?'
tRp4581
aa(lp4582
S'ENSG00000085276'
p4583
ag44
(g46
S'\xf1g\xc2\x9f\t\x7f<@'
tRp4584
ag44
(g46
S'u\x1dH\xaf"R\xe8>'
tRp4585
ag44
(g46
S'\x004\xeb8~\x17Q?'
tRp4586
aa(lp4587
S'ENSG00000077942'
p4588
ag44
(g46
S'\x00\x00\x00\x00\x00\x004@'
tRp4589
ag44
(g46
S'\x1cl\xcb\x96_\t\xec>'
tRp4590
ag44
(g46
S'\x00L\xd6`\x93CS?'
tRp4591
aa(lp4592
S'ENSG00000056998'
p4593
ag44
(g46
S'\x89\x88\x88\x88\x88\x88.@'
tRp4594
ag44
(g46
S'\x05\x96\xe4\xed\xe4\x80\xed>'
tRp4595
ag44
(g46
S'\x00\xa6F\xe7\x80\nT?'
tRp4596
aa(lp4597
S'ENSG00000011465'
p4598
ag44
(g46
S'\xc5N\xec\xc4N\xec2@'
tRp4599
ag44
(g46
S'-\xdd\xa0\x90uy\xf2>'
tRp4600
ag44
(g46
S'\x00\x10jXt\xceX?'
tRp4601
aa(lp4602
S'ENSG00000104213'
p4603
ag44
(g46
S'\xc5N\xec\xc4N\xec2@'
tRp4604
ag44
(g46
S'-\xdd\xa0\x90uy\xf2>'
tRp4605
ag44
(g46
S'\x00\x10jXt\xceX?'
tRp4606
aa(lp4607
S'ENSG00000156298'
p4608
ag44
(g46
S'n\xdb\xb6m\xdb\xb69@'
tRp4609
ag44
(g46
S'S-\xcfZ/\x89\xf2>'
tRp4610
ag44
(g46
S'\x00\x10jXt\xceX?'
tRp4611
aa(lp4612
g3199
ag44
(g46
S'tK\x9c\xfa=\xb7,@'
tRp4613
ag44
(g46
S'l\xcd_G\xe1\xba\xf5>'
tRp4614
ag44
(g46
S'\x00\xc0"\xd3;(\\?'
tRp4615
aa(lp4616
S'ENSG00000079435'
p4617
ag44
(g46
S'*A\x9e\x12\xe4).@'
tRp4618
ag44
(g46
S'X\xa4\xef~\xe1\x13\xf9>'
tRp4619
ag44
(g46
S'\x00\x160P\xc1\x0c`?'
tRp4620
aa(lp4621
S'ENSG00000112769'
p4622
ag44
(g46
S'\xcd\xcc\xcc\xcc\xcc,C@'
tRp4623
ag44
(g46
S'\xa4\x0c\xdf\xae\xc8\xdd\xfd>'
tRp4624
ag44
(g46
S'\x00P\x17\xe2\xd6\xe0b?'
tRp4625
aa(lp4626
S'ENSG00000187498'
p4627
ag44
(g46
S'\xc4\x1dqG\xdc\x111@'
tRp4628
ag44
(g46
S'\xaf\x14\xe9\xf9\xf5\xdb\xfe>'
tRp4629
ag44
(g46
S'\x00u\xad\x80\xbdCc?'
tRp4630
aa(lp4631
S'ENSG00000126217'
p4632
ag44
(g46
S'\x1c\xc2!\x1c\xc2\xa14@'
tRp4633
ag44
(g46
S'\xab\n\x93oN\x0b\x07?'
tRp4634
ag44
(g46
S'\x00\x0b\x9f\xe2|el?'
tRp4635
aa(lp4636
S'ENSG00000116016'
p4637
ag44
(g46
S'v]\xd7u]\xd73@'
tRp4638
ag44
(g46
S'\xbd\xd3\xd5\x90\x8b\x1a\x0b?'
tRp4639
ag44
(g46
S'\x80\x84H\x89\xc5{p?'
tRp4640
aa(lp4641
S'ENSG00000162733'
p4642
ag44
(g46
S'\xbc\xbb\xbb\xbb\xbb\xbbI@'
tRp4643
ag44
(g46
S'\xd5\x8e\xd1\xba\xfe\xf6"?'
tRp4644
ag44
(g46
S'\x80&\xd8l*\xb1\x86?'
tRp4645
aa(lp4646
S'ENSG00000169282'
p4647
ag44
(g46
S'\xbc\xbb\xbb\xbb\xbb\xbbI@'
tRp4648
ag44
(g46
S'\xd5\x8e\xd1\xba\xfe\xf6"?'
tRp4649
ag44
(g46
S'\x80&\xd8l*\xb1\x86?'
tRp4650
aa(lp4651
S'ENSG00000044524'
p4652
ag44
(g46
S'\xbc\xbb\xbb\xbb\xbb\xbbI@'
tRp4653
ag44
(g46
S'\xd5\x8e\xd1\xba\xfe\xf6"?'
tRp4654
ag44
(g46
S'\x80&\xd8l*\xb1\x86?'
tRp4655
aasg4
g5
((lp4656
S'ENSG00000074181'
p4657
aS'ENSG00000065060'
p4658
aS'ENSG00000197951'
p4659
aS'ENSG00000185808'
p4660
aS'ENSG00000105650'
p4661
aS'ENSG00000103742'
p4662
aS'ENSG00000197380'
p4663
aS'ENSG00000109705'
p4664
aS'ENSG00000099994'
p4665
aS'ENSG00000134243'
p4666
aS'ENSG00000187715'
p4667
aS'ENSG00000162998'
p4668
aS'ENSG00000132849'
p4669
aS'ENSG00000138286'
p4670
aS'ENSG00000058866'
p4671
aS'ENSG00000163568'
p4672
aS'ENSG00000112214'
p4673
aS'ENSG00000111404'
p4674
aS'ENSG00000109452'
p4675
aS'ENSG00000164176'
p4676
aS'ENSG00000174749'
p4677
aS'ENSG00000186417'
p4678
atRp4679
ssS'lightyellow'
p4680
(dp4681
g40
(lp4682
(lp4683
S'ENSG00000173369'
p4684
ag44
(g46
S']t\xd1E\x17\x1dj@'
tRp4685
ag44
(g46
S'\xf9$\x08\xab{\x0b@='
tRp4686
ag44
(g46
S'\x00\x00\x00\x00\xc0\x15\x8d='
tRp4687
aa(lp4688
S'ENSG00000173372'
p4689
ag44
(g46
S'\x00\x00\x00\x00\x00\x80k@'
tRp4690
ag44
(g46
S'\xa3\x14\xd2\xd772n='
tRp4691
ag44
(g46
S'\x00\x00\x00\x00\xc0k\xba='
tRp4692
aa(lp4693
S'ENSG00000019169'
p4694
ag44
(g46
S'\x00\x00\x00\x00\x00@c@'
tRp4695
ag44
(g46
S'\x86\x00\xfah\xa2\x88\xd3='
tRp4696
ag44
(g46
S'\x00\x00\x00\xb0H{ >'
tRp4697
aa(lp4698
S'ENSG00000110079'
p4699
ag44
(g46
S'\x00\x00\x00\x00\x00\x80[@'
tRp4700
ag44
(g46
S'i\xde3\xbeg\xc73>'
tRp4701
ag44
(g46
S'\x00\x00\x80<\x04\x12\x80>'
tRp4702
aa(lp4703
S'ENSG00000165457'
p4704
ag44
(g46
S'\xab\xaa\xaa\xaa\xaajE@'
tRp4705
ag44
(g46
S'\xc2\x8a\xb9\xeb\xd03,?'
tRp4706
ag44
(g46
S'\x80b\xe3\t\xf1\xf9u?'
tRp4707
aa(lp4708
S'ENSG00000105383'
p4709
ag44
(g46
S'\x00\x00\x00\x00\x00`S@'
tRp4710
ag44
(g46
S'P\xb7R\xe4\xd3\x84T?'
tRp4711
ag44
(g46
S'\xa0\x13FE\xccV\x9e?'
tRp4712
aasg4
g5
((lp4713
S'ENSG00000134955'
p4714
aS'ENSG00000088930'
p4715
aS'ENSG00000104921'
p4716
aS'ENSG00000116406'
p4717
aS'ENSG00000183748'
p4718
aS'ENSG00000135341'
p4719
aS'ENSG00000120586'
p4720
aS'ENSG00000010327'
p4721
aS'ENSG00000187987'
p4722
aS'ENSG00000140749'
p4723
aS'ENSG00000167815'
p4724
aS'ENSG00000254531'
p4725
aS'ENSG00000038945'
p4726
aS'ENSG00000101158'
p4727
aS'ENSG00000072694'
p4728
aS'ENSG00000019169'
p4729
aS'ENSG00000138814'
p4730
aS'ENSG00000146192'
p4731
aS'ENSG00000204169'
p4732
aS'ENSG00000124356'
p4733
aS'ENSG00000110079'
p4734
aS'ENSG00000139233'
p4735
aS'ENSG00000088827'
p4736
aS'ENSG00000132514'
p4737
aS'ENSG00000161640'
p4738
aS'ENSG00000182578'
p4739
atRp4740
ssS'paleturquoise1'
p4741
(dp4742
g4
g5
((lp4743
S'ENSG00000186910'
p4744
aS'ENSG00000108370'
p4745
aS'ENSG00000180914'
p4746
aS'ENSG00000213888'
p4747
aS'ENSG00000223496'
p4748
aS'ENSG00000157322'
p4749
aS'ENSG00000256762'
p4750
aS'ENSG00000164199'
p4751
aS'ENSG00000145451'
p4752
aS'ENSG00000123364'
p4753
atRp4754
ssS'chocolate'
p4755
(dp4756
g4
g5
((lp4757
S'ENSG00000181074'
p4758
aS'ENSG00000176945'
p4759
aS'ENSG00000133321'
p4760
aS'ENSG00000008513'
p4761
aS'ENSG00000184887'
p4762
aS'ENSG00000110492'
p4763
aS'ENSG00000103723'
p4764
aS'ENSG00000147894'
p4765
aS'ENSG00000160767'
p4766
aS'ENSG00000185272'
p4767
atRp4768
ssS'lightpink2'
p4769
(dp4770
g4
g5
((lp4771
S'ENSG00000141002'
p4772
aS'ENSG00000100191'
p4773
aS'ENSG00000152760'
p4774
aS'ENSG00000138767'
p4775
aS'ENSG00000188643'
p4776
aS'ENSG00000117586'
p4777
aS'ENSG00000204540'
p4778
aS'ENSG00000152256'
p4779
aS'ENSG00000158865'
p4780
aS'ENSG00000196693'
p4781
aS'ENSG00000138246'
p4782
aS'ENSG00000204538'
p4783
aS'ENSG00000128185'
p4784
aS'ENSG00000116679'
p4785
aS'ENSG00000186976'
p4786
aS'ENSG00000180155'
p4787
atRp4788
ssS'lightpink3'
p4789
(dp4790
g4
g5
((lp4791
S'ENSG00000272636'
p4792
aS'ENSG00000198780'
p4793
aS'ENSG00000196562'
p4794
aS'ENSG00000203872'
p4795
aS'ENSG00000065243'
p4796
aS'ENSG00000183160'
p4797
aS'ENSG00000176978'
p4798
aS'ENSG00000105982'
p4799
aS'ENSG00000086288'
p4800
aS'ENSG00000127507'
p4801
aS'ENSG00000137273'
p4802
aS'ENSG00000112293'
p4803
aS'ENSG00000197969'
p4804
aS'ENSG00000163012'
p4805
aS'ENSG00000075340'
p4806
aS'ENSG00000198920'
p4807
aS'ENSG00000239665'
p4808
aS'ENSG00000171533'
p4809
aS'ENSG00000152672'
p4810
atRp4811
ssS'lightpink1'
p4812
(dp4813
g40
(lp4814
(lp4815
S'ENSG00000228639'
p4816
ag44
(g46
S'\x00\x00\x00\x00\x00\x90\x88@'
tRp4817
ag44
(g46
S'\x80G\x90\x00\x9a\xc0t?'
tRp4818
ag44
(g46
S'\x80G\x90\x00\x9a\xc0t?'
tRp4819
aasg4
g5
((lp4820
S'ENSG00000256515'
p4821
aS'ENSG00000172613'
p4822
aS'ENSG00000125834'
p4823
aS'ENSG00000138030'
p4824
aS'ENSG00000152104'
p4825
aS'ENSG00000100578'
p4826
aS'ENSG00000084764'
p4827
aS'ENSG00000164414'
p4828
aS'ENSG00000118900'
p4829
aS'ENSG00000089163'
p4830
aS'ENSG00000071189'
p4831
aS'ENSG00000109572'
p4832
aS'ENSG00000198915'
p4833
aS'ENSG00000134077'
p4834
aS'ENSG00000170175'
p4835
atRp4836
ssS'darkgrey'
p4837
(dp4838
g4
g5
((lp4839
S'ENSG00000112787'
p4840
aS'ENSG00000075336'
p4841
aS'ENSG00000213015'
p4842
aS'ENSG00000261221'
p4843
aS'ENSG00000184307'
p4844
aS'ENSG00000166913'
p4845
aS'ENSG00000151846'
p4846
aS'ENSG00000171853'
p4847
aS'ENSG00000141994'
p4848
aS'ENSG00000188242'
p4849
aS'ENSG00000167526'
p4850
aS'ENSG00000238243'
p4851
aS'ENSG00000229809'
p4852
aS'ENSG00000137434'
p4853
aS'ENSG00000225556'
p4854
aS'ENSG00000124444'
p4855
aS'ENSG00000269558'
p4856
aS'ENSG00000152475'
p4857
aS'ENSG00000197841'
p4858
aS'ENSG00000142233'
p4859
aS'ENSG00000181444'
p4860
aS'ENSG00000135334'
p4861
aS'ENSG00000256771'
p4862
aS'ENSG00000120370'
p4863
aS'ENSG00000133250'
p4864
atRp4865
ssS'lightpink4'
p4866
(dp4867
g4
g5
((lp4868
S'ENSG00000100197'
p4869
aS'ENSG00000182253'
p4870
aS'ENSG00000184292'
p4871
aS'ENSG00000189157'
p4872
aS'ENSG00000066248'
p4873
aS'ENSG00000130787'
p4874
aS'ENSG00000171714'
p4875
aS'ENSG00000111341'
p4876
aS'ENSG00000146416'
p4877
aS'ENSG00000062485'
p4878
aS'ENSG00000134533'
p4879
aS'ENSG00000147676'
p4880
aS'ENSG00000178386'
p4881
aS'ENSG00000174482'
p4882
aS'ENSG00000154027'
p4883
aS'ENSG00000153029'
p4884
aS'ENSG00000139926'
p4885
aS'ENSG00000117069'
p4886
aS'ENSG00000105894'
p4887
aS'ENSG00000198363'
p4888
aS'ENSG00000103852'
p4889
atRp4890
ssS'darkseagreen3'
p4891
(dp4892
g40
(lp4893
(lp4894
S'ENSG00000163751'
p4895
aFinf
ag44
(g46
S'\x0b\xfe\xc1\x82\xf9\xc3T?'
tRp4896
ag44
(g46
S'\x00\xf4\xe5\x1d\xdc\x1bo?'
tRp4897
aa(lp4898
S'ENSG00000172236'
p4899
aFinf
ag44
(g46
S'\xfa\x01\xc2\x82\xf9\xc3d?'
tRp4900
ag44
(g46
S'\x00\x07\xb8\xae<\xbdt?'
tRp4901
aa(lp4902
S'ENSG00000197253'
p4903
aFinf
ag44
(g46
S'\xfa\x01\xc2\x82\xf9\xc3d?'
tRp4904
ag44
(g46
S'\x00\x07\xb8\xae<\xbdt?'
tRp4905
aasg4
g5
((lp4906
S'ENSG00000007171'
p4907
aS'ENSG00000239704'
p4908
aS'ENSG00000198203'
p4909
aS'ENSG00000128699'
p4910
aS'ENSG00000185518'
p4911
aS'ENSG00000128563'
p4912
aS'ENSG00000125409'
p4913
aS'ENSG00000188991'
p4914
aS'ENSG00000134627'
p4915
aS'ENSG00000105355'
p4916
aS'ENSG00000203760'
p4917
aS'ENSG00000175115'
p4918
aS'ENSG00000101342'
p4919
aS'ENSG00000226524'
p4920
aS'ENSG00000186907'
p4921
aS'ENSG00000114670'
p4922
aS'ENSG00000015475'
p4923
aS'ENSG00000196458'
p4924
aS'ENSG00000184385'
p4925
atRp4926
ssS'antiquewhite'
p4927
(dp4928
g40
(lp4929
(lp4930
S'ENSG00000204580'
p4931
aFinf
ag44
(g46
S':\xfd"D\xf6%o?'
tRp4932
ag44
(g46
S'\xe0\xe2\xeb8\x14\xbd\xa8?'
tRp4933
aasg4
g5
((lp4934
S'ENSG00000183454'
p4935
aS'ENSG00000172318'
p4936
aS'ENSG00000156535'
p4937
aS'ENSG00000178104'
p4938
aS'ENSG00000014641'
p4939
aS'ENSG00000242612'
p4940
aS'ENSG00000166263'
p4941
aS'ENSG00000140471'
p4942
aS'ENSG00000182463'
p4943
aS'ENSG00000143951'
p4944
aS'ENSG00000187862'
p4945
aS'ENSG00000176920'
p4946
aS'ENSG00000178381'
p4947
atRp4948
ssS'darkorange2'
p4949
(dp4950
g4
g5
((lp4951
S'ENSG00000163050'
p4952
aS'ENSG00000023608'
p4953
aS'ENSG00000096746'
p4954
aS'ENSG00000075234'
p4955
aS'ENSG00000038219'
p4956
aS'ENSG00000080298'
p4957
aS'ENSG00000112110'
p4958
aS'ENSG00000135472'
p4959
aS'ENSG00000164144'
p4960
aS'ENSG00000155254'
p4961
aS'ENSG00000127463'
p4962
aS'ENSG00000113593'
p4963
aS'ENSG00000112902'
p4964
aS'ENSG00000128578'
p4965
aS'ENSG00000135736'
p4966
aS'ENSG00000135973'
p4967
aS'ENSG00000118402'
p4968
aS'ENSG00000181104'
p4969
aS'ENSG00000168000'
p4970
aS'ENSG00000095917'
p4971
aS'ENSG00000134504'
p4972
aS'ENSG00000197020'
p4973
atRp4974
ssS'cornsilk2'
p4975
(dp4976
g40
(lp4977
(lp4978
S'ENSG00000006071'
p4979
aFinf
ag44
(g46
S'\x16\xfe\xc1\x82\xf9\xc3d?'
tRp4980
ag44
(g46
S'@Z\xc8\xc3\xcb\xaf\x84?'
tRp4981
aa(lp4982
S'ENSG00000011347'
p4983
ag44
(g46
S'\x00\x00\x00\x00\x00\x90\x88@'
tRp4984
ag44
(g46
S'\x80G\x90\x00\x9a\xc0t?'
tRp4985
ag44
(g46
S'\x00\x1b@\x9e\x98\xf8\x8e?'
tRp4986
aa(lp4987
S'ENSG00000112379'
p4988
ag44
(g46
S'\x00\x00\x00\x00\x00\x90\x88@'
tRp4989
ag44
(g46
S'\x80G\x90\x00\x9a\xc0t?'
tRp4990
ag44
(g46
S'\x00\x1b@\x9e\x98\xf8\x8e?'
tRp4991
aa(lp4992
S'ENSG00000124839'
p4993
ag44
(g46
S'UUUUU%P@'
tRp4994
ag44
(g46
S'\x96\xc3\xd7\x84W\xbe\xa0?'
tRp4995
ag44
(g46
S'\x90\xc3\xd7\x84W\xbe\xa0?'
tRp4996
aasg4
g5
((lp4997
S'ENSG00000250506'
p4998
aS'ENSG00000104626'
p4999
aS'ENSG00000257949'
p5000
aS'ENSG00000185736'
p5001
aS'ENSG00000157335'
p5002
aS'ENSG00000172661'
p5003
aS'ENSG00000125247'
p5004
aS'ENSG00000132600'
p5005
aS'ENSG00000151353'
p5006
aS'ENSG00000138119'
p5007
aS'ENSG00000143036'
p5008
atRp5009
ssS'khaki2'
p5010
(dp5011
g4
g5
((lp5012
S'ENSG00000108984'
p5013
aS'ENSG00000008517'
p5014
aS'ENSG00000188672'
p5015
aS'ENSG00000154265'
p5016
aS'ENSG00000167065'
p5017
atRp5018
ssS'moccasin'
p5019
(dp5020
g4
g5
((lp5021
S'ENSG00000196235'
p5022
aS'ENSG00000148484'
p5023
aS'ENSG00000167792'
p5024
aS'ENSG00000076924'
p5025
aS'ENSG00000174780'
p5026
aS'ENSG00000105618'
p5027
aS'ENSG00000196365'
p5028
aS'ENSG00000090273'
p5029
aS'ENSG00000178950'
p5030
aS'ENSG00000100726'
p5031
aS'ENSG00000105298'
p5032
aS'ENSG00000137076'
p5033
aS'ENSG00000198373'
p5034
aS'ENSG00000110455'
p5035
aS'ENSG00000168397'
p5036
atRp5037
ssS'chocolate1'
p5038
(dp5039
g4
g5
((lp5040
S'ENSG00000171813'
p5041
aS'ENSG00000164494'
p5042
aS'ENSG00000110786'
p5043
aS'ENSG00000135387'
p5044
aS'ENSG00000168883'
p5045
aS'ENSG00000148814'
p5046
aS'ENSG00000079313'
p5047
aS'ENSG00000240771'
p5048
aS'ENSG00000198408'
p5049
aS'ENSG00000125912'
p5050
aS'ENSG00000186777'
p5051
aS'ENSG00000101197'
p5052
atRp5053
ssS'chocolate2'
p5054
(dp5055
g4
g5
((lp5056
S'ENSG00000125648'
p5057
aS'ENSG00000204681'
p5058
aS'ENSG00000147669'
p5059
aS'ENSG00000197599'
p5060
aS'ENSG00000162572'
p5061
aS'ENSG00000165271'
p5062
aS'ENSG00000138111'
p5063
aS'ENSG00000131899'
p5064
aS'ENSG00000131944'
p5065
aS'ENSG00000175170'
p5066
aS'ENSG00000186862'
p5067
aS'ENSG00000168827'
p5068
aS'ENSG00000204946'
p5069
atRp5070
ssS'chocolate3'
p5071
(dp5072
g40
(lp5073
(lp5074
g2563
aFinf
ag44
(g46
S'+\xfd"D\xf6%\x7f?'
tRp5075
ag44
(g46
S'\x00\xfd"D\xf6%\x7f?'
tRp5076
aasg4
g5
((lp5077
S'ENSG00000117984'
p5078
aS'ENSG00000021762'
p5079
aS'ENSG00000185684'
p5080
aS'ENSG00000152154'
p5081
aS'ENSG00000157637'
p5082
aS'ENSG00000104728'
p5083
aS'ENSG00000099957'
p5084
aS'ENSG00000106665'
p5085
aS'ENSG00000078579'
p5086
aS'ENSG00000109066'
p5087
aS'ENSG00000164615'
p5088
aS'ENSG00000177335'
p5089
aS'ENSG00000152683'
p5090
aS'ENSG00000147471'
p5091
aS'ENSG00000183323'
p5092
atRp5093
ssS'chocolate4'
p5094
(dp5095
g40
(lp5096
(lp5097
S'ENSG00000174788'
p5098
aFinf
ag44
(g46
S'\x0b\xfe\xc1\x82\xf9\xc3T?'
tRp5099
ag44
(g46
S'\x00\xfe\xc1\x82\xf9\xc3T?'
tRp5100
aasg4
g5
((lp5101
S'ENSG00000245888'
p5102
aS'ENSG00000161542'
p5103
aS'ENSG00000106733'
p5104
aS'ENSG00000196355'
p5105
aS'ENSG00000006042'
p5106
aS'ENSG00000172469'
p5107
aS'ENSG00000176715'
p5108
aS'ENSG00000169371'
p5109
aS'ENSG00000197563'
p5110
aS'ENSG00000117899'
p5111
aS'ENSG00000141698'
p5112
aS'ENSG00000069966'
p5113
aS'ENSG00000186132'
p5114
aS'ENSG00000179163'
p5115
aS'ENSG00000169490'
p5116
aS'ENSG00000106853'
p5117
atRp5118
ssS'darkslateblue'
p5119
(dp5120
g4
g5
((lp5121
S'ENSG00000073350'
p5122
aS'ENSG00000007341'
p5123
aS'ENSG00000087274'
p5124
aS'ENSG00000179023'
p5125
aS'ENSG00000166762'
p5126
aS'ENSG00000160191'
p5127
aS'ENSG00000165171'
p5128
aS'ENSG00000142330'
p5129
aS'ENSG00000124143'
p5130
aS'ENSG00000188958'
p5131
aS'ENSG00000125656'
p5132
aS'ENSG00000141527'
p5133
aS'ENSG00000158270'
p5134
aS'ENSG00000204839'
p5135
aS'ENSG00000125637'
p5136
aS'ENSG00000124233'
p5137
aS'ENSG00000124839'
p5138
aS'ENSG00000178623'
p5139
aS'ENSG00000113645'
p5140
aS'ENSG00000069275'
p5141
aS'ENSG00000089692'
p5142
aS'ENSG00000116489'
p5143
atRp5144
ssS'lightskyblue'
p5145
(dp5146
g40
(lp5147
(lp5148
S'ENSG00000206047'
p5149
aFinf
ag44
(g46
S'x!\xb7uPL\t?'
tRp5150
ag44
(g46
S'\x00\xb8g\xce\x15\x1fV?'
tRp5151
aa(lp5152
S'ENSG00000239839'
p5153
aFinf
ag44
(g46
S'x!\xb7uPL\t?'
tRp5154
ag44
(g46
S'\x00\xb8g\xce\x15\x1fV?'
tRp5155
aa(lp5156
S'ENSG00000164821'
p5157
aFinf
ag44
(g46
S'x!\xb7uPL\t?'
tRp5158
ag44
(g46
S'\x00\xb8g\xce\x15\x1fV?'
tRp5159
aasg4
g5
((lp5160
S'ENSG00000172232'
p5161
aS'ENSG00000006611'
p5162
aS'ENSG00000228146'
p5163
aS'ENSG00000174837'
p5164
aS'ENSG00000159339'
p5165
aS'ENSG00000008438'
p5166
aS'ENSG00000124469'
p5167
aS'ENSG00000170866'
p5168
aS'ENSG00000054219'
p5169
atRp5170
ssS'salmon1'
p5171
(dp5172
g4
g5
((lp5173
S'ENSG00000156968'
p5174
aS'ENSG00000120688'
p5175
aS'ENSG00000160948'
p5176
aS'ENSG00000241258'
p5177
aS'ENSG00000266714'
p5178
aS'ENSG00000123096'
p5179
aS'ENSG00000147576'
p5180
aS'ENSG00000162976'
p5181
aS'ENSG00000115419'
p5182
aS'ENSG00000172954'
p5183
aS'ENSG00000120686'
p5184
aS'ENSG00000047932'
p5185
aS'ENSG00000172262'
p5186
aS'ENSG00000125485'
p5187
aS'ENSG00000112137'
p5188
aS'ENSG00000105676'
p5189
aS'ENSG00000226180'
p5190
atRp5191
ssS'thistle'
p5192
(dp5193
g4
g5
((lp5194
S'ENSG00000159131'
p5195
aS'ENSG00000174243'
p5196
aS'ENSG00000165275'
p5197
aS'ENSG00000064419'
p5198
aS'ENSG00000177479'
p5199
aS'ENSG00000089006'
p5200
aS'ENSG00000162869'
p5201
aS'ENSG00000177683'
p5202
aS'ENSG00000198231'
p5203
aS'ENSG00000103549'
p5204
aS'ENSG00000015676'
p5205
aS'ENSG00000137074'
p5206
aS'ENSG00000177951'
p5207
aS'ENSG00000129158'
p5208
aS'ENSG00000101161'
p5209
aS'ENSG00000144362'
p5210
aS'ENSG00000067334'
p5211
aS'ENSG00000163106'
p5212
aS'ENSG00000139722'
p5213
atRp5214
ssS'deeppink'
p5215
(dp5216
g40
(lp5217
(lp5218
S'ENSG00000131242'
p5219
aFinf
ag44
(g46
S'$\xf7"D\xf6%o?'
tRp5220
ag44
(g46
S'P\xd1\xe9i\x0e\x03\xa5?'
tRp5221
aa(lp5222
S'ENSG00000132182'
p5223
aFinf
ag44
(g46
S'$\xf7"D\xf6%o?'
tRp5224
ag44
(g46
S'P\xd1\xe9i\x0e\x03\xa5?'
tRp5225
aa(lp5226
S'ENSG00000174567'
p5227
aFinf
ag44
(g46
S'$\xf7"D\xf6%o?'
tRp5228
ag44
(g46
S'P\xd1\xe9i\x0e\x03\xa5?'
tRp5229
aa(lp5230
S'ENSG00000142765'
p5231
aFinf
ag44
(g46
S'\xff\x05\xc2\x82\xf9\xc3t?'
tRp5232
ag44
(g46
S'P\xd1\xe9i\x0e\x03\xa5?'
tRp5233
aasg4
g5
((lp5234
S'ENSG00000155749'
p5235
aS'ENSG00000115750'
p5236
aS'ENSG00000185339'
p5237
aS'ENSG00000118690'
p5238
aS'ENSG00000197081'
p5239
aS'ENSG00000167766'
p5240
aS'ENSG00000103269'
p5241
aS'ENSG00000167670'
p5242
aS'ENSG00000165006'
p5243
aS'ENSG00000114480'
p5244
aS'ENSG00000170959'
p5245
aS'ENSG00000112981'
p5246
aS'ENSG00000128039'
p5247
aS'ENSG00000197302'
p5248
aS'ENSG00000136243'
p5249
aS'ENSG00000144199'
p5250
aS'ENSG00000118997'
p5251
atRp5252
ssS'plum'
p5253
(dp5254
g4
g5
((lp5255
S'ENSG00000161981'
p5256
aS'ENSG00000185432'
p5257
aS'ENSG00000243667'
p5258
aS'ENSG00000153157'
p5259
aS'ENSG00000206530'
p5260
aS'ENSG00000180011'
p5261
aS'ENSG00000102910'
p5262
aS'ENSG00000179981'
p5263
aS'ENSG00000116014'
p5264
aS'ENSG00000103381'
p5265
aS'ENSG00000256574'
p5266
aS'ENSG00000006715'
p5267
aS'ENSG00000164830'
p5268
aS'ENSG00000168913'
p5269
aS'ENSG00000108556'
p5270
aS'ENSG00000179057'
p5271
aS'ENSG00000222046'
p5272
aS'ENSG00000164904'
p5273
aS'ENSG00000110693'
p5274
aS'ENSG00000163539'
p5275
atRp5276
ssS'goldenrod4'
p5277
(dp5278
g4
g5
((lp5279
S'ENSG00000229117'
p5280
aS'ENSG00000171502'
p5281
aS'ENSG00000171798'
p5282
aS'ENSG00000112218'
p5283
aS'ENSG00000156510'
p5284
aS'ENSG00000160785'
p5285
aS'ENSG00000137106'
p5286
aS'ENSG00000136867'
p5287
aS'ENSG00000172531'
p5288
aS'ENSG00000119915'
p5289
atRp5290
ssS'palegreen4'
p5291
(dp5292
g4
g5
((lp5293
S'ENSG00000215910'
p5294
aS'ENSG00000186807'
p5295
aS'ENSG00000233927'
p5296
aS'ENSG00000069998'
p5297
aS'ENSG00000165390'
p5298
aS'ENSG00000150165'
p5299
aS'ENSG00000178562'
p5300
atRp5301
ssS'darkgoldenrod'
p5302
(dp5303
g40
(lp5304
(lp5305
g106
aFinf
ag44
(g46
S'\xff\x05\xc2\x82\xf9\xc3t?'
tRp5306
ag44
(g46
S'\xa0\xb0jy\xaf\x9b\x94?'
tRp5307
aasg4
g5
((lp5308
S'ENSG00000136425'
p5309
aS'ENSG00000108094'
p5310
aS'ENSG00000100296'
p5311
aS'ENSG00000109272'
p5312
aS'ENSG00000100376'
p5313
aS'ENSG00000124875'
p5314
aS'ENSG00000122176'
p5315
aS'ENSG00000163918'
p5316
aS'ENSG00000021826'
p5317
atRp5318
ssS'red1'
p5319
(dp5320
g4
g5
((lp5321
S'ENSG00000125871'
p5322
aS'ENSG00000141141'
p5323
aS'ENSG00000168765'
p5324
aS'ENSG00000101017'
p5325
aS'ENSG00000152359'
p5326
aS'ENSG00000163608'
p5327
aS'ENSG00000050393'
p5328
aS'ENSG00000105397'
p5329
aS'ENSG00000134201'
p5330
aS'ENSG00000134202'
p5331
aS'ENSG00000164151'
p5332
aS'ENSG00000134184'
p5333
atRp5334
ssS'maroon'
p5335
(dp5336
g40
(lp5337
(lp5338
g4637
ag44
(g46
S'v]\xd7u]\xd73@'
tRp5339
ag44
(g46
S'\xbd\xd3\xd5\x90\x8b\x1a\x0b?'
tRp5340
ag44
(g46
S'\x80v\x03\xbadX\x80?'
tRp5341
aa(lp5342
g4578
ag44
(g46
S'\xcd\xcc\xcc\xcc\xcc\xec2@'
tRp5343
ag44
(g46
S'\x89N\x93\x89\xf8=2?'
tRp5344
ag44
(g46
S'\xa0?\x07V\x96|\xa5?'
tRp5345
aa(lp5346
g4583
ag44
(g46
S'\xcd\xcc\xcc\xcc\xcc\xec2@'
tRp5347
ag44
(g46
S'\x89N\x93\x89\xf8=2?'
tRp5348
ag44
(g46
S'\xa0?\x07V\x96|\xa5?'
tRp5349
aasg4
g5
((lp5350
S'ENSG00000152932'
p5351
aS'ENSG00000105976'
p5352
aS'ENSG00000164171'
p5353
aS'ENSG00000119185'
p5354
aS'ENSG00000134716'
p5355
aS'ENSG00000115353'
p5356
aS'ENSG00000165272'
p5357
aS'ENSG00000148541'
p5358
aS'ENSG00000115944'
p5359
aS'ENSG00000119844'
p5360
aS'ENSG00000002016'
p5361
aS'ENSG00000197696'
p5362
aS'ENSG00000137822'
p5363
aS'ENSG00000116833'
p5364
aS'ENSG00000137033'
p5365
aS'ENSG00000213088'
p5366
aS'ENSG00000168672'
p5367
aS'ENSG00000214756'
p5368
aS'ENSG00000107614'
p5369
aS'ENSG00000166173'
p5370
aS'ENSG00000105755'
p5371
atRp5372
ssS'lightcyan1'
p5373
(dp5374
g4
g5
((lp5375
S'ENSG00000214087'
p5376
aS'ENSG00000166321'
p5377
aS'ENSG00000124225'
p5378
aS'ENSG00000142961'
p5379
aS'ENSG00000122965'
p5380
aS'ENSG00000083814'
p5381
aS'ENSG00000137522'
p5382
aS'ENSG00000123360'
p5383
aS'ENSG00000125877'
p5384
aS'ENSG00000134575'
p5385
aS'ENSG00000140284'
p5386
aS'ENSG00000107611'
p5387
aS'ENSG00000179909'
p5388
aS'ENSG00000062370'
p5389
aS'ENSG00000154930'
p5390
aS'ENSG00000113248'
p5391
aS'ENSG00000139531'
p5392
aS'ENSG00000189350'
p5393
aS'ENSG00000188992'
p5394
aS'ENSG00000268948'
p5395
aS'ENSG00000172653'
p5396
aS'ENSG00000127903'
p5397
atRp5398
ssS'turquoise2'
p5399
(dp5400
g4
g5
((lp5401
S'ENSG00000066427'
p5402
aS'ENSG00000197728'
p5403
aS'ENSG00000064270'
p5404
aS'ENSG00000128534'
p5405
aS'ENSG00000115112'
p5406
aS'ENSG00000148690'
p5407
aS'ENSG00000183474'
p5408
aS'ENSG00000144161'
p5409
aS'ENSG00000145736'
p5410
aS'ENSG00000065457'
p5411
atRp5412
ssS'burlywood1'
p5413
(dp5414
g40
(lp5415
(lp5416
g2563
aFinf
ag44
(g46
S'+\xfd"D\xf6%\x7f?'
tRp5417
ag44
(g46
S'\x00\xfd"D\xf6%\x7f?'
tRp5418
aasg4
g5
((lp5419
S'ENSG00000197479'
p5420
aS'ENSG00000146433'
p5421
aS'ENSG00000116396'
p5422
aS'ENSG00000108786'
p5423
aS'ENSG00000198015'
p5424
aS'ENSG00000120328'
p5425
aS'ENSG00000166839'
p5426
aS'ENSG00000149295'
p5427
aS'ENSG00000137996'
p5428
aS'ENSG00000142599'
p5429
aS'ENSG00000087301'
p5430
atRp5431
ssS'seashell3'
p5432
(dp5433
g40
(lp5434
(lp5435
g4899
aFinf
ag44
(g46
S'\xfa\x01\xc2\x82\xf9\xc3d?'
tRp5436
ag44
(g46
S'\x00\x07\xb8\xae<\xbdt?'
tRp5437
aa(lp5438
g4903
aFinf
ag44
(g46
S'\xfa\x01\xc2\x82\xf9\xc3d?'
tRp5439
ag44
(g46
S'\x00\x07\xb8\xae<\xbdt?'
tRp5440
aasg4
g5
((lp5441
S'ENSG00000102595'
p5442
aS'ENSG00000185803'
p5443
aS'ENSG00000182325'
p5444
aS'ENSG00000165646'
p5445
aS'ENSG00000218739'
p5446
aS'ENSG00000105492'
p5447
aS'ENSG00000165650'
p5448
aS'ENSG00000196678'
p5449
aS'ENSG00000214435'
p5450
aS'ENSG00000258231'
p5451
atRp5452
ssS'magenta'
p5453
(dp5454
g4
g5
((lp5455
S'ENSG00000106263'
p5456
aS'ENSG00000196431'
p5457
aS'ENSG00000109047'
p5458
aS'ENSG00000227057'
p5459
aS'ENSG00000198498'
p5460
aS'ENSG00000138363'
p5461
aS'ENSG00000156414'
p5462
aS'ENSG00000122386'
p5463
aS'ENSG00000152749'
p5464
aS'ENSG00000142864'
p5465
aS'ENSG00000127054'
p5466
aS'ENSG00000037042'
p5467
aS'ENSG00000159228'
p5468
aS'ENSG00000167112'
p5469
aS'ENSG00000159164'
p5470
aS'ENSG00000106018'
p5471
aS'ENSG00000181163'
p5472
aS'ENSG00000090581'
p5473
aS'ENSG00000116191'
p5474
aS'ENSG00000006744'
p5475
aS'ENSG00000173442'
p5476
aS'ENSG00000138039'
p5477
aS'ENSG00000242485'
p5478
aS'ENSG00000125901'
p5479
aS'ENSG00000152642'
p5480
aS'ENSG00000205560'
p5481
aS'ENSG00000179950'
p5482
aS'ENSG00000204351'
p5483
aS'ENSG00000164985'
p5484
aS'ENSG00000173546'
p5485
aS'ENSG00000102678'
p5486
aS'ENSG00000197713'
p5487
aS'ENSG00000066654'
p5488
atRp5489
ssS'burlywood2'
p5490
(dp5491
g4
g5
((lp5492
S'ENSG00000120265'
p5493
aS'ENSG00000106819'
p5494
aS'ENSG00000092201'
p5495
aS'ENSG00000168661'
p5496
aS'ENSG00000111642'
p5497
aS'ENSG00000143799'
p5498
aS'ENSG00000152240'
p5499
aS'ENSG00000148832'
p5500
aS'ENSG00000163521'
p5501
atRp5502
ssS'violet'
p5503
(dp5504
g4
g5
((lp5505
S'ENSG00000177646'
p5506
aS'ENSG00000156127'
p5507
aS'ENSG00000129625'
p5508
aS'ENSG00000174989'
p5509
aS'ENSG00000120669'
p5510
aS'ENSG00000157653'
p5511
aS'ENSG00000117122'
p5512
aS'ENSG00000112659'
p5513
aS'ENSG00000006607'
p5514
aS'ENSG00000104205'
p5515
aS'ENSG00000160051'
p5516
aS'ENSG00000165055'
p5517
aS'ENSG00000128655'
p5518
aS'ENSG00000144746'
p5519
aS'ENSG00000100347'
p5520
aS'ENSG00000132554'
p5521
aS'ENSG00000059769'
p5522
aS'ENSG00000119227'
p5523
aS'ENSG00000119411'
p5524
aS'ENSG00000196247'
p5525
aS'ENSG00000163389'
p5526
aS'ENSG00000173621'
p5527
aS'ENSG00000140265'
p5528
aS'ENSG00000242616'
p5529
atRp5530
ssS'mistyrose3'
p5531
(dp5532
g4
g5
((lp5533
S'ENSG00000152990'
p5534
aS'ENSG00000144320'
p5535
aS'ENSG00000267127'
p5536
aS'ENSG00000137267'
p5537
aS'ENSG00000215114'
p5538
aS'ENSG00000153922'
p5539
aS'ENSG00000100151'
p5540
aS'ENSG00000173237'
p5541
aS'ENSG00000162944'
p5542
aS'ENSG00000013016'
p5543
aS'ENSG00000137285'
p5544
aS'ENSG00000171444'
p5545
atRp5546
ssS'seashell4'
p5547
(dp5548
g40
(lp5549
(lp5550
S'ENSG00000073282'
p5551
ag44
(g46
S'\x00\x00\x00\x00\x00\x80\x88@'
tRp5552
ag44
(g46
S'\x0e\x87\x1a\x1biN\x0e?'
tRp5553
ag44
(g46
S'\x00060r\xf02?'
tRp5554
aa(lp5555
S'ENSG00000178372'
p5556
aFinf
ag44
(g46
S'!\xfe\xc1\x82\xf9\xc3t?'
tRp5557
ag44
(g46
S'\xc0\xa8jy\xaf\x9b\x94?'
tRp5558
aa(lp5559
S'ENSG00000186081'
p5560
ag44
(g46
S'\x92$I\x92$\t;@'
tRp5561
ag44
(g46
S':$\x16\xf5\xbec\x80?'
tRp5562
ag44
(g46
S'\xc0E\xe9\x92L\xd0\x96?'
tRp5563
aa(lp5564
S'ENSG00000225950'
p5565
ag44
(g46
S'/\xa1\xbd\x84\xf6\x12<@'
tRp5566
ag44
(g46
S'n,\xdb\x0f\x9f\xa5~?'
tRp5567
ag44
(g46
S'\xc0E\xe9\x92L\xd0\x96?'
tRp5568
aasg4
g5
((lp5569
S'ENSG00000143552'
p5570
aS'ENSG00000034533'
p5571
aS'ENSG00000178372'
p5572
aS'ENSG00000099977'
p5573
aS'ENSG00000006282'
p5574
aS'ENSG00000218537'
p5575
aS'ENSG00000142973'
p5576
aS'ENSG00000105141'
p5577
aS'ENSG00000184674'
p5578
aS'ENSG00000134760'
p5579
aS'ENSG00000167325'
p5580
atRp5581
ssS'turquoise4'
p5582
(dp5583
g40
(lp5584
(lp5585
S'ENSG00000204472'
p5586
aFinf
ag44
(g46
S'\x16\xfe\xc1\x82\xf9\xc3d?'
tRp5587
ag44
(g46
S'\xa0g\xdb\xba\x0c\x95\x94?'
tRp5588
aasg4
g5
((lp5589
S'ENSG00000163606'
p5590
aS'ENSG00000139679'
p5591
aS'ENSG00000140400'
p5592
aS'ENSG00000260230'
p5593
aS'ENSG00000138336'
p5594
aS'ENSG00000127083'
p5595
aS'ENSG00000168385'
p5596
aS'ENSG00000198865'
p5597
atRp5598
ssS'pink'
p5599
(dp5600
g4
g5
((lp5601
S'ENSG00000042317'
p5602
aS'ENSG00000140830'
p5603
aS'ENSG00000168522'
p5604
aS'ENSG00000092931'
p5605
aS'ENSG00000108561'
p5606
aS'ENSG00000205138'
p5607
aS'ENSG00000167971'
p5608
aS'ENSG00000161904'
p5609
aS'ENSG00000162227'
p5610
aS'ENSG00000186283'
p5611
aS'ENSG00000205076'
p5612
aS'ENSG00000196335'
p5613
aS'ENSG00000168056'
p5614
aS'ENSG00000125458'
p5615
aS'ENSG00000104899'
p5616
aS'ENSG00000127415'
p5617
aS'ENSG00000134779'
p5618
aS'ENSG00000140279'
p5619
aS'ENSG00000146453'
p5620
aS'ENSG00000128951'
p5621
aS'ENSG00000261701'
p5622
aS'ENSG00000138073'
p5623
aS'ENSG00000176022'
p5624
aS'ENSG00000165644'
p5625
aS'ENSG00000151893'
p5626
aS'ENSG00000111321'
p5627
aS'ENSG00000214753'
p5628
aS'ENSG00000179673'
p5629
aS'ENSG00000178922'
p5630
aS'ENSG00000169230'
p5631
aS'ENSG00000182154'
p5632
aS'ENSG00000257017'
p5633
aS'ENSG00000172123'
p5634
atRp5635
ssS'lightblue'
p5636
(dp5637
g4
g5
((lp5638
S'ENSG00000101457'
p5639
aS'ENSG00000104763'
p5640
aS'ENSG00000115368'
p5641
aS'ENSG00000142632'
p5642
aS'ENSG00000124116'
p5643
aS'ENSG00000155508'
p5644
aS'ENSG00000049283'
p5645
aS'ENSG00000135127'
p5646
aS'ENSG00000206013'
p5647
aS'ENSG00000036549'
p5648
aS'ENSG00000142765'
p5649
atRp5650
ssS'mistyrose2'
p5651
(dp5652
g4
g5
((lp5653
S'ENSG00000131711'
p5654
aS'ENSG00000110328'
p5655
aS'ENSG00000185100'
p5656
aS'ENSG00000099956'
p5657
aS'ENSG00000234719'
p5658
aS'ENSG00000183833'
p5659
aS'ENSG00000197763'
p5660
aS'ENSG00000135124'
p5661
aS'ENSG00000119938'
p5662
aS'ENSG00000106069'
p5663
atRp5664
ssS'slateblue'
p5665
(dp5666
g4
g5
((lp5667
S'ENSG00000012660'
p5668
aS'ENSG00000164880'
p5669
aS'ENSG00000146094'
p5670
aS'ENSG00000239998'
p5671
aS'ENSG00000204577'
p5672
aS'ENSG00000116701'
p5673
aS'ENSG00000081665'
p5674
aS'ENSG00000060982'
p5675
aS'ENSG00000112299'
p5676
aS'ENSG00000105088'
p5677
aS'ENSG00000171051'
p5678
aS'ENSG00000157017'
p5679
aS'ENSG00000091106'
p5680
aS'ENSG00000104972'
p5681
aS'ENSG00000174130'
p5682
aS'ENSG00000254415'
p5683
atRp5684
ssS'sienna4'
p5685
(dp5686
g4
g5
((lp5687
S'ENSG00000175575'
p5688
aS'ENSG00000145020'
p5689
aS'ENSG00000170615'
p5690
aS'ENSG00000144791'
p5691
aS'ENSG00000050327'
p5692
aS'ENSG00000213471'
p5693
aS'ENSG00000145029'
p5694
aS'ENSG00000169684'
p5695
aS'ENSG00000176623'
p5696
aS'ENSG00000101639'
p5697
aS'ENSG00000089177'
p5698
aS'ENSG00000165661'
p5699
aS'ENSG00000076258'
p5700
aS'ENSG00000120942'
p5701
aS'ENSG00000164933'
p5702
aS'ENSG00000163964'
p5703
aS'ENSG00000115457'
p5704
atRp5705
ssS'darkorange'
p5706
(dp5707
g4
g5
((lp5708
S'ENSG00000065809'
p5709
aS'ENSG00000169826'
p5710
aS'ENSG00000072210'
p5711
aS'ENSG00000078142'
p5712
aS'ENSG00000113068'
p5713
aS'ENSG00000248487'
p5714
aS'ENSG00000168936'
p5715
aS'ENSG00000178761'
p5716
aS'ENSG00000129534'
p5717
aS'ENSG00000184389'
p5718
aS'ENSG00000175470'
p5719
aS'ENSG00000156232'
p5720
aS'ENSG00000027847'
p5721
aS'ENSG00000148218'
p5722
aS'ENSG00000178188'
p5723
aS'ENSG00000093072'
p5724
aS'ENSG00000138621'
p5725
aS'ENSG00000163687'
p5726
aS'ENSG00000105699'
p5727
aS'ENSG00000100554'
p5728
aS'ENSG00000166716'
p5729
aS'ENSG00000204138'
p5730
aS'ENSG00000101246'
p5731
aS'ENSG00000172554'
p5732
aS'ENSG00000151498'
p5733
atRp5734
ssS'powderblue'
p5735
(dp5736
g40
(lp5737
(lp5738
S'ENSG00000100312'
p5739
aFinf
ag44
(g46
S'\xfa\x01\xc2\x82\xf9\xc3d?'
tRp5740
ag44
(g46
S'\x80k\xdb\xba\x0c\x95\x94?'
tRp5741
aasg4
g5
((lp5742
S'ENSG00000167447'
p5743
aS'ENSG00000198824'
p5744
aS'ENSG00000135900'
p5745
aS'ENSG00000168806'
p5746
aS'ENSG00000185669'
p5747
aS'ENSG00000170802'
p5748
aS'ENSG00000198818'
p5749
aS'ENSG00000243452'
p5750
aS'ENSG00000112029'
p5751
aS'ENSG00000077238'
p5752
aS'ENSG00000103550'
p5753
aS'ENSG00000213588'
p5754
aS'ENSG00000125812'
p5755
aS'ENSG00000181908'
p5756
aS'ENSG00000164902'
p5757
atRp5758
ssS'red4'
p5759
(dp5760
g4
g5
((lp5761
S'ENSG00000228157'
p5762
aS'ENSG00000184434'
p5763
aS'ENSG00000099984'
p5764
aS'ENSG00000145945'
p5765
aS'ENSG00000213077'
p5766
aS'ENSG00000099974'
p5767
aS'ENSG00000147874'
p5768
aS'ENSG00000133433'
p5769
aS'ENSG00000171916'
p5770
aS'ENSG00000159496'
p5771
atRp5772
ssS'mistyrose4'
p5773
(dp5774
g4
g5
((lp5775
S'ENSG00000111817'
p5776
aS'ENSG00000117640'
p5777
aS'ENSG00000185052'
p5778
aS'ENSG00000197980'
p5779
aS'ENSG00000243710'
p5780
aS'ENSG00000198929'
p5781
aS'ENSG00000102981'
p5782
aS'ENSG00000134744'
p5783
aS'ENSG00000122033'
p5784
aS'ENSG00000111678'
p5785
aS'ENSG00000065621'
p5786
aS'ENSG00000176472'
p5787
aS'ENSG00000116857'
p5788
aS'ENSG00000137806'
p5789
atRp5790
ssS'lightcyan'
p5791
(dp5792
g4
g5
((lp5793
S'ENSG00000232040'
p5794
aS'ENSG00000149256'
p5795
aS'ENSG00000267260'
p5796
aS'ENSG00000138738'
p5797
aS'ENSG00000155970'
p5798
aS'ENSG00000086300'
p5799
aS'ENSG00000101193'
p5800
aS'ENSG00000141956'
p5801
aS'ENSG00000136098'
p5802
aS'ENSG00000154079'
p5803
aS'ENSG00000075975'
p5804
aS'ENSG00000184787'
p5805
aS'ENSG00000077463'
p5806
aS'ENSG00000205269'
p5807
aS'ENSG00000163431'
p5808
aS'ENSG00000162772'
p5809
aS'ENSG00000121716'
p5810
aS'ENSG00000163257'
p5811
aS'ENSG00000128791'
p5812
aS'ENSG00000217442'
p5813
aS'ENSG00000085514'
p5814
aS'ENSG00000214376'
p5815
aS'ENSG00000118507'
p5816
aS'ENSG00000101452'
p5817
aS'ENSG00000140474'
p5818
aS'ENSG00000197261'
p5819
aS'ENSG00000162620'
p5820
aS'ENSG00000074582'
p5821
atRp5822
ssS'sienna1'
p5823
(dp5824
g4
g5
((lp5825
S'ENSG00000110628'
p5826
aS'ENSG00000164924'
p5827
aS'ENSG00000162461'
p5828
aS'ENSG00000182512'
p5829
aS'ENSG00000158286'
p5830
aS'ENSG00000120324'
p5831
aS'ENSG00000105479'
p5832
aS'ENSG00000148459'
p5833
aS'ENSG00000100445'
p5834
aS'ENSG00000196963'
p5835
aS'ENSG00000118017'
p5836
aS'ENSG00000115761'
p5837
aS'ENSG00000250120'
p5838
aS'ENSG00000253731'
p5839
atRp5840
ssS'midnightblue'
p5841
(dp5842
g4
g5
((lp5843
S'ENSG00000155897'
p5844
aS'ENSG00000214946'
p5845
aS'ENSG00000103642'
p5846
aS'ENSG00000197653'
p5847
aS'ENSG00000089876'
p5848
aS'ENSG00000125388'
p5849
aS'ENSG00000070476'
p5850
aS'ENSG00000177294'
p5851
aS'ENSG00000136205'
p5852
aS'ENSG00000173209'
p5853
aS'ENSG00000135951'
p5854
aS'ENSG00000105278'
p5855
aS'ENSG00000102580'
p5856
aS'ENSG00000197140'
p5857
aS'ENSG00000165061'
p5858
aS'ENSG00000078487'
p5859
aS'ENSG00000090060'
p5860
aS'ENSG00000099338'
p5861
aS'ENSG00000162039'
p5862
aS'ENSG00000164989'
p5863
aS'ENSG00000115194'
p5864
aS'ENSG00000004809'
p5865
aS'ENSG00000163793'
p5866
aS'ENSG00000130783'
p5867
aS'ENSG00000143994'
p5868
aS'ENSG00000183977'
p5869
aS'ENSG00000172992'
p5870
aS'ENSG00000105221'
p5871
atRp5872
ssS'paleturquoise'
p5873
(dp5874
g4
g5
((lp5875
S'ENSG00000139192'
p5876
aS'ENSG00000206549'
p5877
aS'ENSG00000161681'
p5878
aS'ENSG00000129646'
p5879
aS'ENSG00000157107'
p5880
aS'ENSG00000171703'
p5881
aS'ENSG00000105518'
p5882
aS'ENSG00000138744'
p5883
aS'ENSG00000100124'
p5884
aS'ENSG00000167528'
p5885
aS'ENSG00000178952'
p5886
aS'ENSG00000124587'
p5887
aS'ENSG00000149089'
p5888
aS'ENSG00000159348'
p5889
aS'ENSG00000162736'
p5890
aS'ENSG00000124140'
p5891
aS'ENSG00000114988'
p5892
aS'ENSG00000111639'
p5893
aS'ENSG00000049860'
p5894
aS'ENSG00000090661'
p5895
aS'ENSG00000151348'
p5896
aS'ENSG00000143162'
p5897
aS'ENSG00000186153'
p5898
aS'ENSG00000125304'
p5899
atRp5900
ssS'purple2'
p5901
(dp5902
g4
g5
((lp5903
S'ENSG00000130770'
p5904
aS'ENSG00000109911'
p5905
aS'ENSG00000101247'
p5906
aS'ENSG00000007372'
p5907
aS'ENSG00000149600'
p5908
aS'ENSG00000120915'
p5909
aS'ENSG00000198130'
p5910
aS'ENSG00000059691'
p5911
aS'ENSG00000113205'
p5912
aS'ENSG00000155275'
p5913
aS'ENSG00000147324'
p5914
aS'ENSG00000253910'
p5915
aS'ENSG00000255150'
p5916
aS'ENSG00000151553'
p5917
atRp5918
ssS'orangered3'
p5919
(dp5920
g40
(lp5921
(lp5922
S'ENSG00000211445'
p5923
aFinf
ag44
(g46
S'\x0b\xfe\xc1\x82\xf9\xc3T?'
tRp5924
ag44
(g46
S'\xc0Y\x1ea\x9c\xee\x8e?'
tRp5925
aa(lp5926
S'ENSG00000182902'
p5927
aFinf
ag44
(g46
S'\x0b\xfe\xc1\x82\xf9\xc3T?'
tRp5928
ag44
(g46
S'\xc0Y\x1ea\x9c\xee\x8e?'
tRp5929
aa(lp5930
S'ENSG00000163884'
p5931
aFinf
ag44
(g46
S'\xfa\x01\xc2\x82\xf9\xc3d?'
tRp5932
ag44
(g46
S"\x80\xca\xe9'\xae\xa9\x99?"
tRp5933
aa(lp5934
S'ENSG00000109906'
p5935
aFinf
ag44
(g46
S'\xfa\x01\xc2\x82\xf9\xc3d?'
tRp5936
ag44
(g46
S"\x80\xca\xe9'\xae\xa9\x99?"
tRp5937
aa(lp5938
S'ENSG00000096060'
p5939
aFinf
ag44
(g46
S'\xff\x05\xc2\x82\xf9\xc3t?'
tRp5940
ag44
(g46
S'P\xf1L6\x99f\xa4?'
tRp5941
aa(lp5942
g1432
aFinf
ag44
(g46
S'\xff\x05\xc2\x82\xf9\xc3t?'
tRp5943
ag44
(g46
S'P\xf1L6\x99f\xa4?'
tRp5944
aasg4
g5
((lp5945
S'ENSG00000137135'
p5946
aS'ENSG00000065268'
p5947
aS'ENSG00000169629'
p5948
aS'ENSG00000105193'
p5949
aS'ENSG00000166912'
p5950
aS'ENSG00000123643'
p5951
aS'ENSG00000187145'
p5952
aS'ENSG00000120451'
p5953
aS'ENSG00000163444'
p5954
aS'ENSG00000168028'
p5955
aS'ENSG00000066855'
p5956
aS'ENSG00000122779'
p5957
aS'ENSG00000171864'
p5958
aS'ENSG00000070614'
p5959
aS'ENSG00000124614'
p5960
aS'ENSG00000142541'
p5961
aS'ENSG00000166664'
p5962
aS'ENSG00000156171'
p5963
aS'ENSG00000118181'
p5964
aS'ENSG00000149273'
p5965
atRp5966
ssS'deeppink2'
p5967
(dp5968
g40
(lp5969
(lp5970
S'ENSG00000070182'
p5971
aFinf
ag44
(g46
S'\x0b\xfe\xc1\x82\xf9\xc3T?'
tRp5972
ag44
(g46
S'\xe0:\x80\xa9\xc0K\x93?'
tRp5973
aasg4
g5
((lp5974
S'ENSG00000106178'
p5975
aS'ENSG00000108256'
p5976
aS'ENSG00000171763'
p5977
aS'ENSG00000140694'
p5978
aS'ENSG00000159267'
p5979
aS'ENSG00000133466'
p5980
aS'ENSG00000169857'
p5981
aS'ENSG00000070495'
p5982
aS'ENSG00000162946'
p5983
aS'ENSG00000089916'
p5984
aS'ENSG00000043514'
p5985
aS'ENSG00000100865'
p5986
aS'ENSG00000219626'
p5987
aS'ENSG00000198298'
p5988
atRp5989
ssS'deeppink1'
p5990
(dp5991
g4
g5
((lp5992
S'ENSG00000167635'
p5993
aS'ENSG00000184517'
p5994
aS'ENSG00000152433'
p5995
aS'ENSG00000177239'
p5996
aS'ENSG00000129933'
p5997
aS'ENSG00000177000'
p5998
aS'ENSG00000166261'
p5999
aS'ENSG00000102858'
p6000
aS'ENSG00000144182'
p6001
aS'ENSG00000101654'
p6002
aS'ENSG00000101216'
p6003
aS'ENSG00000133731'
p6004
aS'ENSG00000031691'
p6005
aS'ENSG00000136021'
p6006
aS'ENSG00000254004'
p6007
atRp6008
ssS'orangered4'
p6009
(dp6010
g40
(lp6011
(lp6012
S'ENSG00000018280'
p6013
aFinf
ag44
(g46
S'\xfa\x01\xc2\x82\xf9\xc3d?'
tRp6014
ag44
(g46
S'\x00m\x81\xf4\x9b\xdf\xa1?'
tRp6015
aasg4
g5
((lp6016
S'ENSG00000144792'
p6017
aS'ENSG00000226124'
p6018
aS'ENSG00000213614'
p6019
aS'ENSG00000164300'
p6020
aS'ENSG00000138085'
p6021
aS'ENSG00000271605'
p6022
aS'ENSG00000131238'
p6023
aS'ENSG00000181192'
p6024
aS'ENSG00000142319'
p6025
aS'ENSG00000132155'
p6026
aS'ENSG00000089063'
p6027
aS'ENSG00000074603'
p6028
aS'ENSG00000188659'
p6029
aS'ENSG00000146574'
p6030
aS'ENSG00000178202'
p6031
aS'ENSG00000120329'
p6032
aS'ENSG00000179240'
p6033
aS'ENSG00000117419'
p6034
aS'ENSG00000109323'
p6035
aS'ENSG00000187607'
p6036
aS'ENSG00000103479'
p6037
aS'ENSG00000145781'
p6038
aS'ENSG00000115561'
p6039
atRp6040
ssS'thistle3'
p6041
(dp6042
g4
g5
((lp6043
S'ENSG00000196455'
p6044
aS'ENSG00000119326'
p6045
aS'ENSG00000173124'
p6046
aS'ENSG00000156787'
p6047
aS'ENSG00000186812'
p6048
aS'ENSG00000112339'
p6049
aS'ENSG00000182919'
p6050
aS'ENSG00000145214'
p6051
aS'ENSG00000131966'
p6052
aS'ENSG00000118514'
p6053
aS'ENSG00000164941'
p6054
aS'ENSG00000122417'
p6055
aS'ENSG00000136875'
p6056
aS'ENSG00000034971'
p6057
aS'ENSG00000159593'
p6058
aS'ENSG00000197363'
p6059
aS'ENSG00000144026'
p6060
aS'ENSG00000213020'
p6061
aS'ENSG00000104312'
p6062
atRp6063
ssS'thistle2'
p6064
(dp6065
g4
g5
((lp6066
S'ENSG00000188747'
p6067
aS'ENSG00000104883'
p6068
aS'ENSG00000106246'
p6069
aS'ENSG00000198046'
p6070
aS'ENSG00000108509'
p6071
aS'ENSG00000135677'
p6072
aS'ENSG00000198646'
p6073
aS'ENSG00000118200'
p6074
aS'ENSG00000128989'
p6075
aS'ENSG00000197355'
p6076
aS'ENSG00000126602'
p6077
aS'ENSG00000243056'
p6078
aS'ENSG00000076513'
p6079
aS'ENSG00000170577'
p6080
aS'ENSG00000079337'
p6081
aS'ENSG00000114841'
p6082
aS'ENSG00000213995'
p6083
aS'ENSG00000151692'
p6084
aS'ENSG00000187187'
p6085
aS'ENSG00000167716'
p6086
aS'ENSG00000168356'
p6087
aS'ENSG00000103319'
p6088
atRp6089
ssS'thistle1'
p6090
(dp6091
g4
g5
((lp6092
S'ENSG00000196653'
p6093
aS'ENSG00000189190'
p6094
aS'ENSG00000185829'
p6095
aS'ENSG00000186446'
p6096
aS'ENSG00000238083'
p6097
aS'ENSG00000133028'
p6098
aS'ENSG00000148943'
p6099
aS'ENSG00000161013'
p6100
aS'ENSG00000150316'
p6101
aS'ENSG00000180257'
p6102
aS'ENSG00000141560'
p6103
aS'ENSG00000112308'
p6104
aS'ENSG00000120071'
p6105
aS'ENSG00000204604'
p6106
aS'ENSG00000120088'
p6107
aS'ENSG00000143466'
p6108
aS'ENSG00000228696'
p6109
aS'ENSG00000176681'
p6110
aS'ENSG00000164039'
p6111
aS'ENSG00000165188'
p6112
aS'ENSG00000186448'
p6113
atRp6114
ssS'sienna2'
p6115
(dp6116
g4
g5
((lp6117
S'ENSG00000127955'
p6118
aS'ENSG00000197769'
p6119
aS'ENSG00000198168'
p6120
aS'ENSG00000162496'
p6121
aS'ENSG00000162591'
p6122
aS'ENSG00000066056'
p6123
aS'ENSG00000183578'
p6124
aS'ENSG00000115275'
p6125
aS'ENSG00000070718'
p6126
aS'ENSG00000135074'
p6127
aS'ENSG00000100336'
p6128
aS'ENSG00000168229'
p6129
aS'ENSG00000164754'
p6130
aS'ENSG00000101000'
p6131
aS'ENSG00000119801'
p6132
aS'ENSG00000050628'
p6133
atRp6134
ssS'salmon'
p6135
(dp6136
g40
(lp6137
(lp6138
g4530
ag44
(g46
S'R\xb8\x1e\x85\xebQN@'
tRp6139
ag44
(g46
S'\xe7\xd9\x9f\x13\xb6#\xf6>'
tRp6140
ag44
(g46
S'\x009\x16\x01\xfa\xe6d?'
tRp6141
aa(lp6142
g4540
ag44
(g46
S'\xd9\x89\x9d\xd8\x89\x1dM@'
tRp6143
ag44
(g46
S'\xc2^\x8b$\x01~\xf9>'
tRp6144
ag44
(g46
S'\x00"\x1d\xa3I\xddg?'
tRp6145
aa(lp6146
g4553
ag44
(g46
S'n\xdb\xb6m\xdb\xf6J@'
tRp6147
ag44
(g46
S'+\x01B\xa4\xb6\xa7\x00?'
tRp6148
ag44
(g46
S'\x00\xa5Mq\x00\xe9n?'
tRp6149
aa(lp6150
g4588
ag44
(g46
S';\xb1\x13;\xb1\x13C@'
tRp6151
ag44
(g46
S'\xc5\xa0\x04\xf6\x89\xec\x1b?'
tRp6152
ag44
(g46
S'@\xf2os)\x95\x89?'
tRp6153
aa(lp6154
g4598
ag44
(g46
S'\x19\x9c\x8f\xc1\xf9\x18B@'
tRp6155
ag44
(g46
S'r\xfd|1\x00\xc9 ?'
tRp6156
ag44
(g46
S'\xc0\xf4\x8e\xb4du\x8e?'
tRp6157
aa(lp6158
g4603
ag44
(g46
S'\x19\x9c\x8f\xc1\xf9\x18B@'
tRp6159
ag44
(g46
S'r\xfd|1\x00\xc9 ?'
tRp6160
ag44
(g46
S'\xc0\xf4\x8e\xb4du\x8e?'
tRp6161
aa(lp6162
g4627
ag44
(g46
S'ffffff@@'
tRp6163
ag44
(g46
S"nvO\x89\xad\xaa'?"
tRp6164
ag44
(g46
S'`\\\x92\x00\xb3\x0b\x95?'
tRp6165
aasg4
g5
((lp6166
S'ENSG00000151657'
p6167
aS'ENSG00000178053'
p6168
aS'ENSG00000188647'
p6169
aS'ENSG00000159713'
p6170
aS'ENSG00000105329'
p6171
aS'ENSG00000127311'
p6172
aS'ENSG00000197782'
p6173
aS'ENSG00000144115'
p6174
aS'ENSG00000102802'
p6175
aS'ENSG00000103145'
p6176
aS'ENSG00000164961'
p6177
aS'ENSG00000165806'
p6178
aS'ENSG00000124212'
p6179
aS'ENSG00000130307'
p6180
aS'ENSG00000080166'
p6181
aS'ENSG00000172687'
p6182
aS'ENSG00000103496'
p6183
aS'ENSG00000175643'
p6184
aS'ENSG00000099377'
p6185
aS'ENSG00000163818'
p6186
aS'ENSG00000169231'
p6187
aS'ENSG00000168477'
p6188
aS'ENSG00000079819'
p6189
aS'ENSG00000188015'
p6190
aS'ENSG00000130511'
p6191
aS'ENSG00000125445'
p6192
aS'ENSG00000141314'
p6193
aS'ENSG00000117868'
p6194
atRp6195
ssS'thistle4'
p6196
(dp6197
g4
g5
((lp6198
S'ENSG00000101473'
p6199
aS'ENSG00000181754'
p6200
aS'ENSG00000091536'
p6201
aS'ENSG00000239779'
p6202
aS'ENSG00000189050'
p6203
aS'ENSG00000156574'
p6204
aS'ENSG00000178809'
p6205
aS'ENSG00000117528'
p6206
aS'ENSG00000136449'
p6207
aS'ENSG00000100731'
p6208
aS'ENSG00000188266'
p6209
aS'ENSG00000125734'
p6210
aS'ENSG00000164068'
p6211
aS'ENSG00000164080'
p6212
aS'ENSG00000116957'
p6213
aS'ENSG00000048471'
p6214
aS'ENSG00000106392'
p6215
atRp6216
ssS'palevioletred'
p6217
(dp6218
g4
g5
((lp6219
S'ENSG00000109832'
p6220
aS'ENSG00000254997'
p6221
aS'ENSG00000141076'
p6222
aS'ENSG00000149100'
p6223
aS'ENSG00000172292'
p6224
aS'ENSG00000104518'
p6225
aS'ENSG00000090054'
p6226
aS'ENSG00000139637'
p6227
aS'ENSG00000130332'
p6228
aS'ENSG00000243811'
p6229
aS'ENSG00000143486'
p6230
aS'ENSG00000014164'
p6231
aS'ENSG00000105085'
p6232
aS'ENSG00000115239'
p6233
aS'ENSG00000125630'
p6234
atRp6235
ssS'oldlace'
p6236
(dp6237
g40
(lp6238
(lp6239
S'ENSG00000135220'
p6240
aFinf
ag44
(g46
S'\x16\xfe\xc1\x82\xf9\xc3d?'
tRp6241
ag44
(g46
S'\x00M\x1f"A\x08\x92?'
tRp6242
aa(lp6243
S'ENSG00000099834'
p6244
aFinf
ag44
(g46
S'\x16\xfe\xc1\x82\xf9\xc3d?'
tRp6245
ag44
(g46
S'\x00M\x1f"A\x08\x92?'
tRp6246
aasg4
g5
((lp6247
S'ENSG00000233198'
p6248
aS'ENSG00000138079'
p6249
aS'ENSG00000182670'
p6250
aS'ENSG00000196502'
p6251
aS'ENSG00000109775'
p6252
aS'ENSG00000268538'
p6253
aS'ENSG00000197498'
p6254
aS'ENSG00000188095'
p6255
aS'ENSG00000013374'
p6256
aS'ENSG00000198569'
p6257
aS'ENSG00000154928'
p6258
atRp6259
ssS'honeydew1'
p6260
(dp6261
g4
g5
((lp6262
S'ENSG00000244693'
p6263
aS'ENSG00000172845'
p6264
aS'ENSG00000109881'
p6265
aS'ENSG00000180245'
p6266
aS'ENSG00000166436'
p6267
aS'ENSG00000119943'
p6268
aS'ENSG00000164010'
p6269
aS'ENSG00000166471'
p6270
aS'ENSG00000141570'
p6271
aS'ENSG00000134007'
p6272
aS'ENSG00000177627'
p6273
aS'ENSG00000188573'
p6274
aS'ENSG00000205659'
p6275
aS'ENSG00000107521'
p6276
aS'ENSG00000167964'
p6277
aS'ENSG00000150093'
p6278
aS'ENSG00000110768'
p6279
aS'ENSG00000091640'
p6280
aS'ENSG00000111880'
p6281
aS'ENSG00000213214'
p6282
aS'ENSG00000183423'
p6283
atRp6284
ssS'hotpink3'
p6285
(dp6286
g40
(lp6287
(lp6288
g5739
aFinf
ag44
(g46
S'\xfa\x01\xc2\x82\xf9\xc3d?'
tRp6289
ag44
(g46
S'\x80k\xdb\xba\x0c\x95\x94?'
tRp6290
aasg4
g5
((lp6291
S'ENSG00000213523'
p6292
aS'ENSG00000198189'
p6293
aS'ENSG00000111405'
p6294
aS'ENSG00000108439'
p6295
aS'ENSG00000117748'
p6296
aS'ENSG00000116237'
p6297
aS'ENSG00000041802'
p6298
aS'ENSG00000103423'
p6299
aS'ENSG00000165678'
p6300
atRp6301
ssS'mediumpurple1'
p6302
(dp6303
g4
g5
((lp6304
S'ENSG00000136810'
p6305
aS'ENSG00000234444'
p6306
aS'ENSG00000174437'
p6307
aS'ENSG00000151148'
p6308
aS'ENSG00000196381'
p6309
aS'ENSG00000179218'
p6310
aS'ENSG00000159199'
p6311
aS'ENSG00000133983'
p6312
aS'ENSG00000184164'
p6313
aS'ENSG00000131778'
p6314
aS'ENSG00000136754'
p6315
aS'ENSG00000132507'
p6316
aS'ENSG00000145349'
p6317
aS'ENSG00000239672'
p6318
aS'ENSG00000182117'
p6319
aS'ENSG00000128228'
p6320
aS'ENSG00000081377'
p6321
atRp6322
ssS'mediumpurple2'
p6323
(dp6324
g4
g5
((lp6325
S'ENSG00000128872'
p6326
aS'ENSG00000165629'
p6327
aS'ENSG00000140740'
p6328
aS'ENSG00000156136'
p6329
aS'ENSG00000115718'
p6330
aS'ENSG00000166881'
p6331
aS'ENSG00000189366'
p6332
aS'ENSG00000091542'
p6333
aS'ENSG00000107438'
p6334
aS'ENSG00000143612'
p6335
aS'ENSG00000145335'
p6336
aS'ENSG00000111445'
p6337
aS'ENSG00000099942'
p6338
aS'ENSG00000165672'
p6339
aS'ENSG00000196407'
p6340
aS'ENSG00000196968'
p6341
aS'ENSG00000162076'
p6342
aS'ENSG00000125885'
p6343
aS'ENSG00000088682'
p6344
aS'ENSG00000072134'
p6345
atRp6346
ssS'lightgreen'
p6347
(dp6348
g4
g5
((lp6349
S'ENSG00000103363'
p6350
aS'ENSG00000131323'
p6351
aS'ENSG00000197045'
p6352
aS'ENSG00000174886'
p6353
aS'ENSG00000172590'
p6354
aS'ENSG00000108528'
p6355
aS'ENSG00000148341'
p6356
aS'ENSG00000108294'
p6357
aS'ENSG00000005156'
p6358
aS'ENSG00000115183'
p6359
aS'ENSG00000137103'
p6360
aS'ENSG00000154305'
p6361
aS'ENSG00000141562'
p6362
aS'ENSG00000135778'
p6363
aS'ENSG00000152582'
p6364
aS'ENSG00000186063'
p6365
aS'ENSG00000088002'
p6366
aS'ENSG00000069812'
p6367
aS'ENSG00000177700'
p6368
aS'ENSG00000126267'
p6369
aS'ENSG00000025156'
p6370
aS'ENSG00000083097'
p6371
aS'ENSG00000173258'
p6372
aS'ENSG00000120675'
p6373
aS'ENSG00000074755'
p6374
aS'ENSG00000133059'
p6375
aS'ENSG00000170906'
p6376
atRp6377
ssS'mediumpurple4'
p6378
(dp6379
g4
g5
((lp6380
S'ENSG00000178802'
p6381
aS'ENSG00000187664'
p6382
aS'ENSG00000106004'
p6383
aS'ENSG00000188779'
p6384
aS'ENSG00000259363'
p6385
aS'ENSG00000105996'
p6386
aS'ENSG00000266173'
p6387
aS'ENSG00000087510'
p6388
aS'ENSG00000076554'
p6389
aS'ENSG00000130518'
p6390
aS'ENSG00000155324'
p6391
aS'ENSG00000100600'
p6392
aS'ENSG00000119414'
p6393
aS'ENSG00000236624'
p6394
aS'ENSG00000176393'
p6395
aS'ENSG00000162738'
p6396
aS'ENSG00000144559'
p6397
aS'ENSG00000158850'
p6398
atRp6399
ssS'pink4'
p6400
(dp6401
g4
g5
((lp6402
S'ENSG00000106348'
p6403
aS'ENSG00000156795'
p6404
aS'ENSG00000164695'
p6405
aS'ENSG00000078053'
p6406
aS'ENSG00000255837'
p6407
aS'ENSG00000196911'
p6408
aS'ENSG00000121318'
p6409
aS'ENSG00000163393'
p6410
aS'ENSG00000222033'
p6411
aS'ENSG00000120008'
p6412
aS'ENSG00000140044'
p6413
aS'ENSG00000075413'
p6414
aS'ENSG00000198740'
p6415
aS'ENSG00000268941'
p6416
aS'ENSG00000212127'
p6417
aS'ENSG00000153291'
p6418
aS'ENSG00000111215'
p6419
atRp6420
ssS'paleturquoise3'
p6421
(dp6422
g4
g5
((lp6423
S'ENSG00000187260'
p6424
aS'ENSG00000123892'
p6425
aS'ENSG00000198315'
p6426
aS'ENSG00000271303'
p6427
aS'ENSG00000137831'
p6428
aS'ENSG00000198431'
p6429
aS'ENSG00000143819'
p6430
aS'ENSG00000130684'
p6431
aS'ENSG00000122591'
p6432
aS'ENSG00000162244'
p6433
aS'ENSG00000117450'
p6434
aS'ENSG00000023909'
p6435
atRp6436
ssS'hotpink4'
p6437
(dp6438
g4
g5
((lp6439
S'ENSG00000145113'
p6440
aS'ENSG00000138152'
p6441
aS'ENSG00000144218'
p6442
aS'ENSG00000070759'
p6443
aS'ENSG00000146122'
p6444
aS'ENSG00000160584'
p6445
aS'ENSG00000184110'
p6446
aS'ENSG00000112992'
p6447
aS'ENSG00000132906'
p6448
aS'ENSG00000115468'
p6449
aS'ENSG00000159023'
p6450
atRp6451
ssS'khaki4'
p6452
(dp6453
g4
g5
((lp6454
S'ENSG00000168803'
p6455
aS'ENSG00000076242'
p6456
aS'ENSG00000213463'
p6457
aS'ENSG00000128708'
p6458
aS'ENSG00000138378'
p6459
aS'ENSG00000128881'
p6460
aS'ENSG00000004777'
p6461
aS'ENSG00000204314'
p6462
aS'ENSG00000149679'
p6463
aS'ENSG00000113194'
p6464
aS'ENSG00000213996'
p6465
aS'ENSG00000077380'
p6466
atRp6467
ssS'darkolivegreen4'
p6468
(dp6469
g4
g5
((lp6470
S'ENSG00000137145'
p6471
aS'ENSG00000256683'
p6472
aS'ENSG00000135828'
p6473
aS'ENSG00000244187'
p6474
aS'ENSG00000196935'
p6475
aS'ENSG00000136270'
p6476
aS'ENSG00000183117'
p6477
aS'ENSG00000140455'
p6478
aS'ENSG00000178055'
p6479
aS'ENSG00000152061'
p6480
aS'ENSG00000162542'
p6481
aS'ENSG00000198836'
p6482
aS'ENSG00000186566'
p6483
aS'ENSG00000119718'
p6484
aS'ENSG00000142207'
p6485
aS'ENSG00000088053'
p6486
aS'ENSG00000198862'
p6487
aS'ENSG00000111596'
p6488
aS'ENSG00000204020'
p6489
aS'ENSG00000166704'
p6490
atRp6491
ssS'darkseagreen4'
p6492
(dp6493
g40
(lp6494
(lp6495
S'ENSG00000113263'
p6496
aFinf
ag44
(g46
S'\x16\xfe\xc1\x82\xf9\xc3d?'
tRp6497
ag44
(g46
S"\x80\xc5\xe9'\xae\xa9\x99?"
tRp6498
aasg4
g5
((lp6499
S'ENSG00000132141'
p6500
aS'ENSG00000080802'
p6501
aS'ENSG00000115145'
p6502
aS'ENSG00000175857'
p6503
aS'ENSG00000136932'
p6504
aS'ENSG00000006128'
p6505
aS'ENSG00000179922'
p6506
aS'ENSG00000093134'
p6507
aS'ENSG00000225830'
p6508
aS'ENSG00000120334'
p6509
aS'ENSG00000253719'
p6510
aS'ENSG00000118596'
p6511
aS'ENSG00000115998'
p6512
aS'ENSG00000135999'
p6513
aS'ENSG00000137574'
p6514
aS'ENSG00000167965'
p6515
aS'ENSG00000104835'
p6516
aS'ENSG00000104738'
p6517
aS'ENSG00000183206'
p6518
aS'ENSG00000006114'
p6519
aS'ENSG00000117226'
p6520
atRp6521
ssS'darkolivegreen1'
p6522
(dp6523
g40
(lp6524
(lp6525
S'ENSG00000171115'
p6526
ag44
(g46
S'\x00\x00\x00\x00\x00hh@'
tRp6527
ag44
(g46
S'\xc6\xc0\x83\xca]\xd82?'
tRp6528
ag44
(g46
S'\x80\x87\xe4Z\xce\xa9x?'
tRp6529
aasg4
g5
((lp6530
S'ENSG00000196345'
p6531
aS'ENSG00000171115'
p6532
aS'ENSG00000145283'
p6533
aS'ENSG00000179144'
p6534
aS'ENSG00000099622'
p6535
aS'ENSG00000100288'
p6536
aS'ENSG00000141295'
p6537
aS'ENSG00000179979'
p6538
aS'ENSG00000164306'
p6539
aS'ENSG00000167615'
p6540
aS'ENSG00000133561'
p6541
aS'ENSG00000167978'
p6542
aS'ENSG00000198035'
p6543
aS'ENSG00000163945'
p6544
aS'ENSG00000213221'
p6545
atRp6546
ssS'darkseagreen2'
p6547
(dp6548
g4
g5
((lp6549
S'ENSG00000113522'
p6550
aS'ENSG00000174226'
p6551
aS'ENSG00000005955'
p6552
aS'ENSG00000101189'
p6553
aS'ENSG00000164086'
p6554
aS'ENSG00000117139'
p6555
aS'ENSG00000180758'
p6556
aS'ENSG00000167565'
p6557
aS'ENSG00000110675'
p6558
aS'ENSG00000166886'
p6559
aS'ENSG00000138095'
p6560
aS'ENSG00000197915'
p6561
aS'ENSG00000241852'
p6562
aS'ENSG00000132122'
p6563
aS'ENSG00000198933'
p6564
aS'ENSG00000126464'
p6565
atRp6566
ssS'darkseagreen1'
p6567
(dp6568
g4
g5
((lp6569
S'ENSG00000204516'
p6570
aS'ENSG00000065183'
p6571
aS'ENSG00000161692'
p6572
aS'ENSG00000153113'
p6573
aS'ENSG00000204525'
p6574
aS'ENSG00000123983'
p6575
aS'ENSG00000136051'
p6576
aS'ENSG00000127328'
p6577
aS'ENSG00000139292'
p6578
aS'ENSG00000053438'
p6579
aS'ENSG00000179299'
p6580
aS'ENSG00000135093'
p6581
aS'ENSG00000136982'
p6582
aS'ENSG00000170113'
p6583
aS'ENSG00000204520'
p6584
atRp6585
ssS'darkolivegreen2'
p6586
(dp6587
g4
g5
((lp6588
S'ENSG00000110074'
p6589
aS'ENSG00000164946'
p6590
aS'ENSG00000111364'
p6591
aS'ENSG00000052723'
p6592
aS'ENSG00000183114'
p6593
aS'ENSG00000147869'
p6594
aS'ENSG00000174606'
p6595
aS'ENSG00000205356'
p6596
aS'ENSG00000141854'
p6597
aS'ENSG00000106066'
p6598
aS'ENSG00000169299'
p6599
aS'ENSG00000180535'
p6600
aS'ENSG00000170464'
p6601
aS'ENSG00000124939'
p6602
aS'ENSG00000234465'
p6603
aS'ENSG00000138400'
p6604
aS'ENSG00000172731'
p6605
atRp6606
ssS'lavenderblush'
p6607
(dp6608
g40
(lp6609
(lp6610
S'ENSG00000131477'
p6611
aFinf
ag44
(g46
S'\xfa\x01\xc2\x82\xf9\xc3d?'
tRp6612
ag44
(g46
S'@^\xc8\xc3\xcb\xaf\x84?'
tRp6613
aa(lp6614
g2674
aFinf
ag44
(g46
S'+\xfd"D\xf6%\x7f?'
tRp6615
ag44
(g46
S'\xe09\xd7\xdc5X\x93?'
tRp6616
aa(lp6617
S'ENSG00000132622'
p6618
aFinf
ag44
(g46
S'\x025\x1a\xb3x\\\x87?'
tRp6619
ag44
(g46
S'\xe09\xd7\xdc5X\x93?'
tRp6620
aa(lp6621
g2669
aFinf
ag44
(g46
S'=hr\xe3\xf7\xf4y?'
tRp6622
ag44
(g46
S'\xe09\xd7\xdc5X\x93?'
tRp6623
aasg4
g5
((lp6624
S'ENSG00000140022'
p6625
aS'ENSG00000159387'
p6626
aS'ENSG00000130312'
p6627
aS'ENSG00000162971'
p6628
aS'ENSG00000130731'
p6629
aS'ENSG00000157045'
p6630
aS'ENSG00000258572'
p6631
aS'ENSG00000048740'
p6632
aS'ENSG00000053900'
p6633
aS'ENSG00000183891'
p6634
aS'ENSG00000183605'
p6635
aS'ENSG00000119599'
p6636
aS'ENSG00000231500'
p6637
aS'ENSG00000114423'
p6638
aS'ENSG00000069329'
p6639
atRp6640
ssS'lightyellow4'
p6641
(dp6642
g40
(lp6643
(lp6644
S'ENSG00000105369'
p6645
aFinf
ag44
(g46
S'$\xf7"D\xf6%o?'
tRp6646
ag44
(g46
S'`XB\x93!\xf2\x9a?'
tRp6647
aasg4
g5
((lp6648
S'ENSG00000109536'
p6649
aS'ENSG00000070190'
p6650
aS'ENSG00000169609'
p6651
aS'ENSG00000093167'
p6652
aS'ENSG00000182264'
p6653
aS'ENSG00000255798'
p6654
aS'ENSG00000149531'
p6655
atRp6656
ssS'salmon2'
p6657
(dp6658
g4
g5
((lp6659
S'ENSG00000182013'
p6660
aS'ENSG00000155393'
p6661
aS'ENSG00000141404'
p6662
aS'ENSG00000133116'
p6663
aS'ENSG00000129595'
p6664
aS'ENSG00000106511'
p6665
aS'ENSG00000037749'
p6666
aS'ENSG00000179598'
p6667
aS'ENSG00000040487'
p6668
aS'ENSG00000166340'
p6669
aS'ENSG00000175899'
p6670
aS'ENSG00000231925'
p6671
aS'ENSG00000125818'
p6672
aS'ENSG00000135045'
p6673
aS'ENSG00000089486'
p6674
aS'ENSG00000244045'
p6675
aS'ENSG00000232859'
p6676
aS'ENSG00000135773'
p6677
aS'ENSG00000175390'
p6678
atRp6679
ssS'salmon4'
p6680
(dp6681
g40
(lp6682
(lp6683
S'ENSG00000133116'
p6684
aFinf
ag44
(g46
S'\xdb4\xa1\x8e\x11\xfc\xca>'
tRp6685
ag44
(g46
S'\x00\x00G2i\xdd\x10?'
tRp6686
aa(lp6687
S'ENSG00000131055'
p6688
aFinf
ag44
(g46
S'\xdb4\xa1\x8e\x11\xfc\xca>'
tRp6689
ag44
(g46
S'\x00\x00G2i\xdd\x10?'
tRp6690
aa(lp6691
S'ENSG00000120156'
p6692
aFinf
ag44
(g46
S'Q\xb6$\xf9\x8a\xdd\x00?'
tRp6693
ag44
(g46
S'\x00\x88\x08h\xe8\xf7B?'
tRp6694
aa(lp6695
S'ENSG00000166265'
p6696
aFinf
ag44
(g46
S'\x8d\x1f\xcd\\\x8f\x9c\x17?'
tRp6697
ag44
(g46
S"\x00\x10\xf1'\xb8\x11Y?"
tRp6698
aa(lp6699
S'ENSG00000128052'
p6700
aFinf
ag44
(g46
S'\x8d\x1f\xcd\\\x8f\x9c\x17?'
tRp6701
ag44
(g46
S"\x00\x10\xf1'\xb8\x11Y?"
tRp6702
aa(lp6703
g3534
aFinf
ag44
(g46
S"Ux\x92\x16\x9f0'?"
tRp6704
ag44
(g46
S'\x00K5\xee\xb1\xb6e?'
tRp6705
aa(lp6706
S'ENSG00000147113'
p6707
aFinf
ag44
(g46
S'\x1e%\x16\x1b\xf2\xd3+?'
tRp6708
ag44
(g46
S'\x00\x80E\x88\xdbPh?'
tRp6709
aa(lp6710
S'ENSG00000066056'
p6711
aFinf
ag44
(g46
S'\xc6C\xea\xb2\x9aq0?'
tRp6712
ag44
(g46
S'\x00/3oQ\xaej?'
tRp6713
aa(lp6714
S'ENSG00000186994'
p6715
aFinf
ag44
(g46
S'\x03\x98f{4/3?'
tRp6716
ag44
(g46
S'\x00\x11}X\xf5\xbal?'
tRp6717
aa(lp6718
S'ENSG00000069122'
p6719
aFinf
ag44
(g46
S'\x84S>~\xa6 @?'
tRp6720
ag44
(g46
S'\x00\xb9\xa7\xdc\xf1\x1ev?'
tRp6721
aa(lp6722
g4573
aFinf
ag44
(g46
S'\xd3|\xb3\xd7sYH?'
tRp6723
ag44
(g46
S'\x80\x8a\xd2\xf0\xcfU~?'
tRp6724
aa(lp6725
g4578
aFinf
ag44
(g46
S'+\xc4\xc5\xed\xc2\x17M?'
tRp6726
ag44
(g46
S'\x80\x97T\xc3\x84N\x80?'
tRp6727
aa(lp6728
g4583
aFinf
ag44
(g46
S'+\xc4\xc5\xed\xc2\x17M?'
tRp6729
ag44
(g46
S'\x80\x97T\xc3\x84N\x80?'
tRp6730
aa(lp6731
g4637
aFinf
ag44
(g46
S'\xef\x19,\x021$Z?'
tRp6732
ag44
(g46
S'\x80"\xa0\x88\xb6\xc3\x86?'
tRp6733
aa(lp6734
S'ENSG00000179776'
p6735
aFinf
ag44
(g46
S'\xef\x19,\x021$Z?'
tRp6736
ag44
(g46
S'\x80"\xa0\x88\xb6\xc3\x86?'
tRp6737
aa(lp6738
S'ENSG00000169116'
p6739
aFinf
ag44
(g46
S'\x16\xfe\xc1\x82\xf9\xc3d?'
tRp6740
ag44
(g46
S'@Z\x90\x94]\xd3\x89?'
tRp6741
aa(lp6742
S'ENSG00000141744'
p6743
ag44
(g46
S'\x00\x00\x00\x00\x00\x90\x88@'
tRp6744
ag44
(g46
S'\x80G\x90\x00\x9a\xc0t?'
tRp6745
ag44
(g46
S'\xc0\x97@\x07]\x98\x94?'
tRp6746
aa(lp6747
S'ENSG00000137959'
p6748
ag44
(g46
S'\x00\x00\x00\x00\x00\x88x@'
tRp6749
ag44
(g46
S'R\x89\x8d\xbd\xd7\x1b\x7f?'
tRp6750
ag44
(g46
S"\x00\xca>%\xa2'\x97?"
tRp6751
aa(lp6752
S'ENSG00000134321'
p6753
ag44
(g46
S'\x00\x00\x00\x00\x00\x88x@'
tRp6754
ag44
(g46
S'R\x89\x8d\xbd\xd7\x1b\x7f?'
tRp6755
ag44
(g46
S"\x00\xca>%\xa2'\x97?"
tRp6756
aa(lp6757
g1951
ag44
(g46
S'\xb7m\xdb\xb6m\xdb[@'
tRp6758
ag44
(g46
S'\x04<e\xf3\\\xac\x94?'
tRp6759
ag44
(g46
S"\x00\xca>%\xa2'\x97?"
tRp6760
aasg4
g5
((lp6761
S'ENSG00000183486'
p6762
aS'ENSG00000134326'
p6763
aS'ENSG00000170144'
p6764
aS'ENSG00000185507'
p6765
aS'ENSG00000173193'
p6766
aS'ENSG00000183155'
p6767
aS'ENSG00000165949'
p6768
aS'ENSG00000013573'
p6769
aS'ENSG00000152778'
p6770
aS'ENSG00000168961'
p6771
aS'ENSG00000124226'
p6772
aS'ENSG00000002549'
p6773
aS'ENSG00000158864'
p6774
aS'ENSG00000130489'
p6775
aS'ENSG00000130348'
p6776
aS'ENSG00000108771'
p6777
aS'ENSG00000067066'
p6778
aS'ENSG00000173821'
p6779
aS'ENSG00000137628'
p6780
aS'ENSG00000122566'
p6781
aS'ENSG00000132274'
p6782
atRp6783
ssS'rosybrown1'
p6784
(dp6785
g4
g5
((lp6786
S'ENSG00000144152'
p6787
aS'ENSG00000180979'
p6788
aS'ENSG00000149554'
p6789
aS'ENSG00000128683'
p6790
aS'ENSG00000135587'
p6791
aS'ENSG00000170745'
p6792
aS'ENSG00000092036'
p6793
aS'ENSG00000162073'
p6794
atRp6795
ssS'linen'
p6796
(dp6797
g4
g5
((lp6798
S'ENSG00000008988'
p6799
aS'ENSG00000131849'
p6800
aS'ENSG00000138162'
p6801
aS'ENSG00000165621'
p6802
aS'ENSG00000228570'
p6803
aS'ENSG00000217555'
p6804
aS'ENSG00000144455'
p6805
aS'ENSG00000171574'
p6806
aS'ENSG00000123415'
p6807
aS'ENSG00000173226'
p6808
aS'ENSG00000006118'
p6809
aS'ENSG00000163349'
p6810
atRp6811
ssS'green'
p6812
(dp6813
g4
g5
((lp6814
S'ENSG00000171566'
p6815
aS'ENSG00000184923'
p6816
aS'ENSG00000002822'
p6817
aS'ENSG00000105619'
p6818
aS'ENSG00000165138'
p6819
aS'ENSG00000011260'
p6820
aS'ENSG00000196743'
p6821
aS'ENSG00000175216'
p6822
aS'ENSG00000221947'
p6823
aS'ENSG00000164440'
p6824
aS'ENSG00000206562'
p6825
aS'ENSG00000176533'
p6826
aS'ENSG00000185344'
p6827
aS'ENSG00000117174'
p6828
aS'ENSG00000100056'
p6829
aS'ENSG00000204536'
p6830
aS'ENSG00000204531'
p6831
aS'ENSG00000120664'
p6832
aS'ENSG00000116874'
p6833
aS'ENSG00000065609'
p6834
aS'ENSG00000078618'
p6835
aS'ENSG00000076351'
p6836
aS'ENSG00000125166'
p6837
aS'ENSG00000011376'
p6838
aS'ENSG00000036448'
p6839
aS'ENSG00000109320'
p6840
aS'ENSG00000105889'
p6841
aS'ENSG00000138375'
p6842
aS'ENSG00000122692'
p6843
aS'ENSG00000087008'
p6844
aS'ENSG00000153774'
p6845
aS'ENSG00000101460'
p6846
aS'ENSG00000146215'
p6847
aS'ENSG00000182973'
p6848
aS'ENSG00000118004'
p6849
atRp6850
ssS'blueviolet'
p6851
(dp6852
g40
(lp6853
(lp6854
S'ENSG00000154027'
p6855
aFinf
ag44
(g46
S'\x16\xfe\xc1\x82\xf9\xc3d?'
tRp6856
ag44
(g46
S'@Z\xc8\xc3\xcb\xaf\x84?'
tRp6857
aa(lp6858
g2649
ag44
(g46
S'UUUUUUp@'
tRp6859
ag44
(g46
S'\xf1\x96,\xfc\xda\xb9\x84?'
tRp6860
ag44
(g46
S'`\xf1\x9c\xd1\x82\xc6\x9e?'
tRp6861
aa(lp6862
g2659
ag44
(g46
S'UUUUUUp@'
tRp6863
ag44
(g46
S'\xf1\x96,\xfc\xda\xb9\x84?'
tRp6864
ag44
(g46
S'`\xf1\x9c\xd1\x82\xc6\x9e?'
tRp6865
aasg4
g5
((lp6866
S'ENSG00000141519'
p6867
aS'ENSG00000119431'
p6868
aS'ENSG00000137312'
p6869
aS'ENSG00000213903'
p6870
aS'ENSG00000101276'
p6871
aS'ENSG00000164185'
p6872
aS'ENSG00000132000'
p6873
aS'ENSG00000196263'
p6874
aS'ENSG00000188219'
p6875
aS'ENSG00000130758'
p6876
aS'ENSG00000167653'
p6877
aS'ENSG00000204356'
p6878
aS'ENSG00000111981'
p6879
aS'ENSG00000104980'
p6880
aS'ENSG00000160117'
p6881
aS'ENSG00000161551'
p6882
aS'ENSG00000183128'
p6883
atRp6884
ssS'brown2'
p6885
(dp6886
g40
(lp6887
(lp6888
S'ENSG00000105929'
p6889
aFinf
ag44
(g46
S'\x16\xfe\xc1\x82\xf9\xc3d?'
tRp6890
ag44
(g46
S'\x00\x87c\xb1\x99\xf3\x8e?'
tRp6891
aa(lp6892
S'ENSG00000214128'
p6893
aFinf
ag44
(g46
S'\x16\xfe\xc1\x82\xf9\xc3d?'
tRp6894
ag44
(g46
S'\x00\x87c\xb1\x99\xf3\x8e?'
tRp6895
aa(lp6896
S'ENSG00000253831'
p6897
aFinf
ag44
(g46
S'\x16\xfe\xc1\x82\xf9\xc3d?'
tRp6898
ag44
(g46
S'\x00\x87c\xb1\x99\xf3\x8e?'
tRp6899
aasg4
g5
((lp6900
S'ENSG00000168263'
p6901
aS'ENSG00000114796'
p6902
aS'ENSG00000043591'
p6903
aS'ENSG00000104938'
p6904
aS'ENSG00000198885'
p6905
aS'ENSG00000082497'
p6906
aS'ENSG00000166439'
p6907
aS'ENSG00000136169'
p6908
aS'ENSG00000151689'
p6909
aS'ENSG00000171530'
p6910
aS'ENSG00000180785'
p6911
aS'ENSG00000164609'
p6912
aS'ENSG00000140575'
p6913
aS'ENSG00000269430'
p6914
aS'ENSG00000112619'
p6915
aS'ENSG00000185591'
p6916
aS'ENSG00000163960'
p6917
aS'ENSG00000126775'
p6918
aS'ENSG00000099917'
p6919
aS'ENSG00000181690'
p6920
atRp6921
ssS'brown3'
p6922
(dp6923
g40
(lp6924
(lp6925
S'ENSG00000154914'
p6926
aFinf
ag44
(g46
S'\x16\xfe\xc1\x82\xf9\xc3d?'
tRp6927
ag44
(g46
S"\x00\xc8L'\xc4\x11\x7f?"
tRp6928
aa(lp6929
S'ENSG00000189143'
p6930
ag44
(g46
S'\x00\x00\x00\x00\x00\x88x@'
tRp6931
ag44
(g46
S'R\x89\x8d\xbd\xd7\x1b\x7f?'
tRp6932
ag44
(g46
S'\x00\x89T\xb3\x99\xfd\x8e?'
tRp6933
aasg4
g5
((lp6934
S'ENSG00000013288'
p6935
aS'ENSG00000158023'
p6936
aS'ENSG00000188878'
p6937
aS'ENSG00000173876'
p6938
aS'ENSG00000167216'
p6939
aS'ENSG00000149489'
p6940
aS'ENSG00000213123'
p6941
aS'ENSG00000205129'
p6942
aS'ENSG00000197646'
p6943
aS'ENSG00000121350'
p6944
aS'ENSG00000174527'
p6945
aS'ENSG00000268171'
p6946
aS'ENSG00000159445'
p6947
aS'ENSG00000120217'
p6948
atRp6949
ssS'brown1'
p6950
(dp6951
g40
(lp6952
(lp6953
S'ENSG00000149575'
p6954
aFinf
ag44
(g46
S'\xfa\x01\xc2\x82\xf9\xc3d?'
tRp6955
ag44
(g46
S'\xf0<\xdd\x1cW\xdd\xa6?'
tRp6956
aasg4
g5
((lp6957
S'ENSG00000128617'
p6958
aS'ENSG00000115677'
p6959
aS'ENSG00000092108'
p6960
aS'ENSG00000107625'
p6961
aS'ENSG00000087191'
p6962
aS'ENSG00000084636'
p6963
aS'ENSG00000167397'
p6964
aS'ENSG00000176386'
p6965
aS'ENSG00000179796'
p6966
aS'ENSG00000165916'
p6967
aS'ENSG00000105404'
p6968
aS'ENSG00000135972'
p6969
aS'ENSG00000171311'
p6970
aS'ENSG00000108592'
p6971
aS'ENSG00000185627'
p6972
atRp6973
ssS'steelblue'
p6974
(dp6975
g4
g5
((lp6976
S'ENSG00000198150'
p6977
aS'ENSG00000038210'
p6978
aS'ENSG00000163638'
p6979
aS'ENSG00000115687'
p6980
aS'ENSG00000166130'
p6981
aS'ENSG00000114857'
p6982
aS'ENSG00000111886'
p6983
aS'ENSG00000177494'
p6984
aS'ENSG00000124749'
p6985
aS'ENSG00000198805'
p6986
aS'ENSG00000163902'
p6987
aS'ENSG00000134285'
p6988
aS'ENSG00000131375'
p6989
aS'ENSG00000076003'
p6990
aS'ENSG00000254614'
p6991
aS'ENSG00000090863'
p6992
aS'ENSG00000143924'
p6993
aS'ENSG00000121289'
p6994
aS'ENSG00000177042'
p6995
aS'ENSG00000204653'
p6996
aS'ENSG00000214078'
p6997
aS'ENSG00000089351'
p6998
aS'ENSG00000197860'
p6999
aS'ENSG00000042088'
p7000
atRp7001
ssS'brown4'
p7002
(dp7003
g40
(lp7004
(lp7005
S'ENSG00000135480'
p7006
ag44
(g46
S'\x00\x00\x00\x00\x00\x90\x88@'
tRp7007
ag44
(g46
S'\x80G\x90\x00\x9a\xc0t?'
tRp7008
ag44
(g46
S'\xc0\x97@\x07]\x98\x94?'
tRp7009
aa(lp7010
S'ENSG00000140416'
p7011
ag44
(g46
S'UUUUUUp@'
tRp7012
ag44
(g46
S'\xf1\x96,\xfc\xda\xb9\x84?'
tRp7013
ag44
(g46
S'`\xf1\x9c\xd1\x82\xc6\x9e?'
tRp7014
aa(lp7015
S'ENSG00000184292'
p7016
ag44
(g46
S'\xbc\xbb\xbb\xbb\xbb\xbbI@'
tRp7017
ag44
(g46
S'\x16\x97\xd6\xe1`\x91\xa4?'
tRp7018
ag44
(g46
S'\xb0\xb4\xa1\x15\x96\xfa\xa6?'
tRp7019
aa(lp7020
S'ENSG00000130176'
p7021
ag44
(g46
S'\x00\x00\x00\x00\x00XX@'
tRp7022
ag44
(g46
S'\xd7\xc8Y\x1f\x1d>\x97?'
tRp7023
ag44
(g46
S'\xb0\xb4\xa1\x15\x96\xfa\xa6?'
tRp7024
aasg4
g5
((lp7025
S'ENSG00000132305'
p7026
aS'ENSG00000160695'
p7027
aS'ENSG00000166260'
p7028
aS'ENSG00000119689'
p7029
aS'ENSG00000204248'
p7030
aS'ENSG00000184983'
p7031
aS'ENSG00000184304'
p7032
aS'ENSG00000104164'
p7033
aS'ENSG00000117834'
p7034
aS'ENSG00000137876'
p7035
aS'ENSG00000204228'
p7036
aS'ENSG00000166411'
p7037
aS'ENSG00000110619'
p7038
aS'ENSG00000153982'
p7039
aS'ENSG00000204560'
p7040
aS'ENSG00000104970'
p7041
aS'ENSG00000239605'
p7042
aS'ENSG00000107957'
p7043
aS'ENSG00000167863'
p7044
aS'ENSG00000010256'
p7045
aS'ENSG00000070669'
p7046
aS'ENSG00000089050'
p7047
atRp7048
ss.