(dp1
S'yellow'
p2
(dp3
S'module_genes'
p4
c__builtin__
set
p5
((lp6
S'ENSG00000169752'
p7
aS'ENSG00000162643'
p8
aS'ENSG00000175087'
p9
aS'ENSG00000184900'
p10
aS'ENSG00000112249'
p11
aS'ENSG00000168621'
p12
aS'ENSG00000048392'
p13
aS'ENSG00000164638'
p14
aS'ENSG00000178252'
p15
aS'ENSG00000177595'
p16
aS'ENSG00000166170'
p17
aS'ENSG00000114796'
p18
aS'ENSG00000178449'
p19
aS'ENSG00000176531'
p20
aS'ENSG00000176125'
p21
aS'ENSG00000183431'
p22
aS'ENSG00000161513'
p23
aS'ENSG00000174307'
p24
aS'ENSG00000107537'
p25
aS'ENSG00000233276'
p26
aS'ENSG00000171451'
p27
aS'ENSG00000170855'
p28
aS'ENSG00000132274'
p29
aS'ENSG00000134864'
p30
aS'ENSG00000197124'
p31
aS'ENSG00000116260'
p32
aS'ENSG00000146457'
p33
aS'ENSG00000078098'
p34
aS'ENSG00000131558'
p35
aS'ENSG00000166272'
p36
aS'ENSG00000196072'
p37
aS'ENSG00000196152'
p38
aS'ENSG00000204839'
p39
aS'ENSG00000167196'
p40
aS'ENSG00000183735'
p41
aS'ENSG00000120889'
p42
aS'ENSG00000177106'
p43
aS'ENSG00000078237'
p44
aS'ENSG00000165030'
p45
aS'ENSG00000134569'
p46
aS'ENSG00000197696'
p47
aS'ENSG00000175600'
p48
aS'ENSG00000173535'
p49
aS'ENSG00000100225'
p50
aS'ENSG00000076604'
p51
aS'ENSG00000054148'
p52
aS'ENSG00000135968'
p53
aS'ENSG00000164070'
p54
aS'ENSG00000243284'
p55
atRp56
ssS'darkolivegreen'
p57
(dp58
S'driver_genes'
p59
(lp60
(lp61
S'ENSG00000167754'
p62
acnumpy.core.multiarray
scalar
p63
(cnumpy
dtype
p64
(S'f8'
I0
I1
tRp65
(I3
S'<'
NNNI-1
I-1
I0
tbS'\xcd\xd5\\\xcd\xd5\xdcY@'
tRp66
ag63
(g65
S'\xc8\x1b\xae\x9e\x80"r='
tRp67
ag63
(g65
S'\x00\x00\x00\x00\xc03\xcb='
tRp68
aa(lp69
S'ENSG00000185479'
p70
ag63
(g65
S'\x00\x00\x00\x00\x00l`@'
tRp71
ag63
(g65
S'b\x83\xdb@\x99\x05\x90='
tRp72
ag63
(g65
S'\x00\x00\x00\x00C\x88\xe7='
tRp73
aa(lp74
S'ENSG00000163435'
p75
ag63
(g65
S'[\xb0\x05[\xb0eT@'
tRp76
ag63
(g65
S'\xaa\xbb\x87\xf6\xd1\xfc\x05>'
tRp77
ag63
(g65
S'\x00\x00\x00\xd8m\x9b_>'
tRp78
aa(lp79
S'ENSG00000182795'
p80
ag63
(g65
S'\x17]t\xd1E\x07n@'
tRp81
ag63
(g65
S'\xeer\xa6o\xf8U@>'
tRp82
ag63
(g65
S'\x00\x00\x00\x1d\xe5\xf8\x96>'
tRp83
aa(lp84
S'ENSG00000128422'
p85
ag63
(g65
S'\xab\xaa\xaa\xaa\xaa\xfaU@'
tRp86
ag63
(g65
S'd\xa6DCF\xa1\xc2>'
tRp87
ag63
(g65
S'\x00 Atp\x9d\x19?'
tRp88
aa(lp89
S'ENSG00000205420'
p90
ag63
(g65
S'\xab\xaa\xaa\xaa\xaa\xfaU@'
tRp91
ag63
(g65
S'd\xa6DCF\xa1\xc2>'
tRp92
ag63
(g65
S'\x00 Atp\x9d\x19?'
tRp93
aa(lp94
S'ENSG00000039068'
p95
ag63
(g65
S'UUUUU\xe5E@'
tRp96
ag63
(g65
S'\x0f\xa3B\x88}\xc4\xef>'
tRp97
ag63
(g65
S'\x00\x84\xb82J\xd7D?'
tRp98
aa(lp99
S'ENSG00000166145'
p100
ag63
(g65
S'\xec\xc4N\xec\xc4nN@'
tRp101
ag63
(g65
S'\x7fG\xbaa\xda\xfd\x17?'
tRp102
ag63
(g65
S'\x00Im\xc3\xdc\xaen?'
tRp103
aa(lp104
S'ENSG00000117595'
p105
ag63
(g65
S'+\xb5R+\xb5RH@'
tRp106
ag63
(g65
S'H\xd3&?\xc5\x04#?'
tRp107
ag63
(g65
S'\x00\xb1\xe9S\xc6\xb4w?'
tRp108
aa(lp109
S'ENSG00000081277'
p110
aFinf
ag63
(g65
S'T\x8d-+\x11?+?'
tRp111
ag63
(g65
S'\xc0\xc7[\xde\xaf\x89\x80?'
tRp112
aa(lp113
S'ENSG00000186832'
p114
aFinf
ag63
(g65
S'T\x8d-+\x11?+?'
tRp115
ag63
(g65
S'\xc0\xc7[\xde\xaf\x89\x80?'
tRp116
aa(lp117
S'ENSG00000133710'
p118
aFinf
ag63
(g65
S'T\x8d-+\x11?+?'
tRp119
ag63
(g65
S'\xc0\xc7[\xde\xaf\x89\x80?'
tRp120
aa(lp121
S'ENSG00000159166'
p122
aFinf
ag63
(g65
S'T\x8d-+\x11?+?'
tRp123
ag63
(g65
S'\xc0\xc7[\xde\xaf\x89\x80?'
tRp124
aa(lp125
S'ENSG00000186081'
p126
ag63
(g65
S's5Ws5WA@'
tRp127
ag63
(g65
S'i.A\xdc\x03\x024?'
tRp128
ag63
(g65
S'@\xddq\xcd9\xc5\x85?'
tRp129
aa(lp130
S'ENSG00000175793'
p131
ag63
(g65
S'\x14;\xb1\x13;Q>@'
tRp132
ag63
(g65
S'BE\xad\xcd\xa8B;?'
tRp133
ag63
(g65
S'\x00\xaa\xdc\xfe(\xc4\x8c?'
tRp134
aa(lp135
S'ENSG00000137699'
p136
ag63
(g65
S'I\x92$I\x92\xe4b@'
tRp137
ag63
(g65
S'9p\xf0\xed\xcbAD?'
tRp138
ag63
(g65
S'\x80\x80A\xf6J\xaf\x94?'
tRp139
aa(lp140
S'ENSG00000186847'
p141
ag63
(g65
S'I\x92$I\x92\xe4b@'
tRp142
ag63
(g65
S'9p\xf0\xed\xcbAD?'
tRp143
ag63
(g65
S'\x80\x80A\xf6J\xaf\x94?'
tRp144
aa(lp145
S'ENSG00000149418'
p146
ag63
(g65
S'\x00\x00\x00\x00\x00\xe0R@'
tRp147
ag63
(g65
S'k\xc9j\xee\xb4\x14T?'
tRp148
ag63
(g65
S'\xb0\x01v*\x94\x19\xa3?'
tRp149
aasg4
g5
((lp150
S'ENSG00000183018'
p151
aS'ENSG00000185716'
p152
aS'ENSG00000132698'
p153
aS'ENSG00000137440'
p154
aS'ENSG00000170465'
p155
aS'ENSG00000070190'
p156
aS'ENSG00000169469'
p157
aS'ENSG00000138119'
p158
aS'ENSG00000131037'
p159
aS'ENSG00000124107'
p160
aS'ENSG00000137857'
p161
aS'ENSG00000136155'
p162
aS'ENSG00000182333'
p163
aS'ENSG00000178363'
p164
aS'ENSG00000143556'
p165
aS'ENSG00000163993'
p166
aS'ENSG00000165474'
p167
aS'ENSG00000237330'
p168
aS'ENSG00000155066'
p169
aS'ENSG00000147689'
p170
aS'ENSG00000188505'
p171
aS'ENSG00000167653'
p172
atRp173
ssS'grey60'
p174
(dp175
g4
g5
((lp176
S'ENSG00000197977'
p177
aS'ENSG00000107485'
p178
aS'ENSG00000124191'
p179
aS'ENSG00000162551'
p180
aS'ENSG00000162337'
p181
aS'ENSG00000139304'
p182
aS'ENSG00000145020'
p183
aS'ENSG00000198846'
p184
aS'ENSG00000145029'
p185
aS'ENSG00000136928'
p186
aS'ENSG00000149311'
p187
aS'ENSG00000140463'
p188
aS'ENSG00000146555'
p189
aS'ENSG00000159674'
p190
aS'ENSG00000001461'
p191
aS'ENSG00000123700'
p192
aS'ENSG00000173706'
p193
aS'ENSG00000179981'
p194
aS'ENSG00000164182'
p195
aS'ENSG00000079257'
p196
aS'ENSG00000135540'
p197
aS'ENSG00000173597'
p198
aS'ENSG00000116774'
p199
aS'ENSG00000127241'
p200
aS'ENSG00000110237'
p201
aS'ENSG00000174628'
p202
aS'ENSG00000164111'
p203
aS'ENSG00000250305'
p204
aS'ENSG00000104313'
p205
aS'ENSG00000112319'
p206
aS'ENSG00000150051'
p207
aS'ENSG00000103241'
p208
atRp209
ssS'green4'
p210
(dp211
g4
g5
((lp212
S'ENSG00000138172'
p213
aS'ENSG00000110318'
p214
aS'ENSG00000196154'
p215
aS'ENSG00000135269'
p216
aS'ENSG00000130208'
p217
aS'ENSG00000141854'
p218
aS'ENSG00000188015'
p219
aS'ENSG00000196420'
p220
aS'ENSG00000134830'
p221
atRp222
ssS'sienna4'
p223
(dp224
g59
(lp225
(lp226
S'ENSG00000035664'
p227
ag63
(g65
S'\x00\x00\x00\x00\x00\xb0`@'
tRp228
ag63
(g65
S'\xb5\x8c\xc0\xf0lx\x8c?'
tRp229
ag63
(g65
S'\xc0\x8c\xc0\xf0lx\x8c?'
tRp230
aasg4
g5
((lp231
S'ENSG00000198964'
p232
aS'ENSG00000164251'
p233
aS'ENSG00000184347'
p234
aS'ENSG00000144645'
p235
aS'ENSG00000102547'
p236
aS'ENSG00000144476'
p237
aS'ENSG00000185585'
p238
aS'ENSG00000130592'
p239
aS'ENSG00000197385'
p240
aS'ENSG00000172939'
p241
aS'ENSG00000168916'
p242
aS'ENSG00000071205'
p243
aS'ENSG00000181104'
p244
atRp245
ssS'magenta4'
p246
(dp247
g4
g5
((lp248
S'ENSG00000011566'
p249
aS'ENSG00000160917'
p250
aS'ENSG00000096401'
p251
aS'ENSG00000131848'
p252
aS'ENSG00000115884'
p253
aS'ENSG00000198040'
p254
aS'ENSG00000165434'
p255
aS'ENSG00000152154'
p256
aS'ENSG00000022567'
p257
aS'ENSG00000185158'
p258
aS'ENSG00000070831'
p259
aS'ENSG00000112079'
p260
aS'ENSG00000130396'
p261
aS'ENSG00000146205'
p262
atRp263
ssS'mediumorchid'
p264
(dp265
g4
g5
((lp266
S'ENSG00000171222'
p267
aS'ENSG00000092531'
p268
aS'ENSG00000159720'
p269
aS'ENSG00000122547'
p270
aS'ENSG00000243678'
p271
aS'ENSG00000089006'
p272
aS'ENSG00000150967'
p273
aS'ENSG00000168028'
p274
aS'ENSG00000163939'
p275
aS'ENSG00000105372'
p276
aS'ENSG00000110958'
p277
aS'ENSG00000162244'
p278
aS'ENSG00000177600'
p279
aS'ENSG00000167526'
p280
aS'ENSG00000172239'
p281
aS'ENSG00000130255'
p282
atRp283
ssS'yellow2'
p284
(dp285
g59
(lp286
(lp287
S'ENSG00000152583'
p288
aFinf
ag63
(g65
S'P\xcf\x1a5[{^?'
tRp289
ag63
(g65
S'\x00`x\xeb\x18tn?'
tRp290
aa(lp291
S'ENSG00000133392'
p292
ag63
(g65
S'\x00\x00\x00\x00\x00\xbc\x80@'
tRp293
ag63
(g65
S'\xa5\x1aed\x11\xd7v?'
tRp294
ag63
(g65
S'\x80\x1aed\x11\xd7v?'
tRp295
aasg4
g5
((lp296
S'ENSG00000104332'
p297
aS'ENSG00000008394'
p298
aS'ENSG00000113231'
p299
aS'ENSG00000101577'
p300
aS'ENSG00000173253'
p301
aS'ENSG00000132840'
p302
aS'ENSG00000127578'
p303
aS'ENSG00000132837'
p304
atRp305
ssS'black'
p306
(dp307
g4
g5
((lp308
S'ENSG00000117500'
p309
aS'ENSG00000259803'
p310
aS'ENSG00000129910'
p311
aS'ENSG00000086619'
p312
aS'ENSG00000102910'
p313
aS'ENSG00000175029'
p314
aS'ENSG00000107290'
p315
aS'ENSG00000145555'
p316
aS'ENSG00000158473'
p317
aS'ENSG00000071537'
p318
aS'ENSG00000159267'
p319
aS'ENSG00000154265'
p320
aS'ENSG00000109501'
p321
aS'ENSG00000188004'
p322
aS'ENSG00000132256'
p323
aS'ENSG00000106605'
p324
aS'ENSG00000134109'
p325
aS'ENSG00000161326'
p326
aS'ENSG00000102580'
p327
aS'ENSG00000132669'
p328
aS'ENSG00000196422'
p329
aS'ENSG00000104853'
p330
aS'ENSG00000198162'
p331
aS'ENSG00000142188'
p332
aS'ENSG00000165280'
p333
aS'ENSG00000133424'
p334
aS'ENSG00000078401'
p335
aS'ENSG00000111752'
p336
aS'ENSG00000143882'
p337
aS'ENSG00000157077'
p338
aS'ENSG00000147475'
p339
aS'ENSG00000167632'
p340
aS'ENSG00000140563'
p341
aS'ENSG00000129116'
p342
aS'ENSG00000166471'
p343
aS'ENSG00000113811'
p344
aS'ENSG00000175745'
p345
aS'ENSG00000143162'
p346
aS'ENSG00000072849'
p347
aS'ENSG00000135093'
p348
aS'ENSG00000051108'
p349
atRp350
ssS'orange'
p351
(dp352
g4
g5
((lp353
S'ENSG00000162645'
p354
aS'ENSG00000139278'
p355
aS'ENSG00000121005'
p356
aS'ENSG00000079308'
p357
aS'ENSG00000177889'
p358
aS'ENSG00000133943'
p359
aS'ENSG00000155816'
p360
aS'ENSG00000121390'
p361
aS'ENSG00000035403'
p362
aS'ENSG00000249915'
p363
aS'ENSG00000071127'
p364
aS'ENSG00000115084'
p365
aS'ENSG00000114480'
p366
aS'ENSG00000160014'
p367
aS'ENSG00000071967'
p368
aS'ENSG00000167460'
p369
aS'ENSG00000115419'
p370
aS'ENSG00000183386'
p371
aS'ENSG00000117228'
p372
aS'ENSG00000125868'
p373
aS'ENSG00000241553'
p374
aS'ENSG00000180875'
p375
aS'ENSG00000115091'
p376
aS'ENSG00000180543'
p377
aS'ENSG00000101608'
p378
aS'ENSG00000023902'
p379
aS'ENSG00000125247'
p380
atRp381
ssS'brown'
p382
(dp383
g59
(lp384
(lp385
S'ENSG00000260727'
p386
aFinf
ag63
(g65
S'w\x1b\xd4g\x84\xdcf?'
tRp387
ag63
(g65
S'\x00\xaf\x9bh\xd6\x04\xa5?'
tRp388
aa(lp389
S'ENSG00000112562'
p390
aFinf
ag63
(g65
S'w\x1b\xd4g\x84\xdcf?'
tRp391
ag63
(g65
S'\x00\xaf\x9bh\xd6\x04\xa5?'
tRp392
aasg4
g5
((lp393
S'ENSG00000118804'
p394
aS'ENSG00000122203'
p395
aS'ENSG00000112715'
p396
aS'ENSG00000103365'
p397
aS'ENSG00000117394'
p398
aS'ENSG00000108861'
p399
aS'ENSG00000169398'
p400
aS'ENSG00000170379'
p401
aS'ENSG00000119950'
p402
aS'ENSG00000166887'
p403
aS'ENSG00000155189'
p404
aS'ENSG00000230055'
p405
aS'ENSG00000089876'
p406
aS'ENSG00000141580'
p407
aS'ENSG00000100441'
p408
aS'ENSG00000165406'
p409
aS'ENSG00000177453'
p410
aS'ENSG00000196968'
p411
aS'ENSG00000170525'
p412
aS'ENSG00000177150'
p413
aS'ENSG00000155508'
p414
aS'ENSG00000088205'
p415
aS'ENSG00000205302'
p416
aS'ENSG00000091542'
p417
aS'ENSG00000168137'
p418
aS'ENSG00000101654'
p419
aS'ENSG00000152256'
p420
aS'ENSG00000149357'
p421
aS'ENSG00000114268'
p422
aS'ENSG00000104419'
p423
aS'ENSG00000141959'
p424
aS'ENSG00000004399'
p425
aS'ENSG00000103160'
p426
aS'ENSG00000139832'
p427
aS'ENSG00000069998'
p428
aS'ENSG00000003056'
p429
aS'ENSG00000171720'
p430
aS'ENSG00000244187'
p431
aS'ENSG00000115866'
p432
aS'ENSG00000107077'
p433
aS'ENSG00000133874'
p434
aS'ENSG00000178802'
p435
aS'ENSG00000114023'
p436
aS'ENSG00000109519'
p437
aS'ENSG00000164056'
p438
aS'ENSG00000163472'
p439
aS'ENSG00000196187'
p440
aS'ENSG00000134698'
p441
aS'ENSG00000151151'
p442
aS'ENSG00000170949'
p443
aS'ENSG00000117868'
p444
aS'ENSG00000141720'
p445
atRp446
ssS'turquoise'
p447
(dp448
g59
(lp449
(lp450
S'ENSG00000113916'
p451
aFinf
ag63
(g65
S'w\x1b\xd4g\x84\xdcf?'
tRp452
ag63
(g65
S'\x80]\xfd\xd4Y\xd4v?'
tRp453
aa(lp454
S'ENSG00000259673'
p455
ag63
(g65
S'I\x92$I\x92\xe4B@'
tRp456
ag63
(g65
S"\x14z\xcf\x85\x80'\xa5?"
tRp457
ag63
(g65
S"\x10z\xcf\x85\x80'\xa5?"
tRp458
aasg4
g5
((lp459
S'ENSG00000103266'
p460
aS'ENSG00000186493'
p461
aS'ENSG00000103260'
p462
aS'ENSG00000064726'
p463
aS'ENSG00000176022'
p464
aS'ENSG00000112787'
p465
aS'ENSG00000074266'
p466
aS'ENSG00000169230'
p467
aS'ENSG00000213965'
p468
aS'ENSG00000177666'
p469
aS'ENSG00000108561'
p470
aS'ENSG00000103174'
p471
aS'ENSG00000089123'
p472
aS'ENSG00000162227'
p473
aS'ENSG00000232434'
p474
aS'ENSG00000213015'
p475
aS'ENSG00000183779'
p476
aS'ENSG00000189227'
p477
aS'ENSG00000221869'
p478
aS'ENSG00000179965'
p479
aS'ENSG00000074071'
p480
aS'ENSG00000185453'
p481
aS'ENSG00000130881'
p482
aS'ENSG00000238227'
p483
aS'ENSG00000131116'
p484
aS'ENSG00000135974'
p485
aS'ENSG00000161904'
p486
aS'ENSG00000234972'
p487
aS'ENSG00000168056'
p488
aS'ENSG00000125458'
p489
aS'ENSG00000189241'
p490
aS'ENSG00000004139'
p491
aS'ENSG00000167136'
p492
aS'ENSG00000170955'
p493
aS'ENSG00000106211'
p494
aS'ENSG00000224877'
p495
aS'ENSG00000258429'
p496
aS'ENSG00000135387'
p497
aS'ENSG00000157911'
p498
aS'ENSG00000163162'
p499
aS'ENSG00000158545'
p500
aS'ENSG00000170634'
p501
aS'ENSG00000133247'
p502
aS'ENSG00000188895'
p503
aS'ENSG00000182087'
p504
aS'ENSG00000244242'
p505
aS'ENSG00000127580'
p506
aS'ENSG00000169857'
p507
aS'ENSG00000223496'
p508
aS'ENSG00000163093'
p509
aS'ENSG00000182154'
p510
aS'ENSG00000268996'
p511
aS'ENSG00000119673'
p512
aS'ENSG00000226742'
p513
aS'ENSG00000152475'
p514
aS'ENSG00000099624'
p515
aS'ENSG00000141965'
p516
aS'ENSG00000122705'
p517
aS'ENSG00000156381'
p518
aS'ENSG00000178922'
p519
aS'ENSG00000158435'
p520
aS'ENSG00000244486'
p521
aS'ENSG00000205581'
p522
aS'ENSG00000167617'
p523
aS'ENSG00000177764'
p524
aS'ENSG00000168061'
p525
aS'ENSG00000114383'
p526
aS'ENSG00000160113'
p527
aS'ENSG00000168040'
p528
aS'ENSG00000167702'
p529
aS'ENSG00000218891'
p530
atRp531
ssS'antiquewhite2'
p532
(dp533
g4
g5
((lp534
S'ENSG00000182903'
p535
aS'ENSG00000169629'
p536
aS'ENSG00000196268'
p537
aS'ENSG00000182141'
p538
aS'ENSG00000256229'
p539
aS'ENSG00000081665'
p540
aS'ENSG00000196705'
p541
aS'ENSG00000197013'
p542
aS'ENSG00000160352'
p543
aS'ENSG00000197372'
p544
aS'ENSG00000188171'
p545
aS'ENSG00000197008'
p546
aS'ENSG00000198521'
p547
atRp548
ssS'antiquewhite1'
p549
(dp550
g4
g5
((lp551
S'ENSG00000115415'
p552
aS'ENSG00000198796'
p553
aS'ENSG00000198182'
p554
aS'ENSG00000196381'
p555
aS'ENSG00000189144'
p556
aS'ENSG00000172175'
p557
aS'ENSG00000115935'
p558
aS'ENSG00000100075'
p559
aS'ENSG00000082126'
p560
atRp561
ssS'antiquewhite4'
p562
(dp563
g59
(lp564
(lp565
S'ENSG00000105889'
p566
aFinf
ag63
(g65
S'\x84\xc10\x01\x19\rs?'
tRp567
ag63
(g65
S'\xe0\x93\\\xf5o\xbe\xa2?'
tRp568
aa(lp569
S'ENSG00000138675'
p570
aFinf
ag63
(g65
S'\x84\xc10\x01\x19\rs?'
tRp571
ag63
(g65
S'\xe0\x93\\\xf5o\xbe\xa2?'
tRp572
aasg4
g5
((lp573
S'ENSG00000172613'
p574
aS'ENSG00000162521'
p575
aS'ENSG00000185909'
p576
aS'ENSG00000107796'
p577
aS'ENSG00000112210'
p578
aS'ENSG00000128683'
p579
aS'ENSG00000111581'
p580
aS'ENSG00000198892'
p581
aS'ENSG00000095002'
p582
aS'ENSG00000161999'
p583
aS'ENSG00000149679'
p584
aS'ENSG00000104894'
p585
aS'ENSG00000072952'
p586
aS'ENSG00000134375'
p587
aS'ENSG00000163431'
p588
aS'ENSG00000138449'
p589
atRp590
ssS'indianred4'
p591
(dp592
g4
g5
((lp593
S'ENSG00000150593'
p594
aS'ENSG00000162511'
p595
aS'ENSG00000136167'
p596
aS'ENSG00000160190'
p597
aS'ENSG00000136856'
p598
aS'ENSG00000140678'
p599
aS'ENSG00000116701'
p600
aS'ENSG00000244482'
p601
aS'ENSG00000115607'
p602
aS'ENSG00000119535'
p603
aS'ENSG00000123329'
p604
aS'ENSG00000137642'
p605
aS'ENSG00000187116'
p606
aS'ENSG00000012124'
p607
aS'ENSG00000158869'
p608
atRp609
ssS'bisque4'
p610
(dp611
g4
g5
((lp612
S'ENSG00000132485'
p613
aS'ENSG00000243811'
p614
aS'ENSG00000105483'
p615
aS'ENSG00000145075'
p616
aS'ENSG00000013392'
p617
aS'ENSG00000069020'
p618
aS'ENSG00000105829'
p619
aS'ENSG00000103449'
p620
aS'ENSG00000254685'
p621
aS'ENSG00000244509'
p622
aS'ENSG00000127920'
p623
aS'ENSG00000165006'
p624
aS'ENSG00000167842'
p625
aS'ENSG00000164209'
p626
aS'ENSG00000169019'
p627
aS'ENSG00000049323'
p628
aS'ENSG00000134072'
p629
aS'ENSG00000176018'
p630
atRp631
ssS'cyan'
p632
(dp633
g4
g5
((lp634
S'ENSG00000173662'
p635
aS'ENSG00000112414'
p636
aS'ENSG00000184779'
p637
aS'ENSG00000110700'
p638
aS'ENSG00000106554'
p639
aS'ENSG00000124614'
p640
aS'ENSG00000125743'
p641
aS'ENSG00000167978'
p642
aS'ENSG00000166401'
p643
aS'ENSG00000164587'
p644
aS'ENSG00000063177'
p645
aS'ENSG00000004487'
p646
aS'ENSG00000166912'
p647
aS'ENSG00000221983'
p648
aS'ENSG00000112306'
p649
aS'ENSG00000142534'
p650
aS'ENSG00000198242'
p651
aS'ENSG00000186468'
p652
aS'ENSG00000083845'
p653
aS'ENSG00000145592'
p654
aS'ENSG00000144746'
p655
aS'ENSG00000105193'
p656
aS'ENSG00000008988'
p657
aS'ENSG00000105640'
p658
aS'ENSG00000108107'
p659
aS'ENSG00000185359'
p660
aS'ENSG00000142937'
p661
aS'ENSG00000170889'
p662
aS'ENSG00000143947'
p663
aS'ENSG00000229117'
p664
aS'ENSG00000123349'
p665
aS'ENSG00000231500'
p666
aS'ENSG00000161016'
p667
aS'ENSG00000159377'
p668
aS'ENSG00000154767'
p669
atRp670
ssS'skyblue'
p671
(dp672
g4
g5
((lp673
S'ENSG00000198218'
p674
aS'ENSG00000121644'
p675
aS'ENSG00000197063'
p676
aS'ENSG00000116489'
p677
aS'ENSG00000134897'
p678
aS'ENSG00000174099'
p679
aS'ENSG00000143970'
p680
aS'ENSG00000089737'
p681
aS'ENSG00000126603'
p682
aS'ENSG00000109079'
p683
aS'ENSG00000113194'
p684
aS'ENSG00000123989'
p685
aS'ENSG00000146574'
p686
aS'ENSG00000102606'
p687
aS'ENSG00000110031'
p688
aS'ENSG00000162695'
p689
aS'ENSG00000198909'
p690
aS'ENSG00000215251'
p691
aS'ENSG00000103978'
p692
aS'ENSG00000166734'
p693
aS'ENSG00000231925'
p694
aS'ENSG00000141232'
p695
aS'ENSG00000139437'
p696
aS'ENSG00000151553'
p697
aS'ENSG00000005194'
p698
atRp699
ssS'darkturquoise'
p700
(dp701
g59
(lp702
(lp703
S'ENSG00000241288'
p704
aFinf
ag63
(g65
S'm\x1b\xd4g\x84\xdcv?'
tRp705
ag63
(g65
S'\x80\xbaq@\xef\x0c\x91?'
tRp706
aa(lp707
S'ENSG00000157653'
p708
ag63
(g65
S'33333\xb3j@'
tRp709
ag63
(g65
S'\xbb\x95>\xdf\xe4\xce\x86?'
tRp710
ag63
(g65
S'@k\x86va\xae\x96?'
tRp711
aa(lp712
S'ENSG00000164694'
p713
ag63
(g65
S'H\xe1z\x14\xaeGE@'
tRp714
ag63
(g65
S'\x00\x9b!\xec\x8d\xf2\xa0?'
tRp715
ag63
(g65
S'\x00\x9b!\xec\x8d\xf2\xa0?'
tRp716
aasg4
g5
((lp717
S'ENSG00000120129'
p718
aS'ENSG00000111530'
p719
aS'ENSG00000166130'
p720
aS'ENSG00000167995'
p721
aS'ENSG00000139178'
p722
aS'ENSG00000108256'
p723
aS'ENSG00000167601'
p724
aS'ENSG00000160888'
p725
aS'ENSG00000204388'
p726
aS'ENSG00000163660'
p727
aS'ENSG00000130522'
p728
aS'ENSG00000174574'
p729
aS'ENSG00000164920'
p730
aS'ENSG00000178187'
p731
aS'ENSG00000173040'
p732
aS'ENSG00000181649'
p733
aS'ENSG00000120948'
p734
aS'ENSG00000197362'
p735
aS'ENSG00000180777'
p736
aS'ENSG00000256812'
p737
aS'ENSG00000224186'
p738
aS'ENSG00000113621'
p739
aS'ENSG00000130518'
p740
aS'ENSG00000197343'
p741
aS'ENSG00000083828'
p742
aS'ENSG00000154864'
p743
aS'ENSG00000162601'
p744
aS'ENSG00000137331'
p745
aS'ENSG00000171735'
p746
aS'ENSG00000197024'
p747
atRp748
ssS'darkgreen'
p749
(dp750
g4
g5
((lp751
S'ENSG00000151090'
p752
aS'ENSG00000089597'
p753
aS'ENSG00000113721'
p754
aS'ENSG00000169905'
p755
aS'ENSG00000164088'
p756
aS'ENSG00000159322'
p757
aS'ENSG00000152291'
p758
aS'ENSG00000101337'
p759
aS'ENSG00000177239'
p760
aS'ENSG00000127463'
p761
aS'ENSG00000075568'
p762
aS'ENSG00000138760'
p763
aS'ENSG00000154035'
p764
aS'ENSG00000162736'
p765
aS'ENSG00000168615'
p766
aS'ENSG00000170266'
p767
aS'ENSG00000117410'
p768
aS'ENSG00000173905'
p769
aS'ENSG00000105726'
p770
aS'ENSG00000084444'
p771
aS'ENSG00000143641'
p772
aS'ENSG00000186866'
p773
aS'ENSG00000001036'
p774
aS'ENSG00000129636'
p775
aS'ENSG00000011028'
p776
aS'ENSG00000198715'
p777
aS'ENSG00000151348'
p778
aS'ENSG00000168275'
p779
aS'ENSG00000122642'
p780
aS'ENSG00000108582'
p781
atRp782
ssS'darkviolet'
p783
(dp784
g4
g5
((lp785
S'ENSG00000170370'
p786
aS'ENSG00000157404'
p787
aS'ENSG00000122035'
p788
aS'ENSG00000165646'
p789
aS'ENSG00000107560'
p790
aS'ENSG00000154736'
p791
aS'ENSG00000152558'
p792
aS'ENSG00000165650'
p793
aS'ENSG00000205363'
p794
aS'ENSG00000128274'
p795
aS'ENSG00000085063'
p796
aS'ENSG00000124785'
p797
aS'ENSG00000106780'
p798
aS'ENSG00000117533'
p799
aS'ENSG00000165476'
p800
atRp801
ssS'red'
p802
(dp803
g4
g5
((lp804
S'ENSG00000065000'
p805
aS'ENSG00000105281'
p806
aS'ENSG00000136868'
p807
aS'ENSG00000171051'
p808
aS'ENSG00000165983'
p809
aS'ENSG00000075643'
p810
aS'ENSG00000079156'
p811
aS'ENSG00000171055'
p812
aS'ENSG00000134996'
p813
aS'ENSG00000175356'
p814
aS'ENSG00000140398'
p815
aS'ENSG00000116761'
p816
aS'ENSG00000129003'
p817
aS'ENSG00000143575'
p818
aS'ENSG00000137876'
p819
aS'ENSG00000146733'
p820
aS'ENSG00000204084'
p821
aS'ENSG00000092621'
p822
aS'ENSG00000115902'
p823
aS'ENSG00000136010'
p824
aS'ENSG00000065911'
p825
aS'ENSG00000247596'
p826
aS'ENSG00000090861'
p827
aS'ENSG00000110619'
p828
aS'ENSG00000152684'
p829
aS'ENSG00000163947'
p830
aS'ENSG00000106948'
p831
aS'ENSG00000136628'
p832
aS'ENSG00000176046'
p833
aS'ENSG00000100418'
p834
aS'ENSG00000113407'
p835
aS'ENSG00000140105'
p836
aS'ENSG00000108344'
p837
aS'ENSG00000134440'
p838
aS'ENSG00000139514'
p839
aS'ENSG00000179115'
p840
aS'ENSG00000133706'
p841
aS'ENSG00000171867'
p842
aS'ENSG00000160200'
p843
aS'ENSG00000142347'
p844
aS'ENSG00000167969'
p845
atRp846
ssS'darkmagenta'
p847
(dp848
g4
g5
((lp849
S'ENSG00000165271'
p850
aS'ENSG00000141378'
p851
aS'ENSG00000136271'
p852
aS'ENSG00000150990'
p853
aS'ENSG00000117411'
p854
aS'ENSG00000115946'
p855
aS'ENSG00000181924'
p856
aS'ENSG00000048162'
p857
aS'ENSG00000100413'
p858
aS'ENSG00000115053'
p859
aS'ENSG00000136448'
p860
aS'ENSG00000107815'
p861
aS'ENSG00000165689'
p862
aS'ENSG00000162377'
p863
aS'ENSG00000112578'
p864
aS'ENSG00000132603'
p865
aS'ENSG00000110104'
p866
aS'ENSG00000174840'
p867
aS'ENSG00000118894'
p868
aS'ENSG00000132382'
p869
aS'ENSG00000053372'
p870
atRp871
ssS'indianred3'
p872
(dp873
g4
g5
((lp874
S'ENSG00000152700'
p875
aS'ENSG00000117505'
p876
aS'ENSG00000142089'
p877
aS'ENSG00000185885'
p878
aS'ENSG00000185201'
p879
aS'ENSG00000136897'
p880
aS'ENSG00000115998'
p881
aS'ENSG00000267508'
p882
aS'ENSG00000125386'
p883
aS'ENSG00000148175'
p884
aS'ENSG00000104969'
p885
atRp886
ssS'plum3'
p887
(dp888
g59
(lp889
(lp890
S'ENSG00000150556'
p891
ag63
(g65
S'\x00\x00\x00\x00\x00\xb4p@'
tRp892
ag63
(g65
S'\xa1\xc1w\xfb\x03\x04\x83?'
tRp893
ag63
(g65
S'\x80\xd1\xce\x11oB\x9c?'
tRp894
aasg4
g5
((lp895
S'ENSG00000131737'
p896
aS'ENSG00000005471'
p897
aS'ENSG00000102595'
p898
aS'ENSG00000038295'
p899
aS'ENSG00000116704'
p900
aS'ENSG00000164253'
p901
aS'ENSG00000152601'
p902
aS'ENSG00000131738'
p903
aS'ENSG00000171360'
p904
aS'ENSG00000146592'
p905
aS'ENSG00000144063'
p906
aS'ENSG00000171345'
p907
aS'ENSG00000164684'
p908
aS'ENSG00000137672'
p909
aS'ENSG00000002919'
p910
atRp911
ssS'plum2'
p912
(dp913
g4
g5
((lp914
S'ENSG00000084073'
p915
aS'ENSG00000107862'
p916
aS'ENSG00000176490'
p917
aS'ENSG00000148396'
p918
aS'ENSG00000141753'
p919
aS'ENSG00000030419'
p920
aS'ENSG00000125844'
p921
aS'ENSG00000100815'
p922
aS'ENSG00000154305'
p923
aS'ENSG00000119242'
p924
aS'ENSG00000135736'
p925
aS'ENSG00000118855'
p926
aS'ENSG00000156735'
p927
aS'ENSG00000081307'
p928
aS'ENSG00000100528'
p929
aS'ENSG00000158270'
p930
aS'ENSG00000035664'
p931
aS'ENSG00000090615'
p932
atRp933
ssS'plum1'
p934
(dp935
g59
(lp936
(lp937
S'ENSG00000244414'
p938
aFinf
ag63
(g65
S'\x84\xc1\xe9\xbc\xcf\xf9\x18?'
tRp939
ag63
(g65
S'\x00l\x16\xe6\x85ws?'
tRp940
aasg4
g5
((lp941
S'ENSG00000182667'
p942
aS'ENSG00000133110'
p943
aS'ENSG00000118257'
p944
aS'ENSG00000152223'
p945
aS'ENSG00000091986'
p946
aS'ENSG00000124766'
p947
aS'ENSG00000102466'
p948
aS'ENSG00000128699'
p949
aS'ENSG00000198542'
p950
aS'ENSG00000102452'
p951
aS'ENSG00000121440'
p952
aS'ENSG00000162687'
p953
aS'ENSG00000144560'
p954
aS'ENSG00000000971'
p955
aS'ENSG00000087245'
p956
aS'ENSG00000164733'
p957
aS'ENSG00000136542'
p958
aS'ENSG00000103066'
p959
aS'ENSG00000075223'
p960
atRp961
ssS'saddlebrown'
p962
(dp963
g4
g5
((lp964
S'ENSG00000173915'
p965
aS'ENSG00000113558'
p966
aS'ENSG00000115816'
p967
aS'ENSG00000090266'
p968
aS'ENSG00000170899'
p969
aS'ENSG00000182512'
p970
aS'ENSG00000156411'
p971
aS'ENSG00000272047'
p972
aS'ENSG00000171159'
p973
aS'ENSG00000105397'
p974
aS'ENSG00000119013'
p975
aS'ENSG00000174021'
p976
aS'ENSG00000085982'
p977
aS'ENSG00000042753'
p978
aS'ENSG00000125534'
p979
aS'ENSG00000107281'
p980
aS'ENSG00000128185'
p981
aS'ENSG00000105854'
p982
aS'ENSG00000165264'
p983
aS'ENSG00000140307'
p984
aS'ENSG00000154723'
p985
aS'ENSG00000241837'
p986
aS'ENSG00000116127'
p987
aS'ENSG00000129235'
p988
aS'ENSG00000065457'
p989
atRp990
ssS'orangered1'
p991
(dp992
g4
g5
((lp993
S'ENSG00000160256'
p994
aS'ENSG00000080819'
p995
aS'ENSG00000164761'
p996
aS'ENSG00000150457'
p997
aS'ENSG00000184374'
p998
aS'ENSG00000128513'
p999
aS'ENSG00000197381'
p1000
aS'ENSG00000003436'
p1001
aS'ENSG00000165152'
p1002
aS'ENSG00000100461'
p1003
aS'ENSG00000095015'
p1004
aS'ENSG00000136999'
p1005
atRp1006
ssS'yellowgreen'
p1007
(dp1008
g4
g5
((lp1009
S'ENSG00000114738'
p1010
aS'ENSG00000039123'
p1011
aS'ENSG00000186501'
p1012
aS'ENSG00000170509'
p1013
aS'ENSG00000203667'
p1014
aS'ENSG00000158987'
p1015
aS'ENSG00000248098'
p1016
aS'ENSG00000196428'
p1017
aS'ENSG00000172469'
p1018
aS'ENSG00000163701'
p1019
aS'ENSG00000117000'
p1020
aS'ENSG00000229729'
p1021
aS'ENSG00000138041'
p1022
aS'ENSG00000205281'
p1023
aS'ENSG00000175105'
p1024
aS'ENSG00000167721'
p1025
aS'ENSG00000170458'
p1026
aS'ENSG00000181690'
p1027
aS'ENSG00000100412'
p1028
aS'ENSG00000066654'
p1029
atRp1030
ssS'thistle'
p1031
(dp1032
g4
g5
((lp1033
S'ENSG00000135249'
p1034
aS'ENSG00000133835'
p1035
aS'ENSG00000176624'
p1036
aS'ENSG00000129484'
p1037
aS'ENSG00000143224'
p1038
aS'ENSG00000158864'
p1039
aS'ENSG00000115556'
p1040
aS'ENSG00000157184'
p1041
aS'ENSG00000158859'
p1042
aS'ENSG00000168264'
p1043
aS'ENSG00000163684'
p1044
aS'ENSG00000164754'
p1045
aS'ENSG00000100504'
p1046
aS'ENSG00000158850'
p1047
atRp1048
ssS'violet'
p1049
(dp1050
g4
g5
((lp1051
S'ENSG00000107863'
p1052
aS'ENSG00000172955'
p1053
aS'ENSG00000120800'
p1054
aS'ENSG00000152137'
p1055
aS'ENSG00000178033'
p1056
aS'ENSG00000148468'
p1057
aS'ENSG00000152465'
p1058
aS'ENSG00000100583'
p1059
aS'ENSG00000174292'
p1060
aS'ENSG00000155130'
p1061
aS'ENSG00000164902'
p1062
aS'ENSG00000239697'
p1063
aS'ENSG00000105889'
p1064
aS'ENSG00000151388'
p1065
aS'ENSG00000103550'
p1066
aS'ENSG00000166025'
p1067
aS'ENSG00000198873'
p1068
aS'ENSG00000151692'
p1069
aS'ENSG00000076641'
p1070
aS'ENSG00000166477'
p1071
aS'ENSG00000099256'
p1072
aS'ENSG00000042062'
p1073
aS'ENSG00000154845'
p1074
atRp1075
ssS'blue'
p1076
(dp1077
g59
(lp1078
(lp1079
S'ENSG00000187134'
p1080
aFinf
ag63
(g65
S'A\xcf\x1a5[{n?'
tRp1081
ag63
(g65
S'`C\xef\xe3{\x16\x9e?'
tRp1082
aasg4
g5
((lp1083
S'ENSG00000095139'
p1084
aS'ENSG00000047056'
p1085
aS'ENSG00000079950'
p1086
aS'ENSG00000138674'
p1087
aS'ENSG00000179889'
p1088
aS'ENSG00000047346'
p1089
aS'ENSG00000116337'
p1090
aS'ENSG00000165813'
p1091
aS'ENSG00000172716'
p1092
aS'ENSG00000101199'
p1093
aS'ENSG00000177096'
p1094
aS'ENSG00000130159'
p1095
aS'ENSG00000148248'
p1096
aS'ENSG00000182827'
p1097
aS'ENSG00000169885'
p1098
aS'ENSG00000113658'
p1099
aS'ENSG00000213694'
p1100
aS'ENSG00000100626'
p1101
aS'ENSG00000142102'
p1102
aS'ENSG00000164244'
p1103
aS'ENSG00000177951'
p1104
aS'ENSG00000134285'
p1105
aS'ENSG00000159658'
p1106
aS'ENSG00000198380'
p1107
aS'ENSG00000188636'
p1108
aS'ENSG00000130703'
p1109
aS'ENSG00000136240'
p1110
aS'ENSG00000129083'
p1111
aS'ENSG00000116266'
p1112
aS'ENSG00000206538'
p1113
aS'ENSG00000115677'
p1114
aS'ENSG00000171282'
p1115
aS'ENSG00000103353'
p1116
aS'ENSG00000114354'
p1117
aS'ENSG00000112473'
p1118
aS'ENSG00000138134'
p1119
aS'ENSG00000166579'
p1120
aS'ENSG00000136052'
p1121
aS'ENSG00000115806'
p1122
aS'ENSG00000162236'
p1123
aS'ENSG00000117682'
p1124
aS'ENSG00000111711'
p1125
aS'ENSG00000056097'
p1126
aS'ENSG00000171067'
p1127
aS'ENSG00000174851'
p1128
aS'ENSG00000136560'
p1129
aS'ENSG00000144747'
p1130
aS'ENSG00000145817'
p1131
aS'ENSG00000059573'
p1132
aS'ENSG00000143452'
p1133
aS'ENSG00000139537'
p1134
aS'ENSG00000164136'
p1135
aS'ENSG00000151135'
p1136
aS'ENSG00000099942'
p1137
aS'ENSG00000105404'
p1138
aS'ENSG00000170027'
p1139
aS'ENSG00000168374'
p1140
aS'ENSG00000145740'
p1141
atRp1142
ssS'honeydew'
p1143
(dp1144
g4
g5
((lp1145
S'ENSG00000166562'
p1146
aS'ENSG00000160233'
p1147
aS'ENSG00000136002'
p1148
aS'ENSG00000105472'
p1149
aS'ENSG00000166313'
p1150
aS'ENSG00000182912'
p1151
aS'ENSG00000269430'
p1152
aS'ENSG00000138030'
p1153
aS'ENSG00000196743'
p1154
aS'ENSG00000048740'
p1155
aS'ENSG00000084764'
p1156
aS'ENSG00000138028'
p1157
aS'ENSG00000100321'
p1158
atRp1159
ssS'purple'
p1160
(dp1161
g4
g5
((lp1162
S'ENSG00000137054'
p1163
aS'ENSG00000188313'
p1164
aS'ENSG00000149100'
p1165
aS'ENSG00000135390'
p1166
aS'ENSG00000113272'
p1167
aS'ENSG00000117543'
p1168
aS'ENSG00000137996'
p1169
aS'ENSG00000164674'
p1170
aS'ENSG00000100568'
p1171
aS'ENSG00000113141'
p1172
aS'ENSG00000167747'
p1173
aS'ENSG00000144659'
p1174
aS'ENSG00000100353'
p1175
aS'ENSG00000113732'
p1176
aS'ENSG00000145545'
p1177
aS'ENSG00000143486'
p1178
aS'ENSG00000170222'
p1179
aS'ENSG00000111832'
p1180
aS'ENSG00000137177'
p1181
aS'ENSG00000176731'
p1182
aS'ENSG00000175203'
p1183
aS'ENSG00000173947'
p1184
aS'ENSG00000184428'
p1185
aS'ENSG00000148337'
p1186
aS'ENSG00000100823'
p1187
aS'ENSG00000150764'
p1188
aS'ENSG00000163468'
p1189
aS'ENSG00000087269'
p1190
aS'ENSG00000104976'
p1191
aS'ENSG00000116473'
p1192
aS'ENSG00000100029'
p1193
aS'ENSG00000170727'
p1194
aS'ENSG00000156467'
p1195
aS'ENSG00000140545'
p1196
aS'ENSG00000103429'
p1197
aS'ENSG00000105227'
p1198
aS'ENSG00000104231'
p1199
aS'ENSG00000136235'
p1200
atRp1201
ssS'palevioletred1'
p1202
(dp1203
g4
g5
((lp1204
S'ENSG00000188735'
p1205
aS'ENSG00000167543'
p1206
aS'ENSG00000101000'
p1207
aS'ENSG00000141756'
p1208
aS'ENSG00000141696'
p1209
aS'ENSG00000042445'
p1210
aS'ENSG00000141698'
p1211
aS'ENSG00000158604'
p1212
aS'ENSG00000117385'
p1213
aS'ENSG00000140264'
p1214
atRp1215
ssS'palevioletred2'
p1216
(dp1217
g59
(lp1218
(lp1219
S'ENSG00000150625'
p1220
ag63
(g65
S'\xcd\xcc\xcc\xcc\xcc\x8cj@'
tRp1221
ag63
(g65
S'\x1f\xae\x87k\xadV6?'
tRp1222
ag63
(g65
S' \xeb\xde\xdb\xe4\x1f\x97?'
tRp1223
aasg4
g5
((lp1224
S'ENSG00000074317'
p1225
aS'ENSG00000070808'
p1226
aS'ENSG00000104888'
p1227
aS'ENSG00000058404'
p1228
aS'ENSG00000107742'
p1229
aS'ENSG00000129244'
p1230
aS'ENSG00000171368'
p1231
aS'ENSG00000126217'
p1232
aS'ENSG00000168314'
p1233
aS'ENSG00000109705'
p1234
aS'ENSG00000131771'
p1235
aS'ENSG00000172201'
p1236
aS'ENSG00000008735'
p1237
aS'ENSG00000145920'
p1238
atRp1239
ssS'palevioletred3'
p1240
(dp1241
g59
(lp1242
(lp1243
S'ENSG00000091704'
p1244
aFinf
ag63
(g65
S'D\x8d-+\x11?\xfb>'
tRp1245
ag63
(g65
S'\x00\xe0<\xe2\xf5n$?'
tRp1246
aa(lp1247
S'ENSG00000187021'
p1248
aFinf
ag63
(g65
S'D\x8d-+\x11?\xfb>'
tRp1249
ag63
(g65
S'\x00\xe0<\xe2\xf5n$?'
tRp1250
aa(lp1251
S'ENSG00000142789'
p1252
aFinf
ag63
(g65
S'D\x8d-+\x11?\xfb>'
tRp1253
ag63
(g65
S'\x00\xe0<\xe2\xf5n$?'
tRp1254
aa(lp1255
S'ENSG00000168928'
p1256
aFinf
ag63
(g65
S'D\x8d-+\x11?\xfb>'
tRp1257
ag63
(g65
S'\x00\xe0<\xe2\xf5n$?'
tRp1258
aa(lp1259
S'ENSG00000115386'
p1260
aFinf
ag63
(g65
S'm\x1b\xd4g\x84\xdcv?'
tRp1261
ag63
(g65
S'@\xa0&B/\xcc\x86?'
tRp1262
aa(lp1263
S'ENSG00000169347'
p1264
aFinf
ag63
(g65
S'm\x1b\xd4g\x84\xdcv?'
tRp1265
ag63
(g65
S'@\xa0&B/\xcc\x86?'
tRp1266
aasg4
g5
((lp1267
S'ENSG00000171766'
p1268
aS'ENSG00000138161'
p1269
aS'ENSG00000185946'
p1270
aS'ENSG00000115386'
p1271
aS'ENSG00000011485'
p1272
aS'ENSG00000141086'
p1273
aS'ENSG00000135002'
p1274
aS'ENSG00000085274'
p1275
aS'ENSG00000240038'
p1276
aS'ENSG00000143954'
p1277
aS'ENSG00000162482'
p1278
aS'ENSG00000158516'
p1279
aS'ENSG00000231852'
p1280
aS'ENSG00000170835'
p1281
aS'ENSG00000153002'
p1282
aS'ENSG00000142789'
p1283
aS'ENSG00000139055'
p1284
atRp1285
ssS'coral3'
p1286
(dp1287
g4
g5
((lp1288
S'ENSG00000197747'
p1289
aS'ENSG00000167930'
p1290
aS'ENSG00000163636'
p1291
aS'ENSG00000089159'
p1292
aS'ENSG00000130479'
p1293
aS'ENSG00000174564'
p1294
aS'ENSG00000183963'
p1295
aS'ENSG00000164305'
p1296
aS'ENSG00000085465'
p1297
aS'ENSG00000113758'
p1298
aS'ENSG00000136146'
p1299
aS'ENSG00000133056'
p1300
aS'ENSG00000184752'
p1301
atRp1302
ssS'coral2'
p1303
(dp1304
g59
(lp1305
(lp1306
S'ENSG00000139289'
p1307
ag63
(g65
S'UUUUUEf@'
tRp1308
ag63
(g65
S'\x87\x9c.\xf7-\xcc\x86?'
tRp1309
ag63
(g65
S'\xb0\x10\x9f\x91sk\xa6?'
tRp1310
aa(lp1311
S'ENSG00000138449'
p1312
ag63
(g65
S'I\x92$I\x92\x04S@'
tRp1313
ag63
(g65
S'\x85-_\x83q\xb6\x96?'
tRp1314
ag63
(g65
S'\xe0\xd0x1\xda,\xa9?'
tRp1315
aa(lp1316
S'ENSG00000099337'
p1317
ag63
(g65
S'r\x1c\xc7q\x1c\x87M@'
tRp1318
ag63
(g65
S'o\xe7\xf7\x9b~V\x9c?'
tRp1319
ag63
(g65
S'\xe0\xd0x1\xda,\xa9?'
tRp1320
aa(lp1321
S'ENSG00000143869'
p1322
ag63
(g65
S'\xcd\xcc\xcc\xcc\xcc\xacZ@'
tRp1323
ag63
(g65
S'qa!\x81\xfa\x10\x91?'
tRp1324
ag63
(g65
S'\xe0\xd0x1\xda,\xa9?'
tRp1325
aasg4
g5
((lp1326
S'ENSG00000154096'
p1327
aS'ENSG00000139946'
p1328
aS'ENSG00000163249'
p1329
aS'ENSG00000131446'
p1330
aS'ENSG00000117479'
p1331
aS'ENSG00000198807'
p1332
aS'ENSG00000139508'
p1333
aS'ENSG00000196636'
p1334
aS'ENSG00000144401'
p1335
aS'ENSG00000171703'
p1336
aS'ENSG00000164574'
p1337
aS'ENSG00000198742'
p1338
aS'ENSG00000170561'
p1339
aS'ENSG00000184979'
p1340
aS'ENSG00000157933'
p1341
aS'ENSG00000198924'
p1342
atRp1343
ssS'coral1'
p1344
(dp1345
g4
g5
((lp1346
S'ENSG00000124151'
p1347
aS'ENSG00000108691'
p1348
aS'ENSG00000112685'
p1349
aS'ENSG00000119383'
p1350
aS'ENSG00000105792'
p1351
aS'ENSG00000143333'
p1352
aS'ENSG00000040199'
p1353
aS'ENSG00000131979'
p1354
aS'ENSG00000102763'
p1355
aS'ENSG00000105835'
p1356
aS'ENSG00000157214'
p1357
aS'ENSG00000101224'
p1358
aS'ENSG00000130024'
p1359
aS'ENSG00000144362'
p1360
aS'ENSG00000105793'
p1361
aS'ENSG00000114757'
p1362
atRp1363
ssS'mediumpurple'
p1364
(dp1365
g4
g5
((lp1366
S'ENSG00000133488'
p1367
aS'ENSG00000168765'
p1368
aS'ENSG00000213366'
p1369
aS'ENSG00000181754'
p1370
aS'ENSG00000188243'
p1371
aS'ENSG00000134201'
p1372
aS'ENSG00000134202'
p1373
aS'ENSG00000134184'
p1374
atRp1375
ssS'indianred2'
p1376
(dp1377
g59
(lp1378
(lp1379
S'ENSG00000196460'
p1380
aFinf
ag63
(g65
S'y\xc80\x01\x19\r\x83?'
tRp1381
ag63
(g65
S'`\\\x94\x14\xceO\x9c?'
tRp1382
aa(lp1383
S'ENSG00000104814'
p1384
aFinf
ag63
(g65
S'y\xc80\x01\x19\r\x83?'
tRp1385
ag63
(g65
S'`\\\x94\x14\xceO\x9c?'
tRp1386
aasg4
g5
((lp1387
S'ENSG00000117009'
p1388
aS'ENSG00000054277'
p1389
aS'ENSG00000140527'
p1390
aS'ENSG00000147853'
p1391
aS'ENSG00000203772'
p1392
aS'ENSG00000203668'
p1393
aS'ENSG00000156968'
p1394
atRp1395
ssS'coral4'
p1396
(dp1397
g59
(lp1398
(lp1399
S'ENSG00000110799'
p1400
aFinf
ag63
(g65
S'\x84\xc10\x01\x19\rs?'
tRp1401
ag63
(g65
S'\xe0\x93\\\xf5o\xbe\xa2?'
tRp1402
aa(lp1403
S'ENSG00000198624'
p1404
aFinf
ag63
(g65
S'\x84\xc10\x01\x19\rs?'
tRp1405
ag63
(g65
S'\xe0\x93\\\xf5o\xbe\xa2?'
tRp1406
aasg4
g5
((lp1407
S'ENSG00000111231'
p1408
aS'ENSG00000167588'
p1409
aS'ENSG00000078246'
p1410
aS'ENSG00000175445'
p1411
aS'ENSG00000155252'
p1412
aS'ENSG00000181092'
p1413
aS'ENSG00000226321'
p1414
aS'ENSG00000167676'
p1415
aS'ENSG00000004799'
p1416
atRp1417
ssS'lightblue3'
p1418
(dp1419
g59
(lp1420
(lp1421
S'ENSG00000109472'
p1422
ag63
(g65
S'\x00\x00\x00\x00\x00\xb4p@'
tRp1423
ag63
(g65
S'g\xaew\xfb\x03\x04\x83?'
tRp1424
ag63
(g65
S'\x80\xaew\xfb\x03\x04\x83?'
tRp1425
aasg4
g5
((lp1426
S'ENSG00000099984'
p1427
aS'ENSG00000071909'
p1428
aS'ENSG00000099974'
p1429
aS'ENSG00000125337'
p1430
aS'ENSG00000099977'
p1431
aS'ENSG00000133433'
p1432
aS'ENSG00000144278'
p1433
atRp1434
ssS'lightslateblue'
p1435
(dp1436
g4
g5
((lp1437
S'ENSG00000141837'
p1438
aS'ENSG00000104381'
p1439
aS'ENSG00000183155'
p1440
aS'ENSG00000151322'
p1441
aS'ENSG00000214338'
p1442
aS'ENSG00000189367'
p1443
aS'ENSG00000153666'
p1444
aS'ENSG00000106348'
p1445
aS'ENSG00000150510'
p1446
aS'ENSG00000112320'
p1447
aS'ENSG00000124243'
p1448
atRp1449
ssS'lightblue4'
p1450
(dp1451
g4
g5
((lp1452
S'ENSG00000139531'
p1453
aS'ENSG00000214026'
p1454
aS'ENSG00000169213'
p1455
aS'ENSG00000078142'
p1456
aS'ENSG00000113812'
p1457
aS'ENSG00000056736'
p1458
aS'ENSG00000205138'
p1459
aS'ENSG00000151612'
p1460
aS'ENSG00000165644'
p1461
aS'ENSG00000168395'
p1462
aS'ENSG00000175220'
p1463
atRp1464
ssS'lightsteelblue1'
p1465
(dp1466
g4
g5
((lp1467
S'ENSG00000151914'
p1468
aS'ENSG00000100226'
p1469
aS'ENSG00000244754'
p1470
aS'ENSG00000083067'
p1471
aS'ENSG00000012983'
p1472
aS'ENSG00000244687'
p1473
aS'ENSG00000127481'
p1474
aS'ENSG00000138688'
p1475
aS'ENSG00000144357'
p1476
aS'ENSG00000160551'
p1477
aS'ENSG00000175354'
p1478
aS'ENSG00000175115'
p1479
aS'ENSG00000135837'
p1480
aS'ENSG00000138385'
p1481
aS'ENSG00000171135'
p1482
aS'ENSG00000115760'
p1483
aS'ENSG00000156052'
p1484
aS'ENSG00000135870'
p1485
aS'ENSG00000138382'
p1486
atRp1487
ssS'skyblue4'
p1488
(dp1489
g4
g5
((lp1490
S'ENSG00000187193'
p1491
aS'ENSG00000134853'
p1492
aS'ENSG00000133121'
p1493
aS'ENSG00000169715'
p1494
aS'ENSG00000168795'
p1495
aS'ENSG00000149489'
p1496
aS'ENSG00000060642'
p1497
aS'ENSG00000112159'
p1498
aS'ENSG00000198417'
p1499
aS'ENSG00000137764'
p1500
aS'ENSG00000084693'
p1501
aS'ENSG00000108773'
p1502
aS'ENSG00000104635'
p1503
atRp1504
ssS'skyblue1'
p1505
(dp1506
g59
(lp1507
(lp1508
S'ENSG00000172349'
p1509
ag63
(g65
S'\xab\xaa\xaa\xaa\xaaJv@'
tRp1510
ag63
(g65
S'\x84\x03=.up~?'
tRp1511
ag63
(g65
S'\xd0\x0b3oo\xbe\xa2?'
tRp1512
aa(lp1513
S'ENSG00000166278'
p1514
ag63
(g65
S'\xab\xaa\xaa\xaa\xaaJv@'
tRp1515
ag63
(g65
S'\x84\x03=.up~?'
tRp1516
ag63
(g65
S'\xd0\x0b3oo\xbe\xa2?'
tRp1517
aa(lp1518
S'ENSG00000106537'
p1519
ag63
(g65
S'\xab\xaa\xaa\xaa\xaaJv@'
tRp1520
ag63
(g65
S'\x84\x03=.up~?'
tRp1521
ag63
(g65
S'\xd0\x0b3oo\xbe\xa2?'
tRp1522
aa(lp1523
S'ENSG00000109819'
p1524
ag63
(g65
S'\xab\xaa\xaa\xaa\xaaJv@'
tRp1525
ag63
(g65
S'\x84\x03=.up~?'
tRp1526
ag63
(g65
S'\xd0\x0b3oo\xbe\xa2?'
tRp1527
aasg4
g5
((lp1528
S'ENSG00000106688'
p1529
aS'ENSG00000177427'
p1530
aS'ENSG00000124440'
p1531
aS'ENSG00000254087'
p1532
aS'ENSG00000196935'
p1533
aS'ENSG00000151883'
p1534
aS'ENSG00000144843'
p1535
aS'ENSG00000170571'
p1536
aS'ENSG00000166454'
p1537
aS'ENSG00000127220'
p1538
aS'ENSG00000140464'
p1539
aS'ENSG00000170558'
p1540
aS'ENSG00000198113'
p1541
aS'ENSG00000162378'
p1542
aS'ENSG00000078018'
p1543
aS'ENSG00000178401'
p1544
atRp1545
ssS'darkred'
p1546
(dp1547
g4
g5
((lp1548
S'ENSG00000197496'
p1549
aS'ENSG00000164284'
p1550
aS'ENSG00000116584'
p1551
aS'ENSG00000153879'
p1552
aS'ENSG00000133983'
p1553
aS'ENSG00000006652'
p1554
aS'ENSG00000126500'
p1555
aS'ENSG00000076864'
p1556
aS'ENSG00000176473'
p1557
aS'ENSG00000088035'
p1558
aS'ENSG00000176845'
p1559
aS'ENSG00000153140'
p1560
aS'ENSG00000101255'
p1561
aS'ENSG00000189269'
p1562
aS'ENSG00000139746'
p1563
aS'ENSG00000198478'
p1564
aS'ENSG00000112655'
p1565
aS'ENSG00000066629'
p1566
aS'ENSG00000169136'
p1567
aS'ENSG00000099875'
p1568
aS'ENSG00000131462'
p1569
aS'ENSG00000172432'
p1570
aS'ENSG00000136051'
p1571
aS'ENSG00000188938'
p1572
aS'ENSG00000214402'
p1573
aS'ENSG00000196182'
p1574
aS'ENSG00000187735'
p1575
aS'ENSG00000196365'
p1576
aS'ENSG00000162944'
p1577
aS'ENSG00000135929'
p1578
atRp1579
ssS'skyblue2'
p1580
(dp1581
g4
g5
((lp1582
S'ENSG00000143815'
p1583
aS'ENSG00000110076'
p1584
aS'ENSG00000108846'
p1585
aS'ENSG00000129534'
p1586
aS'ENSG00000184156'
p1587
aS'ENSG00000096433'
p1588
aS'ENSG00000120802'
p1589
aS'ENSG00000164039'
p1590
aS'ENSG00000101236'
p1591
aS'ENSG00000170540'
p1592
aS'ENSG00000170425'
p1593
aS'ENSG00000171488'
p1594
aS'ENSG00000091073'
p1595
aS'ENSG00000127948'
p1596
aS'ENSG00000005059'
p1597
aS'ENSG00000183696'
p1598
atRp1599
ssS'lightskyblue4'
p1600
(dp1601
g59
(lp1602
(lp1603
S'ENSG00000211445'
p1604
aFinf
ag63
(g65
S'!\xcf\x1a5[{N?'
tRp1605
ag63
(g65
S'\xc0%?8\x17\x15\x81?'
tRp1606
aa(lp1607
S'ENSG00000111341'
p1608
aFinf
ag63
(g65
S'\xce\xda\x1a5[{n?'
tRp1609
ag63
(g65
S'\x00O\xef\xe3{\x16\x9e?'
tRp1610
aa(lp1611
S'ENSG00000131471'
p1612
aFinf
ag63
(g65
S'\xce\xda\x1a5[{n?'
tRp1613
ag63
(g65
S'\x00O\xef\xe3{\x16\x9e?'
tRp1614
aa(lp1615
S'ENSG00000144583'
p1616
aFinf
ag63
(g65
S'm\x1b\xd4g\x84\xdcv?'
tRp1617
ag63
(g65
S'\x90"\xb62\x98\xe8\xa0?'
tRp1618
aa(lp1619
S'ENSG00000170962'
p1620
aFinf
ag63
(g65
S'\x95\xe0\x1a5[{~?'
tRp1621
ag63
(g65
S'\x10\xf4\xd9\xe7\x0b\xc5\xa2?'
tRp1622
aasg4
g5
((lp1623
S'ENSG00000091592'
p1624
aS'ENSG00000161714'
p1625
aS'ENSG00000115520'
p1626
aS'ENSG00000132517'
p1627
aS'ENSG00000164002'
p1628
aS'ENSG00000129197'
p1629
aS'ENSG00000108559'
p1630
aS'ENSG00000163486'
p1631
atRp1632
ssS'lavenderblush3'
p1633
(dp1634
g4
g5
((lp1635
S'ENSG00000164934'
p1636
aS'ENSG00000166226'
p1637
aS'ENSG00000112110'
p1638
aS'ENSG00000197530'
p1639
aS'ENSG00000150753'
p1640
aS'ENSG00000187650'
p1641
aS'ENSG00000136045'
p1642
aS'ENSG00000107937'
p1643
aS'ENSG00000124802'
p1644
aS'ENSG00000164929'
p1645
aS'ENSG00000116649'
p1646
aS'ENSG00000120438'
p1647
aS'ENSG00000156261'
p1648
aS'ENSG00000116120'
p1649
aS'ENSG00000107130'
p1650
aS'ENSG00000006606'
p1651
aS'ENSG00000144895'
p1652
atRp1653
ssS'lavenderblush2'
p1654
(dp1655
g59
(lp1656
(lp1657
S'ENSG00000108381'
p1658
ag63
(g65
S'UUUUUEf@'
tRp1659
ag63
(g65
S'\x8d\x8f.\xf7-\xcc\x86?'
tRp1660
ag63
(g65
S'@,2K\xb2\xab\x96?'
tRp1661
aasg4
g5
((lp1662
S'ENSG00000038427'
p1663
aS'ENSG00000125772'
p1664
aS'ENSG00000149488'
p1665
aS'ENSG00000115758'
p1666
aS'ENSG00000143369'
p1667
aS'ENSG00000143382'
p1668
aS'ENSG00000174165'
p1669
aS'ENSG00000171840'
p1670
aS'ENSG00000164091'
p1671
aS'ENSG00000123636'
p1672
aS'ENSG00000211455'
p1673
aS'ENSG00000106799'
p1674
aS'ENSG00000174325'
p1675
aS'ENSG00000011465'
p1676
atRp1677
ssS'skyblue3'
p1678
(dp1679
g4
g5
((lp1680
S'ENSG00000109472'
p1681
aS'ENSG00000135437'
p1682
aS'ENSG00000175832'
p1683
aS'ENSG00000165819'
p1684
aS'ENSG00000198420'
p1685
aS'ENSG00000186448'
p1686
aS'ENSG00000132688'
p1687
aS'ENSG00000033100'
p1688
aS'ENSG00000063660'
p1689
aS'ENSG00000143320'
p1690
aS'ENSG00000135424'
p1691
aS'ENSG00000138443'
p1692
aS'ENSG00000170439'
p1693
aS'ENSG00000133872'
p1694
aS'ENSG00000005156'
p1695
aS'ENSG00000163956'
p1696
aS'ENSG00000130751'
p1697
aS'ENSG00000101187'
p1698
aS'ENSG00000143786'
p1699
aS'ENSG00000115457'
p1700
atRp1701
ssS'blue3'
p1702
(dp1703
g4
g5
((lp1704
S'ENSG00000166997'
p1705
aS'ENSG00000204463'
p1706
aS'ENSG00000166529'
p1707
aS'ENSG00000221838'
p1708
aS'ENSG00000106290'
p1709
aS'ENSG00000118960'
p1710
atRp1711
ssS'blue2'
p1712
(dp1713
g4
g5
((lp1714
S'ENSG00000123178'
p1715
aS'ENSG00000100028'
p1716
aS'ENSG00000183291'
p1717
aS'ENSG00000146433'
p1718
aS'ENSG00000124702'
p1719
aS'ENSG00000119421'
p1720
aS'ENSG00000135535'
p1721
aS'ENSG00000116663'
p1722
aS'ENSG00000107371'
p1723
aS'ENSG00000101745'
p1724
aS'ENSG00000153574'
p1725
aS'ENSG00000102683'
p1726
aS'ENSG00000153936'
p1727
aS'ENSG00000102753'
p1728
aS'ENSG00000122591'
p1729
atRp1730
ssS'blue4'
p1731
(dp1732
g4
g5
((lp1733
S'ENSG00000127947'
p1734
aS'ENSG00000008838'
p1735
aS'ENSG00000164188'
p1736
aS'ENSG00000178773'
p1737
aS'ENSG00000038274'
p1738
aS'ENSG00000041357'
p1739
aS'ENSG00000147454'
p1740
aS'ENSG00000122008'
p1741
aS'ENSG00000108509'
p1742
aS'ENSG00000091640'
p1743
aS'ENSG00000106823'
p1744
atRp1745
ssS'lavenderblush1'
p1746
(dp1747
g4
g5
((lp1748
S'ENSG00000101457'
p1749
aS'ENSG00000205560'
p1750
aS'ENSG00000100288'
p1751
aS'ENSG00000024422'
p1752
aS'ENSG00000177565'
p1753
aS'ENSG00000124116'
p1754
aS'ENSG00000204305'
p1755
aS'ENSG00000170745'
p1756
aS'ENSG00000185267'
p1757
atRp1758
ssS'plum4'
p1759
(dp1760
g4
g5
((lp1761
S'ENSG00000111859'
p1762
aS'ENSG00000164330'
p1763
aS'ENSG00000183496'
p1764
aS'ENSG00000178860'
p1765
aS'ENSG00000146067'
p1766
aS'ENSG00000131791'
p1767
aS'ENSG00000154719'
p1768
aS'ENSG00000173653'
p1769
aS'ENSG00000151474'
p1770
aS'ENSG00000235531'
p1771
atRp1772
ssS'floralwhite'
p1773
(dp1774
g59
(lp1775
(lp1776
S'ENSG00000197558'
p1777
ag63
(g65
S'\xcd\xcc\xcc\xcc\xcc\xacz@'
tRp1778
ag63
(g65
S'9\x04\xb7\x8d\x11\x85\x1c?'
tRp1779
ag63
(g65
S'\x80\x11\x14\xdb}\x89{?'
tRp1780
aa(lp1781
S'ENSG00000226711'
p1782
ag63
(g65
S'\xcd\xcc\xcc\xcc\xcc\xacz@'
tRp1783
ag63
(g65
S'9\x04\xb7\x8d\x11\x85\x1c?'
tRp1784
ag63
(g65
S'\x80\x11\x14\xdb}\x89{?'
tRp1785
aa(lp1786
S'ENSG00000205090'
p1787
ag63
(g65
S'\xc3\xf5(\\\x8fBU@'
tRp1788
ag63
(g65
S'\xe4\x1a\x98\x01\\\xa5H?'
tRp1789
ag63
(g65
S'\xb0\xbc\xce\x95\xab\x99\xa6?'
tRp1790
aasg4
g5
((lp1791
S'ENSG00000155269'
p1792
aS'ENSG00000107984'
p1793
aS'ENSG00000109625'
p1794
aS'ENSG00000104885'
p1795
aS'ENSG00000120341'
p1796
aS'ENSG00000133937'
p1797
aS'ENSG00000197766'
p1798
aS'ENSG00000152104'
p1799
aS'ENSG00000224389'
p1800
aS'ENSG00000151006'
p1801
aS'ENSG00000181619'
p1802
aS'ENSG00000161249'
p1803
aS'ENSG00000130312'
p1804
aS'ENSG00000173960'
p1805
aS'ENSG00000090661'
p1806
aS'ENSG00000164509'
p1807
aS'ENSG00000158092'
p1808
aS'ENSG00000083544'
p1809
atRp1810
ssS'coral'
p1811
(dp1812
g4
g5
((lp1813
S'ENSG00000168685'
p1814
aS'ENSG00000107551'
p1815
aS'ENSG00000196975'
p1816
aS'ENSG00000134461'
p1817
aS'ENSG00000162341'
p1818
aS'ENSG00000176170'
p1819
aS'ENSG00000152611'
p1820
aS'ENSG00000107779'
p1821
aS'ENSG00000086991'
p1822
aS'ENSG00000187164'
p1823
aS'ENSG00000130038'
p1824
aS'ENSG00000152582'
p1825
aS'ENSG00000129515'
p1826
atRp1827
ssS'firebrick3'
p1828
(dp1829
g4
g5
((lp1830
S'ENSG00000234745'
p1831
aS'ENSG00000111801'
p1832
aS'ENSG00000105939'
p1833
aS'ENSG00000159873'
p1834
aS'ENSG00000087237'
p1835
aS'ENSG00000110514'
p1836
aS'ENSG00000152944'
p1837
aS'ENSG00000204267'
p1838
aS'ENSG00000140853'
p1839
aS'ENSG00000204642'
p1840
aS'ENSG00000168394'
p1841
atRp1842
ssS'lightcyan'
p1843
(dp1844
g59
(lp1845
(lp1846
S'ENSG00000146122'
p1847
aFinf
ag63
(g65
S'!\xcf\x1a5[{N?'
tRp1848
ag63
(g65
S'\x00?\xaf\x83\xbb\xf8\x82?'
tRp1849
aa(lp1850
S'ENSG00000254102'
p1851
aFinf
ag63
(g65
S'!\xcf\x1a5[{N?'
tRp1852
ag63
(g65
S'\x00?\xaf\x83\xbb\xf8\x82?'
tRp1853
aa(lp1854
S'ENSG00000180828'
p1855
aFinf
ag63
(g65
S'!\xcf\x1a5[{N?'
tRp1856
ag63
(g65
S'\x00?\xaf\x83\xbb\xf8\x82?'
tRp1857
aa(lp1858
S'ENSG00000136895'
p1859
aFinf
ag63
(g65
S'\xe8\xd4\x1a5[{^?'
tRp1860
ag63
(g65
S'\x80\x9a\xcc\xfd\xf1\x85\x8a?'
tRp1861
aa(lp1862
g1658
aFinf
ag63
(g65
S'\x17\x17\xd4g\x84\xdcf?'
tRp1863
ag63
(g65
S' \x1eV\xc3\xe0\x06\x91?'
tRp1864
aa(lp1865
S'ENSG00000139618'
p1866
aFinf
ag63
(g65
S'\xc7~w\xce\xef\xabz?'
tRp1867
ag63
(g65
S'\xa0\xa3\x18\xb5>t\xa0?'
tRp1868
aa(lp1869
S'ENSG00000196972'
p1870
aFinf
ag63
(g65
S')iw\xce\xef\xab\x8a?'
tRp1871
ag63
(g65
S'\x10\x05\xef\x81$R\xa8?'
tRp1872
aa(lp1873
S'ENSG00000088367'
p1874
aFinf
ag63
(g65
S"\xe0\xe3\x87'>\x19\x92?"
tRp1875
ag63
(g65
S'\x10\x05\xef\x81$R\xa8?'
tRp1876
aa(lp1877
S'ENSG00000184347'
p1878
aFinf
ag63
(g65
S't"\xdfMc%\x91?'
tRp1879
ag63
(g65
S'\x10\x05\xef\x81$R\xa8?'
tRp1880
aa(lp1881
S'ENSG00000066279'
p1882
aFinf
ag63
(g65
S'\xcb\xd3%\x1b:\xc4\x88?'
tRp1883
ag63
(g65
S'\x10\x05\xef\x81$R\xa8?'
tRp1884
aasg4
g5
((lp1885
S'ENSG00000152234'
p1886
aS'ENSG00000120690'
p1887
aS'ENSG00000148303'
p1888
aS'ENSG00000010810'
p1889
aS'ENSG00000011405'
p1890
aS'ENSG00000148344'
p1891
aS'ENSG00000138326'
p1892
aS'ENSG00000160539'
p1893
aS'ENSG00000204628'
p1894
aS'ENSG00000111450'
p1895
aS'ENSG00000175390'
p1896
aS'ENSG00000158019'
p1897
aS'ENSG00000132970'
p1898
aS'ENSG00000166813'
p1899
aS'ENSG00000150316'
p1900
aS'ENSG00000188846'
p1901
aS'ENSG00000130402'
p1902
aS'ENSG00000155463'
p1903
aS'ENSG00000100129'
p1904
aS'ENSG00000063046'
p1905
aS'ENSG00000100908'
p1906
aS'ENSG00000183044'
p1907
aS'ENSG00000105298'
p1908
aS'ENSG00000117601'
p1909
aS'ENSG00000145741'
p1910
aS'ENSG00000090621'
p1911
aS'ENSG00000144741'
p1912
aS'ENSG00000077097'
p1913
aS'ENSG00000141556'
p1914
aS'ENSG00000137106'
p1915
aS'ENSG00000140612'
p1916
aS'ENSG00000167658'
p1917
atRp1918
ssS'sienna3'
p1919
(dp1920
g59
(lp1921
(lp1922
S'ENSG00000170345'
p1923
aFinf
ag63
(g65
S'!\xcf\x1a5[{N?'
tRp1924
ag63
(g65
S'\x80\x97\x85X\xd3\x12\x90?'
tRp1925
aa(lp1926
S'ENSG00000081041'
p1927
aFinf
ag63
(g65
S'\xe8\xd4\x1a5[{^?'
tRp1928
ag63
(g65
S'@X\x17ri\x0f\x9e?'
tRp1929
aa(lp1930
S'ENSG00000159388'
p1931
aFinf
ag63
(g65
S'\xe8\xd4\x1a5[{^?'
tRp1932
ag63
(g65
S'@X\x17ri\x0f\x9e?'
tRp1933
aa(lp1934
S'ENSG00000128016'
p1935
aFinf
ag63
(g65
S'\xe8\xd4\x1a5[{^?'
tRp1936
ag63
(g65
S'@X\x17ri\x0f\x9e?'
tRp1937
aa(lp1938
S'ENSG00000100003'
p1939
aFinf
ag63
(g65
S'\xe8\xd4\x1a5[{^?'
tRp1940
ag63
(g65
S'@X\x17ri\x0f\x9e?'
tRp1941
aa(lp1942
S'ENSG00000118503'
p1943
aFinf
ag63
(g65
S'\xe8\xd4\x1a5[{^?'
tRp1944
ag63
(g65
S'@X\x17ri\x0f\x9e?'
tRp1945
aa(lp1946
S'ENSG00000104856'
p1947
aFinf
ag63
(g65
S'\x17\x17\xd4g\x84\xdcf?'
tRp1948
ag63
(g65
S'\xe0\xc2\xec\xfd\xdb\xff\x9e?'
tRp1949
aa(lp1950
S'ENSG00000104435'
p1951
aFinf
ag63
(g65
S'\x17\x17\xd4g\x84\xdcf?'
tRp1952
ag63
(g65
S'\xe0\xc2\xec\xfd\xdb\xff\x9e?'
tRp1953
aa(lp1954
S'ENSG00000100842'
p1955
aFinf
ag63
(g65
S'\x17\x17\xd4g\x84\xdcf?'
tRp1956
ag63
(g65
S'\xe0\xc2\xec\xfd\xdb\xff\x9e?'
tRp1957
aa(lp1958
S'ENSG00000111077'
p1959
aFinf
ag63
(g65
S'\xd0\xb10\x01\x19\rs?'
tRp1960
ag63
(g65
S'\xe0\x84\\\xf5o\xbe\xa2?'
tRp1961
aasg4
g5
((lp1962
S'ENSG00000176853'
p1963
aS'ENSG00000135916'
p1964
aS'ENSG00000120694'
p1965
aS'ENSG00000086061'
p1966
aS'ENSG00000115241'
p1967
aS'ENSG00000104886'
p1968
aS'ENSG00000081087'
p1969
aS'ENSG00000116096'
p1970
aS'ENSG00000105176'
p1971
aS'ENSG00000110172'
p1972
aS'ENSG00000086065'
p1973
aS'ENSG00000181830'
p1974
aS'ENSG00000080608'
p1975
aS'ENSG00000088836'
p1976
aS'ENSG00000100726'
p1977
aS'ENSG00000122033'
p1978
aS'ENSG00000106086'
p1979
aS'ENSG00000065548'
p1980
aS'ENSG00000179388'
p1981
aS'ENSG00000072071'
p1982
atRp1983
ssS'firebrick4'
p1984
(dp1985
g59
(lp1986
(lp1987
S'ENSG00000011332'
p1988
aFinf
ag63
(g65
S'm\x1b\xd4g\x84\xdcv?'
tRp1989
ag63
(g65
S'\xf0\xf9\xa8\xd1tk\xa6?'
tRp1990
aa(lp1991
S'ENSG00000180998'
p1992
aFinf
ag63
(g65
S'm\x1b\xd4g\x84\xdcv?'
tRp1993
ag63
(g65
S'\xf0\xf9\xa8\xd1tk\xa6?'
tRp1994
aa(lp1995
S'ENSG00000115844'
p1996
aFinf
ag63
(g65
S'm\x1b\xd4g\x84\xdcv?'
tRp1997
ag63
(g65
S'\xf0\xf9\xa8\xd1tk\xa6?'
tRp1998
aasg4
g5
((lp1999
S'ENSG00000149948'
p2000
aS'ENSG00000185112'
p2001
aS'ENSG00000101542'
p2002
aS'ENSG00000110436'
p2003
aS'ENSG00000165637'
p2004
aS'ENSG00000171552'
p2005
aS'ENSG00000166326'
p2006
aS'ENSG00000163577'
p2007
aS'ENSG00000128805'
p2008
aS'ENSG00000179431'
p2009
aS'ENSG00000166106'
p2010
aS'ENSG00000112964'
p2011
aS'ENSG00000149090'
p2012
aS'ENSG00000103154'
p2013
aS'ENSG00000143867'
p2014
atRp2015
ssS'honeydew1'
p2016
(dp2017
g4
g5
((lp2018
S'ENSG00000197150'
p2019
aS'ENSG00000162981'
p2020
aS'ENSG00000151773'
p2021
aS'ENSG00000106565'
p2022
aS'ENSG00000120658'
p2023
aS'ENSG00000106560'
p2024
aS'ENSG00000139174'
p2025
aS'ENSG00000120675'
p2026
aS'ENSG00000133106'
p2027
aS'ENSG00000187699'
p2028
aS'ENSG00000141456'
p2029
aS'ENSG00000156671'
p2030
aS'ENSG00000179630'
p2031
aS'ENSG00000170962'
p2032
aS'ENSG00000196329'
p2033
aS'ENSG00000002933'
p2034
atRp2035
ssS'lightsteelblue'
p2036
(dp2037
g4
g5
((lp2038
S'ENSG00000073417'
p2039
aS'ENSG00000153823'
p2040
aS'ENSG00000170264'
p2041
aS'ENSG00000174243'
p2042
aS'ENSG00000161544'
p2043
aS'ENSG00000187151'
p2044
aS'ENSG00000163737'
p2045
aS'ENSG00000109272'
p2046
aS'ENSG00000134775'
p2047
aS'ENSG00000170891'
p2048
aS'ENSG00000124875'
p2049
aS'ENSG00000136732'
p2050
aS'ENSG00000152953'
p2051
aS'ENSG00000160223'
p2052
aS'ENSG00000169047'
p2053
aS'ENSG00000050165'
p2054
atRp2055
ssS'yellow4'
p2056
(dp2057
g4
g5
((lp2058
S'ENSG00000120708'
p2059
aS'ENSG00000151632'
p2060
aS'ENSG00000111817'
p2061
aS'ENSG00000187134'
p2062
aS'ENSG00000183287'
p2063
aS'ENSG00000221926'
p2064
aS'ENSG00000116922'
p2065
aS'ENSG00000154175'
p2066
aS'ENSG00000153029'
p2067
aS'ENSG00000196139'
p2068
aS'ENSG00000169271'
p2069
aS'ENSG00000250038'
p2070
aS'ENSG00000116199'
p2071
aS'ENSG00000128606'
p2072
aS'ENSG00000170873'
p2073
aS'ENSG00000023909'
p2074
atRp2075
ssS'greenyellow'
p2076
(dp2077
g4
g5
((lp2078
S'ENSG00000184922'
p2079
aS'ENSG00000078081'
p2080
aS'ENSG00000176438'
p2081
aS'ENSG00000144824'
p2082
aS'ENSG00000170542'
p2083
aS'ENSG00000103381'
p2084
aS'ENSG00000072786'
p2085
aS'ENSG00000162222'
p2086
aS'ENSG00000115183'
p2087
aS'ENSG00000197461'
p2088
aS'ENSG00000053524'
p2089
aS'ENSG00000076067'
p2090
aS'ENSG00000161653'
p2091
aS'ENSG00000100647'
p2092
aS'ENSG00000164951'
p2093
aS'ENSG00000169641'
p2094
aS'ENSG00000072135'
p2095
aS'ENSG00000187678'
p2096
aS'ENSG00000160013'
p2097
aS'ENSG00000151702'
p2098
aS'ENSG00000184584'
p2099
aS'ENSG00000179862'
p2100
aS'ENSG00000090006'
p2101
aS'ENSG00000163961'
p2102
aS'ENSG00000139083'
p2103
aS'ENSG00000110218'
p2104
aS'ENSG00000144583'
p2105
aS'ENSG00000166619'
p2106
aS'ENSG00000179046'
p2107
aS'ENSG00000180398'
p2108
aS'ENSG00000145246'
p2109
aS'ENSG00000162458'
p2110
aS'ENSG00000105639'
p2111
aS'ENSG00000131634'
p2112
aS'ENSG00000138594'
p2113
aS'ENSG00000115446'
p2114
aS'ENSG00000125304'
p2115
atRp2116
ssS'magenta3'
p2117
(dp2118
g4
g5
((lp2119
S'ENSG00000086504'
p2120
aS'ENSG00000166436'
p2121
aS'ENSG00000132591'
p2122
aS'ENSG00000119402'
p2123
aS'ENSG00000095261'
p2124
aS'ENSG00000129925'
p2125
aS'ENSG00000105393'
p2126
aS'ENSG00000112078'
p2127
aS'ENSG00000122707'
p2128
aS'ENSG00000140365'
p2129
atRp2130
ssS'navajowhite1'
p2131
(dp2132
g59
(lp2133
(lp2134
S'ENSG00000054392'
p2135
aFinf
ag63
(g65
S'P\xcf\x1a5[{^?'
tRp2136
ag63
(g65
S'`T\x17ri\x0f\x9e?'
tRp2137
aasg4
g5
((lp2138
S'ENSG00000121957'
p2139
aS'ENSG00000143473'
p2140
aS'ENSG00000167487'
p2141
aS'ENSG00000241258'
p2142
aS'ENSG00000178425'
p2143
aS'ENSG00000189266'
p2144
aS'ENSG00000054392'
p2145
aS'ENSG00000139675'
p2146
aS'ENSG00000117625'
p2147
aS'ENSG00000005955'
p2148
aS'ENSG00000100490'
p2149
aS'ENSG00000233539'
p2150
aS'ENSG00000176597'
p2151
aS'ENSG00000148296'
p2152
atRp2153
ssS'navajowhite2'
p2154
(dp2155
g4
g5
((lp2156
S'ENSG00000103404'
p2157
aS'ENSG00000168958'
p2158
aS'ENSG00000173744'
p2159
aS'ENSG00000149932'
p2160
aS'ENSG00000151893'
p2161
aS'ENSG00000168955'
p2162
aS'ENSG00000174775'
p2163
aS'ENSG00000075914'
p2164
aS'ENSG00000086848'
p2165
aS'ENSG00000164627'
p2166
aS'ENSG00000172493'
p2167
aS'ENSG00000127191'
p2168
aS'ENSG00000183530'
p2169
aS'ENSG00000141568'
p2170
aS'ENSG00000163866'
p2171
aS'ENSG00000135917'
p2172
aS'ENSG00000170624'
p2173
atRp2174
ssS'lightcoral'
p2175
(dp2176
g4
g5
((lp2177
S'ENSG00000170209'
p2178
aS'ENSG00000174437'
p2179
aS'ENSG00000255112'
p2180
aS'ENSG00000163214'
p2181
aS'ENSG00000198848'
p2182
aS'ENSG00000159176'
p2183
aS'ENSG00000074219'
p2184
aS'ENSG00000141655'
p2185
aS'ENSG00000198467'
p2186
aS'ENSG00000090273'
p2187
aS'ENSG00000178952'
p2188
aS'ENSG00000198890'
p2189
aS'ENSG00000172927'
p2190
aS'ENSG00000176697'
p2191
aS'ENSG00000146197'
p2192
aS'ENSG00000162631'
p2193
atRp2194
ssS'orangered'
p2195
(dp2196
g4
g5
((lp2197
S'ENSG00000153531'
p2198
aS'ENSG00000146842'
p2199
aS'ENSG00000142197'
p2200
aS'ENSG00000106484'
p2201
aS'ENSG00000128510'
p2202
aS'ENSG00000117069'
p2203
aS'ENSG00000158525'
p2204
aS'ENSG00000128607'
p2205
atRp2206
ssS'navajowhite'
p2207
(dp2208
g4
g5
((lp2209
S'ENSG00000100038'
p2210
aS'ENSG00000161010'
p2211
aS'ENSG00000110721'
p2212
aS'ENSG00000096717'
p2213
aS'ENSG00000161011'
p2214
aS'ENSG00000130702'
p2215
aS'ENSG00000152518'
p2216
aS'ENSG00000040487'
p2217
aS'ENSG00000169925'
p2218
aS'ENSG00000205423'
p2219
atRp2220
ssS'pink3'
p2221
(dp2222
g4
g5
((lp2223
S'ENSG00000082397'
p2224
aS'ENSG00000068724'
p2225
aS'ENSG00000169026'
p2226
aS'ENSG00000102882'
p2227
aS'ENSG00000087589'
p2228
aS'ENSG00000159788'
p2229
aS'ENSG00000102886'
p2230
aS'ENSG00000127364'
p2231
atRp2232
ssS'mistyrose'
p2233
(dp2234
g4
g5
((lp2235
S'ENSG00000185829'
p2236
aS'ENSG00000238083'
p2237
aS'ENSG00000100439'
p2238
aS'ENSG00000073969'
p2239
aS'ENSG00000120071'
p2240
aS'ENSG00000228696'
p2241
aS'ENSG00000176681'
p2242
aS'ENSG00000114423'
p2243
atRp2244
ssS'royalblue'
p2245
(dp2246
g59
(lp2247
(lp2248
S'ENSG00000182901'
p2249
aFinf
ag63
(g65
S'\x84\xc10\x01\x19\rs?'
tRp2250
ag63
(g65
S'\xb0\xa5b*6\x98\xa9?'
tRp2251
aasg4
g5
((lp2252
S'ENSG00000221947'
p2253
aS'ENSG00000092931'
p2254
aS'ENSG00000088832'
p2255
aS'ENSG00000118418'
p2256
aS'ENSG00000108797'
p2257
aS'ENSG00000166402'
p2258
aS'ENSG00000188921'
p2259
aS'ENSG00000160991'
p2260
aS'ENSG00000137834'
p2261
aS'ENSG00000198369'
p2262
aS'ENSG00000011132'
p2263
aS'ENSG00000075420'
p2264
aS'ENSG00000136153'
p2265
aS'ENSG00000087303'
p2266
aS'ENSG00000067167'
p2267
aS'ENSG00000160753'
p2268
aS'ENSG00000173517'
p2269
aS'ENSG00000170153'
p2270
aS'ENSG00000083857'
p2271
aS'ENSG00000064692'
p2272
aS'ENSG00000178734'
p2273
aS'ENSG00000147592'
p2274
aS'ENSG00000137393'
p2275
aS'ENSG00000187626'
p2276
aS'ENSG00000105810'
p2277
aS'ENSG00000075391'
p2278
aS'ENSG00000153814'
p2279
aS'ENSG00000100154'
p2280
aS'ENSG00000174136'
p2281
aS'ENSG00000119314'
p2282
aS'ENSG00000119698'
p2283
atRp2284
ssS'white'
p2285
(dp2286
g59
(lp2287
(lp2288
S'ENSG00000149591'
p2289
ag63
(g65
S'\xf6(\\\x8f\xc2\xb5O@'
tRp2290
ag63
(g65
S'\x8c\xc4\xad\xea\xf4\xa1\x13?'
tRp2291
ag63
(g65
S'\x00\xc6\xe6\xa7%re?'
tRp2292
aa(lp2293
S'ENSG00000153404'
p2294
ag63
(g65
S']t\xd1E\x17\x1dh@'
tRp2295
ag63
(g65
S'\xbc5\x0f,6b:?'
tRp2296
ag63
(g65
S'@&\xd3[\xe2\xd8\x8b?'
tRp2297
aa(lp2298
S'ENSG00000023892'
p2299
ag63
(g65
S']t\xd1E\x17\x1dh@'
tRp2300
ag63
(g65
S'\xbc5\x0f,6b:?'
tRp2301
ag63
(g65
S'@&\xd3[\xe2\xd8\x8b?'
tRp2302
aa(lp2303
S'ENSG00000168916'
p2304
ag63
(g65
S'P\x07uP\x07u6@'
tRp2305
ag63
(g65
S'u\x977\x0eu\xf8K?'
tRp2306
ag63
(g65
S'\x80\x13y\xec\x85\x9a\x9b?'
tRp2307
aa(lp2308
S'ENSG00000101335'
p2309
ag63
(g65
S'\xcd\xcc\xcc\xcc\xcc\x9c3@'
tRp2310
ag63
(g65
S'\xf5\x11\xf8\x14j\xa6S?'
tRp2311
ag63
(g65
S'\xa0\x92\xd2L\x8d\xb2\xa2?'
tRp2312
aa(lp2313
S'ENSG00000076706'
p2314
ag63
(g65
S'\x8c.\xba\xe8\xa2\x0bP@'
tRp2315
ag63
(g65
S'\xa35\xc3-\xdb\xafU?'
tRp2316
ag63
(g65
S'\xd0x\xd7\xca0\xf2\xa3?'
tRp2317
aa(lp2318
S'ENSG00000142910'
p2319
ag63
(g65
S'\x8c.\xba\xe8\xa2\x0bP@'
tRp2320
ag63
(g65
S'\xa35\xc3-\xdb\xafU?'
tRp2321
ag63
(g65
S'\xd0x\xd7\xca0\xf2\xa3?'
tRp2322
aasg4
g5
((lp2323
S'ENSG00000148288'
p2324
aS'ENSG00000167100'
p2325
aS'ENSG00000176435'
p2326
aS'ENSG00000125089'
p2327
aS'ENSG00000176887'
p2328
aS'ENSG00000138650'
p2329
aS'ENSG00000010610'
p2330
aS'ENSG00000102760'
p2331
aS'ENSG00000141179'
p2332
aS'ENSG00000254535'
p2333
aS'ENSG00000154310'
p2334
aS'ENSG00000152580'
p2335
aS'ENSG00000148719'
p2336
aS'ENSG00000123453'
p2337
aS'ENSG00000186197'
p2338
aS'ENSG00000187796'
p2339
aS'ENSG00000122490'
p2340
aS'ENSG00000105339'
p2341
aS'ENSG00000234409'
p2342
aS'ENSG00000158008'
p2343
aS'ENSG00000137868'
p2344
aS'ENSG00000077454'
p2345
aS'ENSG00000173546'
p2346
aS'ENSG00000184160'
p2347
aS'ENSG00000154822'
p2348
atRp2349
ssS'tan4'
p2350
(dp2351
g4
g5
((lp2352
S'ENSG00000111424'
p2353
aS'ENSG00000185864'
p2354
aS'ENSG00000116205'
p2355
aS'ENSG00000198064'
p2356
aS'ENSG00000169203'
p2357
aS'ENSG00000169246'
p2358
aS'ENSG00000254206'
p2359
aS'ENSG00000000419'
p2360
aS'ENSG00000108294'
p2361
aS'ENSG00000114491'
p2362
atRp2363
ssS'ivory'
p2364
(dp2365
g4
g5
((lp2366
S'ENSG00000099282'
p2367
aS'ENSG00000162804'
p2368
aS'ENSG00000222047'
p2369
aS'ENSG00000069869'
p2370
aS'ENSG00000165092'
p2371
aS'ENSG00000171509'
p2372
aS'ENSG00000110042'
p2373
aS'ENSG00000164093'
p2374
aS'ENSG00000122861'
p2375
aS'ENSG00000154380'
p2376
aS'ENSG00000196954'
p2377
aS'ENSG00000131238'
p2378
aS'ENSG00000184226'
p2379
aS'ENSG00000027697'
p2380
aS'ENSG00000204856'
p2381
aS'ENSG00000137501'
p2382
aS'ENSG00000170961'
p2383
aS'ENSG00000143850'
p2384
aS'ENSG00000159733'
p2385
atRp2386
ssS'lightgreen'
p2387
(dp2388
g4
g5
((lp2389
S'ENSG00000108671'
p2390
aS'ENSG00000136731'
p2391
aS'ENSG00000155660'
p2392
aS'ENSG00000104805'
p2393
aS'ENSG00000198937'
p2394
aS'ENSG00000113719'
p2395
aS'ENSG00000145354'
p2396
aS'ENSG00000120725'
p2397
aS'ENSG00000179218'
p2398
aS'ENSG00000127022'
p2399
aS'ENSG00000177971'
p2400
aS'ENSG00000129128'
p2401
aS'ENSG00000070081'
p2402
aS'ENSG00000058262'
p2403
aS'ENSG00000171105'
p2404
aS'ENSG00000244038'
p2405
aS'ENSG00000185624'
p2406
aS'ENSG00000138175'
p2407
aS'ENSG00000130165'
p2408
aS'ENSG00000260916'
p2409
aS'ENSG00000163703'
p2410
aS'ENSG00000206530'
p2411
aS'ENSG00000168802'
p2412
aS'ENSG00000166598'
p2413
aS'ENSG00000100360'
p2414
aS'ENSG00000184164'
p2415
aS'ENSG00000143870'
p2416
aS'ENSG00000122176'
p2417
aS'ENSG00000132341'
p2418
aS'ENSG00000066855'
p2419
aS'ENSG00000112130'
p2420
atRp2421
ssS'lightpink2'
p2422
(dp2423
g59
(lp2424
(lp2425
S'ENSG00000085465'
p2426
ag63
(g65
S'\x00\x00\x00\x00\x00\xb4p@'
tRp2427
ag63
(g65
S'g\xaew\xfb\x03\x04\x83?'
tRp2428
ag63
(g65
S'\x80\xaew\xfb\x03\x04\x83?'
tRp2429
aasg4
g5
((lp2430
S'ENSG00000198156'
p2431
aS'ENSG00000205609'
p2432
aS'ENSG00000185252'
p2433
aS'ENSG00000167767'
p2434
aS'ENSG00000107036'
p2435
aS'ENSG00000234719'
p2436
aS'ENSG00000184110'
p2437
aS'ENSG00000156471'
p2438
aS'ENSG00000114670'
p2439
atRp2440
ssS'lightpink3'
p2441
(dp2442
g4
g5
((lp2443
S'ENSG00000164185'
p2444
aS'ENSG00000104142'
p2445
aS'ENSG00000031823'
p2446
aS'ENSG00000137710'
p2447
aS'ENSG00000115286'
p2448
aS'ENSG00000163528'
p2449
aS'ENSG00000139209'
p2450
aS'ENSG00000107164'
p2451
aS'ENSG00000079819'
p2452
aS'ENSG00000141552'
p2453
aS'ENSG00000127418'
p2454
aS'ENSG00000161202'
p2455
aS'ENSG00000161203'
p2456
aS'ENSG00000163166'
p2457
atRp2458
ssS'darkgrey'
p2459
(dp2460
g4
g5
((lp2461
S'ENSG00000181938'
p2462
aS'ENSG00000115687'
p2463
aS'ENSG00000196355'
p2464
aS'ENSG00000108465'
p2465
aS'ENSG00000009307'
p2466
aS'ENSG00000079246'
p2467
aS'ENSG00000132383'
p2468
aS'ENSG00000136492'
p2469
aS'ENSG00000101335'
p2470
aS'ENSG00000164045'
p2471
aS'ENSG00000014138'
p2472
aS'ENSG00000146263'
p2473
aS'ENSG00000176890'
p2474
aS'ENSG00000151466'
p2475
aS'ENSG00000159147'
p2476
aS'ENSG00000198265'
p2477
aS'ENSG00000131351'
p2478
aS'ENSG00000168411'
p2479
aS'ENSG00000138376'
p2480
aS'ENSG00000086827'
p2481
aS'ENSG00000213024'
p2482
aS'ENSG00000127184'
p2483
aS'ENSG00000132436'
p2484
aS'ENSG00000164237'
p2485
aS'ENSG00000159259'
p2486
aS'ENSG00000168005'
p2487
aS'ENSG00000144395'
p2488
aS'ENSG00000167325'
p2489
atRp2490
ssS'lightpink4'
p2491
(dp2492
g59
(lp2493
(lp2494
S'ENSG00000112742'
p2495
ag63
(g65
S'\xecg\x8b\x95\xe1\x1b3@'
tRp2496
ag63
(g65
S'\xe3w3==<\r?'
tRp2497
ag63
(g65
S'\x00Q\xbd\\?\xb5b?'
tRp2498
aa(lp2499
S'ENSG00000143228'
p2500
ag63
(g65
S'\xecg\x8b\x95\xe1\x1b3@'
tRp2501
ag63
(g65
S'\xe3w3==<\r?'
tRp2502
ag63
(g65
S'\x00Q\xbd\\?\xb5b?'
tRp2503
aa(lp2504
S'ENSG00000121152'
p2505
ag63
(g65
S'\xecg\x8b\x95\xe1\x1b3@'
tRp2506
ag63
(g65
S'\xe3w3==<\r?'
tRp2507
ag63
(g65
S'\x00Q\xbd\\?\xb5b?'
tRp2508
aa(lp2509
S'ENSG00000111247'
p2510
ag63
(g65
S'\x00\x00\x00\x00\x00\x004@'
tRp2511
ag63
(g65
S'\xe0\xe6\x1d\x1a\x0b\t3?'
tRp2512
ag63
(g65
S'\x80\xf8:\x9f\xc0{\x86?'
tRp2513
aa(lp2514
S'ENSG00000156970'
p2515
ag63
(g65
S'\x00\x00\x00\x00\x00\x00.@'
tRp2516
ag63
(g65
S'\xe6T\x04\x84\x8d\xc73?'
tRp2517
ag63
(g65
S'\x00\\\xca\xc6\t\xbf\x86?'
tRp2518
aa(lp2519
S'ENSG00000143476'
p2520
ag63
(g65
S'\xe9\xa2\x8b.\xba\xc8+@'
tRp2521
ag63
(g65
S'\x9f\xbaa?\xacE;?'
tRp2522
ag63
(g65
S'\xc0\xa4\xe2\x9dsu\x8e?'
tRp2523
aa(lp2524
S'ENSG00000065328'
p2525
ag63
(g65
S'\xe9\xa2\x8b.\xba\xc8+@'
tRp2526
ag63
(g65
S'\x9f\xbaa?\xacE;?'
tRp2527
ag63
(g65
S'\xc0\xa4\xe2\x9dsu\x8e?'
tRp2528
aa(lp2529
S'ENSG00000167325'
p2530
ag63
(g65
S'\xac\x0f\x8d\xf5\xa1\xb1(@'
tRp2531
ag63
(g65
S'g\xf4\x06\xb3\xfa6F?'
tRp2532
ag63
(g65
S'@\x91|\xa5OW\x97?'
tRp2533
aasg4
g5
((lp2534
S'ENSG00000127564'
p2535
aS'ENSG00000196584'
p2536
aS'ENSG00000100162'
p2537
aS'ENSG00000151725'
p2538
aS'ENSG00000146670'
p2539
aS'ENSG00000253719'
p2540
aS'ENSG00000122483'
p2541
aS'ENSG00000112029'
p2542
aS'ENSG00000160953'
p2543
aS'ENSG00000154920'
p2544
aS'ENSG00000152253'
p2545
aS'ENSG00000204946'
p2546
aS'ENSG00000165480'
p2547
aS'ENSG00000196449'
p2548
aS'ENSG00000171320'
p2549
aS'ENSG00000122952'
p2550
aS'ENSG00000072840'
p2551
atRp2552
ssS'darkolivegreen1'
p2553
(dp2554
g4
g5
((lp2555
S'ENSG00000104490'
p2556
aS'ENSG00000187189'
p2557
aS'ENSG00000136068'
p2558
aS'ENSG00000132010'
p2559
aS'ENSG00000180263'
p2560
aS'ENSG00000028203'
p2561
atRp2562
ssS'darkorange2'
p2563
(dp2564
g59
(lp2565
(lp2566
S'ENSG00000164125'
p2567
aFinf
ag63
(g65
S'A\xcf\x1a5[{n?'
tRp2568
ag63
(g65
S'\x00\xf0\xd5\xa1\xd6l~?'
tRp2569
aa(lp2570
S'ENSG00000116132'
p2571
ag63
(g65
S'UUUUU%F@'
tRp2572
ag63
(g65
S'\x99\x0b%\xb6\x8e\xf4\xa0?'
tRp2573
ag63
(g65
S'\xa0\x0b%\xb6\x8e\xf4\xa0?'
tRp2574
aasg4
g5
((lp2575
S'ENSG00000106004'
p2576
aS'ENSG00000180660'
p2577
aS'ENSG00000144674'
p2578
aS'ENSG00000143106'
p2579
aS'ENSG00000166448'
p2580
aS'ENSG00000107864'
p2581
aS'ENSG00000106006'
p2582
aS'ENSG00000141367'
p2583
aS'ENSG00000105996'
p2584
aS'ENSG00000175183'
p2585
aS'ENSG00000082701'
p2586
aS'ENSG00000149243'
p2587
aS'ENSG00000105997'
p2588
aS'ENSG00000143995'
p2589
aS'ENSG00000126106'
p2590
aS'ENSG00000158555'
p2591
aS'ENSG00000126467'
p2592
aS'ENSG00000143028'
p2593
atRp2594
ssS'darkolivegreen2'
p2595
(dp2596
g4
g5
((lp2597
S'ENSG00000135213'
p2598
aS'ENSG00000005339'
p2599
aS'ENSG00000198646'
p2600
aS'ENSG00000100393'
p2601
aS'ENSG00000181827'
p2602
aS'ENSG00000105669'
p2603
aS'ENSG00000036054'
p2604
aS'ENSG00000164715'
p2605
aS'ENSG00000103335'
p2606
aS'ENSG00000105287'
p2607
aS'ENSG00000181027'
p2608
atRp2609
ssS'chocolate4'
p2610
(dp2611
g4
g5
((lp2612
S'ENSG00000112367'
p2613
aS'ENSG00000003137'
p2614
aS'ENSG00000164967'
p2615
aS'ENSG00000167645'
p2616
aS'ENSG00000075240'
p2617
aS'ENSG00000033800'
p2618
aS'ENSG00000124422'
p2619
aS'ENSG00000099337'
p2620
aS'ENSG00000165898'
p2621
atRp2622
ssS'darkslateblue'
p2623
(dp2624
g4
g5
((lp2625
S'ENSG00000196932'
p2626
aS'ENSG00000159640'
p2627
aS'ENSG00000214021'
p2628
aS'ENSG00000154153'
p2629
aS'ENSG00000159164'
p2630
aS'ENSG00000149591'
p2631
aS'ENSG00000173153'
p2632
aS'ENSG00000120314'
p2633
aS'ENSG00000163110'
p2634
aS'ENSG00000183049'
p2635
aS'ENSG00000160613'
p2636
aS'ENSG00000133048'
p2637
aS'ENSG00000157557'
p2638
aS'ENSG00000139220'
p2639
aS'ENSG00000071051'
p2640
aS'ENSG00000203993'
p2641
aS'ENSG00000163485'
p2642
aS'ENSG00000133055'
p2643
atRp2644
ssS'deeppink'
p2645
(dp2646
g4
g5
((lp2647
S'ENSG00000180828'
p2648
aS'ENSG00000072041'
p2649
aS'ENSG00000183346'
p2650
aS'ENSG00000064309'
p2651
aS'ENSG00000189157'
p2652
aS'ENSG00000130707'
p2653
aS'ENSG00000027644'
p2654
aS'ENSG00000061918'
p2655
aS'ENSG00000164116'
p2656
aS'ENSG00000101384'
p2657
aS'ENSG00000163170'
p2658
atRp2659
ssS'plum'
p2660
(dp2661
g4
g5
((lp2662
S'ENSG00000042493'
p2663
aS'ENSG00000125347'
p2664
aS'ENSG00000169604'
p2665
aS'ENSG00000136048'
p2666
aS'ENSG00000182004'
p2667
aS'ENSG00000103642'
p2668
aS'ENSG00000149582'
p2669
aS'ENSG00000084636'
p2670
aS'ENSG00000006715'
p2671
aS'ENSG00000111670'
p2672
aS'ENSG00000074410'
p2673
aS'ENSG00000170385'
p2674
aS'ENSG00000204070'
p2675
aS'ENSG00000198816'
p2676
aS'ENSG00000214944'
p2677
aS'ENSG00000185088'
p2678
atRp2679
ssS'maroon'
p2680
(dp2681
g4
g5
((lp2682
S'ENSG00000121848'
p2683
aS'ENSG00000158023'
p2684
aS'ENSG00000152022'
p2685
aS'ENSG00000180801'
p2686
aS'ENSG00000145390'
p2687
aS'ENSG00000110987'
p2688
aS'ENSG00000157570'
p2689
aS'ENSG00000107104'
p2690
aS'ENSG00000181039'
p2691
aS'ENSG00000166073'
p2692
aS'ENSG00000155324'
p2693
aS'ENSG00000152332'
p2694
aS'ENSG00000136379'
p2695
aS'ENSG00000103888'
p2696
aS'ENSG00000186141'
p2697
aS'ENSG00000152689'
p2698
aS'ENSG00000112144'
p2699
atRp2700
ssS'lightcyan1'
p2701
(dp2702
g59
(lp2703
(lp2704
S'ENSG00000092929'
p2705
aFinf
ag63
(g65
S'P\xcf\x1a5[{^?'
tRp2706
ag63
(g65
S'\xc0\xf3\x016\x00\xa1\x96?'
tRp2707
aa(lp2708
S'ENSG00000129038'
p2709
aFinf
ag63
(g65
S'P\xcf\x1a5[{^?'
tRp2710
ag63
(g65
S'\xc0\xf3\x016\x00\xa1\x96?'
tRp2711
aa(lp2712
S'ENSG00000177989'
p2713
ag63
(g65
S'\x00\x00\x00\x00\x00\xc0\x90@'
tRp2714
ag63
(g65
S'I\xf8\xd02\xb9wn?'
tRp2715
ag63
(g65
S'@\xdfdG\x0b\xba\xa2?'
tRp2716
aa(lp2717
S'ENSG00000169594'
p2718
ag63
(g65
S'\x00\x00\x00\x00\x00\xc0\x90@'
tRp2719
ag63
(g65
S'I\xf8\xd02\xb9wn?'
tRp2720
ag63
(g65
S'@\xdfdG\x0b\xba\xa2?'
tRp2721
aa(lp2722
S'ENSG00000161653'
p2723
ag63
(g65
S'\x00\x00\x00\x00\x00\xbc\x80@'
tRp2724
ag63
(g65
S'\xa5\x1aed\x11\xd7v?'
tRp2725
ag63
(g65
S'\x80t5a7f\xa6?'
tRp2726
aa(lp2727
S'ENSG00000168389'
p2728
ag63
(g65
S'\xab\xaa\xaa\xaa\xaaJv@'
tRp2729
ag63
(g65
S'V\t=.up~?'
tRp2730
ag63
(g65
S'\x80t5a7f\xa6?'
tRp2731
aa(lp2732
S'ENSG00000179431'
p2733
ag63
(g65
S'\xab\xaa\xaa\xaa\xaaJv@'
tRp2734
ag63
(g65
S'V\t=.up~?'
tRp2735
ag63
(g65
S'\x80t5a7f\xa6?'
tRp2736
aa(lp2737
S'ENSG00000142102'
p2738
ag63
(g65
S'\xab\xaa\xaa\xaa\xaaJv@'
tRp2739
ag63
(g65
S'V\t=.up~?'
tRp2740
ag63
(g65
S'\x80t5a7f\xa6?'
tRp2741
aa(lp2742
S'ENSG00000175592'
p2743
ag63
(g65
S'\x00\x00\x00\x00\x00\xbc\x80@'
tRp2744
ag63
(g65
S'\xa5\x1aed\x11\xd7v?'
tRp2745
ag63
(g65
S'\x80t5a7f\xa6?'
tRp2746
aa(lp2747
S'ENSG00000162645'
p2748
ag63
(g65
S'\xab\xaa\xaa\xaa\xaaJv@'
tRp2749
ag63
(g65
S'V\t=.up~?'
tRp2750
ag63
(g65
S'\x80t5a7f\xa6?'
tRp2751
aa(lp2752
S'ENSG00000181773'
p2753
ag63
(g65
S'\x00\x00\x00\x00\x00\xbc\x80@'
tRp2754
ag63
(g65
S'\xa5\x1aed\x11\xd7v?'
tRp2755
ag63
(g65
S'\x80t5a7f\xa6?'
tRp2756
aa(lp2757
S'ENSG00000137101'
p2758
ag63
(g65
S'\x00\x00\x00\x00\x00\xbc\x80@'
tRp2759
ag63
(g65
S'\xa5\x1aed\x11\xd7v?'
tRp2760
ag63
(g65
S'\x80t5a7f\xa6?'
tRp2761
aasg4
g5
((lp2762
S'ENSG00000134138'
p2763
aS'ENSG00000150995'
p2764
aS'ENSG00000083937'
p2765
aS'ENSG00000115904'
p2766
aS'ENSG00000013364'
p2767
aS'ENSG00000175467'
p2768
aS'ENSG00000179604'
p2769
aS'ENSG00000113083'
p2770
aS'ENSG00000160213'
p2771
aS'ENSG00000066084'
p2772
aS'ENSG00000155970'
p2773
aS'ENSG00000123384'
p2774
aS'ENSG00000106624'
p2775
aS'ENSG00000158966'
p2776
aS'ENSG00000186073'
p2777
aS'ENSG00000126458'
p2778
aS'ENSG00000099331'
p2779
aS'ENSG00000067225'
p2780
aS'ENSG00000188549'
p2781
atRp2782
ssS'magenta'
p2783
(dp2784
g4
g5
((lp2785
S'ENSG00000134470'
p2786
aS'ENSG00000197045'
p2787
aS'ENSG00000142864'
p2788
aS'ENSG00000165832'
p2789
aS'ENSG00000133243'
p2790
aS'ENSG00000163320'
p2791
aS'ENSG00000255529'
p2792
aS'ENSG00000198917'
p2793
aS'ENSG00000151332'
p2794
aS'ENSG00000157107'
p2795
aS'ENSG00000141447'
p2796
aS'ENSG00000178074'
p2797
aS'ENSG00000141425'
p2798
aS'ENSG00000070367'
p2799
aS'ENSG00000143742'
p2800
aS'ENSG00000188612'
p2801
aS'ENSG00000197312'
p2802
aS'ENSG00000106460'
p2803
aS'ENSG00000115944'
p2804
aS'ENSG00000204899'
p2805
aS'ENSG00000198160'
p2806
aS'ENSG00000075142'
p2807
aS'ENSG00000106591'
p2808
aS'ENSG00000079337'
p2809
aS'ENSG00000198898'
p2810
aS'ENSG00000135272'
p2811
aS'ENSG00000159256'
p2812
aS'ENSG00000139163'
p2813
aS'ENSG00000164031'
p2814
aS'ENSG00000154727'
p2815
aS'ENSG00000132535'
p2816
aS'ENSG00000066136'
p2817
aS'ENSG00000065615'
p2818
aS'ENSG00000169045'
p2819
aS'ENSG00000154582'
p2820
aS'ENSG00000104427'
p2821
aS'ENSG00000103423'
p2822
aS'ENSG00000101166'
p2823
atRp2824
ssS'tan'
p2825
(dp2826
g4
g5
((lp2827
S'ENSG00000072310'
p2828
aS'ENSG00000073060'
p2829
aS'ENSG00000065833'
p2830
aS'ENSG00000006831'
p2831
aS'ENSG00000081760'
p2832
aS'ENSG00000196628'
p2833
aS'ENSG00000132142'
p2834
aS'ENSG00000079459'
p2835
aS'ENSG00000117335'
p2836
aS'ENSG00000149809'
p2837
aS'ENSG00000104946'
p2838
aS'ENSG00000109084'
p2839
aS'ENSG00000155368'
p2840
aS'ENSG00000134324'
p2841
aS'ENSG00000184207'
p2842
aS'ENSG00000235878'
p2843
aS'ENSG00000116133'
p2844
aS'ENSG00000159921'
p2845
aS'ENSG00000110921'
p2846
aS'ENSG00000139428'
p2847
aS'ENSG00000134824'
p2848
aS'ENSG00000120137'
p2849
aS'ENSG00000160752'
p2850
aS'ENSG00000160285'
p2851
aS'ENSG00000167508'
p2852
aS'ENSG00000163931'
p2853
aS'ENSG00000164211'
p2854
aS'ENSG00000084731'
p2855
aS'ENSG00000099194'
p2856
aS'ENSG00000011021'
p2857
aS'ENSG00000164032'
p2858
aS'ENSG00000064115'
p2859
aS'ENSG00000177000'
p2860
aS'ENSG00000109929'
p2861
aS'ENSG00000140262'
p2862
aS'ENSG00000120437'
p2863
atRp2864
ssS'pink'
p2865
(dp2866
g59
(lp2867
(lp2868
S'ENSG00000157456'
p2869
ag63
(g65
S'\x8c.\xba\xe8\xa2\x0bH@'
tRp2870
ag63
(g65
S"\xfbH[\xd1r'`?"
tRp2871
ag63
(g65
S'\x00\xd8|c\xb1\xd5\x9f?'
tRp2872
aa(lp2873
S'ENSG00000117399'
p2874
ag63
(g65
S'\x8c.\xba\xe8\xa2\x0bH@'
tRp2875
ag63
(g65
S"\xfbH[\xd1r'`?"
tRp2876
ag63
(g65
S'\x00\xd8|c\xb1\xd5\x9f?'
tRp2877
aa(lp2878
S'ENSG00000061656'
p2879
ag63
(g65
S'\x8c.\xba\xe8\xa2\x0bH@'
tRp2880
ag63
(g65
S"\xfbH[\xd1r'`?"
tRp2881
ag63
(g65
S'\x00\xd8|c\xb1\xd5\x9f?'
tRp2882
aa(lp2883
S'ENSG00000169679'
p2884
ag63
(g65
S'n\xdb\xb6m\xdb\xd6B@'
tRp2885
ag63
(g65
S'\xd2\x8d.=\xb1\xaah?'
tRp2886
ag63
(g65
S'0\x0e\xf9\x81\x02\xaf\xa3?'
tRp2887
aa(lp2888
S'ENSG00000088340'
p2889
ag63
(g65
S'\x11\x11\x11\x11\x11\x91A@'
tRp2890
ag63
(g65
S'\xd8\x10\x19\xe5\xc4\xe2k?'
tRp2891
ag63
(g65
S'\xa0\xa6\x1e5\xf7\x86\xa4?'
tRp2892
aasg4
g5
((lp2893
S'ENSG00000196284'
p2894
aS'ENSG00000107021'
p2895
aS'ENSG00000110435'
p2896
aS'ENSG00000151882'
p2897
aS'ENSG00000159399'
p2898
aS'ENSG00000166136'
p2899
aS'ENSG00000162433'
p2900
aS'ENSG00000182224'
p2901
aS'ENSG00000213585'
p2902
aS'ENSG00000060656'
p2903
aS'ENSG00000171314'
p2904
aS'ENSG00000049759'
p2905
aS'ENSG00000184304'
p2906
aS'ENSG00000089041'
p2907
aS'ENSG00000079739'
p2908
aS'ENSG00000171843'
p2909
aS'ENSG00000101400'
p2910
aS'ENSG00000131941'
p2911
aS'ENSG00000116132'
p2912
aS'ENSG00000152952'
p2913
aS'ENSG00000119321'
p2914
aS'ENSG00000179294'
p2915
aS'ENSG00000110876'
p2916
aS'ENSG00000177707'
p2917
aS'ENSG00000123607'
p2918
aS'ENSG00000109919'
p2919
aS'ENSG00000178966'
p2920
aS'ENSG00000013306'
p2921
aS'ENSG00000116883'
p2922
aS'ENSG00000147852'
p2923
aS'ENSG00000138246'
p2924
aS'ENSG00000172922'
p2925
aS'ENSG00000205300'
p2926
aS'ENSG00000134333'
p2927
aS'ENSG00000162819'
p2928
aS'ENSG00000214193'
p2929
aS'ENSG00000127328'
p2930
aS'ENSG00000117174'
p2931
aS'ENSG00000204580'
p2932
aS'ENSG00000107159'
p2933
aS'ENSG00000105220'
p2934
atRp2935
ssS'slateblue'
p2936
(dp2937
g59
(lp2938
(lp2939
S'ENSG00000133048'
p2940
aFinf
ag63
(g65
S'P\xcf\x1a5[{^?'
tRp2941
ag63
(g65
S'\x00@\x81A\x9be~?'
tRp2942
aa(lp2943
S'ENSG00000162772'
p2944
aFinf
ag63
(g65
S'P\xcf\x1a5[{^?'
tRp2945
ag63
(g65
S'\x00@\x81A\x9be~?'
tRp2946
aa(lp2947
S'ENSG00000187758'
p2948
ag63
(g65
S'\x00\x00\x00\x00\x00\xc0\x90@'
tRp2949
ag63
(g65
S'I\xf8\xd02\xb9wn?'
tRp2950
ag63
(g65
S'\x00\x87:\x158i~?'
tRp2951
aa(lp2952
S'ENSG00000104738'
p2953
ag63
(g65
S'\xab\xaa\xaa\xaa\xaa:f@'
tRp2954
ag63
(g65
S'\xcf\x07sB\xdd\x98\x8a?'
tRp2955
ag63
(g65
S'\xc0\x07sB\xdd\x98\x8a?'
tRp2956
aasg4
g5
((lp2957
S'ENSG00000162777'
p2958
aS'ENSG00000175224'
p2959
aS'ENSG00000134255'
p2960
aS'ENSG00000155158'
p2961
aS'ENSG00000156171'
p2962
aS'ENSG00000039537'
p2963
aS'ENSG00000064886'
p2964
aS'ENSG00000122644'
p2965
atRp2966
ssS'firebrick2'
p2967
(dp2968
g59
(lp2969
(lp2970
S'ENSG00000222009'
p2971
ag63
(g65
S'\x00\x00\x00\x00\x00\xb8p@'
tRp2972
ag63
(g65
S'Nw"o7\x1d\x81?'
tRp2973
ag63
(g65
S'\xe0w|n\x0fu\x99?'
tRp2974
aa(lp2975
S'ENSG00000050438'
p2976
ag63
(g65
S'\x00\x00\x00\x00\x00\xb8p@'
tRp2977
ag63
(g65
S'Nw"o7\x1d\x81?'
tRp2978
ag63
(g65
S'\xe0w|n\x0fu\x99?'
tRp2979
aa(lp2980
S'ENSG00000111199'
p2981
ag63
(g65
S'\x00\x00\x00\x00\x00\xb8p@'
tRp2982
ag63
(g65
S'Nw"o7\x1d\x81?'
tRp2983
ag63
(g65
S'\xe0w|n\x0fu\x99?'
tRp2984
aasg4
g5
((lp2985
S'ENSG00000123689'
p2986
aS'ENSG00000196236'
p2987
aS'ENSG00000008118'
p2988
aS'ENSG00000184613'
p2989
aS'ENSG00000163126'
p2990
aS'ENSG00000198576'
p2991
aS'ENSG00000196878'
p2992
atRp2993
ssS'darkorange'
p2994
(dp2995
g59
(lp2996
(lp2997
S'ENSG00000092054'
p2998
aFinf
ag63
(g65
S'V\xde\xcf8y\xc0\xc6>'
tRp2999
ag63
(g65
S'\x00\xf0B\xe2\xd2Y0?'
tRp3000
aa(lp3001
S'ENSG00000173991'
p3002
aFinf
ag63
(g65
S'V\xde\xcf8y\xc0\xc6>'
tRp3003
ag63
(g65
S'\x00\xf0B\xe2\xd2Y0?'
tRp3004
aa(lp3005
S'ENSG00000155657'
p3006
ag63
(g65
S'\xec\xc4N\xec\xc4NT@'
tRp3007
ag63
(g65
S'|\xa2e\x98\xb6\xab\x0b?'
tRp3008
ag63
(g65
S'\x004\xe1`\x0eis?'
tRp3009
aa(lp3010
S'ENSG00000183091'
p3011
ag63
(g65
S'\xec\xc4N\xec\xc4nN@'
tRp3012
ag63
(g65
S'\x7fG\xbaa\xda\xfd\x17?'
tRp3013
ag63
(g65
S'\x80\x1b\\\x15[\x9d\x80?'
tRp3014
aa(lp3015
S'ENSG00000104879'
p3016
aFinf
ag63
(g65
S'T\x8d-+\x11?+?'
tRp3017
ag63
(g65
S'`\xccR\x00A\x90\x92?'
tRp3018
aasg4
g5
((lp3019
S'ENSG00000142748'
p3020
aS'ENSG00000186395'
p3021
aS'ENSG00000163092'
p3022
aS'ENSG00000162999'
p3023
aS'ENSG00000181856'
p3024
aS'ENSG00000185024'
p3025
aS'ENSG00000183091'
p3026
aS'ENSG00000115896'
p3027
aS'ENSG00000143520'
p3028
aS'ENSG00000168878'
p3029
aS'ENSG00000148600'
p3030
aS'ENSG00000185482'
p3031
aS'ENSG00000161634'
p3032
aS'ENSG00000124701'
p3033
aS'ENSG00000172318'
p3034
aS'ENSG00000213934'
p3035
aS'ENSG00000108515'
p3036
aS'ENSG00000101306'
p3037
aS'ENSG00000167920'
p3038
aS'ENSG00000111245'
p3039
aS'ENSG00000143631'
p3040
aS'ENSG00000179912'
p3041
aS'ENSG00000101605'
p3042
aS'ENSG00000129170'
p3043
aS'ENSG00000118194'
p3044
aS'ENSG00000102879'
p3045
atRp3046
ssS'midnightblue'
p3047
(dp3048
g59
(lp3049
(lp3050
g62
ag63
(g65
S'UUUUU\x01K@'
tRp3051
ag63
(g65
S'\xebi\xa6\x87\x95\x80\x97='
tRp3052
ag63
(g65
S'\x00\x00\x00\x80\xd9\xf2\xff='
tRp3053
aa(lp3054
g95
ag63
(g65
S'\xb5c\x05\xc2H;S@'
tRp3055
ag63
(g65
S'\xb2X\xd2\x8d\x1b\xa2\x19>'
tRp3056
ag63
(g65
S'\x00\x00\xc0g\xea8\x81>'
tRp3057
aa(lp3058
g70
ag63
(g65
S'\x96\xd4VR[IE@'
tRp3059
ag63
(g65
S'\xd1\xfa\xd1#t\xbaU>'
tRp3060
ag63
(g65
S'\x00\x00P\xa4\xa0\xdb\xbc>'
tRp3061
aa(lp3062
g75
ag63
(g65
S';V \x8c\xb4#C@'
tRp3063
ag63
(g65
S'\xce\x80\xd5R\x1a.b>'
tRp3064
ag63
(g65
S'\x00\x00XZ\x80\xdc\xc7>'
tRp3065
aa(lp3066
g105
ag63
(g65
S'\x10\x04A\x10\x04\xc1T@'
tRp3067
ag63
(g65
S'\xaeU\xdf\xf0\x86\xd9\x93>'
tRp3068
ag63
(g65
S'\x00\x00\xd9\x8a\x06\xbe\xf9>'
tRp3069
aa(lp3070
g126
ag63
(g65
S'\xb7m\xdb\xb6m\xdbH@'
tRp3071
ag63
(g65
S'\xf6\xb5-\x84\x0b\x9b\xb5>'
tRp3072
ag63
(g65
S'\x00\xc0s#H\xae\x1b?'
tRp3073
aa(lp3074
g131
ag63
(g65
S'\x1c\xc7q\x1c\xc7\xb1D@'
tRp3075
ag63
(g65
S'\x15\xe7\xd5\xcb\x11{\xc3>'
tRp3076
ag63
(g65
S'\x00p\x05p,\xa7(?'
tRp3077
aa(lp3078
S'ENSG00000129451'
p3079
ag63
(g65
S'\xb2\xc9&\x9bl\xb2O@'
tRp3080
ag63
(g65
S'\x9b\xf0Hg\x82\xde\xe2>'
tRp3081
ag63
(g65
S'\x00\xb8\xe3\xc3\xfd\x93G?'
tRp3082
aa(lp3083
g100
ag63
(g65
S'\xb2\xc9&\x9bl\xb2O@'
tRp3084
ag63
(g65
S'\x9b\xf0Hg\x82\xde\xe2>'
tRp3085
ag63
(g65
S'\x00\xb8\xe3\xc3\xfd\x93G?'
tRp3086
aa(lp3087
g85
ag63
(g65
S'\x00\x00\x00\x00\x00\xc0G@'
tRp3088
ag63
(g65
S'\xdch\x85K\x1c\x8f\xf2>'
tRp3089
ag63
(g65
S'\x00\xd0\x8c\xd5x\x9aV?'
tRp3090
aa(lp3091
g90
ag63
(g65
S'\x00\x00\x00\x00\x00\xc0G@'
tRp3092
ag63
(g65
S'\xdch\x85K\x1c\x8f\xf2>'
tRp3093
ag63
(g65
S'\x00\xd0\x8c\xd5x\x9aV?'
tRp3094
aa(lp3095
S'ENSG00000178372'
p3096
aFinf
ag63
(g65
S'\xac\xd7\xe6\x9f\xb3rB?'
tRp3097
ag63
(g65
S'\x80\xd8\xae=os\xa5?'
tRp3098
aasg4
g5
((lp3099
S'ENSG00000052344'
p3100
aS'ENSG00000178372'
p3101
aS'ENSG00000183742'
p3102
aS'ENSG00000163812'
p3103
aS'ENSG00000167644'
p3104
aS'ENSG00000205336'
p3105
aS'ENSG00000173898'
p3106
aS'ENSG00000156453'
p3107
aS'ENSG00000117595'
p3108
aS'ENSG00000076826'
p3109
aS'ENSG00000039068'
p3110
aS'ENSG00000099812'
p3111
aS'ENSG00000140465'
p3112
aS'ENSG00000115221'
p3113
aS'ENSG00000137699'
p3114
aS'ENSG00000134827'
p3115
aS'ENSG00000103067'
p3116
aS'ENSG00000117472'
p3117
aS'ENSG00000170454'
p3118
aS'ENSG00000173801'
p3119
aS'ENSG00000182795'
p3120
aS'ENSG00000188910'
p3121
aS'ENSG00000166145'
p3122
aS'ENSG00000186847'
p3123
aS'ENSG00000188508'
p3124
aS'ENSG00000135373'
p3125
aS'ENSG00000134258'
p3126
aS'ENSG00000132470'
p3127
aS'ENSG00000184148'
p3128
aS'ENSG00000081277'
p3129
aS'ENSG00000086570'
p3130
aS'ENSG00000115112'
p3131
atRp3132
ssS'paleturquoise'
p3133
(dp3134
g4
g5
((lp3135
S'ENSG00000158717'
p3136
aS'ENSG00000149218'
p3137
aS'ENSG00000176108'
p3138
aS'ENSG00000138347'
p3139
aS'ENSG00000198959'
p3140
aS'ENSG00000176532'
p3141
aS'ENSG00000188452'
p3142
aS'ENSG00000100014'
p3143
aS'ENSG00000189171'
p3144
aS'ENSG00000138669'
p3145
aS'ENSG00000100106'
p3146
aS'ENSG00000124357'
p3147
aS'ENSG00000196876'
p3148
aS'ENSG00000241878'
p3149
aS'ENSG00000142621'
p3150
aS'ENSG00000185504'
p3151
aS'ENSG00000175727'
p3152
aS'ENSG00000166801'
p3153
aS'ENSG00000156466'
p3154
aS'ENSG00000156265'
p3155
aS'ENSG00000115232'
p3156
aS'ENSG00000116962'
p3157
aS'ENSG00000106069'
p3158
atRp3159
ssS'yellow3'
p3160
(dp3161
g4
g5
((lp3162
S'ENSG00000105771'
p3163
aS'ENSG00000025156'
p3164
aS'ENSG00000101019'
p3165
aS'ENSG00000136295'
p3166
aS'ENSG00000172346'
p3167
aS'ENSG00000242372'
p3168
aS'ENSG00000167987'
p3169
aS'ENSG00000112297'
p3170
aS'ENSG00000168785'
p3171
aS'ENSG00000188807'
p3172
aS'ENSG00000119912'
p3173
aS'ENSG00000170421'
p3174
aS'ENSG00000125965'
p3175
atRp3176
ssS'orangered3'
p3177
(dp3178
g59
(lp3179
(lp3180
S'ENSG00000123612'
p3181
ag63
(g65
S'\x00\x00\x00\x00\x00\xbc\x80@'
tRp3182
ag63
(g65
S'K#ed\x11\xd7v?'
tRp3183
ag63
(g65
S' }5a7f\xa6?'
tRp3184
aasg4
g5
((lp3185
S'ENSG00000103064'
p3186
aS'ENSG00000121310'
p3187
aS'ENSG00000179314'
p3188
aS'ENSG00000174348'
p3189
aS'ENSG00000198142'
p3190
aS'ENSG00000167202'
p3191
aS'ENSG00000198089'
p3192
aS'ENSG00000122786'
p3193
aS'ENSG00000203995'
p3194
aS'ENSG00000137875'
p3195
aS'ENSG00000081014'
p3196
aS'ENSG00000169439'
p3197
aS'ENSG00000159593'
p3198
aS'ENSG00000198887'
p3199
aS'ENSG00000162383'
p3200
aS'ENSG00000116171'
p3201
atRp3202
ssS'deeppink1'
p3203
(dp3204
g4
g5
((lp3205
S'ENSG00000141141'
p3206
aS'ENSG00000106538'
p3207
aS'ENSG00000155093'
p3208
aS'ENSG00000106526'
p3209
aS'ENSG00000127399'
p3210
atRp3211
ssS'orangered4'
p3212
(dp3213
g59
(lp3214
(lp3215
S'ENSG00000120280'
p3216
ag63
(g65
S'UUUUU5f@'
tRp3217
ag63
(g65
S'?\x84e\x82\xfb\xe60?'
tRp3218
ag63
(g65
S'\x00\xa5\xb9\xd4k\xa2\x87?'
tRp3219
aa(lp3220
S'ENSG00000007129'
p3221
ag63
(g65
S'UUUUU5f@'
tRp3222
ag63
(g65
S'?\x84e\x82\xfb\xe60?'
tRp3223
ag63
(g65
S'\x00\xa5\xb9\xd4k\xa2\x87?'
tRp3224
aa(lp3225
S'ENSG00000152207'
p3226
ag63
(g65
S'UUUUU5f@'
tRp3227
ag63
(g65
S'?\x84e\x82\xfb\xe60?'
tRp3228
ag63
(g65
S'\x00\xa5\xb9\xd4k\xa2\x87?'
tRp3229
aa(lp3230
S'ENSG00000197057'
p3231
ag63
(g65
S'UUUUU5f@'
tRp3232
ag63
(g65
S'?\x84e\x82\xfb\xe60?'
tRp3233
ag63
(g65
S'\x00\xa5\xb9\xd4k\xa2\x87?'
tRp3234
aa(lp3235
S'ENSG00000180818'
p3236
ag63
(g65
S'UUUUU5f@'
tRp3237
ag63
(g65
S'?\x84e\x82\xfb\xe60?'
tRp3238
ag63
(g65
S'\x00\xa5\xb9\xd4k\xa2\x87?'
tRp3239
aa(lp3240
S'ENSG00000188282'
p3241
ag63
(g65
S'UUUUU5f@'
tRp3242
ag63
(g65
S'?\x84e\x82\xfb\xe60?'
tRp3243
ag63
(g65
S'\x00\xa5\xb9\xd4k\xa2\x87?'
tRp3244
aa(lp3245
S'ENSG00000180806'
p3246
ag63
(g65
S'\x9a\x99\x99\x99\x99\x99Z@'
tRp3247
ag63
(g65
S'\xdd\xa7\xc0\x1d\xbf\xa8A?'
tRp3248
ag63
(g65
S'\xa0\x8e\xbf\x13\x9eM\x95?'
tRp3249
aa(lp3250
S'ENSG00000231964'
p3251
ag63
(g65
S'\x9a\x99\x99\x99\x99\x99Z@'
tRp3252
ag63
(g65
S'\xdd\xa7\xc0\x1d\xbf\xa8A?'
tRp3253
ag63
(g65
S'\xa0\x8e\xbf\x13\x9eM\x95?'
tRp3254
aa(lp3255
S'ENSG00000233608'
p3256
ag63
(g65
S'UUUUU%V@'
tRp3257
ag63
(g65
S'\xc8%E"\xa7|G?'
tRp3258
ag63
(g65
S'\xc0\x0b2C.\xcf\x9a?'
tRp3259
aa(lp3260
S'ENSG00000167157'
p3261
ag63
(g65
S'UUUUU%V@'
tRp3262
ag63
(g65
S'\xc8%E"\xa7|G?'
tRp3263
ag63
(g65
S'\xc0\x0b2C.\xcf\x9a?'
tRp3264
aa(lp3265
S'ENSG00000112837'
p3266
ag63
(g65
S'UUUUU%V@'
tRp3267
ag63
(g65
S'\xc8%E"\xa7|G?'
tRp3268
ag63
(g65
S'\xc0\x0b2C.\xcf\x9a?'
tRp3269
aa(lp3270
S'ENSG00000122691'
p3271
ag63
(g65
S'UUUUU%V@'
tRp3272
ag63
(g65
S'\xc8%E"\xa7|G?'
tRp3273
ag63
(g65
S'\xc0\x0b2C.\xcf\x9a?'
tRp3274
aa(lp3275
g2571
ag63
(g65
S'n\xdb\xb6m\xdb\xf6R@'
tRp3276
ag63
(g65
S'\xce=P\xf9K\x1fN?'
tRp3277
ag63
(g65
S'@g\x88Dj\x9c\x9e?'
tRp3278
aasg4
g5
((lp3279
S'ENSG00000162104'
p3280
aS'ENSG00000163064'
p3281
aS'ENSG00000167244'
p3282
aS'ENSG00000079134'
p3283
aS'ENSG00000135903'
p3284
aS'ENSG00000128709'
p3285
aS'ENSG00000163081'
p3286
aS'ENSG00000168779'
p3287
aS'ENSG00000126545'
p3288
aS'ENSG00000037965'
p3289
aS'ENSG00000153956'
p3290
aS'ENSG00000225614'
p3291
aS'ENSG00000072958'
p3292
aS'ENSG00000165757'
p3293
aS'ENSG00000154556'
p3294
aS'ENSG00000128652'
p3295
aS'ENSG00000186907'
p3296
aS'ENSG00000183688'
p3297
aS'ENSG00000129353'
p3298
atRp3299
ssS'thistle3'
p3300
(dp3301
g59
(lp3302
(lp3303
S'ENSG00000152952'
p3304
aFinf
ag63
(g65
S'\xdd!\xc9\x81\xa5\x93\x8c?'
tRp3305
ag63
(g65
S'\xc0!\xc9\x81\xa5\x93\x8c?'
tRp3306
aasg4
g5
((lp3307
S'ENSG00000185745'
p3308
aS'ENSG00000068079'
p3309
aS'ENSG00000163840'
p3310
aS'ENSG00000185507'
p3311
aS'ENSG00000182179'
p3312
aS'ENSG00000134321'
p3313
aS'ENSG00000163565'
p3314
aS'ENSG00000197951'
p3315
aS'ENSG00000152778'
p3316
aS'ENSG00000111331'
p3317
aS'ENSG00000111335'
p3318
aS'ENSG00000108771'
p3319
aS'ENSG00000156587'
p3320
aS'ENSG00000138642'
p3321
aS'ENSG00000107201'
p3322
atRp3323
ssS'thistle2'
p3324
(dp3325
g4
g5
((lp3326
S'ENSG00000172575'
p3327
aS'ENSG00000118473'
p3328
aS'ENSG00000153317'
p3329
aS'ENSG00000104368'
p3330
aS'ENSG00000175426'
p3331
aS'ENSG00000050405'
p3332
aS'ENSG00000152760'
p3333
aS'ENSG00000197646'
p3334
aS'ENSG00000154359'
p3335
aS'ENSG00000164171'
p3336
aS'ENSG00000136933'
p3337
aS'ENSG00000161813'
p3338
aS'ENSG00000186575'
p3339
aS'ENSG00000163913'
p3340
aS'ENSG00000137767'
p3341
aS'ENSG00000177694'
p3342
aS'ENSG00000154319'
p3343
aS'ENSG00000120217'
p3344
atRp3345
ssS'thistle1'
p3346
(dp3347
g4
g5
((lp3348
S'ENSG00000115825'
p3349
aS'ENSG00000180113'
p3350
aS'ENSG00000021574'
p3351
aS'ENSG00000131067'
p3352
aS'ENSG00000188643'
p3353
aS'ENSG00000115828'
p3354
aS'ENSG00000203880'
p3355
aS'ENSG00000116406'
p3356
aS'ENSG00000172901'
p3357
aS'ENSG00000114770'
p3358
aS'ENSG00000182952'
p3359
aS'ENSG00000108100'
p3360
aS'ENSG00000119900'
p3361
aS'ENSG00000106066'
p3362
aS'ENSG00000180917'
p3363
aS'ENSG00000163875'
p3364
aS'ENSG00000101150'
p3365
aS'ENSG00000103490'
p3366
atRp3367
ssS'sienna2'
p3368
(dp3369
g59
(lp3370
(lp3371
S'ENSG00000163235'
p3372
ag63
(g65
S'\x00\x00\x00\x00\x00\xc0\x90@'
tRp3373
ag63
(g65
S'I\xf8\xd02\xb9wn?'
tRp3374
ag63
(g65
S'\xa0\xe8{\x92\xab\xa3\x96?'
tRp3375
aa(lp3376
S'ENSG00000148346'
p3377
ag63
(g65
S'\x00\x00\x00\x00\x00\xb4p@'
tRp3378
ag63
(g65
S'g\xaew\xfb\x03\x04\x83?'
tRp3379
ag63
(g65
S'\x10\xa8e\x9f\x10U\xa7?'
tRp3380
aasg4
g5
((lp3381
S'ENSG00000118113'
p3382
aS'ENSG00000149256'
p3383
aS'ENSG00000198858'
p3384
aS'ENSG00000198035'
p3385
aS'ENSG00000204174'
p3386
aS'ENSG00000204176'
p3387
aS'ENSG00000204172'
p3388
aS'ENSG00000188428'
p3389
atRp3390
ssS'salmon'
p3391
(dp3392
g59
(lp3393
(lp3394
S'ENSG00000167513'
p3395
ag63
(g65
S'\x00\x00\x00\x00\x00\x00X@'
tRp3396
ag63
(g65
S'>\xf2a\x88\x81\x07\xbc>'
tRp3397
ag63
(g65
S'\x00\xa0\xdd\x940\xa4 ?'
tRp3398
aa(lp3399
S'ENSG00000162062'
p3400
ag63
(g65
S'/\xba\xe8\xa2\x8b.S@'
tRp3401
ag63
(g65
S'\xe1K\xc2&\xcd\x04\xc9>'
tRp3402
ag63
(g65
S'\x00\xd0\xcbd\xccP-?'
tRp3403
aa(lp3404
S'ENSG00000119969'
p3405
ag63
(g65
S'/\xba\xe8\xa2\x8b.S@'
tRp3406
ag63
(g65
S'\xe1K\xc2&\xcd\x04\xc9>'
tRp3407
ag63
(g65
S'\x00\xd0\xcbd\xccP-?'
tRp3408
aa(lp3409
S'ENSG00000131153'
p3410
ag63
(g65
S'/\xba\xe8\xa2\x8b.S@'
tRp3411
ag63
(g65
S'\xe1K\xc2&\xcd\x04\xc9>'
tRp3412
ag63
(g65
S'\x00\xd0\xcbd\xccP-?'
tRp3413
aa(lp3414
S'ENSG00000101003'
p3415
ag63
(g65
S'/\xba\xe8\xa2\x8b.S@'
tRp3416
ag63
(g65
S'\xe1K\xc2&\xcd\x04\xc9>'
tRp3417
ag63
(g65
S'\x00\xd0\xcbd\xccP-?'
tRp3418
aa(lp3419
S'ENSG00000122952'
p3420
ag63
(g65
S'/\xba\xe8\xa2\x8b.S@'
tRp3421
ag63
(g65
S'\xe1K\xc2&\xcd\x04\xc9>'
tRp3422
ag63
(g65
S'\x00\xd0\xcbd\xccP-?'
tRp3423
aa(lp3424
S'ENSG00000085999'
p3425
ag63
(g65
S'\xf0\xc1\x07\x1f|\xf0O@'
tRp3426
ag63
(g65
S'3\xe3\xd2\x9eb\xad\xd4>'
tRp3427
ag63
(g65
S'\x00p\x91\xcf\xa7\x9c6?'
tRp3428
aa(lp3429
S'ENSG00000196584'
p3430
ag63
(g65
S'\x00\x00\x00\x00\x00\x001@'
tRp3431
ag63
(g65
S'B7\xe7\xa0OW\xf1>'
tRp3432
ag63
(g65
S'\x00\xd4\xd1*q\xafR?'
tRp3433
aa(lp3434
S'ENSG00000149503'
p3435
ag63
(g65
S'\x00\x00\x00\x00\x00\x001@'
tRp3436
ag63
(g65
S'B7\xe7\xa0OW\xf1>'
tRp3437
ag63
(g65
S'\x00\xd4\xd1*q\xafR?'
tRp3438
aa(lp3439
S'ENSG00000187741'
p3440
ag63
(g65
S'\xca&\x9bl\xb2\xc9.@'
tRp3441
ag63
(g65
S'\xa6\xe0u@8\x8e\xfc>'
tRp3442
ag63
(g65
S'\x00\xb2YJ\x03\xde]?'
tRp3443
aa(lp3444
S'ENSG00000090889'
p3445
ag63
(g65
S'UUUUU\x05V@'
tRp3446
ag63
(g65
S'Z7\xd5\x16\xb6\x87\x06?'
tRp3447
ag63
(g65
S'\x00\xd8l"\xa73g?'
tRp3448
aa(lp3449
S'ENSG00000092853'
p3450
ag63
(g65
S'UUUUU\x05V@'
tRp3451
ag63
(g65
S'Z7\xd5\x16\xb6\x87\x06?'
tRp3452
ag63
(g65
S'\x00\xd8l"\xa73g?'
tRp3453
aa(lp3454
S'ENSG00000138658'
p3455
ag63
(g65
S'UUUUU\x05V@'
tRp3456
ag63
(g65
S'Z7\xd5\x16\xb6\x87\x06?'
tRp3457
ag63
(g65
S'\x00\xd8l"\xa73g?'
tRp3458
aa(lp3459
S'ENSG00000101412'
p3460
ag63
(g65
S'UUUUU\x05V@'
tRp3461
ag63
(g65
S'Z7\xd5\x16\xb6\x87\x06?'
tRp3462
ag63
(g65
S'\x00\xd8l"\xa73g?'
tRp3463
aa(lp3464
S'ENSG00000138778'
p3465
ag63
(g65
S'UUUUU\x05V@'
tRp3466
ag63
(g65
S'Z7\xd5\x16\xb6\x87\x06?'
tRp3467
ag63
(g65
S'\x00\xd8l"\xa73g?'
tRp3468
aa(lp3469
S'ENSG00000176208'
p3470
ag63
(g65
S'UUUUU\x05V@'
tRp3471
ag63
(g65
S'Z7\xd5\x16\xb6\x87\x06?'
tRp3472
ag63
(g65
S'\x00\xd8l"\xa73g?'
tRp3473
aa(lp3474
S'ENSG00000113368'
p3475
ag63
(g65
S'\xe2\xac\xfc\x848+;@'
tRp3476
ag63
(g65
S',\xdf#C\xa0\x9f\x11?'
tRp3477
ag63
(g65
S'\x00\x16\x06\x9aE}p?'
tRp3478
aa(lp3479
S'ENSG00000088325'
p3480
ag63
(g65
S'\x00\x00\x00\x00\x00\x80P@'
tRp3481
ag63
(g65
S'\x1e\x08O\xc8Z\x8c\x13?'
tRp3482
ag63
(g65
S'\x00\x92\xfaEm\xfbq?'
tRp3483
aa(lp3484
S'ENSG00000085840'
p3485
ag63
(g65
S'\x00\x00\x00\x00\x00\x80P@'
tRp3486
ag63
(g65
S'\x1e\x08O\xc8Z\x8c\x13?'
tRp3487
ag63
(g65
S'\x00\x92\xfaEm\xfbq?'
tRp3488
aa(lp3489
g2953
ag63
(g65
S'\x00\x00\x00\x00\x00\x80P@'
tRp3490
ag63
(g65
S'\x1e\x08O\xc8Z\x8c\x13?'
tRp3491
ag63
(g65
S'\x00\x92\xfaEm\xfbq?'
tRp3492
aa(lp3493
S'ENSG00000076382'
p3494
ag63
(g65
S'a\x8a|\xd6\r\xa6+@'
tRp3495
ag63
(g65
S'\xb1i\x10\xb2\xe5\x16%?'
tRp3496
ag63
(g65
S'\xc0U\xe1_1_\x82?'
tRp3497
aa(lp3498
S'ENSG00000161800'
p3499
ag63
(g65
S'Q^Cy\r\xe5*@'
tRp3500
ag63
(g65
S"\x94\x96?f\xaf\xac'?"
tRp3501
ag63
(g65
S'\x80\xc7\xa8\xf0\x14?\x84?'
tRp3502
aa(lp3503
S'ENSG00000122966'
p3504
ag63
(g65
S'Q^Cy\r\xe5*@'
tRp3505
ag63
(g65
S"\x94\x96?f\xaf\xac'?"
tRp3506
ag63
(g65
S'\x80\xc7\xa8\xf0\x14?\x84?'
tRp3507
aa(lp3508
S'ENSG00000164611'
p3509
ag63
(g65
S'\xdf\xf2-\xdf\xf2-*@'
tRp3510
ag63
(g65
S'E\xa2\x82BG\x7f*?'
tRp3511
ag63
(g65
S'\x80\x9d\xf8^\xfa\xd3\x85?'
tRp3512
aa(lp3513
S'ENSG00000188610'
p3514
ag63
(g65
S'\xdf\xf2-\xdf\xf2-*@'
tRp3515
ag63
(g65
S'E\xa2\x82BG\x7f*?'
tRp3516
ag63
(g65
S'\x80\x9d\xf8^\xfa\xd3\x85?'
tRp3517
aa(lp3518
S'ENSG00000215784'
p3519
ag63
(g65
S'\xdf\xf2-\xdf\xf2-*@'
tRp3520
ag63
(g65
S'E\xa2\x82BG\x7f*?'
tRp3521
ag63
(g65
S'\x80\x9d\xf8^\xfa\xd3\x85?'
tRp3522
aa(lp3523
S'ENSG00000198826'
p3524
ag63
(g65
S'\xdf\xf2-\xdf\xf2-*@'
tRp3525
ag63
(g65
S'E\xa2\x82BG\x7f*?'
tRp3526
ag63
(g65
S'\x80\x9d\xf8^\xfa\xd3\x85?'
tRp3527
aa(lp3528
S'ENSG00000164032'
p3529
ag63
(g65
S"\x17]t\xd1E\x17'@"
tRp3530
ag63
(g65
S'\xe7\x82w\xc1\xa4Y6?'
tRp3531
ag63
(g65
S'\x80]\x1b \xf8\xf8\x90?'
tRp3532
aa(lp3533
S'ENSG00000244731'
p3534
ag63
(g65
S'\xe48\x8e\xe38\x8e&@'
tRp3535
ag63
(g65
S'\xa59K\xc8\x9d\xa28?'
tRp3536
ag63
(g65
S'@\x81\xdc8kP\x92?'
tRp3537
aa(lp3538
S'ENSG00000122483'
p3539
ag63
(g65
S"'vb'vb#@"
tRp3540
ag63
(g65
S']HD\xd0\xc0\x02G?'
tRp3541
ag63
(g65
S'\xc0K\xaf\x19c\xba\x99?'
tRp3542
aa(lp3543
S'ENSG00000171320'
p3544
ag63
(g65
S'UUUUUU @'
tRp3545
ag63
(g65
S'\n\x9d\xdf6\xe8\x1eD?'
tRp3546
ag63
(g65
S'\xc0K\xaf\x19c\xba\x99?'
tRp3547
aa(lp3548
g2515
ag63
(g65
S'\xbc\xfa&y\x7f\x1d @'
tRp3549
ag63
(g65
S'4\x01UhXrE?'
tRp3550
ag63
(g65
S'\xc0K\xaf\x19c\xba\x99?'
tRp3551
aa(lp3552
S'ENSG00000164109'
p3553
ag63
(g65
S'\x1d\xd93\x10\x95\x8e @'
tRp3554
ag63
(g65
S'\x0b\x8e\xfb~D\xdcB?'
tRp3555
ag63
(g65
S'\xc0K\xaf\x19c\xba\x99?'
tRp3556
aa(lp3557
S'ENSG00000087586'
p3558
ag63
(g65
S'\x1d\xd93\x10\x95\x8e @'
tRp3559
ag63
(g65
S'\x0b\x8e\xfb~D\xdcB?'
tRp3560
ag63
(g65
S'\xc0K\xaf\x19c\xba\x99?'
tRp3561
aa(lp3562
S'ENSG00000105486'
p3563
ag63
(g65
S'\xd9\x89\x9d\xd8\x89]d@'
tRp3564
ag63
(g65
S'B\x8aY\x7fj\xbcA?'
tRp3565
ag63
(g65
S'\xc0K\xaf\x19c\xba\x99?'
tRp3566
aa(lp3567
S'ENSG00000134690'
p3568
ag63
(g65
S"'vb'vb#@"
tRp3569
ag63
(g65
S']HD\xd0\xc0\x02G?'
tRp3570
ag63
(g65
S'\xc0K\xaf\x19c\xba\x99?'
tRp3571
aa(lp3572
S'ENSG00000138182'
p3573
ag63
(g65
S'\xd9\x89\x9d\xd8\x89]d@'
tRp3574
ag63
(g65
S'B\x8aY\x7fj\xbcA?'
tRp3575
ag63
(g65
S'\xc0K\xaf\x19c\xba\x99?'
tRp3576
aa(lp3577
S'ENSG00000073111'
p3578
ag63
(g65
S'\xd9\x89\x9d\xd8\x89]d@'
tRp3579
ag63
(g65
S'B\x8aY\x7fj\xbcA?'
tRp3580
ag63
(g65
S'\xc0K\xaf\x19c\xba\x99?'
tRp3581
aa(lp3582
S'ENSG00000111665'
p3583
ag63
(g65
S'UUUUUU @'
tRp3584
ag63
(g65
S'\n\x9d\xdf6\xe8\x1eD?'
tRp3585
ag63
(g65
S'\xc0K\xaf\x19c\xba\x99?'
tRp3586
aa(lp3587
S'ENSG00000166851'
p3588
ag63
(g65
S'333333$@'
tRp3589
ag63
(g65
S'\xe8!\xdc\xc8\x98mC?'
tRp3590
ag63
(g65
S'\xc0K\xaf\x19c\xba\x99?'
tRp3591
aa(lp3592
S'ENSG00000072571'
p3593
ag63
(g65
S'\xd9\x89\x9d\xd8\x89]d@'
tRp3594
ag63
(g65
S'B\x8aY\x7fj\xbcA?'
tRp3595
ag63
(g65
S'\xc0K\xaf\x19c\xba\x99?'
tRp3596
aa(lp3597
S'ENSG00000079616'
p3598
ag63
(g65
S'\xd9\x89\x9d\xd8\x89]d@'
tRp3599
ag63
(g65
S'B\x8aY\x7fj\xbcA?'
tRp3600
ag63
(g65
S'\xc0K\xaf\x19c\xba\x99?'
tRp3601
aa(lp3602
g1882
ag63
(g65
S'\x00\x00\x00\x00\x00@:@'
tRp3603
ag63
(g65
S'\xd0\xb4\x96\x1d+\xfbB?'
tRp3604
ag63
(g65
S'\xc0K\xaf\x19c\xba\x99?'
tRp3605
aa(lp3606
S'ENSG00000127564'
p3607
ag63
(g65
S'\xf8\xe0\x83\x0f>\xf8(@'
tRp3608
ag63
(g65
S'G\x86\\\xcb\x029M?'
tRp3609
ag63
(g65
S'\xc0\x04\xab\xf7\xb7\xb5\x9d?'
tRp3610
aa(lp3611
g2520
ag63
(g65
S'\xc4\xd8\x07\x98\xe1\xd2\x1d@'
tRp3612
ag63
(g65
S'\x08\xe8\xd9+8\xebN?'
tRp3613
ag63
(g65
S'\x00\xe0}\xb5\x8ax\x9e?'
tRp3614
aa(lp3615
g2525
ag63
(g65
S'\xc4\xd8\x07\x98\xe1\xd2\x1d@'
tRp3616
ag63
(g65
S'\x08\xe8\xd9+8\xebN?'
tRp3617
ag63
(g65
S'\x00\xe0}\xb5\x8ax\x9e?'
tRp3618
aa(lp3619
S'ENSG00000101057'
p3620
ag63
(g65
S"]t\xd1E\x17]'@"
tRp3621
ag63
(g65
S'i\x9d\x13\xbaL@R?'
tRp3622
ag63
(g65
S'P\xaa2>B\xd6\xa0?'
tRp3623
aa(lp3624
S'ENSG00000117632'
p3625
ag63
(g65
S'\x10\xe9N\xe6C\xba\x1b@'
tRp3626
ag63
(g65
S'hE\x82\xf7\x86\xb3U?'
tRp3627
ag63
(g65
S'\x00{\xfcNpN\xa3?'
tRp3628
aa(lp3629
S'ENSG00000123975'
p3630
ag63
(g65
S'g1\x9d\xc5t\x16\x1b@'
tRp3631
ag63
(g65
S'\xc8\xd7.\xf2C+X?'
tRp3632
ag63
(g65
S' NCoh\xbb\xa4?'
tRp3633
aa(lp3634
S'ENSG00000146670'
p3635
ag63
(g65
S'[\xbfR\xa0\xd6\xaf$@'
tRp3636
ag63
(g65
S'\x16}\xa3xfb[?'
tRp3637
ag63
(g65
S'\xc0\x93\xe1\x94\xc2-\xa6?'
tRp3638
aa(lp3639
g2530
ag63
(g65
S'\x12\x99\x86\xedfy\x1a@'
tRp3640
ag63
(g65
S'/\xaa4\x14\xa8\xd9Z?'
tRp3641
ag63
(g65
S'\xc0\x93\xe1\x94\xc2-\xa6?'
tRp3642
aa(lp3643
S'ENSG00000091651'
p3644
ag63
(g65
S'$s\x02\x9eO\x8f#@'
tRp3645
ag63
(g65
S'E\xaf\xf6\xc3\xac}`?'
tRp3646
ag63
(g65
S'@\x19Sc\xaf>\xa6?'
tRp3647
aa(lp3648
g2495
ag63
(g65
S'1\x1a\xef+\xf4Q\x19@'
tRp3649
ag63
(g65
S'\x82$F\xe4\xa0s`?'
tRp3650
ag63
(g65
S'@\x19Sc\xaf>\xa6?'
tRp3651
aa(lp3652
g2510
ag63
(g65
S'\x13\xca4\xa1L\x13"@'
tRp3653
ag63
(g65
S'\xeb\xd6\x06\xbc\x0fhe?'
tRp3654
ag63
(g65
S'@\x19Sc\xaf>\xa6?'
tRp3655
aa(lp3656
S'ENSG00000138160'
p3657
ag63
(g65
S'\xa4A\x1a\xa4A\x1aK@'
tRp3658
ag63
(g65
S'\xb9\xd0\xad&\xab\x15]?'
tRp3659
ag63
(g65
S'@\x19Sc\xaf>\xa6?'
tRp3660
aa(lp3661
S'ENSG00000109805'
p3662
ag63
(g65
S'\xa4A\x1a\xa4A\x1aK@'
tRp3663
ag63
(g65
S'\xb9\xd0\xad&\xab\x15]?'
tRp3664
ag63
(g65
S'@\x19Sc\xaf>\xa6?'
tRp3665
aa(lp3666
S'ENSG00000100297'
p3667
ag63
(g65
S'\xa4A\x1a\xa4A\x1aK@'
tRp3668
ag63
(g65
S'\xb9\xd0\xad&\xab\x15]?'
tRp3669
ag63
(g65
S'@\x19Sc\xaf>\xa6?'
tRp3670
aa(lp3671
S'ENSG00000171848'
p3672
ag63
(g65
S'E<g\xff$\n#@'
tRp3673
ag63
(g65
S'\xa5\x82\x8f\r\xd1\x07b?'
tRp3674
ag63
(g65
S'@\x19Sc\xaf>\xa6?'
tRp3675
aa(lp3676
S'ENSG00000137804'
p3677
ag63
(g65
S'\xec\xc4N\xec\xc4ND@'
tRp3678
ag63
(g65
S'\x92\xcf\xd4\xf00\xa3e?'
tRp3679
ag63
(g65
S'@\x19Sc\xaf>\xa6?'
tRp3680
aa(lp3681
g2500
ag63
(g65
S'1\x1a\xef+\xf4Q\x19@'
tRp3682
ag63
(g65
S'\x82$F\xe4\xa0s`?'
tRp3683
ag63
(g65
S'@\x19Sc\xaf>\xa6?'
tRp3684
aa(lp3685
g2505
ag63
(g65
S'1\x1a\xef+\xf4Q\x19@'
tRp3686
ag63
(g65
S'\x82$F\xe4\xa0s`?'
tRp3687
ag63
(g65
S'@\x19Sc\xaf>\xa6?'
tRp3688
aa(lp3689
S'ENSG00000186871'
p3690
ag63
(g65
S'\xa4A\x1a\xa4A\x1aK@'
tRp3691
ag63
(g65
S'\xb9\xd0\xad&\xab\x15]?'
tRp3692
ag63
(g65
S'@\x19Sc\xaf>\xa6?'
tRp3693
aa(lp3694
S'ENSG00000035499'
p3695
ag63
(g65
S'%I\x92$I\x92\x16@'
tRp3696
ag63
(g65
S'\xc7%l$\xb2\x89k?'
tRp3697
ag63
(g65
S'P\xab\xb21\xea\x92\xa6?'
tRp3698
aa(lp3699
S'ENSG00000134057'
p3700
ag63
(g65
S'\xc8\xec\xfc\x13~\xcc\x16@'
tRp3701
ag63
(g65
S'\x1aB\xaf\xfd\xa0Wj?'
tRp3702
ag63
(g65
S'P\xab\xb21\xea\x92\xa6?'
tRp3703
aasg4
g5
((lp3704
S'ENSG00000160949'
p3705
aS'ENSG00000133119'
p3706
aS'ENSG00000102738'
p3707
aS'ENSG00000138658'
p3708
aS'ENSG00000175166'
p3709
aS'ENSG00000156802'
p3710
aS'ENSG00000151849'
p3711
aS'ENSG00000221829'
p3712
aS'ENSG00000198728'
p3713
aS'ENSG00000198554'
p3714
aS'ENSG00000123416'
p3715
aS'ENSG00000131153'
p3716
aS'ENSG00000130520'
p3717
aS'ENSG00000130816'
p3718
aS'ENSG00000100749'
p3719
aS'ENSG00000076003'
p3720
aS'ENSG00000100297'
p3721
aS'ENSG00000104738'
p3722
aS'ENSG00000012048'
p3723
aS'ENSG00000108106'
p3724
aS'ENSG00000160957'
p3725
aS'ENSG00000168393'
p3726
aS'ENSG00000125864'
p3727
aS'ENSG00000183048'
p3728
aS'ENSG00000085840'
p3729
aS'ENSG00000175643'
p3730
aS'ENSG00000112877'
p3731
aS'ENSG00000138092'
p3732
aS'ENSG00000172167'
p3733
aS'ENSG00000062822'
p3734
aS'ENSG00000162702'
p3735
aS'ENSG00000167670'
p3736
aS'ENSG00000139618'
p3737
aS'ENSG00000125885'
p3738
aS'ENSG00000187741'
p3739
aS'ENSG00000189403'
p3740
atRp3741
ssS'thistle4'
p3742
(dp3743
g4
g5
((lp3744
S'ENSG00000135299'
p3745
aS'ENSG00000147862'
p3746
aS'ENSG00000153898'
p3747
aS'ENSG00000120278'
p3748
aS'ENSG00000268358'
p3749
aS'ENSG00000178184'
p3750
aS'ENSG00000147854'
p3751
aS'ENSG00000055732'
p3752
aS'ENSG00000114790'
p3753
aS'ENSG00000139173'
p3754
atRp3755
ssS'mediumpurple1'
p3756
(dp3757
g59
(lp3758
(lp3759
S'ENSG00000141338'
p3760
ag63
(g65
S'\xab\xaa\xaa\xaa\xaa\xaa]@'
tRp3761
ag63
(g65
S'\xd4\xa8\x7f\x86\xb3Z\x8e?'
tRp3762
ag63
(g65
S'@,2K\xb2\xab\x96?'
tRp3763
aa(lp3764
S'ENSG00000104953'
p3765
ag63
(g65
S'UUUUUEf@'
tRp3766
ag63
(g65
S'\x8d\x8f.\xf7-\xcc\x86?'
tRp3767
ag63
(g65
S'@,2K\xb2\xab\x96?'
tRp3768
aasg4
g5
((lp3769
S'ENSG00000117643'
p3770
aS'ENSG00000065717'
p3771
aS'ENSG00000182307'
p3772
aS'ENSG00000198563'
p3773
aS'ENSG00000104964'
p3774
aS'ENSG00000149294'
p3775
aS'ENSG00000204438'
p3776
aS'ENSG00000164889'
p3777
aS'ENSG00000153250'
p3778
aS'ENSG00000163590'
p3779
aS'ENSG00000077616'
p3780
aS'ENSG00000104953'
p3781
atRp3782
ssS'mediumpurple2'
p3783
(dp3784
g59
(lp3785
(lp3786
S'ENSG00000174325'
p3787
ag63
(g65
S'\x00\x00\x00\x00\x00\xb4p@'
tRp3788
ag63
(g65
S'\xa1\xc1w\xfb\x03\x04\x83?'
tRp3789
ag63
(g65
S'\xa0\x86\x00qj\xed\x92?'
tRp3790
aa(lp3791
S'ENSG00000168779'
p3792
ag63
(g65
S'\xab\xaa\xaa\xaa\xaa:V@'
tRp3793
ag63
(g65
S'\xa2\x87\xbd\xee\xe6\xf1\x92?'
tRp3794
ag63
(g65
S'\xa0\x87\xbd\xee\xe6\xf1\x92?'
tRp3795
aasg4
g5
((lp3796
S'ENSG00000269964'
p3797
aS'ENSG00000112246'
p3798
aS'ENSG00000143158'
p3799
aS'ENSG00000197965'
p3800
aS'ENSG00000114251'
p3801
aS'ENSG00000163629'
p3802
aS'ENSG00000156110'
p3803
aS'ENSG00000120451'
p3804
aS'ENSG00000115107'
p3805
aS'ENSG00000163659'
p3806
aS'ENSG00000182963'
p3807
aS'ENSG00000162520'
p3808
aS'ENSG00000213619'
p3809
aS'ENSG00000174332'
p3810
aS'ENSG00000144230'
p3811
aS'ENSG00000163171'
p3812
atRp3813
ssS'mediumpurple3'
p3814
(dp3815
g4
g5
((lp3816
S'ENSG00000188783'
p3817
aS'ENSG00000074657'
p3818
aS'ENSG00000197457'
p3819
aS'ENSG00000070182'
p3820
aS'ENSG00000082497'
p3821
aS'ENSG00000154122'
p3822
aS'ENSG00000105953'
p3823
aS'ENSG00000126803'
p3824
aS'ENSG00000155111'
p3825
aS'ENSG00000126822'
p3826
aS'ENSG00000163755'
p3827
aS'ENSG00000151806'
p3828
aS'ENSG00000165959'
p3829
aS'ENSG00000169504'
p3830
aS'ENSG00000170776'
p3831
aS'ENSG00000121335'
p3832
aS'ENSG00000154743'
p3833
aS'ENSG00000186834'
p3834
aS'ENSG00000241839'
p3835
atRp3836
ssS'mediumpurple4'
p3837
(dp3838
g4
g5
((lp3839
S'ENSG00000013288'
p3840
aS'ENSG00000139350'
p3841
aS'ENSG00000124155'
p3842
aS'ENSG00000074211'
p3843
aS'ENSG00000169919'
p3844
aS'ENSG00000162430'
p3845
aS'ENSG00000167397'
p3846
aS'ENSG00000172638'
p3847
aS'ENSG00000213614'
p3848
aS'ENSG00000121064'
p3849
aS'ENSG00000174080'
p3850
aS'ENSG00000172270'
p3851
aS'ENSG00000177830'
p3852
atRp3853
ssS'pink4'
p3854
(dp3855
g4
g5
((lp3856
S'ENSG00000120324'
p3857
aS'ENSG00000120322'
p3858
aS'ENSG00000115255'
p3859
aS'ENSG00000218823'
p3860
aS'ENSG00000113212'
p3861
aS'ENSG00000166086'
p3862
aS'ENSG00000113205'
p3863
aS'ENSG00000262209'
p3864
aS'ENSG00000254221'
p3865
aS'ENSG00000163346'
p3866
aS'ENSG00000253537'
p3867
aS'ENSG00000253731'
p3868
atRp3869
ssS'darkolivegreen4'
p3870
(dp3871
g4
g5
((lp3872
S'ENSG00000173641'
p3873
aS'ENSG00000038219'
p3874
aS'ENSG00000109881'
p3875
aS'ENSG00000123200'
p3876
aS'ENSG00000022976'
p3877
aS'ENSG00000153774'
p3878
aS'ENSG00000176783'
p3879
aS'ENSG00000139168'
p3880
aS'ENSG00000169116'
p3881
aS'ENSG00000138398'
p3882
aS'ENSG00000196504'
p3883
aS'ENSG00000174720'
p3884
aS'ENSG00000184381'
p3885
aS'ENSG00000224982'
p3886
aS'ENSG00000122565'
p3887
atRp3888
ssS'darkseagreen4'
p3889
(dp3890
g4
g5
((lp3891
S'ENSG00000078177'
p3892
aS'ENSG00000019995'
p3893
aS'ENSG00000134444'
p3894
aS'ENSG00000124067'
p3895
aS'ENSG00000182261'
p3896
aS'ENSG00000213398'
p3897
aS'ENSG00000168944'
p3898
aS'ENSG00000107890'
p3899
aS'ENSG00000102189'
p3900
aS'ENSG00000126861'
p3901
aS'ENSG00000137500'
p3902
aS'ENSG00000066135'
p3903
aS'ENSG00000145730'
p3904
aS'ENSG00000138018'
p3905
aS'ENSG00000051382'
p3906
aS'ENSG00000136738'
p3907
atRp3908
ssS'darkseagreen3'
p3909
(dp3910
g4
g5
((lp3911
S'ENSG00000150556'
p3912
aS'ENSG00000099377'
p3913
aS'ENSG00000177409'
p3914
aS'ENSG00000172572'
p3915
aS'ENSG00000117640'
p3916
aS'ENSG00000148297'
p3917
aS'ENSG00000106266'
p3918
aS'ENSG00000137959'
p3919
aS'ENSG00000205221'
p3920
aS'ENSG00000132530'
p3921
aS'ENSG00000103496'
p3922
aS'ENSG00000137965'
p3923
aS'ENSG00000162618'
p3924
atRp3925
ssS'darkseagreen2'
p3926
(dp3927
g59
(lp3928
(lp3929
g2304
ag63
(g65
S'\x00\x00\x00\x00\x00\x84P@'
tRp3930
ag63
(g65
S'x\x10\xc1`\xa7\x12\xa0?'
tRp3931
ag63
(g65
S'\x80\x10\xc1`\xa7\x12\xa0?'
tRp3932
aasg4
g5
((lp3933
S'ENSG00000141027'
p3934
aS'ENSG00000151789'
p3935
aS'ENSG00000128595'
p3936
aS'ENSG00000189067'
p3937
aS'ENSG00000154065'
p3938
aS'ENSG00000180389'
p3939
aS'ENSG00000141458'
p3940
aS'ENSG00000132334'
p3941
aS'ENSG00000145623'
p3942
atRp3943
ssS'lightyellow'
p3944
(dp3945
g59
(lp3946
(lp3947
g2495
ag63
(g65
S'\x00\x00\x00\x00\x00\xf0#@'
tRp3948
ag63
(g65
S'\x7f|H\xccT\xe1\xba>'
tRp3949
ag63
(g65
S'\x00\x00\xdd\xa3\x05\x8f\x1c?'
tRp3950
aa(lp3951
g2500
ag63
(g65
S'\x00\x00\x00\x00\x00\xf0#@'
tRp3952
ag63
(g65
S'\x7f|H\xccT\xe1\xba>'
tRp3953
ag63
(g65
S'\x00\x00\xdd\xa3\x05\x8f\x1c?'
tRp3954
aa(lp3955
g2505
ag63
(g65
S'\x00\x00\x00\x00\x00\xf0#@'
tRp3956
ag63
(g65
S'\x7f|H\xccT\xe1\xba>'
tRp3957
ag63
(g65
S'\x00\x00\xdd\xa3\x05\x8f\x1c?'
tRp3958
aa(lp3959
g3695
ag63
(g65
S'\xf9\xc8\x04z\xa7\xae!@'
tRp3960
ag63
(g65
S'\x0e\xc6Jy\xbd\x84\xd2>'
tRp3961
ag63
(g65
S'\x00\xd0\xb5M"\xce2?'
tRp3962
aa(lp3963
g3700
ag63
(g65
S'\x9f\xf9\x07vlx\x1d@'
tRp3964
ag63
(g65
S'u\r\x85M\xcc\x98\x01?'
tRp3965
ag63
(g65
S'\x00\x00\xf9\xe6\t\x94a?'
tRp3966
aa(lp3967
g2520
ag63
(g65
S'\x1f\xef\xf1\x1e\xef\xf1\x1f@'
tRp3968
ag63
(g65
S'6+,R\x9c\xdd\x02?'
tRp3969
ag63
(g65
S'\x00\xb4\xa1A\xd9\x8cb?'
tRp3970
aa(lp3971
g2525
ag63
(g65
S'\x1f\xef\xf1\x1e\xef\xf1\x1f@'
tRp3972
ag63
(g65
S'6+,R\x9c\xdd\x02?'
tRp3973
ag63
(g65
S'\x00\xb4\xa1A\xd9\x8cb?'
tRp3974
aa(lp3975
g2530
ag63
(g65
S'u\xf8E\x13\x86@\x1c@'
tRp3976
ag63
(g65
S'\xb0\x96\xcff\xe8\xdf\x15?'
tRp3977
ag63
(g65
S'\x00\x16\x84\x96\x12\xcct?'
tRp3978
aa(lp3979
S'ENSG00000169607'
p3980
aFinf
ag63
(g65
S'\x1a\xd8[\x86\x809:?'
tRp3981
ag63
(g65
S'\x00&\x14\xc1.L\x98?'
tRp3982
aa(lp3983
S'ENSG00000117724'
p3984
aFinf
ag63
(g65
S'\x1a\xd8[\x86\x809:?'
tRp3985
ag63
(g65
S'\x00&\x14\xc1.L\x98?'
tRp3986
aasg4
g5
((lp3987
S'ENSG00000136108'
p3988
aS'ENSG00000174442'
p3989
aS'ENSG00000035499'
p3990
aS'ENSG00000161800'
p3991
aS'ENSG00000137563'
p3992
aS'ENSG00000143401'
p3993
aS'ENSG00000117632'
p3994
aS'ENSG00000078304'
p3995
aS'ENSG00000166851'
p3996
aS'ENSG00000101447'
p3997
aS'ENSG00000157456'
p3998
aS'ENSG00000131747'
p3999
aS'ENSG00000127527'
p4000
aS'ENSG00000068489'
p4001
aS'ENSG00000136261'
p4002
aS'ENSG00000178999'
p4003
aS'ENSG00000123219'
p4004
aS'ENSG00000148343'
p4005
aS'ENSG00000198900'
p4006
aS'ENSG00000163507'
p4007
aS'ENSG00000214357'
p4008
aS'ENSG00000139354'
p4009
aS'ENSG00000112742'
p4010
aS'ENSG00000161888'
p4011
aS'ENSG00000167657'
p4012
aS'ENSG00000186193'
p4013
aS'ENSG00000132128'
p4014
aS'ENSG00000137804'
p4015
aS'ENSG00000118193'
p4016
aS'ENSG00000051341'
p4017
aS'ENSG00000134057'
p4018
atRp4019
ssS'salmon1'
p4020
(dp4021
g4
g5
((lp4022
S'ENSG00000037474'
p4023
aS'ENSG00000196503'
p4024
aS'ENSG00000104852'
p4025
aS'ENSG00000173705'
p4026
aS'ENSG00000160087'
p4027
aS'ENSG00000101460'
p4028
aS'ENSG00000100116'
p4029
aS'ENSG00000134748'
p4030
aS'ENSG00000147650'
p4031
aS'ENSG00000153558'
p4032
atRp4033
ssS'salmon2'
p4034
(dp4035
g59
(lp4036
(lp4037
S'ENSG00000076944'
p4038
ag63
(g65
S'DDDDD\xc4Q@'
tRp4039
ag63
(g65
S'\x9c\xd1\xf5\xc9\xbf\xb3\x96?'
tRp4040
ag63
(g65
S'\x00\x86fdSs\xa6?'
tRp4041
aa(lp4042
g1312
ag63
(g65
S'|\xc5W|\xc5W>@'
tRp4043
ag63
(g65
S'\xac\x9b\xc5\x0c\xdd}\xa6?'
tRp4044
ag63
(g65
S'\xb0\x9b\xc5\x0c\xdd}\xa6?'
tRp4045
aasg4
g5
((lp4046
S'ENSG00000104047'
p4047
aS'ENSG00000179820'
p4048
aS'ENSG00000067798'
p4049
aS'ENSG00000104043'
p4050
aS'ENSG00000166342'
p4051
aS'ENSG00000171853'
p4052
aS'ENSG00000173409'
p4053
aS'ENSG00000172403'
p4054
aS'ENSG00000148516'
p4055
aS'ENSG00000121858'
p4056
aS'ENSG00000143643'
p4057
aS'ENSG00000048342'
p4058
aS'ENSG00000140285'
p4059
aS'ENSG00000150782'
p4060
atRp4061
ssS'salmon4'
p4062
(dp4063
g4
g5
((lp4064
S'ENSG00000065308'
p4065
aS'ENSG00000166292'
p4066
aS'ENSG00000197958'
p4067
aS'ENSG00000140416'
p4068
aS'ENSG00000134871'
p4069
aS'ENSG00000169991'
p4070
aS'ENSG00000128928'
p4071
aS'ENSG00000187556'
p4072
aS'ENSG00000141527'
p4073
aS'ENSG00000162836'
p4074
aS'ENSG00000187498'
p4075
aS'ENSG00000162946'
p4076
aS'ENSG00000185869'
p4077
aS'ENSG00000156239'
p4078
aS'ENSG00000136840'
p4079
aS'ENSG00000110888'
p4080
aS'ENSG00000133030'
p4081
atRp4082
ssS'green'
p4083
(dp4084
g4
g5
((lp4085
S'ENSG00000149257'
p4086
aS'ENSG00000120693'
p4087
aS'ENSG00000113578'
p4088
aS'ENSG00000166340'
p4089
aS'ENSG00000133812'
p4090
aS'ENSG00000164466'
p4091
aS'ENSG00000072274'
p4092
aS'ENSG00000163479'
p4093
aS'ENSG00000135828'
p4094
aS'ENSG00000086598'
p4095
aS'ENSG00000184840'
p4096
aS'ENSG00000152749'
p4097
aS'ENSG00000169223'
p4098
aS'ENSG00000044090'
p4099
aS'ENSG00000091483'
p4100
aS'ENSG00000163902'
p4101
aS'ENSG00000147649'
p4102
aS'ENSG00000170348'
p4103
aS'ENSG00000101294'
p4104
aS'ENSG00000165661'
p4105
aS'ENSG00000078808'
p4106
aS'ENSG00000197724'
p4107
aS'ENSG00000156017'
p4108
aS'ENSG00000130733'
p4109
aS'ENSG00000068697'
p4110
aS'ENSG00000155846'
p4111
aS'ENSG00000111897'
p4112
aS'ENSG00000124783'
p4113
aS'ENSG00000119899'
p4114
aS'ENSG00000091947'
p4115
aS'ENSG00000137824'
p4116
aS'ENSG00000173889'
p4117
aS'ENSG00000187994'
p4118
aS'ENSG00000168216'
p4119
aS'ENSG00000239264'
p4120
aS'ENSG00000139921'
p4121
aS'ENSG00000197157'
p4122
aS'ENSG00000204356'
p4123
aS'ENSG00000134910'
p4124
aS'ENSG00000188167'
p4125
aS'ENSG00000143183'
p4126
aS'ENSG00000143753'
p4127
atRp4128
ssS'blueviolet'
p4129
(dp4130
g59
(lp4131
(lp4132
S'ENSG00000166292'
p4133
ag63
(g65
S'\xab\xaa\xaa\xaa\xaaJv@'
tRp4134
ag63
(g65
S'\x84\x03=.up~?'
tRp4135
ag63
(g65
S'\xd0\x0b3oo\xbe\xa2?'
tRp4136
aasg4
g5
((lp4137
S'ENSG00000115641'
p4138
aS'ENSG00000215018'
p4139
aS'ENSG00000163453'
p4140
aS'ENSG00000152377'
p4141
aS'ENSG00000106392'
p4142
aS'ENSG00000164654'
p4143
aS'ENSG00000125384'
p4144
aS'ENSG00000161996'
p4145
aS'ENSG00000119685'
p4146
aS'ENSG00000161896'
p4147
aS'ENSG00000139132'
p4148
atRp4149
ssS'brown2'
p4150
(dp4151
g4
g5
((lp4152
S'ENSG00000139112'
p4153
aS'ENSG00000071246'
p4154
aS'ENSG00000142156'
p4155
aS'ENSG00000184588'
p4156
aS'ENSG00000133657'
p4157
aS'ENSG00000164118'
p4158
aS'ENSG00000091136'
p4159
aS'ENSG00000112769'
p4160
aS'ENSG00000129646'
p4161
aS'ENSG00000204262'
p4162
aS'ENSG00000128512'
p4163
aS'ENSG00000126777'
p4164
aS'ENSG00000115504'
p4165
aS'ENSG00000143013'
p4166
aS'ENSG00000135862'
p4167
atRp4168
ssS'brown1'
p4169
(dp4170
g4
g5
((lp4171
S'ENSG00000139835'
p4172
aS'ENSG00000173715'
p4173
aS'ENSG00000073050'
p4174
aS'ENSG00000172007'
p4175
aS'ENSG00000176472'
p4176
aS'ENSG00000105755'
p4177
atRp4178
ssS'steelblue'
p4179
(dp4180
g4
g5
((lp4181
S'ENSG00000245680'
p4182
aS'ENSG00000167383'
p4183
aS'ENSG00000273173'
p4184
aS'ENSG00000196867'
p4185
aS'ENSG00000170681'
p4186
aS'ENSG00000197928'
p4187
aS'ENSG00000156253'
p4188
aS'ENSG00000198046'
p4189
aS'ENSG00000197016'
p4190
aS'ENSG00000170954'
p4191
aS'ENSG00000198453'
p4192
aS'ENSG00000196172'
p4193
aS'ENSG00000188227'
p4194
aS'ENSG00000198300'
p4195
aS'ENSG00000176293'
p4196
aS'ENSG00000181666'
p4197
aS'ENSG00000234444'
p4198
aS'ENSG00000164591'
p4199
aS'ENSG00000160321'
p4200
aS'ENSG00000141252'
p4201
aS'ENSG00000203326'
p4202
aS'ENSG00000196263'
p4203
aS'ENSG00000179954'
p4204
aS'ENSG00000121413'
p4205
atRp4206
ssS'brown4'
p4207
(dp4208
g4
g5
((lp4209
S'ENSG00000047932'
p4210
aS'ENSG00000020181'
p4211
aS'ENSG00000196839'
p4212
aS'ENSG00000123500'
p4213
aS'ENSG00000072609'
p4214
aS'ENSG00000198168'
p4215
aS'ENSG00000138071'
p4216
aS'ENSG00000178342'
p4217
aS'ENSG00000075188'
p4218
aS'ENSG00000204237'
p4219
aS'ENSG00000047936'
p4220
aS'ENSG00000164465'
p4221
aS'ENSG00000138757'
p4222
aS'ENSG00000237172'
p4223
aS'ENSG00000122970'
p4224
aS'ENSG00000117525'
p4225
aS'ENSG00000132294'
p4226
aS'ENSG00000197622'
p4227
atRp4228
ss.