(dp1
S'tan'
p2
(dp3
S'driver_genes'
p4
(lp5
(lp6
S'ENSG00000198758'
p7
acnumpy.core.multiarray
scalar
p8
(cnumpy
dtype
p9
(S'f8'
I0
I1
tRp10
(I3
S'<'
NNNI-1
I-1
I0
tbS'\xd1^B{\tm\\@'
tRp11
ag8
(g10
S'\xf7\xab\xed\x8ae\x82P='
tRp12
ag8
(g10
S'\x00\x00\x00\x00\xa0\xeb\x9d='
tRp13
aa(lp14
S'ENSG00000099834'
p15
ag8
(g10
S'\xcf\xf3<\xcf\xf3\\R@'
tRp16
ag8
(g10
S'\x89\xd2\x15/\xc4\xa4\xa7>'
tRp17
ag8
(g10
S'\x00\x00|\xc3\x1e\xb0\xf4>'
tRp18
aa(lp19
S'ENSG00000171431'
p20
ag8
(g10
S'\x00\x00\x00\x00\x00\x80K@'
tRp21
ag8
(g10
S'\x01\xa0\xc3\xe2\xc0\x1b\xba>'
tRp22
ag8
(g10
S'\x00\x00\x94\x8aM\x07\x06?'
tRp23
aa(lp24
S'ENSG00000233041'
p25
ag8
(g10
S'\x00\x00\x00\x00\x00\x80K@'
tRp26
ag8
(g10
S'\x01\xa0\xc3\xe2\xc0\x1b\xba>'
tRp27
ag8
(g10
S'\x00\x00\x94\x8aM\x07\x06?'
tRp28
aa(lp29
S'ENSG00000166391'
p30
ag8
(g10
S'\x00\x00\x00\x00\x00\x80K@'
tRp31
ag8
(g10
S'\x01\xa0\xc3\xe2\xc0\x1b\xba>'
tRp32
ag8
(g10
S'\x00\x00\x94\x8aM\x07\x06?'
tRp33
aa(lp34
S'ENSG00000165556'
p35
ag8
(g10
S'\x00\x00\x00\x00\x00\x80K@'
tRp36
ag8
(g10
S'\x01\xa0\xc3\xe2\xc0\x1b\xba>'
tRp37
ag8
(g10
S'\x00\x00\x94\x8aM\x07\x06?'
tRp38
aa(lp39
S'ENSG00000180745'
p40
ag8
(g10
S'\x00\x00\x00\x00\x00\x80K@'
tRp41
ag8
(g10
S'\x01\xa0\xc3\xe2\xc0\x1b\xba>'
tRp42
ag8
(g10
S'\x00\x00\x94\x8aM\x07\x06?'
tRp43
aa(lp44
S'ENSG00000173702'
p45
ag8
(g10
S'\x00\x00\x00\x00\x00\x80K@'
tRp46
ag8
(g10
S'\x01\xa0\xc3\xe2\xc0\x1b\xba>'
tRp47
ag8
(g10
S'\x00\x00\x94\x8aM\x07\x06?'
tRp48
aa(lp49
S'ENSG00000113722'
p50
ag8
(g10
S'\x00\x00\x00\x00\x00\x04]@'
tRp51
ag8
(g10
S'&\x1c\xe80S\x08\x17?'
tRp52
ag8
(g10
S'\x00b\x9fv!4^?'
tRp53
aa(lp54
S'ENSG00000198643'
p55
ag8
(g10
S'\x00\x00\x00\x00\x00\x04]@'
tRp56
ag8
(g10
S'&\x1c\xe80S\x08\x17?'
tRp57
ag8
(g10
S'\x00b\x9fv!4^?'
tRp58
aa(lp59
S'ENSG00000002726'
p60
ag8
(g10
S'\x00\x00\x00\x00\x00\xf8L@'
tRp61
ag8
(g10
S'L\xd1D\x9dX?,?'
tRp62
ag8
(g10
S'\x00\xd6EGK\xbdp?'
tRp63
aa(lp64
S'ENSG00000052344'
p65
ag8
(g10
S'""""""$@'
tRp66
ag8
(g10
S'\xc4\xe1\x82!\x94t`?'
tRp67
ag8
(g10
S'\xa0g\xa8A\x183\xa2?'
tRp68
aa(lp69
S'ENSG00000119888'
p70
ag8
(g10
S'\xb5\xb4\xb4\xb4\xb44R@'
tRp71
ag8
(g10
S'\x98-\x08\xa9\xee?d?'
tRp72
ag8
(g10
S'\xe0\xd9\xc8\xb7W\x18\xa5?'
tRp73
aa(lp74
S'ENSG00000171747'
p75
ag8
(g10
S'\xb5\xb4\xb4\xb4\xb44R@'
tRp76
ag8
(g10
S'\x98-\x08\xa9\xee?d?'
tRp77
ag8
(g10
S'\xe0\xd9\xc8\xb7W\x18\xa5?'
tRp78
aa(lp79
S'ENSG00000134398'
p80
ag8
(g10
S'\xb5\xb4\xb4\xb4\xb44R@'
tRp81
ag8
(g10
S'\x98-\x08\xa9\xee?d?'
tRp82
ag8
(g10
S'\xe0\xd9\xc8\xb7W\x18\xa5?'
tRp83
aasS'module_genes'
p84
c__builtin__
set
p85
((lp86
S'ENSG00000197226'
p87
aS'ENSG00000186115'
p88
aS'ENSG00000172262'
p89
aS'ENSG00000155850'
p90
aS'ENSG00000064787'
p91
aS'ENSG00000205358'
p92
aS'ENSG00000170689'
p93
aS'ENSG00000101213'
p94
aS'ENSG00000126562'
p95
aS'ENSG00000117983'
p96
aS'ENSG00000167701'
p97
aS'ENSG00000118322'
p98
aS'ENSG00000171747'
p99
aS'ENSG00000146205'
p100
aS'ENSG00000166126'
p101
aS'ENSG00000166869'
p102
aS'ENSG00000085552'
p103
aS'ENSG00000145113'
p104
aS'ENSG00000168903'
p105
aS'ENSG00000119801'
p106
aS'ENSG00000205464'
p107
aS'ENSG00000166920'
p108
aS'ENSG00000253313'
p109
aS'ENSG00000162817'
p110
aS'ENSG00000143375'
p111
aS'ENSG00000115339'
p112
aS'ENSG00000179914'
p113
aS'ENSG00000100154'
p114
aS'ENSG00000137860'
p115
aS'ENSG00000164855'
p116
atRp117
ssS'mistyrose'
p118
(dp119
g84
g85
((lp120
S'ENSG00000197747'
p121
aS'ENSG00000111254'
p122
aS'ENSG00000167751'
p123
aS'ENSG00000132326'
p124
aS'ENSG00000010704'
p125
aS'ENSG00000106565'
p126
aS'ENSG00000215018'
p127
aS'ENSG00000142166'
p128
aS'ENSG00000154027'
p129
aS'ENSG00000137441'
p130
aS'ENSG00000135929'
p131
aS'ENSG00000164904'
p132
aS'ENSG00000174738'
p133
aS'ENSG00000002933'
p134
atRp135
ssS'orange4'
p136
(dp137
g84
g85
((lp138
S'ENSG00000065308'
p139
aS'ENSG00000198825'
p140
aS'ENSG00000140675'
p141
aS'ENSG00000133805'
p142
aS'ENSG00000058668'
p143
aS'ENSG00000139197'
p144
aS'ENSG00000093072'
p145
aS'ENSG00000188921'
p146
aS'ENSG00000125247'
p147
aS'ENSG00000041982'
p148
aS'ENSG00000100987'
p149
aS'ENSG00000125965'
p150
atRp151
ssS'firebrick'
p152
(dp153
g84
g85
((lp154
S'ENSG00000197217'
p155
aS'ENSG00000104093'
p156
aS'ENSG00000146409'
p157
aS'ENSG00000128563'
p158
aS'ENSG00000157895'
p159
aS'ENSG00000110801'
p160
aS'ENSG00000197696'
p161
aS'ENSG00000101282'
p162
aS'ENSG00000135124'
p163
aS'ENSG00000100281'
p164
aS'ENSG00000174842'
p165
aS'ENSG00000104774'
p166
atRp167
ssS'indianred'
p168
(dp169
g4
(lp170
(lp171
S'ENSG00000183114'
p172
aFinf
ag8
(g10
S'1\xbeW[\xe4:s?'
tRp173
ag8
(g10
S'\x90D\x99)\xc1\xea\xa2?'
tRp174
aa(lp175
S'ENSG00000160191'
p176
aFinf
ag8
(g10
S'1\xbeW[\xe4:s?'
tRp177
ag8
(g10
S'\x90D\x99)\xc1\xea\xa2?'
tRp178
aasg84
g85
((lp179
S'ENSG00000099625'
p180
aS'ENSG00000120669'
p181
aS'ENSG00000198805'
p182
aS'ENSG00000187980'
p183
aS'ENSG00000100376'
p184
aS'ENSG00000175395'
p185
aS'ENSG00000242715'
p186
aS'ENSG00000157379'
p187
aS'ENSG00000198105'
p188
atRp189
ssS'orange3'
p190
(dp191
g4
(lp192
(lp193
S'ENSG00000101605'
p194
aFinf
ag8
(g10
S'F!\xc9\xf6h\x06\x80?'
tRp195
ag8
(g10
S'\x80\xa3\x05\xd7O\x8f\x89?'
tRp196
aa(lp197
S'ENSG00000122367'
p198
aFinf
ag8
(g10
S't\xfat$\xdb\xa3y?'
tRp199
ag8
(g10
S'\x80\xa3\x05\xd7O\x8f\x89?'
tRp200
aasg84
g85
((lp201
S'ENSG00000144488'
p202
aS'ENSG00000165272'
p203
aS'ENSG00000196418'
p204
aS'ENSG00000165171'
p205
aS'ENSG00000168427'
p206
aS'ENSG00000166800'
p207
aS'ENSG00000105928'
p208
aS'ENSG00000177879'
p209
aS'ENSG00000128928'
p210
aS'ENSG00000250120'
p211
atRp212
ssS'orange2'
p213
(dp214
g84
g85
((lp215
S'ENSG00000176155'
p216
aS'ENSG00000099622'
p217
aS'ENSG00000141295'
p218
aS'ENSG00000007392'
p219
aS'ENSG00000155542'
p220
aS'ENSG00000166796'
p221
aS'ENSG00000161996'
p222
atRp223
ssS'darkolivegreen'
p224
(dp225
g4
(lp226
(lp227
S'ENSG00000066056'
p228
ag8
(g10
S'\x00\x00\x00\x00\x00`9@'
tRp229
ag8
(g10
S'vX^LzQT?'
tRp230
ag8
(g10
S'`\x92:\xb8`!\x94?'
tRp231
aa(lp232
S'ENSG00000147113'
p233
ag8
(g10
S'\x00\x00\x00\x00\x00`9@'
tRp234
ag8
(g10
S'vX^LzQT?'
tRp235
ag8
(g10
S'`\x92:\xb8`!\x94?'
tRp236
aasg84
g85
((lp237
S'ENSG00000176435'
p238
aS'ENSG00000104689'
p239
aS'ENSG00000165659'
p240
aS'ENSG00000181856'
p241
aS'ENSG00000173320'
p242
aS'ENSG00000139405'
p243
aS'ENSG00000162174'
p244
aS'ENSG00000204301'
p245
aS'ENSG00000188677'
p246
aS'ENSG00000167244'
p247
aS'ENSG00000072201'
p248
aS'ENSG00000115705'
p249
aS'ENSG00000165271'
p250
aS'ENSG00000215041'
p251
aS'ENSG00000170989'
p252
aS'ENSG00000113262'
p253
aS'ENSG00000205403'
p254
aS'ENSG00000155849'
p255
aS'ENSG00000187800'
p256
aS'ENSG00000146707'
p257
aS'ENSG00000182851'
p258
aS'ENSG00000188372'
p259
atRp260
ssS'grey60'
p261
(dp262
g84
g85
((lp263
S'ENSG00000164815'
p264
aS'ENSG00000188312'
p265
aS'ENSG00000087076'
p266
aS'ENSG00000167695'
p267
aS'ENSG00000135525'
p268
aS'ENSG00000155816'
p269
aS'ENSG00000052795'
p270
aS'ENSG00000006607'
p271
aS'ENSG00000151806'
p272
aS'ENSG00000104164'
p273
aS'ENSG00000138769'
p274
aS'ENSG00000123600'
p275
aS'ENSG00000185621'
p276
aS'ENSG00000158315'
p277
aS'ENSG00000176542'
p278
aS'ENSG00000159842'
p279
aS'ENSG00000089486'
p280
aS'ENSG00000109572'
p281
aS'ENSG00000166847'
p282
aS'ENSG00000101577'
p283
aS'ENSG00000148842'
p284
aS'ENSG00000064115'
p285
aS'ENSG00000102910'
p286
aS'ENSG00000138942'
p287
aS'ENSG00000104343'
p288
aS'ENSG00000143494'
p289
aS'ENSG00000122705'
p290
atRp291
ssS'darkseagreen'
p292
(dp293
g4
(lp294
(lp295
S'ENSG00000120328'
p296
aFinf
ag8
(g10
S'o\xbaW[\xe4:s?'
tRp297
ag8
(g10
S'\x80\xbaW[\xe4:s?'
tRp298
aasg84
g85
((lp299
S'ENSG00000118804'
p300
aS'ENSG00000101457'
p301
aS'ENSG00000136274'
p302
aS'ENSG00000197841'
p303
aS'ENSG00000145782'
p304
aS'ENSG00000117016'
p305
aS'ENSG00000177000'
p306
aS'ENSG00000110906'
p307
aS'ENSG00000178473'
p308
aS'ENSG00000172007'
p309
aS'ENSG00000113248'
p310
atRp311
ssS'mediumorchid4'
p312
(dp313
g4
(lp314
(lp315
S'ENSG00000129990'
p316
aFinf
ag8
(g10
S'1\xbeW[\xe4:s?'
tRp317
ag8
(g10
S'\xc0\xa1\x9f\xf0\x1a\xd0\x97?'
tRp318
aasg84
g85
((lp319
S'ENSG00000005448'
p320
aS'ENSG00000163162'
p321
aS'ENSG00000010072'
p322
aS'ENSG00000205212'
p323
aS'ENSG00000129951'
p324
aS'ENSG00000154040'
p325
aS'ENSG00000183208'
p326
aS'ENSG00000161682'
p327
aS'ENSG00000112981'
p328
aS'ENSG00000112290'
p329
aS'ENSG00000118402'
p330
aS'ENSG00000243284'
p331
atRp332
ssS'green4'
p333
(dp334
g84
g85
((lp335
S'ENSG00000162517'
p336
aS'ENSG00000185361'
p337
aS'ENSG00000186111'
p338
aS'ENSG00000105894'
p339
aS'ENSG00000166444'
p340
aS'ENSG00000106066'
p341
aS'ENSG00000084207'
p342
aS'ENSG00000099817'
p343
aS'ENSG00000170509'
p344
aS'ENSG00000082258'
p345
aS'ENSG00000197122'
p346
aS'ENSG00000175538'
p347
aS'ENSG00000112183'
p348
aS'ENSG00000101310'
p349
atRp350
ssS'green1'
p351
(dp352
g84
g85
((lp353
S'ENSG00000041802'
p354
aS'ENSG00000133731'
p355
aS'ENSG00000172171'
p356
aS'ENSG00000140553'
p357
aS'ENSG00000188186'
p358
aS'ENSG00000172469'
p359
aS'ENSG00000176472'
p360
aS'ENSG00000125630'
p361
atRp362
ssS'green3'
p363
(dp364
g4
(lp365
(lp366
S'ENSG00000116106'
p367
aFinf
ag8
(g10
S'P\x02u$\xdb\xa3i?'
tRp368
ag8
(g10
S'\xe0Ux\xeb7\x9a\x9f?'
tRp369
aasg84
g85
((lp370
S'ENSG00000132681'
p371
aS'ENSG00000185437'
p372
aS'ENSG00000157578'
p373
aS'ENSG00000182093'
p374
aS'ENSG00000171298'
p375
aS'ENSG00000115363'
p376
aS'ENSG00000124193'
p377
aS'ENSG00000232653'
p378
aS'ENSG00000172888'
p379
aS'ENSG00000182534'
p380
aS'ENSG00000135314'
p381
aS'ENSG00000171169'
p382
aS'ENSG00000140265'
p383
atRp384
ssS'green2'
p385
(dp386
g84
g85
((lp387
S'ENSG00000183160'
p388
aS'ENSG00000101596'
p389
aS'ENSG00000189144'
p390
aS'ENSG00000137343'
p391
aS'ENSG00000107821'
p392
aS'ENSG00000183864'
p393
aS'ENSG00000152944'
p394
aS'ENSG00000204632'
p395
aS'ENSG00000115361'
p396
aS'ENSG00000152689'
p397
aS'ENSG00000089902'
p398
atRp399
ssS'darkgoldenrod4'
p400
(dp401
g84
g85
((lp402
S'ENSG00000143457'
p403
aS'ENSG00000185340'
p404
aS'ENSG00000104524'
p405
aS'ENSG00000150628'
p406
aS'ENSG00000026025'
p407
aS'ENSG00000163291'
p408
aS'ENSG00000007541'
p409
aS'ENSG00000138111'
p410
aS'ENSG00000163879'
p411
aS'ENSG00000141252'
p412
aS'ENSG00000170469'
p413
aS'ENSG00000141934'
p414
atRp415
ssS'magenta4'
p416
(dp417
g4
(lp418
(lp419
S'ENSG00000183856'
p420
aFinf
ag8
(g10
S't\xfdt$\xdb\xa3Y?'
tRp421
ag8
(g10
S"@\xb7l\t\xac'\x83?"
tRp422
aa(lp423
S'ENSG00000117724'
p424
aFinf
ag8
(g10
S't\xfdt$\xdb\xa3Y?'
tRp425
ag8
(g10
S"@\xb7l\t\xac'\x83?"
tRp426
aa(lp427
S'ENSG00000148773'
p428
aFinf
ag8
(g10
S't\xfat$\xdb\xa3y?'
tRp429
ag8
(g10
S'\x00\x8f~\x07U\x18\x93?'
tRp430
aa(lp431
S'ENSG00000130226'
p432
aFinf
ag8
(g10
S'o\xbaW[\xe4:s?'
tRp433
ag8
(g10
S'\x00\x8f~\x07U\x18\x93?'
tRp434
aa(lp435
S'ENSG00000150625'
p436
aFinf
ag8
(g10
S'o\xbaW[\xe4:s?'
tRp437
ag8
(g10
S'\x00\x8f~\x07U\x18\x93?'
tRp438
aa(lp439
S'ENSG00000087258'
p440
aFinf
ag8
(g10
S'\xd4\xbbW[\xe4:\xa3?'
tRp441
ag8
(g10
S'\xd0\xbbW[\xe4:\xa3?'
tRp442
aasg84
g85
((lp443
S'ENSG00000186230'
p444
aS'ENSG00000132485'
p445
aS'ENSG00000171757'
p446
aS'ENSG00000171103'
p447
aS'ENSG00000169758'
p448
aS'ENSG00000011260'
p449
aS'ENSG00000130695'
p450
aS'ENSG00000120664'
p451
aS'ENSG00000115459'
p452
aS'ENSG00000104147'
p453
aS'ENSG00000130638'
p454
aS'ENSG00000143149'
p455
aS'ENSG00000086015'
p456
aS'ENSG00000111605'
p457
aS'ENSG00000136243'
p458
aS'ENSG00000106392'
p459
atRp460
ssS'magenta3'
p461
(dp462
g84
g85
((lp463
S'ENSG00000184923'
p464
aS'ENSG00000077420'
p465
aS'ENSG00000116151'
p466
aS'ENSG00000083097'
p467
aS'ENSG00000153310'
p468
aS'ENSG00000112039'
p469
aS'ENSG00000172270'
p470
aS'ENSG00000110395'
p471
aS'ENSG00000155545'
p472
aS'ENSG00000099804'
p473
aS'ENSG00000162704'
p474
aS'ENSG00000234409'
p475
aS'ENSG00000181588'
p476
aS'ENSG00000180901'
p477
atRp478
ssS'darkgoldenrod1'
p479
(dp480
g4
(lp481
(lp482
S'ENSG00000143851'
p483
aFinf
ag8
(g10
S'P\x02u$\xdb\xa3i?'
tRp484
ag8
(g10
S'\x10\x05\xdf\x04\x9b\x84\xa7?'
tRp485
aa(lp486
S'ENSG00000105122'
p487
aFinf
ag8
(g10
S'P\x02u$\xdb\xa3i?'
tRp488
ag8
(g10
S'\x10\x05\xdf\x04\x9b\x84\xa7?'
tRp489
aa(lp490
S'ENSG00000123329'
p491
aFinf
ag8
(g10
S'P\x02u$\xdb\xa3i?'
tRp492
ag8
(g10
S'\x10\x05\xdf\x04\x9b\x84\xa7?'
tRp493
aa(lp494
S'ENSG00000205744'
p495
aFinf
ag8
(g10
S'P\x02u$\xdb\xa3i?'
tRp496
ag8
(g10
S'\x10\x05\xdf\x04\x9b\x84\xa7?'
tRp497
aa(lp498
S'ENSG00000105639'
p499
aFinf
ag8
(g10
S'P\x02u$\xdb\xa3i?'
tRp500
ag8
(g10
S'\x10\x05\xdf\x04\x9b\x84\xa7?'
tRp501
aa(lp502
S'ENSG00000005844'
p503
aFinf
ag8
(g10
S'o\xbaW[\xe4:s?'
tRp504
ag8
(g10
S'\x10\x05\xdf\x04\x9b\x84\xa7?'
tRp505
aa(lp506
S'ENSG00000140368'
p507
aFinf
ag8
(g10
S'P\x02u$\xdb\xa3i?'
tRp508
ag8
(g10
S'\x10\x05\xdf\x04\x9b\x84\xa7?'
tRp509
aa(lp510
S'ENSG00000175463'
p511
aFinf
ag8
(g10
S't\xfat$\xdb\xa3y?'
tRp512
ag8
(g10
S'\x80\xfb\x7fX\xd5\x15\xa9?'
tRp513
aa(lp514
S'ENSG00000100055'
p515
aFinf
ag8
(g10
S't\xfat$\xdb\xa3y?'
tRp516
ag8
(g10
S'\x80\xfb\x7fX\xd5\x15\xa9?'
tRp517
aa(lp518
S'ENSG00000137841'
p519
aFinf
ag8
(g10
S't\xfat$\xdb\xa3y?'
tRp520
ag8
(g10
S'\x80\xfb\x7fX\xd5\x15\xa9?'
tRp521
aasg84
g85
((lp522
S'ENSG00000112139'
p523
aS'ENSG00000127220'
p524
aS'ENSG00000172803'
p525
aS'ENSG00000144161'
p526
aS'ENSG00000182853'
p527
atRp528
ssS'magenta1'
p529
(dp530
g4
(lp531
(lp532
S'ENSG00000096060'
p533
aFinf
ag8
(g10
S't\xfdt$\xdb\xa3Y?'
tRp534
ag8
(g10
S'\x00\xfet$\xdb\xa3Y?'
tRp535
aasg84
g85
((lp536
S'ENSG00000135541'
p537
aS'ENSG00000065413'
p538
aS'ENSG00000169220'
p539
aS'ENSG00000174749'
p540
aS'ENSG00000183172'
p541
aS'ENSG00000198835'
p542
aS'ENSG00000119326'
p543
aS'ENSG00000137944'
p544
aS'ENSG00000262003'
p545
aS'ENSG00000118514'
p546
aS'ENSG00000005175'
p547
atRp548
ssS'darkgoldenrod3'
p549
(dp550
g4
(lp551
(lp552
S'ENSG00000110900'
p553
ag8
(g10
S'\xab\xaa\xaa\xaa\xaajj@'
tRp554
ag8
(g10
S'\x03\xe5\xa4{l\x94\x89?'
tRp555
ag8
(g10
S'\xc0\xb2\xc8G\x87k\x99?'
tRp556
aasg84
g85
((lp557
S'ENSG00000204033'
p558
aS'ENSG00000196236'
p559
aS'ENSG00000106682'
p560
aS'ENSG00000146676'
p561
aS'ENSG00000123892'
p562
aS'ENSG00000203727'
p563
aS'ENSG00000162714'
p564
aS'ENSG00000165698'
p565
aS'ENSG00000165695'
p566
atRp567
ssS'skyblue3'
p568
(dp569
g4
(lp570
(lp571
g65
ag8
(g10
S'\xcd\xcc\xcc\xcc\xccL4@'
tRp572
ag8
(g10
S'\xe5\xca\xca\xeb\xd9\xde\x06?'
tRp573
ag8
(g10
S'\x00\x10\xe4k-$V?'
tRp574
aa(lp575
S'ENSG00000165215'
p576
ag8
(g10
S'\x8c.\xba\xe8\xa2\x8b2@'
tRp577
ag8
(g10
S'\xad\xc1\x89`.\xff3?'
tRp578
ag8
(g10
S'\xc0a\x81*\x0f\xaa\x82?'
tRp579
aa(lp580
S'ENSG00000135454'
p581
aFinf
ag8
(g10
S'D\xe5\xa2\xa3\x08\xe1@?'
tRp582
ag8
(g10
S'\x80T<\xb1\xa7_\x8e?'
tRp583
aa(lp584
S'ENSG00000164418'
p585
aFinf
ag8
(g10
S'D\xe5\xa2\xa3\x08\xe1@?'
tRp586
ag8
(g10
S'\x80T<\xb1\xa7_\x8e?'
tRp587
aa(lp588
S'ENSG00000184012'
p589
aFinf
ag8
(g10
S'D\xe5\xa2\xa3\x08\xe1@?'
tRp590
ag8
(g10
S'\x80T<\xb1\xa7_\x8e?'
tRp591
aa(lp592
S'ENSG00000145794'
p593
ag8
(g10
S"b'vb'\xf6W@"
tRp594
ag8
(g10
S'\xba+\x18\xc3]\xf9X?'
tRp595
ag8
(g10
S'0\xe7\xe3t\xd4\xe8\xa3?'
tRp596
aasg84
g85
((lp597
S'ENSG00000167608'
p598
aS'ENSG00000117472'
p599
aS'ENSG00000104765'
p600
aS'ENSG00000073350'
p601
aS'ENSG00000178078'
p602
aS'ENSG00000114455'
p603
aS'ENSG00000203697'
p604
aS'ENSG00000183317'
p605
aS'ENSG00000162585'
p606
aS'ENSG00000154252'
p607
aS'ENSG00000171345'
p608
aS'ENSG00000167644'
p609
aS'ENSG00000196460'
p610
aS'ENSG00000204610'
p611
aS'ENSG00000070526'
p612
aS'ENSG00000149292'
p613
aS'ENSG00000171885'
p614
aS'ENSG00000166145'
p615
aS'ENSG00000071203'
p616
aS'ENSG00000154080'
p617
aS'ENSG00000142677'
p618
atRp619
ssS'black'
p620
(dp621
g84
g85
((lp622
S'ENSG00000197619'
p623
aS'ENSG00000204866'
p624
aS'ENSG00000131242'
p625
aS'ENSG00000163807'
p626
aS'ENSG00000108774'
p627
aS'ENSG00000111665'
p628
aS'ENSG00000111664'
p629
aS'ENSG00000143401'
p630
aS'ENSG00000165502'
p631
aS'ENSG00000148935'
p632
aS'ENSG00000103852'
p633
aS'ENSG00000133808'
p634
aS'ENSG00000167766'
p635
aS'ENSG00000197013'
p636
aS'ENSG00000149646'
p637
aS'ENSG00000167280'
p638
aS'ENSG00000138600'
p639
aS'ENSG00000154328'
p640
aS'ENSG00000124251'
p641
aS'ENSG00000198168'
p642
aS'ENSG00000241106'
p643
aS'ENSG00000165188'
p644
aS'ENSG00000142188'
p645
aS'ENSG00000112210'
p646
aS'ENSG00000187912'
p647
aS'ENSG00000119616'
p648
aS'ENSG00000166454'
p649
aS'ENSG00000010318'
p650
aS'ENSG00000183309'
p651
aS'ENSG00000178809'
p652
aS'ENSG00000152778'
p653
aS'ENSG00000127328'
p654
aS'ENSG00000182952'
p655
aS'ENSG00000213347'
p656
aS'ENSG00000172775'
p657
aS'ENSG00000134077'
p658
aS'ENSG00000219626'
p659
atRp660
ssS'yellow2'
p661
(dp662
g84
g85
((lp663
S'ENSG00000182308'
p664
aS'ENSG00000164418'
p665
aS'ENSG00000158019'
p666
aS'ENSG00000059573'
p667
aS'ENSG00000169885'
p668
aS'ENSG00000163377'
p669
aS'ENSG00000085982'
p670
aS'ENSG00000129103'
p671
aS'ENSG00000088002'
p672
aS'ENSG00000188554'
p673
aS'ENSG00000196678'
p674
aS'ENSG00000140043'
p675
aS'ENSG00000102796'
p676
aS'ENSG00000056487'
p677
atRp678
ssS'orange'
p679
(dp680
g4
(lp681
(lp682
S'ENSG00000180573'
p683
aFinf
ag8
(g10
S'1\xbeW[\xe4:s?'
tRp684
ag8
(g10
S'\xc0\xa1\x9f\xf0\x1a\xd0\x97?'
tRp685
aasg84
g85
((lp686
S'ENSG00000121644'
p687
aS'ENSG00000165949'
p688
aS'ENSG00000136040'
p689
aS'ENSG00000084093'
p690
aS'ENSG00000127191'
p691
aS'ENSG00000112584'
p692
aS'ENSG00000135436'
p693
aS'ENSG00000173327'
p694
aS'ENSG00000134321'
p695
aS'ENSG00000171700'
p696
aS'ENSG00000124766'
p697
aS'ENSG00000093010'
p698
aS'ENSG00000124216'
p699
aS'ENSG00000125510'
p700
aS'ENSG00000157837'
p701
aS'ENSG00000113360'
p702
aS'ENSG00000095015'
p703
aS'ENSG00000196584'
p704
aS'ENSG00000124782'
p705
aS'ENSG00000145632'
p706
aS'ENSG00000172061'
p707
aS'ENSG00000055332'
p708
aS'ENSG00000162923'
p709
aS'ENSG00000157601'
p710
aS'ENSG00000071054'
p711
atRp712
ssS'brown'
p713
(dp714
g84
g85
((lp715
S'ENSG00000029534'
p716
aS'ENSG00000132635'
p717
aS'ENSG00000122376'
p718
aS'ENSG00000170275'
p719
aS'ENSG00000139746'
p720
aS'ENSG00000129187'
p721
aS'ENSG00000166501'
p722
aS'ENSG00000148362'
p723
aS'ENSG00000154945'
p724
aS'ENSG00000134716'
p725
aS'ENSG00000174718'
p726
aS'ENSG00000060237'
p727
aS'ENSG00000198707'
p728
aS'ENSG00000166938'
p729
aS'ENSG00000103056'
p730
aS'ENSG00000205670'
p731
aS'ENSG00000115760'
p732
aS'ENSG00000117226'
p733
aS'ENSG00000186063'
p734
aS'ENSG00000017797'
p735
aS'ENSG00000103253'
p736
aS'ENSG00000167377'
p737
aS'ENSG00000176945'
p738
aS'ENSG00000065150'
p739
aS'ENSG00000096433'
p740
aS'ENSG00000055130'
p741
aS'ENSG00000109072'
p742
aS'ENSG00000108515'
p743
aS'ENSG00000130653'
p744
aS'ENSG00000182670'
p745
aS'ENSG00000013810'
p746
aS'ENSG00000065978'
p747
aS'ENSG00000167635'
p748
aS'ENSG00000137825'
p749
aS'ENSG00000198646'
p750
aS'ENSG00000139168'
p751
aS'ENSG00000115464'
p752
aS'ENSG00000127022'
p753
aS'ENSG00000089335'
p754
aS'ENSG00000150760'
p755
aS'ENSG00000065457'
p756
atRp757
ssS'turquoise'
p758
(dp759
g4
(lp760
(lp761
S'ENSG00000130643'
p762
ag8
(g10
S'\xab\xc1s\x04\x8a\xb61@'
tRp763
ag8
(g10
S'X\x94V\xa0Y\x99\xee='
tRp764
ag8
(g10
S'\x00\x00\x00\xea\x0f\xf9P>'
tRp765
aa(lp766
S'ENSG00000101489'
p767
ag8
(g10
S'\xd8\x82-\xd8\x82-7@'
tRp768
ag8
(g10
S':\xff\xcbq\xe8\x80\xbb>'
tRp769
ag8
(g10
S'\x00\xc0\x86\xbd\x8e\x14\x1e?'
tRp770
aa(lp771
S'ENSG00000102003'
p772
ag8
(g10
S'\xef\xbd\xf7\xde{\xef<@'
tRp773
ag8
(g10
S'\x015\x98}\xd9\xac\xd2>'
tRp774
ag8
(g10
S'\x00\xf0"\xbf\x92!4?'
tRp775
aa(lp776
S'ENSG00000174469'
p777
ag8
(g10
S'\x00\x00\x00\x00\x00pG@'
tRp778
ag8
(g10
S"\xd0\x84\x1e\xf2\xd7'\xe4>"
tRp779
ag8
(g10
S'\x00\xe0\x15\xaa\x91hE?'
tRp780
aa(lp781
S'ENSG00000233670'
p782
ag8
(g10
S'\x00\x00\x00\x00\x00pG@'
tRp783
ag8
(g10
S"\xd0\x84\x1e\xf2\xd7'\xe4>"
tRp784
ag8
(g10
S'\x00\xe0\x15\xaa\x91hE?'
tRp785
aa(lp786
S'ENSG00000104112'
p787
ag8
(g10
S':\xe7\x9cs\xce93@'
tRp788
ag8
(g10
S'r\x9d\xa5\xa3\xd9\xd9\xf2>'
tRp789
ag8
(g10
S'\x00\xec`X\xc0mS?'
tRp790
aa(lp791
S'ENSG00000184613'
p792
ag8
(g10
S'6\xd9d\x93M6R@'
tRp793
ag8
(g10
S'-{\x92\xcb\xa4\x1c\x08?'
tRp794
ag8
(g10
S'\x00\x8f\xbd\xc7\xdfsh?'
tRp795
aa(lp796
S'ENSG00000167654'
p797
ag8
(g10
S'\x1f|\xf0\xc1\x07\x1f2@'
tRp798
ag8
(g10
S'h8T\xb4\xaf\x93B?'
tRp799
ag8
(g10
S' \xc8\x17\xdf\xbe?\xa2?'
tRp800
aa(lp801
S'ENSG00000180720'
p802
ag8
(g10
S'\xc4\xc3\xc3\xc3\xc3\x83J@'
tRp803
ag8
(g10
S"\xb3R\xf2\xba'\x96F?"
tRp804
ag8
(g10
S'\x90\xd0=\xcc\xdf\xc3\xa5?'
tRp805
aa(lp806
S'ENSG00000145721'
p807
ag8
(g10
S'\xc4\xc3\xc3\xc3\xc3\x83J@'
tRp808
ag8
(g10
S"\xb3R\xf2\xba'\x96F?"
tRp809
ag8
(g10
S'\x90\xd0=\xcc\xdf\xc3\xa5?'
tRp810
aasg84
g85
((lp811
S'ENSG00000187122'
p812
aS'ENSG00000170448'
p813
aS'ENSG00000112874'
p814
aS'ENSG00000198794'
p815
aS'ENSG00000139970'
p816
aS'ENSG00000164326'
p817
aS'ENSG00000120457'
p818
aS'ENSG00000166206'
p819
aS'ENSG00000164733'
p820
aS'ENSG00000113578'
p821
aS'ENSG00000113763'
p822
aS'ENSG00000157168'
p823
aS'ENSG00000148680'
p824
aS'ENSG00000102882'
p825
aS'ENSG00000166743'
p826
aS'ENSG00000163888'
p827
aS'ENSG00000249853'
p828
aS'ENSG00000205929'
p829
aS'ENSG00000125814'
p830
aS'ENSG00000152932'
p831
aS'ENSG00000154096'
p832
aS'ENSG00000145920'
p833
aS'ENSG00000137877'
p834
aS'ENSG00000185518'
p835
aS'ENSG00000176884'
p836
aS'ENSG00000169684'
p837
aS'ENSG00000204577'
p838
aS'ENSG00000129625'
p839
aS'ENSG00000187676'
p840
aS'ENSG00000119782'
p841
aS'ENSG00000233276'
p842
aS'ENSG00000146469'
p843
aS'ENSG00000156687'
p844
aS'ENSG00000165935'
p845
aS'ENSG00000204536'
p846
aS'ENSG00000159069'
p847
aS'ENSG00000110074'
p848
aS'ENSG00000105664'
p849
aS'ENSG00000080644'
p850
aS'ENSG00000238243'
p851
aS'ENSG00000164406'
p852
aS'ENSG00000125485'
p853
aS'ENSG00000082684'
p854
aS'ENSG00000152133'
p855
aS'ENSG00000149380'
p856
aS'ENSG00000012983'
p857
aS'ENSG00000188573'
p858
aS'ENSG00000204403'
p859
aS'ENSG00000103550'
p860
aS'ENSG00000122643'
p861
aS'ENSG00000172568'
p862
aS'ENSG00000138119'
p863
aS'ENSG00000135272'
p864
aS'ENSG00000169330'
p865
aS'ENSG00000171806'
p866
aS'ENSG00000101680'
p867
aS'ENSG00000173218'
p868
aS'ENSG00000115255'
p869
aS'ENSG00000099822'
p870
aS'ENSG00000166736'
p871
aS'ENSG00000198739'
p872
aS'ENSG00000170921'
p873
aS'ENSG00000182747'
p874
aS'ENSG00000150361'
p875
aS'ENSG00000013293'
p876
aS'ENSG00000115355'
p877
aS'ENSG00000164978'
p878
aS'ENSG00000186487'
p879
aS'ENSG00000184517'
p880
aS'ENSG00000105404'
p881
aS'ENSG00000163281'
p882
aS'ENSG00000174125'
p883
aS'ENSG00000066032'
p884
aS'ENSG00000162722'
p885
aS'ENSG00000152492'
p886
aS'ENSG00000155052'
p887
aS'ENSG00000151552'
p888
atRp889
ssS'wheat3'
p890
(dp891
g4
(lp892
(lp893
S'ENSG00000095585'
p894
aFinf
ag8
(g10
S'P\x02u$\xdb\xa3i?'
tRp895
ag8
(g10
S'\x80V\xbd}\x95\x99y?'
tRp896
aa(lp897
g519
aFinf
ag8
(g10
S't\xfat$\xdb\xa3y?'
tRp898
ag8
(g10
S'\x80\xfat$\xdb\xa3y?'
tRp899
aasg84
g85
((lp900
S'ENSG00000168000'
p901
aS'ENSG00000080608'
p902
aS'ENSG00000104518'
p903
aS'ENSG00000130312'
p904
aS'ENSG00000121879'
p905
aS'ENSG00000116096'
p906
aS'ENSG00000100364'
p907
aS'ENSG00000141564'
p908
aS'ENSG00000126790'
p909
aS'ENSG00000138449'
p910
atRp911
ssS'antiquewhite3'
p912
(dp913
g84
g85
((lp914
S'ENSG00000136011'
p915
aS'ENSG00000114544'
p916
aS'ENSG00000169914'
p917
aS'ENSG00000167595'
p918
aS'ENSG00000177082'
p919
aS'ENSG00000182963'
p920
aS'ENSG00000111696'
p921
aS'ENSG00000134201'
p922
atRp923
ssS'antiquewhite2'
p924
(dp925
g84
g85
((lp926
S'ENSG00000241058'
p927
aS'ENSG00000136108'
p928
aS'ENSG00000126453'
p929
aS'ENSG00000126934'
p930
aS'ENSG00000131437'
p931
aS'ENSG00000169689'
p932
aS'ENSG00000221829'
p933
aS'ENSG00000171109'
p934
aS'ENSG00000176208'
p935
aS'ENSG00000138658'
p936
aS'ENSG00000012048'
p937
aS'ENSG00000167670'
p938
aS'ENSG00000119969'
p939
aS'ENSG00000153044'
p940
aS'ENSG00000118655'
p941
aS'ENSG00000066117'
p942
atRp943
ssS'antiquewhite1'
p944
(dp945
g84
g85
((lp946
S'ENSG00000133997'
p947
aS'ENSG00000166788'
p948
aS'ENSG00000196655'
p949
aS'ENSG00000168002'
p950
aS'ENSG00000117010'
p951
aS'ENSG00000075131'
p952
aS'ENSG00000169372'
p953
aS'ENSG00000125851'
p954
aS'ENSG00000137106'
p955
aS'ENSG00000188000'
p956
aS'ENSG00000148832'
p957
aS'ENSG00000165948'
p958
aS'ENSG00000122085'
p959
aS'ENSG00000251209'
p960
atRp961
ssS'antiquewhite4'
p962
(dp963
g84
g85
((lp964
S'ENSG00000143815'
p965
aS'ENSG00000135437'
p966
aS'ENSG00000155366'
p967
aS'ENSG00000170442'
p968
aS'ENSG00000160087'
p969
aS'ENSG00000135801'
p970
aS'ENSG00000077549'
p971
aS'ENSG00000198561'
p972
aS'ENSG00000121406'
p973
aS'ENSG00000167657'
p974
aS'ENSG00000108839'
p975
aS'ENSG00000134369'
p976
aS'ENSG00000236624'
p977
aS'ENSG00000172548'
p978
aS'ENSG00000138376'
p979
aS'ENSG00000099331'
p980
aS'ENSG00000131669'
p981
aS'ENSG00000179168'
p982
atRp983
ssS'indianred4'
p984
(dp985
g84
g85
((lp986
S'ENSG00000160321'
p987
aS'ENSG00000110786'
p988
aS'ENSG00000004866'
p989
aS'ENSG00000141086'
p990
aS'ENSG00000130700'
p991
aS'ENSG00000164181'
p992
aS'ENSG00000197943'
p993
aS'ENSG00000168411'
p994
aS'ENSG00000197134'
p995
aS'ENSG00000140395'
p996
aS'ENSG00000068305'
p997
aS'ENSG00000014824'
p998
aS'ENSG00000170627'
p999
aS'ENSG00000134265'
p1000
aS'ENSG00000107611'
p1001
aS'ENSG00000204161'
p1002
aS'ENSG00000103546'
p1003
atRp1004
ssS'yellow'
p1005
(dp1006
g4
(lp1007
(lp1008
S'ENSG00000077942'
p1009
ag8
(g10
S'\xe48\x8e\xe38NQ@'
tRp1010
ag8
(g10
S'LQ:\xa4\xb4\xad\xd9>'
tRp1011
ag8
(g10
S'\x00\xe0\xf9Q\xdbG+?'
tRp1012
aa(lp1013
S'ENSG00000163520'
p1014
ag8
(g10
S'\xdb\xb6m\xdb\xb6\xbdP@'
tRp1015
ag8
(g10
S'\xe4\xaddb{\x9b\x18?'
tRp1016
ag8
(g10
S'\x00\xb8N\xe2\x97Vi?'
tRp1017
aasg84
g85
((lp1018
S'ENSG00000153446'
p1019
aS'ENSG00000106333'
p1020
aS'ENSG00000109625'
p1021
aS'ENSG00000124191'
p1022
aS'ENSG00000103269'
p1023
aS'ENSG00000139329'
p1024
aS'ENSG00000164898'
p1025
aS'ENSG00000127314'
p1026
aS'ENSG00000102802'
p1027
aS'ENSG00000197562'
p1028
aS'ENSG00000183801'
p1029
aS'ENSG00000013306'
p1030
aS'ENSG00000116874'
p1031
aS'ENSG00000166839'
p1032
aS'ENSG00000143194'
p1033
aS'ENSG00000152580'
p1034
aS'ENSG00000051009'
p1035
aS'ENSG00000130202'
p1036
aS'ENSG00000153993'
p1037
aS'ENSG00000146066'
p1038
aS'ENSG00000122729'
p1039
aS'ENSG00000171262'
p1040
aS'ENSG00000122870'
p1041
aS'ENSG00000125618'
p1042
aS'ENSG00000242247'
p1043
aS'ENSG00000125730'
p1044
aS'ENSG00000161692'
p1045
aS'ENSG00000048471'
p1046
aS'ENSG00000014164'
p1047
aS'ENSG00000127578'
p1048
aS'ENSG00000134463'
p1049
aS'ENSG00000188687'
p1050
aS'ENSG00000069020'
p1051
aS'ENSG00000212743'
p1052
aS'ENSG00000154175'
p1053
aS'ENSG00000055211'
p1054
aS'ENSG00000160439'
p1055
aS'ENSG00000104643'
p1056
aS'ENSG00000146373'
p1057
aS'ENSG00000155269'
p1058
atRp1059
ssS'lightsteelblue'
p1060
(dp1061
g4
(lp1062
(lp1063
S'ENSG00000143341'
p1064
aFinf
ag8
(g10
S'\x8f\xfdt$\xdb\xa3y?'
tRp1065
ag8
(g10
S'\x00\x03\xe1\xf9zf\x99?'
tRp1066
aasg84
g85
((lp1067
S'ENSG00000151093'
p1068
aS'ENSG00000066185'
p1069
aS'ENSG00000010219'
p1070
aS'ENSG00000258512'
p1071
aS'ENSG00000198551'
p1072
aS'ENSG00000221955'
p1073
aS'ENSG00000260456'
p1074
aS'ENSG00000168116'
p1075
aS'ENSG00000170891'
p1076
aS'ENSG00000135211'
p1077
aS'ENSG00000167981'
p1078
aS'ENSG00000124587'
p1079
aS'ENSG00000185187'
p1080
aS'ENSG00000100417'
p1081
aS'ENSG00000106638'
p1082
aS'ENSG00000188167'
p1083
aS'ENSG00000176018'
p1084
atRp1085
ssS'bisque4'
p1086
(dp1087
g84
g85
((lp1088
S'ENSG00000162654'
p1089
aS'ENSG00000131203'
p1090
aS'ENSG00000198502'
p1091
aS'ENSG00000105851'
p1092
aS'ENSG00000237541'
p1093
aS'ENSG00000019582'
p1094
aS'ENSG00000026297'
p1095
aS'ENSG00000223865'
p1096
aS'ENSG00000196126'
p1097
aS'ENSG00000054219'
p1098
aS'ENSG00000188820'
p1099
aS'ENSG00000232629'
p1100
aS'ENSG00000179344'
p1101
aS'ENSG00000197646'
p1102
aS'ENSG00000102524'
p1103
aS'ENSG00000204287'
p1104
aS'ENSG00000132854'
p1105
aS'ENSG00000196735'
p1106
aS'ENSG00000177989'
p1107
atRp1108
ssS'cyan'
p1109
(dp1110
g4
(lp1111
(lp1112
S'ENSG00000113532'
p1113
ag8
(g10
S'\x00\x00\x00\x00\x00\xe0\x83@'
tRp1114
ag8
(g10
S'\xe8\xee\x84A\xb6\x9ey?'
tRp1115
ag8
(g10
S'`\xa3]\xffL\x00\xa6?'
tRp1116
aasg84
g85
((lp1117
S'ENSG00000135390'
p1118
aS'ENSG00000165650'
p1119
aS'ENSG00000110768'
p1120
aS'ENSG00000163479'
p1121
aS'ENSG00000175390'
p1122
aS'ENSG00000144895'
p1123
aS'ENSG00000180574'
p1124
aS'ENSG00000125991'
p1125
aS'ENSG00000155463'
p1126
aS'ENSG00000101052'
p1127
aS'ENSG00000250317'
p1128
aS'ENSG00000137054'
p1129
aS'ENSG00000115944'
p1130
aS'ENSG00000063046'
p1131
aS'ENSG00000166557'
p1132
aS'ENSG00000181163'
p1133
aS'ENSG00000112237'
p1134
aS'ENSG00000005100'
p1135
aS'ENSG00000214113'
p1136
aS'ENSG00000007312'
p1137
aS'ENSG00000170889'
p1138
aS'ENSG00000111144'
p1139
aS'ENSG00000148290'
p1140
aS'ENSG00000228146'
p1141
aS'ENSG00000007171'
p1142
aS'ENSG00000186684'
p1143
aS'ENSG00000140993'
p1144
aS'ENSG00000168028'
p1145
aS'ENSG00000167325'
p1146
atRp1147
ssS'navajowhite3'
p1148
(dp1149
g4
(lp1150
(lp1151
S'ENSG00000144655'
p1152
ag8
(g10
S'UUUUUUj@'
tRp1153
ag8
(g10
S'\x83\x90\xd4\xd8Y+3?'
tRp1154
ag8
(g10
S'\x00\x8f\xffyT&c?'
tRp1155
aa(lp1156
S'ENSG00000137801'
p1157
ag8
(g10
S'l(\xaf\xa1\xbcFH@'
tRp1158
ag8
(g10
S'\x89\xd97n\xf0H6?'
tRp1159
ag8
(g10
S'\x00\xd6{~\xbbzc?'
tRp1160
aa(lp1161
S'ENSG00000184557'
p1162
ag8
(g10
S'r\x1c\xc7q\x1c\x87a@'
tRp1163
ag8
(g10
S'\x9f\xfbA\xd22\xd9??'
tRp1164
ag8
(g10
S'\x00\t4~y\xdbg?'
tRp1165
aa(lp1166
S'ENSG00000099860'
p1167
ag8
(g10
S'\x00\x00\x00\x00\x00@Z@'
tRp1168
ag8
(g10
S'(%y\x98\xa7\xcfG?'
tRp1169
ag8
(g10
S'\x00c\xfb\xb2\x80\xb8m?'
tRp1170
aa(lp1171
S'ENSG00000128016'
p1172
ag8
(g10
S'\x00\x00\x00\x00\x00@Z@'
tRp1173
ag8
(g10
S'(%y\x98\xa7\xcfG?'
tRp1174
ag8
(g10
S'\x00c\xfb\xb2\x80\xb8m?'
tRp1175
aa(lp1176
S'ENSG00000171223'
p1177
ag8
(g10
S'\x00\x00\x00\x00\x00@Z@'
tRp1178
ag8
(g10
S'(%y\x98\xa7\xcfG?'
tRp1179
ag8
(g10
S'\x00c\xfb\xb2\x80\xb8m?'
tRp1180
aa(lp1181
S'ENSG00000198805'
p1182
ag8
(g10
S'\x00\x00\x00\x00\x00\xc8c@'
tRp1183
ag8
(g10
S'\xa0\x06\xe2~\x19\xf3\x8f?'
tRp1184
ag8
(g10
S'\x00\xc4\x7f\x0eM\xb3\x9f?'
tRp1185
aa(lp1186
S'ENSG00000136244'
p1187
ag8
(g10
S'\x00\x00\x00\x00\x00\xc0S@'
tRp1188
ag8
(g10
S'\xe7QiM\x18\xe3\x97?'
tRp1189
ag8
(g10
S'\x00\xc4\x7f\x0eM\xb3\x9f?'
tRp1190
aasg84
g85
((lp1191
S'ENSG00000108691'
p1192
aS'ENSG00000011422'
p1193
aS'ENSG00000119227'
p1194
aS'ENSG00000182919'
p1195
aS'ENSG00000221923'
p1196
aS'ENSG00000113070'
p1197
aS'ENSG00000165030'
p1198
aS'ENSG00000137801'
p1199
aS'ENSG00000198515'
p1200
aS'ENSG00000163734'
p1201
aS'ENSG00000148841'
p1202
aS'ENSG00000136244'
p1203
atRp1204
ssS'yellow3'
p1205
(dp1206
g4
(lp1207
(lp1208
S'ENSG00000155657'
p1209
ag8
(g10
S'\x00\x00\x00\x00\x00d}@'
tRp1210
ag8
(g10
S'c\x90\xbf\xb2\xe1O\xd1='
tRp1211
ag8
(g10
S'\x00\x00\x00\x80\xda\xa3\x05>'
tRp1212
aa(lp1213
S'ENSG00000111245'
p1214
ag8
(g10
S'fffff\x96g@'
tRp1215
ag8
(g10
S'\xe4ld\x03\x82\xd0\xea>'
tRp1216
ag8
(g10
S"\x00\xc0\xfd'-*\x1e?"
tRp1217
aa(lp1218
S'ENSG00000183091'
p1219
aFinf
ag8
(g10
S'\xd08%H\x1a\x01"?'
tRp1220
ag8
(g10
S'\x00\xf2\x8e*\xe3\xfeQ?'
tRp1221
aa(lp1222
S'ENSG00000092054'
p1223
aFinf
ag8
(g10
S'\xd08%H\x1a\x01"?'
tRp1224
ag8
(g10
S'\x00\xf2\x8e*\xe3\xfeQ?'
tRp1225
aasg84
g85
((lp1226
S'ENSG00000185482'
p1227
aS'ENSG00000198336'
p1228
aS'ENSG00000105048'
p1229
aS'ENSG00000214872'
p1230
aS'ENSG00000188916'
p1231
aS'ENSG00000140955'
p1232
aS'ENSG00000101306'
p1233
aS'ENSG00000168333'
p1234
aS'ENSG00000143632'
p1235
aS'ENSG00000138750'
p1236
aS'ENSG00000156885'
p1237
aS'ENSG00000184945'
p1238
aS'ENSG00000130595'
p1239
aS'ENSG00000180209'
p1240
aS'ENSG00000187024'
p1241
atRp1242
ssS'mediumorchid3'
p1243
(dp1244
g4
(lp1245
(lp1246
S'ENSG00000053328'
p1247
aFinf
ag8
(g10
S'P\x02u$\xdb\xa3i?'
tRp1248
ag8
(g10
S'\x80V\xbd}\x95\x99y?'
tRp1249
aa(lp1250
S'ENSG00000137726'
p1251
aFinf
ag8
(g10
S'V\x1f\xc9\xf6h\x06\xa0?'
tRp1252
ag8
(g10
S'P\x1f\xc9\xf6h\x06\xa0?'
tRp1253
aasg84
g85
((lp1254
S'ENSG00000266714'
p1255
aS'ENSG00000171243'
p1256
aS'ENSG00000115677'
p1257
aS'ENSG00000076344'
p1258
aS'ENSG00000160323'
p1259
aS'ENSG00000103018'
p1260
aS'ENSG00000228716'
p1261
aS'ENSG00000022840'
p1262
aS'ENSG00000111670'
p1263
aS'ENSG00000033170'
p1264
atRp1265
ssS'mediumorchid2'
p1266
(dp1267
g84
g85
((lp1268
S'ENSG00000197822'
p1269
aS'ENSG00000162669'
p1270
aS'ENSG00000006042'
p1271
aS'ENSG00000256660'
p1272
aS'ENSG00000145736'
p1273
aS'ENSG00000172322'
p1274
atRp1275
ssS'skyblue'
p1276
(dp1277
g84
g85
((lp1278
S'ENSG00000188580'
p1279
aS'ENSG00000127863'
p1280
aS'ENSG00000185499'
p1281
aS'ENSG00000157680'
p1282
aS'ENSG00000101198'
p1283
aS'ENSG00000076864'
p1284
aS'ENSG00000144362'
p1285
aS'ENSG00000244731'
p1286
aS'ENSG00000101670'
p1287
aS'ENSG00000232013'
p1288
aS'ENSG00000242950'
p1289
aS'ENSG00000204128'
p1290
aS'ENSG00000103316'
p1291
aS'ENSG00000112796'
p1292
aS'ENSG00000261857'
p1293
aS'ENSG00000092096'
p1294
aS'ENSG00000179066'
p1295
aS'ENSG00000181449'
p1296
aS'ENSG00000131127'
p1297
aS'ENSG00000183798'
p1298
aS'ENSG00000160781'
p1299
aS'ENSG00000162873'
p1300
aS'ENSG00000102854'
p1301
aS'ENSG00000185989'
p1302
atRp1303
ssS'darkturquoise'
p1304
(dp1305
g84
g85
((lp1306
S'ENSG00000131188'
p1307
aS'ENSG00000187166'
p1308
aS'ENSG00000188290'
p1309
aS'ENSG00000141933'
p1310
aS'ENSG00000213015'
p1311
aS'ENSG00000187735'
p1312
aS'ENSG00000101460'
p1313
aS'ENSG00000104388'
p1314
aS'ENSG00000150457'
p1315
aS'ENSG00000147813'
p1316
aS'ENSG00000104899'
p1317
aS'ENSG00000167526'
p1318
aS'ENSG00000171928'
p1319
aS'ENSG00000107679'
p1320
aS'ENSG00000165804'
p1321
aS'ENSG00000242220'
p1322
aS'ENSG00000166167'
p1323
aS'ENSG00000223496'
p1324
aS'ENSG00000182600'
p1325
aS'ENSG00000204947'
p1326
aS'ENSG00000152475'
p1327
aS'ENSG00000166436'
p1328
aS'ENSG00000182931'
p1329
aS'ENSG00000134545'
p1330
aS'ENSG00000196456'
p1331
aS'ENSG00000134970'
p1332
atRp1333
ssS'rosybrown4'
p1334
(dp1335
g84
g85
((lp1336
S'ENSG00000174446'
p1337
aS'ENSG00000090863'
p1338
aS'ENSG00000175334'
p1339
aS'ENSG00000124802'
p1340
aS'ENSG00000111666'
p1341
aS'ENSG00000232237'
p1342
aS'ENSG00000114735'
p1343
aS'ENSG00000161509'
p1344
aS'ENSG00000185088'
p1345
atRp1346
ssS'darkgreen'
p1347
(dp1348
g84
g85
((lp1349
S'ENSG00000162763'
p1350
aS'ENSG00000198176'
p1351
aS'ENSG00000164818'
p1352
aS'ENSG00000137563'
p1353
aS'ENSG00000178252'
p1354
aS'ENSG00000174194'
p1355
aS'ENSG00000215883'
p1356
aS'ENSG00000100288'
p1357
aS'ENSG00000146243'
p1358
aS'ENSG00000168071'
p1359
aS'ENSG00000112305'
p1360
aS'ENSG00000151062'
p1361
aS'ENSG00000111361'
p1362
aS'ENSG00000104472'
p1363
aS'ENSG00000168958'
p1364
aS'ENSG00000119943'
p1365
aS'ENSG00000156711'
p1366
aS'ENSG00000090487'
p1367
aS'ENSG00000101224'
p1368
aS'ENSG00000162231'
p1369
aS'ENSG00000108264'
p1370
aS'ENSG00000109576'
p1371
aS'ENSG00000198546'
p1372
aS'ENSG00000204351'
p1373
aS'ENSG00000167302'
p1374
aS'ENSG00000127419'
p1375
atRp1376
ssS'darkviolet'
p1377
(dp1378
g4
(lp1379
(lp1380
S'ENSG00000137959'
p1381
aFinf
ag8
(g10
S't\xfdt$\xdb\xa3Y?'
tRp1382
ag8
(g10
S'\xc0\xc1\xad6H\xaa\x8c?'
tRp1383
aa(lp1384
S'ENSG00000158220'
p1385
aFinf
ag8
(g10
S't\xfdt$\xdb\xa3Y?'
tRp1386
ag8
(g10
S'\xc0\xc1\xad6H\xaa\x8c?'
tRp1387
aa(lp1388
S'ENSG00000140450'
p1389
aFinf
ag8
(g10
S't\xfdt$\xdb\xa3Y?'
tRp1390
ag8
(g10
S'\xc0\xc1\xad6H\xaa\x8c?'
tRp1391
aa(lp1392
S'ENSG00000066468'
p1393
aFinf
ag8
(g10
S't\xfat$\xdb\xa3y?'
tRp1394
ag8
(g10
S'\xd0\x06\xe1\xcf}\xee\xa2?'
tRp1395
aa(lp1396
S'ENSG00000108924'
p1397
aFinf
ag8
(g10
S't\xfat$\xdb\xa3y?'
tRp1398
ag8
(g10
S'\xd0\x06\xe1\xcf}\xee\xa2?'
tRp1399
aa(lp1400
S'ENSG00000158528'
p1401
aFinf
ag8
(g10
S'\x93Z\xe6\xbf_o\x86?'
tRp1402
ag8
(g10
S'\x80{\x93\xc9\xaf\x11\xa6?'
tRp1403
aasg84
g85
((lp1404
S'ENSG00000181074'
p1405
aS'ENSG00000140829'
p1406
aS'ENSG00000079387'
p1407
aS'ENSG00000103335'
p1408
aS'ENSG00000148337'
p1409
aS'ENSG00000133983'
p1410
aS'ENSG00000184887'
p1411
aS'ENSG00000171824'
p1412
aS'ENSG00000180376'
p1413
aS'ENSG00000164941'
p1414
aS'ENSG00000105397'
p1415
aS'ENSG00000140521'
p1416
aS'ENSG00000160117'
p1417
aS'ENSG00000125450'
p1418
aS'ENSG00000155561'
p1419
aS'ENSG00000156931'
p1420
aS'ENSG00000136371'
p1421
atRp1422
ssS'slateblue3'
p1423
(dp1424
g84
g85
((lp1425
S'ENSG00000109472'
p1426
aS'ENSG00000198633'
p1427
aS'ENSG00000126231'
p1428
aS'ENSG00000163749'
p1429
aS'ENSG00000135744'
p1430
aS'ENSG00000198959'
p1431
aS'ENSG00000198039'
p1432
atRp1433
ssS'slateblue2'
p1434
(dp1435
g4
(lp1436
(lp1437
S'ENSG00000123485'
p1438
aFinf
ag8
(g10
S"h\xe1'\x04SJ\x13?"
tRp1439
ag8
(g10
S'\x00\x84o\xd5\xfa\xb1E?'
tRp1440
aa(lp1441
g428
ag8
(g10
S'\x00\x00\x00\x00\x00\xb8c@'
tRp1442
ag8
(g10
S'\xd2\xc4\x1e\x8c\x93\xb1<?'
tRp1443
ag8
(g10
S'\x00\xe6\xa7mT\xa6l?'
tRp1444
aa(lp1445
S'ENSG00000169679'
p1446
ag8
(g10
S'\x00\x00\x00\x00\x00\xa8S@'
tRp1447
ag8
(g10
S'o0\x03\xa4\x90\xc8Q?'
tRp1448
ag8
(g10
S'\x80A\x1b\xd8\x17\x05\x7f?'
tRp1449
aasg84
g85
((lp1450
S'ENSG00000127564'
p1451
aS'ENSG00000101255'
p1452
aS'ENSG00000065328'
p1453
aS'ENSG00000106686'
p1454
aS'ENSG00000213077'
p1455
aS'ENSG00000152253'
p1456
aS'ENSG00000131747'
p1457
aS'ENSG00000165752'
p1458
aS'ENSG00000164611'
p1459
aS'ENSG00000101057'
p1460
atRp1461
ssS'slateblue1'
p1462
(dp1463
g4
(lp1464
(lp1465
S'ENSG00000181092'
p1466
ag8
(g10
S'\x00\x00\x00\x00\x00\xa0w@'
tRp1467
ag8
(g10
S'\x06\x93\x8d\xd24\x94\xd5>'
tRp1468
ag8
(g10
S'\x00@fs)\xe7$?'
tRp1469
aa(lp1470
S'ENSG00000184811'
p1471
aFinf
ag8
(g10
S'\xd08%H\x1a\x01"?'
tRp1472
ag8
(g10
S'\x00\xe3<8p\xd8p?'
tRp1473
aa(lp1474
S'ENSG00000127324'
p1475
ag8
(g10
S'\x00\x00\x00\x00\x00@j@'
tRp1476
ag8
(g10
S'6\x85\xcfz=\xd6:?'
tRp1477
ag8
(g10
S'\x80\x12\x04\x8a\x97.\x88?'
tRp1478
aa(lp1479
g60
ag8
(g10
S'\x1c\xc7q\x1c\xc7qQ@'
tRp1480
ag8
(g10
S'\x04\xac\x9e\x8b{\x15V?'
tRp1481
ag8
(g10
S'PA\x05?\xd3\xf9\xa2?'
tRp1482
aasg84
g85
((lp1483
S'ENSG00000176194'
p1484
aS'ENSG00000007923'
p1485
aS'ENSG00000133317'
p1486
aS'ENSG00000165269'
p1487
aS'ENSG00000134339'
p1488
aS'ENSG00000106484'
p1489
aS'ENSG00000205362'
p1490
aS'ENSG00000104901'
p1491
aS'ENSG00000124253'
p1492
aS'ENSG00000119927'
p1493
aS'ENSG00000153303'
p1494
aS'ENSG00000042445'
p1495
atRp1496
ssS'indianred1'
p1497
(dp1498
g84
g85
((lp1499
S'ENSG00000155508'
p1500
aS'ENSG00000109667'
p1501
aS'ENSG00000117477'
p1502
aS'ENSG00000124596'
p1503
aS'ENSG00000256525'
p1504
aS'ENSG00000063127'
p1505
aS'ENSG00000075826'
p1506
aS'ENSG00000118418'
p1507
aS'ENSG00000173209'
p1508
aS'ENSG00000214013'
p1509
aS'ENSG00000221947'
p1510
aS'ENSG00000155530'
p1511
atRp1512
ssS'lightpink'
p1513
(dp1514
g84
g85
((lp1515
S'ENSG00000162461'
p1516
aS'ENSG00000205307'
p1517
aS'ENSG00000100191'
p1518
aS'ENSG00000115884'
p1519
aS'ENSG00000168883'
p1520
aS'ENSG00000258472'
p1521
aS'ENSG00000179604'
p1522
aS'ENSG00000128165'
p1523
aS'ENSG00000134317'
p1524
aS'ENSG00000099785'
p1525
aS'ENSG00000030110'
p1526
atRp1527
ssS'red'
p1528
(dp1529
g4
(lp1530
(lp1531
S'ENSG00000144749'
p1532
aFinf
ag8
(g10
S'\x81\xfdt$\xdb\xa3i?'
tRp1533
ag8
(g10
S'\x00\xcf\x92\xc2\x9e\xd9\x8f?'
tRp1534
aa(lp1535
S'ENSG00000198929'
p1536
aFinf
ag8
(g10
S'\x81\xfdt$\xdb\xa3i?'
tRp1537
ag8
(g10
S'\x00\xcf\x92\xc2\x9e\xd9\x8f?'
tRp1538
aa(lp1539
S'ENSG00000128266'
p1540
ag8
(g10
S'\x00\x00\x00\x00\x00\xe0\x83@'
tRp1541
ag8
(g10
S'\xe8\xee\x84A\xb6\x9ey?'
tRp1542
ag8
(g10
S'\x80\xcbX\x85T\x18\x93?'
tRp1543
aasg84
g85
((lp1544
S'ENSG00000159423'
p1545
aS'ENSG00000124226'
p1546
aS'ENSG00000083123'
p1547
aS'ENSG00000169738'
p1548
aS'ENSG00000162729'
p1549
aS'ENSG00000130956'
p1550
aS'ENSG00000163531'
p1551
aS'ENSG00000100997'
p1552
aS'ENSG00000142494'
p1553
aS'ENSG00000134324'
p1554
aS'ENSG00000158292'
p1555
aS'ENSG00000232838'
p1556
aS'ENSG00000260259'
p1557
aS'ENSG00000138175'
p1558
aS'ENSG00000183628'
p1559
aS'ENSG00000171596'
p1560
aS'ENSG00000197991'
p1561
aS'ENSG00000176894'
p1562
aS'ENSG00000154222'
p1563
aS'ENSG00000219545'
p1564
aS'ENSG00000188672'
p1565
aS'ENSG00000206044'
p1566
aS'ENSG00000179532'
p1567
aS'ENSG00000213931'
p1568
aS'ENSG00000120306'
p1569
aS'ENSG00000183060'
p1570
aS'ENSG00000165802'
p1571
aS'ENSG00000164070'
p1572
aS'ENSG00000127364'
p1573
aS'ENSG00000174953'
p1574
aS'ENSG00000185686'
p1575
aS'ENSG00000166900'
p1576
aS'ENSG00000152380'
p1577
aS'ENSG00000173258'
p1578
aS'ENSG00000105607'
p1579
aS'ENSG00000171714'
p1580
aS'ENSG00000106633'
p1581
aS'ENSG00000158201'
p1582
aS'ENSG00000177868'
p1583
aS'ENSG00000171735'
p1584
atRp1585
ssS'darkmagenta'
p1586
(dp1587
g84
g85
((lp1588
S'ENSG00000170088'
p1589
aS'ENSG00000075234'
p1590
aS'ENSG00000144792'
p1591
aS'ENSG00000147576'
p1592
aS'ENSG00000113790'
p1593
aS'ENSG00000149084'
p1594
aS'ENSG00000137992'
p1595
aS'ENSG00000085719'
p1596
aS'ENSG00000163517'
p1597
aS'ENSG00000177459'
p1598
aS'ENSG00000196335'
p1599
aS'ENSG00000165934'
p1600
aS'ENSG00000260916'
p1601
aS'ENSG00000088926'
p1602
aS'ENSG00000005020'
p1603
aS'ENSG00000049245'
p1604
aS'ENSG00000169189'
p1605
aS'ENSG00000161888'
p1606
aS'ENSG00000198464'
p1607
aS'ENSG00000116005'
p1608
aS'ENSG00000143184'
p1609
aS'ENSG00000130517'
p1610
atRp1611
ssS'coral4'
p1612
(dp1613
g84
g85
((lp1614
S'ENSG00000151657'
p1615
aS'ENSG00000128463'
p1616
aS'ENSG00000105617'
p1617
aS'ENSG00000125870'
p1618
aS'ENSG00000173418'
p1619
aS'ENSG00000013275'
p1620
aS'ENSG00000099940'
p1621
aS'ENSG00000130706'
p1622
aS'ENSG00000126067'
p1623
aS'ENSG00000089048'
p1624
aS'ENSG00000175110'
p1625
aS'ENSG00000023318'
p1626
aS'ENSG00000100567'
p1627
aS'ENSG00000182117'
p1628
atRp1629
ssS'plum3'
p1630
(dp1631
g4
(lp1632
(lp1633
S'ENSG00000007908'
p1634
aFinf
ag8
(g10
S'\x81\xfdt$\xdb\xa3i?'
tRp1635
ag8
(g10
S'0i\xc0\xe7\x1er\xa4?'
tRp1636
aa(lp1637
S'ENSG00000178726'
p1638
aFinf
ag8
(g10
S'\x81\xfdt$\xdb\xa3i?'
tRp1639
ag8
(g10
S'0i\xc0\xe7\x1er\xa4?'
tRp1640
aa(lp1641
S'ENSG00000105509'
p1642
aFinf
ag8
(g10
S'\x81\xfdt$\xdb\xa3i?'
tRp1643
ag8
(g10
S'0i\xc0\xe7\x1er\xa4?'
tRp1644
aasg84
g85
((lp1645
S'ENSG00000171130'
p1646
aS'ENSG00000164983'
p1647
aS'ENSG00000174684'
p1648
aS'ENSG00000138036'
p1649
aS'ENSG00000149600'
p1650
aS'ENSG00000197483'
p1651
aS'ENSG00000106009'
p1652
aS'ENSG00000100124'
p1653
aS'ENSG00000144354'
p1654
aS'ENSG00000130669'
p1655
aS'ENSG00000105072'
p1656
aS'ENSG00000161914'
p1657
aS'ENSG00000117862'
p1658
aS'ENSG00000020256'
p1659
aS'ENSG00000127528'
p1660
aS'ENSG00000112167'
p1661
aS'ENSG00000203965'
p1662
atRp1663
ssS'plum2'
p1664
(dp1665
g4
(lp1666
(lp1667
S'ENSG00000184564'
p1668
aFinf
ag8
(g10
S'\x81\xfdt$\xdb\xa3i?'
tRp1669
ag8
(g10
S'\x00\x9e\x08\xa3\x1a\x85\x89?'
tRp1670
aa(lp1671
S'ENSG00000167614'
p1672
ag8
(g10
S'\xab\xaa\xaa\xaa\xaajj@'
tRp1673
ag8
(g10
S'\x1b\xdd\xa4{l\x94\x89?'
tRp1674
ag8
(g10
S'\x80\xcbX\x85T\x18\x93?'
tRp1675
aa(lp1676
S'ENSG00000197977'
p1677
ag8
(g10
S'\x00\x00\x00\x00\x00\xe0\x83@'
tRp1678
ag8
(g10
S'\xe8\xee\x84A\xb6\x9ey?'
tRp1679
ag8
(g10
S'\x80\xcbX\x85T\x18\x93?'
tRp1680
aa(lp1681
S'ENSG00000106278'
p1682
ag8
(g10
S'\x00\x00\x00\x00\x00\xe0\x83@'
tRp1683
ag8
(g10
S'\xe8\xee\x84A\xb6\x9ey?'
tRp1684
ag8
(g10
S'\x80\xcbX\x85T\x18\x93?'
tRp1685
aasg84
g85
((lp1686
S'ENSG00000171503'
p1687
aS'ENSG00000121691'
p1688
aS'ENSG00000169247'
p1689
aS'ENSG00000144843'
p1690
aS'ENSG00000119471'
p1691
aS'ENSG00000178722'
p1692
aS'ENSG00000197465'
p1693
aS'ENSG00000110090'
p1694
aS'ENSG00000111850'
p1695
aS'ENSG00000165868'
p1696
aS'ENSG00000174529'
p1697
aS'ENSG00000242616'
p1698
aS'ENSG00000185009'
p1699
aS'ENSG00000122971'
p1700
aS'ENSG00000167723'
p1701
aS'ENSG00000140374'
p1702
aS'ENSG00000072778'
p1703
aS'ENSG00000243566'
p1704
aS'ENSG00000186281'
p1705
atRp1706
ssS'plum1'
p1707
(dp1708
g84
g85
((lp1709
S'ENSG00000188610'
p1710
aS'ENSG00000134020'
p1711
aS'ENSG00000134830'
p1712
aS'ENSG00000129538'
p1713
aS'ENSG00000011243'
p1714
aS'ENSG00000174600'
p1715
aS'ENSG00000148187'
p1716
aS'ENSG00000163576'
p1717
aS'ENSG00000137474'
p1718
aS'ENSG00000119772'
p1719
aS'ENSG00000135077'
p1720
aS'ENSG00000161640'
p1721
aS'ENSG00000183748'
p1722
aS'ENSG00000092036'
p1723
aS'ENSG00000139304'
p1724
aS'ENSG00000145757'
p1725
aS'ENSG00000019169'
p1726
aS'ENSG00000143674'
p1727
aS'ENSG00000213996'
p1728
aS'ENSG00000235169'
p1729
aS'ENSG00000005075'
p1730
atRp1731
ssS'saddlebrown'
p1732
(dp1733
g84
g85
((lp1734
S'ENSG00000136732'
p1735
aS'ENSG00000113396'
p1736
aS'ENSG00000161904'
p1737
aS'ENSG00000125871'
p1738
aS'ENSG00000120899'
p1739
aS'ENSG00000145386'
p1740
aS'ENSG00000116017'
p1741
aS'ENSG00000168491'
p1742
aS'ENSG00000174007'
p1743
aS'ENSG00000170175'
p1744
aS'ENSG00000204147'
p1745
aS'ENSG00000178802'
p1746
aS'ENSG00000171766'
p1747
aS'ENSG00000123179'
p1748
aS'ENSG00000136783'
p1749
aS'ENSG00000166337'
p1750
aS'ENSG00000133895'
p1751
aS'ENSG00000104812'
p1752
aS'ENSG00000124780'
p1753
aS'ENSG00000139531'
p1754
aS'ENSG00000124116'
p1755
aS'ENSG00000204178'
p1756
aS'ENSG00000143771'
p1757
aS'ENSG00000064666'
p1758
atRp1759
ssS'lightgoldenrodyellow'
p1760
(dp1761
g4
(lp1762
(lp1763
S'ENSG00000145703'
p1764
aFinf
ag8
(g10
S't\xfat$\xdb\xa3y?'
tRp1765
ag8
(g10
S'\x80\xfb\x7fX\xd5\x15\xa9?'
tRp1766
aa(lp1767
S'ENSG00000153956'
p1768
aFinf
ag8
(g10
S't\xfat$\xdb\xa3y?'
tRp1769
ag8
(g10
S'\x80\xfb\x7fX\xd5\x15\xa9?'
tRp1770
aasg84
g85
((lp1771
S'ENSG00000042493'
p1772
aS'ENSG00000160396'
p1773
aS'ENSG00000069966'
p1774
aS'ENSG00000106049'
p1775
aS'ENSG00000100600'
p1776
aS'ENSG00000102575'
p1777
aS'ENSG00000145730'
p1778
aS'ENSG00000105223'
p1779
atRp1780
ssS'lavender'
p1781
(dp1782
g84
g85
((lp1783
S'ENSG00000177042'
p1784
aS'ENSG00000058085'
p1785
aS'ENSG00000141639'
p1786
aS'ENSG00000214871'
p1787
aS'ENSG00000137265'
p1788
aS'ENSG00000125850'
p1789
aS'ENSG00000204659'
p1790
aS'ENSG00000134308'
p1791
aS'ENSG00000010810'
p1792
aS'ENSG00000112078'
p1793
aS'ENSG00000077044'
p1794
atRp1795
ssS'yellowgreen'
p1796
(dp1797
g84
g85
((lp1798
S'ENSG00000038219'
p1799
aS'ENSG00000065000'
p1800
aS'ENSG00000124198'
p1801
aS'ENSG00000172954'
p1802
aS'ENSG00000204843'
p1803
aS'ENSG00000178700'
p1804
aS'ENSG00000125912'
p1805
aS'ENSG00000008517'
p1806
aS'ENSG00000103932'
p1807
aS'ENSG00000107854'
p1808
aS'ENSG00000015676'
p1809
aS'ENSG00000103043'
p1810
aS'ENSG00000119599'
p1811
aS'ENSG00000065243'
p1812
aS'ENSG00000174915'
p1813
aS'ENSG00000105793'
p1814
aS'ENSG00000196365'
p1815
aS'ENSG00000107959'
p1816
aS'ENSG00000162927'
p1817
aS'ENSG00000231925'
p1818
aS'ENSG00000102858'
p1819
aS'ENSG00000158483'
p1820
atRp1821
ssS'orangered1'
p1822
(dp1823
g84
g85
((lp1824
S'ENSG00000197479'
p1825
aS'ENSG00000007516'
p1826
aS'ENSG00000120322'
p1827
aS'ENSG00000253485'
p1828
aS'ENSG00000132031'
p1829
aS'ENSG00000113211'
p1830
aS'ENSG00000113212'
p1831
aS'ENSG00000120328'
p1832
aS'ENSG00000169609'
p1833
aS'ENSG00000130943'
p1834
aS'ENSG00000180767'
p1835
aS'ENSG00000188629'
p1836
aS'ENSG00000148123'
p1837
aS'ENSG00000100599'
p1838
aS'ENSG00000112852'
p1839
atRp1840
ssS'royalblue3'
p1841
(dp1842
g84
g85
((lp1843
S'ENSG00000104883'
p1844
aS'ENSG00000136160'
p1845
aS'ENSG00000167930'
p1846
aS'ENSG00000152760'
p1847
aS'ENSG00000105701'
p1848
aS'ENSG00000166912'
p1849
aS'ENSG00000182870'
p1850
aS'ENSG00000091879'
p1851
aS'ENSG00000138792'
p1852
aS'ENSG00000153162'
p1853
aS'ENSG00000136720'
p1854
aS'ENSG00000181031'
p1855
aS'ENSG00000176485'
p1856
atRp1857
ssS'royalblue2'
p1858
(dp1859
g84
g85
((lp1860
S'ENSG00000170577'
p1861
aS'ENSG00000123096'
p1862
aS'ENSG00000196355'
p1863
aS'ENSG00000172260'
p1864
aS'ENSG00000220205'
p1865
aS'ENSG00000154330'
p1866
aS'ENSG00000128891'
p1867
aS'ENSG00000170381'
p1868
aS'ENSG00000100336'
p1869
aS'ENSG00000108823'
p1870
aS'ENSG00000122692'
p1871
atRp1872
ssS'blue'
p1873
(dp1874
g84
g85
((lp1875
S'ENSG00000152234'
p1876
aS'ENSG00000123545'
p1877
aS'ENSG00000042429'
p1878
aS'ENSG00000167792'
p1879
aS'ENSG00000107020'
p1880
aS'ENSG00000167815'
p1881
aS'ENSG00000013561'
p1882
aS'ENSG00000085377'
p1883
aS'ENSG00000196963'
p1884
aS'ENSG00000106992'
p1885
aS'ENSG00000134202'
p1886
aS'ENSG00000170899'
p1887
aS'ENSG00000143786'
p1888
aS'ENSG00000198755'
p1889
aS'ENSG00000139505'
p1890
aS'ENSG00000140740'
p1891
aS'ENSG00000174407'
p1892
aS'ENSG00000173226'
p1893
aS'ENSG00000164241'
p1894
aS'ENSG00000128626'
p1895
aS'ENSG00000163421'
p1896
aS'ENSG00000175470'
p1897
aS'ENSG00000175866'
p1898
aS'ENSG00000113638'
p1899
aS'ENSG00000235878'
p1900
aS'ENSG00000130810'
p1901
aS'ENSG00000140623'
p1902
aS'ENSG00000107537'
p1903
aS'ENSG00000161265'
p1904
aS'ENSG00000196407'
p1905
aS'ENSG00000137038'
p1906
aS'ENSG00000124523'
p1907
aS'ENSG00000254004'
p1908
aS'ENSG00000184385'
p1909
aS'ENSG00000168803'
p1910
aS'ENSG00000170791'
p1911
aS'ENSG00000161203'
p1912
aS'ENSG00000018625'
p1913
aS'ENSG00000109919'
p1914
aS'ENSG00000135972'
p1915
aS'ENSG00000116574'
p1916
aS'ENSG00000111716'
p1917
aS'ENSG00000186204'
p1918
aS'ENSG00000123297'
p1919
aS'ENSG00000177990'
p1920
aS'ENSG00000108786'
p1921
aS'ENSG00000134375'
p1922
aS'ENSG00000268162'
p1923
aS'ENSG00000176273'
p1924
aS'ENSG00000182013'
p1925
aS'ENSG00000010256'
p1926
aS'ENSG00000101307'
p1927
aS'ENSG00000103199'
p1928
aS'ENSG00000100360'
p1929
aS'ENSG00000196267'
p1930
aS'ENSG00000166477'
p1931
aS'ENSG00000254521'
p1932
aS'ENSG00000130414'
p1933
aS'ENSG00000140939'
p1934
aS'ENSG00000146701'
p1935
aS'ENSG00000137103'
p1936
aS'ENSG00000108826'
p1937
atRp1938
ssS'honeydew'
p1939
(dp1940
g84
g85
((lp1941
S'ENSG00000183258'
p1942
aS'ENSG00000102595'
p1943
aS'ENSG00000138722'
p1944
aS'ENSG00000105989'
p1945
aS'ENSG00000185551'
p1946
aS'ENSG00000133687'
p1947
aS'ENSG00000167711'
p1948
aS'ENSG00000157211'
p1949
aS'ENSG00000166825'
p1950
aS'ENSG00000197261'
p1951
aS'ENSG00000096968'
p1952
aS'ENSG00000099998'
p1953
aS'ENSG00000239839'
p1954
aS'ENSG00000183186'
p1955
aS'ENSG00000148384'
p1956
aS'ENSG00000078053'
p1957
atRp1958
ssS'cornflowerblue'
p1959
(dp1960
g84
g85
((lp1961
S'ENSG00000236882'
p1962
aS'ENSG00000163931'
p1963
aS'ENSG00000087088'
p1964
aS'ENSG00000170293'
p1965
aS'ENSG00000161180'
p1966
aS'ENSG00000140961'
p1967
aS'ENSG00000271303'
p1968
aS'ENSG00000117528'
p1969
aS'ENSG00000188385'
p1970
aS'ENSG00000162888'
p1971
aS'ENSG00000151917'
p1972
aS'ENSG00000135679'
p1973
atRp1974
ssS'purple'
p1975
(dp1976
g4
(lp1977
(lp1978
S'ENSG00000165521'
p1979
ag8
(g10
S'\xab\xaa\xaa\xaa\xaa\xca9@'
tRp1980
ag8
(g10
S'f@\x94\x88\xb6:I?'
tRp1981
ag8
(g10
S'\xc0_\xed\xbf\xb12\x8c?'
tRp1982
aa(lp1983
S'ENSG00000147655'
p1984
ag8
(g10
S'\xcd\xcc\xcc\xcc\xccL_@'
tRp1985
ag8
(g10
S'\xbcS\xa27\xf5~O?'
tRp1986
ag8
(g10
S'\xe0\xbc\xaa\xb6\xaa\x9a\x90?'
tRp1987
aasg84
g85
((lp1988
S'ENSG00000108953'
p1989
aS'ENSG00000183036'
p1990
aS'ENSG00000145087'
p1991
aS'ENSG00000168646'
p1992
aS'ENSG00000016082'
p1993
aS'ENSG00000172817'
p1994
aS'ENSG00000144320'
p1995
aS'ENSG00000221866'
p1996
aS'ENSG00000198625'
p1997
aS'ENSG00000174279'
p1998
aS'ENSG00000168229'
p1999
aS'ENSG00000171873'
p2000
aS'ENSG00000164924'
p2001
aS'ENSG00000215845'
p2002
aS'ENSG00000170178'
p2003
aS'ENSG00000131558'
p2004
aS'ENSG00000164574'
p2005
aS'ENSG00000081913'
p2006
aS'ENSG00000215375'
p2007
aS'ENSG00000181350'
p2008
aS'ENSG00000105976'
p2009
aS'ENSG00000162981'
p2010
aS'ENSG00000128714'
p2011
aS'ENSG00000088256'
p2012
aS'ENSG00000214338'
p2013
aS'ENSG00000025423'
p2014
aS'ENSG00000099864'
p2015
aS'ENSG00000107338'
p2016
aS'ENSG00000170122'
p2017
aS'ENSG00000111907'
p2018
aS'ENSG00000101384'
p2019
atRp2020
ssS'wheat1'
p2021
(dp2022
g4
(lp2023
(lp2024
S'ENSG00000142235'
p2025
aFinf
ag8
(g10
S'F!\xc9\xf6h\x06\x80?'
tRp2026
ag8
(g10
S'@\xf15\x1b\x97\xd9\x97?'
tRp2027
aa(lp2028
S'ENSG00000008735'
p2029
aFinf
ag8
(g10
S'P\xfft$\xdb\xa3\x89?'
tRp2030
ag8
(g10
S'`Q\x96\x89\xc4z\x99?'
tRp2031
aasg84
g85
((lp2032
S'ENSG00000215790'
p2033
aS'ENSG00000169826'
p2034
aS'ENSG00000248333'
p2035
aS'ENSG00000008128'
p2036
aS'ENSG00000187741'
p2037
aS'ENSG00000185053'
p2038
aS'ENSG00000189339'
p2039
atRp2040
ssS'palevioletred1'
p2041
(dp2042
g84
g85
((lp2043
S'ENSG00000145740'
p2044
aS'ENSG00000110060'
p2045
aS'ENSG00000197958'
p2046
aS'ENSG00000183323'
p2047
aS'ENSG00000167914'
p2048
aS'ENSG00000118961'
p2049
aS'ENSG00000182923'
p2050
aS'ENSG00000177025'
p2051
aS'ENSG00000185619'
p2052
aS'ENSG00000185880'
p2053
aS'ENSG00000166669'
p2054
aS'ENSG00000146463'
p2055
aS'ENSG00000141198'
p2056
aS'ENSG00000154845'
p2057
aS'ENSG00000137672'
p2058
atRp2059
ssS'palevioletred2'
p2060
(dp2061
g4
(lp2062
(lp2063
S'ENSG00000254453'
p2064
aFinf
ag8
(g10
S't\xfdt$\xdb\xa3Y?'
tRp2065
ag8
(g10
S"@\xb7l\t\xac'\x83?"
tRp2066
aa(lp2067
S'ENSG00000228812'
p2068
aFinf
ag8
(g10
S't\xfdt$\xdb\xa3Y?'
tRp2069
ag8
(g10
S"@\xb7l\t\xac'\x83?"
tRp2070
aa(lp2071
S'ENSG00000115232'
p2072
aFinf
ag8
(g10
S'P\x02u$\xdb\xa3i?'
tRp2073
ag8
(g10
S'\x00\xa2\x08\xa3\x1a\x85\x89?'
tRp2074
aa(lp2075
S'ENSG00000144908'
p2076
aFinf
ag8
(g10
S'P\x02u$\xdb\xa3i?'
tRp2077
ag8
(g10
S'\x00\xa2\x08\xa3\x1a\x85\x89?'
tRp2078
aa(lp2079
S'ENSG00000188452'
p2080
aFinf
ag8
(g10
S'P\x02u$\xdb\xa3i?'
tRp2081
ag8
(g10
S'\x00\xa2\x08\xa3\x1a\x85\x89?'
tRp2082
aa(lp2083
S'ENSG00000077157'
p2084
aFinf
ag8
(g10
S'P\x02u$\xdb\xa3i?'
tRp2085
ag8
(g10
S'\x00\xa2\x08\xa3\x1a\x85\x89?'
tRp2086
aasg84
g85
((lp2087
S'ENSG00000176148'
p2088
aS'ENSG00000125846'
p2089
aS'ENSG00000180979'
p2090
aS'ENSG00000259511'
p2091
aS'ENSG00000171763'
p2092
aS'ENSG00000167100'
p2093
aS'ENSG00000203705'
p2094
aS'ENSG00000142252'
p2095
aS'ENSG00000189376'
p2096
aS'ENSG00000167395'
p2097
aS'ENSG00000126062'
p2098
aS'ENSG00000171861'
p2099
aS'ENSG00000135778'
p2100
aS'ENSG00000106608'
p2101
aS'ENSG00000165861'
p2102
aS'ENSG00000087008'
p2103
atRp2104
ssS'palevioletred3'
p2105
(dp2106
g84
g85
((lp2107
S'ENSG00000139687'
p2108
aS'ENSG00000172232'
p2109
aS'ENSG00000189283'
p2110
aS'ENSG00000182257'
p2111
aS'ENSG00000173193'
p2112
aS'ENSG00000246922'
p2113
aS'ENSG00000090661'
p2114
aS'ENSG00000157637'
p2115
aS'ENSG00000109956'
p2116
aS'ENSG00000251664'
p2117
aS'ENSG00000085832'
p2118
aS'ENSG00000126602'
p2119
aS'ENSG00000149328'
p2120
aS'ENSG00000136918'
p2121
aS'ENSG00000108883'
p2122
aS'ENSG00000142449'
p2123
aS'ENSG00000055163'
p2124
aS'ENSG00000162882'
p2125
atRp2126
ssS'coral3'
p2127
(dp2128
g4
(lp2129
(lp2130
S'ENSG00000165966'
p2131
aFinf
ag8
(g10
S'1\xbeW[\xe4:s?'
tRp2132
ag8
(g10
S'@n\xedY\xb9\xb5\x8c?'
tRp2133
aa(lp2134
S'ENSG00000164692'
p2135
ag8
(g10
S'\x00\x00\x00\x00\x00\xd8s@'
tRp2136
ag8
(g10
S'A\xbd\xef\x06-3\x83?'
tRp2137
ag8
(g10
S'\xe0\xb8O\xd8"\x1c\x93?'
tRp2138
aasg84
g85
((lp2139
S'ENSG00000105556'
p2140
aS'ENSG00000106400'
p2141
aS'ENSG00000072958'
p2142
aS'ENSG00000115364'
p2143
aS'ENSG00000089351'
p2144
aS'ENSG00000023516'
p2145
aS'ENSG00000136051'
p2146
aS'ENSG00000168754'
p2147
aS'ENSG00000141560'
p2148
aS'ENSG00000214253'
p2149
aS'ENSG00000153294'
p2150
aS'ENSG00000170955'
p2151
aS'ENSG00000104973'
p2152
aS'ENSG00000177963'
p2153
aS'ENSG00000148110'
p2154
aS'ENSG00000165533'
p2155
atRp2156
ssS'coral2'
p2157
(dp2158
g84
g85
((lp2159
S'ENSG00000112367'
p2160
aS'ENSG00000197959'
p2161
aS'ENSG00000162994'
p2162
aS'ENSG00000166997'
p2163
aS'ENSG00000198951'
p2164
aS'ENSG00000136982'
p2165
aS'ENSG00000070371'
p2166
aS'ENSG00000180016'
p2167
aS'ENSG00000124207'
p2168
aS'ENSG00000129219'
p2169
aS'ENSG00000125734'
p2170
aS'ENSG00000163913'
p2171
aS'ENSG00000130270'
p2172
aS'ENSG00000067208'
p2173
aS'ENSG00000099330'
p2174
aS'ENSG00000188051'
p2175
aS'ENSG00000239665'
p2176
aS'ENSG00000167674'
p2177
atRp2178
ssS'coral1'
p2179
(dp2180
g4
(lp2181
(lp2182
S'ENSG00000163814'
p2183
aFinf
ag8
(g10
S'P\x02u$\xdb\xa3i?'
tRp2184
ag8
(g10
S'\xc0\xf0\xc5\xfe\x7f+\x83?'
tRp2185
aa(lp2186
S'ENSG00000076944'
p2187
aFinf
ag8
(g10
S't\xfat$\xdb\xa3y?'
tRp2188
ag8
(g10
S'\x80\xa3\x05\xd7O\x8f\x89?'
tRp2189
aa(lp2190
S'ENSG00000163694'
p2191
aFinf
ag8
(g10
S't\xfat$\xdb\xa3y?'
tRp2192
ag8
(g10
S'\x80\xa3\x05\xd7O\x8f\x89?'
tRp2193
aasg84
g85
((lp2194
S'ENSG00000197580'
p2195
aS'ENSG00000256223'
p2196
aS'ENSG00000164615'
p2197
aS'ENSG00000164008'
p2198
aS'ENSG00000158163'
p2199
aS'ENSG00000085231'
p2200
aS'ENSG00000198715'
p2201
aS'ENSG00000204386'
p2202
aS'ENSG00000040487'
p2203
aS'ENSG00000172687'
p2204
aS'ENSG00000051128'
p2205
aS'ENSG00000006652'
p2206
aS'ENSG00000188732'
p2207
aS'ENSG00000177483'
p2208
aS'ENSG00000100564'
p2209
aS'ENSG00000125775'
p2210
aS'ENSG00000136999'
p2211
aS'ENSG00000118960'
p2212
atRp2213
ssS'mediumpurple'
p2214
(dp2215
g84
g85
((lp2216
S'ENSG00000116213'
p2217
aS'ENSG00000184227'
p2218
aS'ENSG00000123191'
p2219
aS'ENSG00000182134'
p2220
aS'ENSG00000179979'
p2221
aS'ENSG00000150967'
p2222
aS'ENSG00000164347'
p2223
aS'ENSG00000040275'
p2224
aS'ENSG00000198035'
p2225
aS'ENSG00000020922'
p2226
aS'ENSG00000140386'
p2227
aS'ENSG00000127415'
p2228
aS'ENSG00000163945'
p2229
aS'ENSG00000141219'
p2230
atRp2231
ssS'cornsilk'
p2232
(dp2233
g4
(lp2234
(lp2235
S'ENSG00000146005'
p2236
aFinf
ag8
(g10
S'\x81\xfdt$\xdb\xa3i?'
tRp2237
ag8
(g10
S'0=\xc6|\x06\xe7\xa2?'
tRp2238
aa(lp2239
S'ENSG00000135525'
p2240
aFinf
ag8
(g10
S'\x81\xfdt$\xdb\xa3i?'
tRp2241
ag8
(g10
S'0=\xc6|\x06\xe7\xa2?'
tRp2242
aa(lp2243
S'ENSG00000116254'
p2244
aFinf
ag8
(g10
S'\x81\xfdt$\xdb\xa3i?'
tRp2245
ag8
(g10
S'0=\xc6|\x06\xe7\xa2?'
tRp2246
aa(lp2247
S'ENSG00000242173'
p2248
aFinf
ag8
(g10
S'\x81\xfdt$\xdb\xa3i?'
tRp2249
ag8
(g10
S'0=\xc6|\x06\xe7\xa2?'
tRp2250
aa(lp2251
S'ENSG00000120756'
p2252
ag8
(g10
S'\x00\x00\x00\x00\x00\xe0\x83@'
tRp2253
ag8
(g10
S'\xe8\xee\x84A\xb6\x9ey?'
tRp2254
ag8
(g10
S'Pa\xa9\x11\xe9\x10\xa9?'
tRp2255
aa(lp2256
S'ENSG00000104267'
p2257
ag8
(g10
S'\x00\x00\x00\x00\x00\xe0\x83@'
tRp2258
ag8
(g10
S'\xe8\xee\x84A\xb6\x9ey?'
tRp2259
ag8
(g10
S'Pa\xa9\x11\xe9\x10\xa9?'
tRp2260
aa(lp2261
S'ENSG00000103534'
p2262
ag8
(g10
S'\x00\x00\x00\x00\x00\xe0\x83@'
tRp2263
ag8
(g10
S'\xe8\xee\x84A\xb6\x9ey?'
tRp2264
ag8
(g10
S'Pa\xa9\x11\xe9\x10\xa9?'
tRp2265
aa(lp2266
S'ENSG00000157851'
p2267
ag8
(g10
S'\x00\x00\x00\x00\x00\xe0\x83@'
tRp2268
ag8
(g10
S'\xe8\xee\x84A\xb6\x9ey?'
tRp2269
ag8
(g10
S'Pa\xa9\x11\xe9\x10\xa9?'
tRp2270
aasg84
g85
((lp2271
S'ENSG00000255374'
p2272
aS'ENSG00000065268'
p2273
aS'ENSG00000132840'
p2274
aS'ENSG00000136297'
p2275
aS'ENSG00000113593'
p2276
aS'ENSG00000145692'
p2277
aS'ENSG00000132837'
p2278
aS'ENSG00000134200'
p2279
aS'ENSG00000180071'
p2280
aS'ENSG00000214595'
p2281
atRp2282
ssS'indianred2'
p2283
(dp2284
g84
g85
((lp2285
S'ENSG00000257184'
p2286
aS'ENSG00000198780'
p2287
aS'ENSG00000168564'
p2288
aS'ENSG00000127870'
p2289
aS'ENSG00000241043'
p2290
aS'ENSG00000133460'
p2291
aS'ENSG00000145365'
p2292
aS'ENSG00000189184'
p2293
aS'ENSG00000171940'
p2294
aS'ENSG00000164346'
p2295
aS'ENSG00000168612'
p2296
aS'ENSG00000038002'
p2297
aS'ENSG00000143971'
p2298
aS'ENSG00000134905'
p2299
atRp2300
ssS'indianred3'
p2301
(dp2302
g84
g85
((lp2303
S'ENSG00000203711'
p2304
aS'ENSG00000080298'
p2305
aS'ENSG00000158286'
p2306
aS'ENSG00000142632'
p2307
aS'ENSG00000197568'
p2308
aS'ENSG00000184903'
p2309
aS'ENSG00000119638'
p2310
aS'ENSG00000119403'
p2311
aS'ENSG00000004864'
p2312
aS'ENSG00000122008'
p2313
aS'ENSG00000187010'
p2314
aS'ENSG00000213901'
p2315
aS'ENSG00000138767'
p2316
aS'ENSG00000135686'
p2317
aS'ENSG00000146433'
p2318
atRp2319
ssS'lightblue2'
p2320
(dp2321
g84
g85
((lp2322
S'ENSG00000146648'
p2323
aS'ENSG00000173145'
p2324
aS'ENSG00000073921'
p2325
aS'ENSG00000115946'
p2326
aS'ENSG00000213658'
p2327
aS'ENSG00000164134'
p2328
aS'ENSG00000185774'
p2329
aS'ENSG00000166260'
p2330
aS'ENSG00000155975'
p2331
aS'ENSG00000116032'
p2332
aS'ENSG00000144026'
p2333
aS'ENSG00000149089'
p2334
atRp2335
ssS'lightblue3'
p2336
(dp2337
g4
(lp2338
(lp2339
S'ENSG00000108375'
p2340
aFinf
ag8
(g10
S't\xfat$\xdb\xa3y?'
tRp2341
ag8
(g10
S'\x00j\xee\x82\xbd\xa6\x9f?'
tRp2342
aa(lp2343
S'ENSG00000112812'
p2344
aFinf
ag8
(g10
S'F!\xc9\xf6h\x06\x80?'
tRp2345
ag8
(g10
S'\xc0ZFL\x05\xad\x9f?'
tRp2346
aa(lp2347
S'ENSG00000132698'
p2348
aFinf
ag8
(g10
S"'\xbeW[\xe4:\x83?"
tRp2349
ag8
(g10
S'\xc0ZFL\x05\xad\x9f?'
tRp2350
aa(lp2351
S'ENSG00000189334'
p2352
aFinf
ag8
(g10
S"'\xbeW[\xe4:\x83?"
tRp2353
ag8
(g10
S'\xc0ZFL\x05\xad\x9f?'
tRp2354
aa(lp2355
S'ENSG00000104413'
p2356
aFinf
ag8
(g10
S"'\xbeW[\xe4:\x83?"
tRp2357
ag8
(g10
S'\xc0ZFL\x05\xad\x9f?'
tRp2358
aasg84
g85
((lp2359
S'ENSG00000071564'
p2360
aS'ENSG00000160014'
p2361
aS'ENSG00000178623'
p2362
aS'ENSG00000155096'
p2363
aS'ENSG00000162572'
p2364
aS'ENSG00000006282'
p2365
aS'ENSG00000161016'
p2366
aS'ENSG00000133466'
p2367
aS'ENSG00000049283'
p2368
aS'ENSG00000099338'
p2369
aS'ENSG00000167702'
p2370
aS'ENSG00000131899'
p2371
aS'ENSG00000164880'
p2372
aS'ENSG00000114744'
p2373
atRp2374
ssS'lightblue1'
p2375
(dp2376
g84
g85
((lp2377
S'ENSG00000156414'
p2378
aS'ENSG00000152219'
p2379
aS'ENSG00000183281'
p2380
aS'ENSG00000115221'
p2381
aS'ENSG00000198848'
p2382
aS'ENSG00000162458'
p2383
aS'ENSG00000124588'
p2384
aS'ENSG00000144182'
p2385
aS'ENSG00000100865'
p2386
aS'ENSG00000151611'
p2387
atRp2388
ssS'lightslateblue'
p2389
(dp2390
g4
(lp2391
(lp2392
S'ENSG00000167741'
p2393
aFinf
ag8
(g10
S'1\xbeW[\xe4:s?'
tRp2394
ag8
(g10
S'\xa0\xf8\xf6dU\x97\xa0?'
tRp2395
aa(lp2396
S'ENSG00000135373'
p2397
aFinf
ag8
(g10
S'1\xbeW[\xe4:s?'
tRp2398
ag8
(g10
S'\xa0\xf8\xf6dU\x97\xa0?'
tRp2399
aa(lp2400
S'ENSG00000167183'
p2401
aFinf
ag8
(g10
S'1\xbeW[\xe4:s?'
tRp2402
ag8
(g10
S'\xa0\xf8\xf6dU\x97\xa0?'
tRp2403
aa(lp2404
S'ENSG00000203499'
p2405
aFinf
ag8
(g10
S'1\xbeW[\xe4:s?'
tRp2406
ag8
(g10
S'\xa0\xf8\xf6dU\x97\xa0?'
tRp2407
aa(lp2408
S'ENSG00000169271'
p2409
aFinf
ag8
(g10
S'1\xbeW[\xe4:s?'
tRp2410
ag8
(g10
S'\xa0\xf8\xf6dU\x97\xa0?'
tRp2411
aa(lp2412
S'ENSG00000180921'
p2413
aFinf
ag8
(g10
S'1\xbeW[\xe4:s?'
tRp2414
ag8
(g10
S'\xa0\xf8\xf6dU\x97\xa0?'
tRp2415
aa(lp2416
S'ENSG00000134986'
p2417
ag8
(g10
S'\xab\xaa\xaa\xaa\xaajA@'
tRp2418
ag8
(g10
S'\x0e\xaa2\x04,\xb3\xa7?'
tRp2419
ag8
(g10
S'\x10\xaa2\x04,\xb3\xa7?'
tRp2420
aasg84
g85
((lp2421
S'ENSG00000100038'
p2422
aS'ENSG00000141391'
p2423
aS'ENSG00000169271'
p2424
aS'ENSG00000154803'
p2425
aS'ENSG00000152154'
p2426
aS'ENSG00000104936'
p2427
aS'ENSG00000155749'
p2428
aS'ENSG00000215527'
p2429
aS'ENSG00000114113'
p2430
aS'ENSG00000100764'
p2431
aS'ENSG00000125868'
p2432
aS'ENSG00000240563'
p2433
aS'ENSG00000175003'
p2434
aS'ENSG00000197170'
p2435
aS'ENSG00000164253'
p2436
atRp2437
ssS'lightblue4'
p2438
(dp2439
g84
g85
((lp2440
S'ENSG00000177119'
p2441
aS'ENSG00000169660'
p2442
aS'ENSG00000107140'
p2443
aS'ENSG00000037757'
p2444
aS'ENSG00000186532'
p2445
aS'ENSG00000168546'
p2446
aS'ENSG00000163331'
p2447
aS'ENSG00000152601'
p2448
aS'ENSG00000111676'
p2449
aS'ENSG00000116198'
p2450
aS'ENSG00000099326'
p2451
aS'ENSG00000146223'
p2452
aS'ENSG00000111077'
p2453
aS'ENSG00000180155'
p2454
aS'ENSG00000101197'
p2455
atRp2456
ssS'lightsteelblue1'
p2457
(dp2458
g4
(lp2459
(lp2460
S'ENSG00000186081'
p2461
ag8
(g10
S'\x00\x00\x00\x00\x00 Z@'
tRp2462
ag8
(g10
S'52\x89\x12\xc6\xeb\x03?'
tRp2463
ag8
(g10
S'\x00t>93mA?'
tRp2464
aa(lp2465
S'ENSG00000080910'
p2466
aFinf
ag8
(g10
S"o\xdb/8\xfd%'?"
tRp2467
ag8
(g10
S'\x00\xf3\xcet\xc4\xc9b?'
tRp2468
aa(lp2469
S'ENSG00000157131'
p2470
aFinf
ag8
(g10
S"o\xdb/8\xfd%'?"
tRp2471
ag8
(g10
S'\x00\xf3\xcet\xc4\xc9b?'
tRp2472
aasg84
g85
((lp2473
S'ENSG00000137266'
p2474
aS'ENSG00000185479'
p2475
aS'ENSG00000128595'
p2476
aS'ENSG00000144115'
p2477
aS'ENSG00000091128'
p2478
aS'ENSG00000122696'
p2479
aS'ENSG00000151136'
p2480
aS'ENSG00000171055'
p2481
aS'ENSG00000090530'
p2482
aS'ENSG00000179038'
p2483
aS'ENSG00000243137'
p2484
aS'ENSG00000140323'
p2485
aS'ENSG00000205420'
p2486
aS'ENSG00000066230'
p2487
aS'ENSG00000164440'
p2488
aS'ENSG00000254667'
p2489
aS'ENSG00000186832'
p2490
aS'ENSG00000050165'
p2491
aS'ENSG00000110244'
p2492
aS'ENSG00000110245'
p2493
atRp2494
ssS'skyblue4'
p2495
(dp2496
g4
(lp2497
(lp2498
S'ENSG00000133710'
p2499
aFinf
ag8
(g10
S'\x8f\xfdt$\xdb\xa3y?'
tRp2500
ag8
(g10
S'`\xfe\x7fX\xd5\x15\xa9?'
tRp2501
aasg84
g85
((lp2502
S'ENSG00000136146'
p2503
aS'ENSG00000068078'
p2504
aS'ENSG00000141959'
p2505
aS'ENSG00000269430'
p2506
aS'ENSG00000167562'
p2507
aS'ENSG00000120675'
p2508
aS'ENSG00000196843'
p2509
aS'ENSG00000088543'
p2510
aS'ENSG00000059122'
p2511
aS'ENSG00000254685'
p2512
aS'ENSG00000160233'
p2513
aS'ENSG00000107130'
p2514
aS'ENSG00000146833'
p2515
aS'ENSG00000075035'
p2516
aS'ENSG00000137699'
p2517
atRp2518
ssS'deepskyblue'
p2519
(dp2520
g84
g85
((lp2521
S'ENSG00000142627'
p2522
aS'ENSG00000185022'
p2523
aS'ENSG00000089558'
p2524
aS'ENSG00000158769'
p2525
aS'ENSG00000161940'
p2526
aS'ENSG00000100312'
p2527
aS'ENSG00000163083'
p2528
aS'ENSG00000105538'
p2529
aS'ENSG00000172992'
p2530
atRp2531
ssS'skyblue1'
p2532
(dp2533
g4
(lp2534
(lp2535
S'ENSG00000168925'
p2536
aFinf
ag8
(g10
S"h\xe1'\x04SJ\x13?"
tRp2537
ag8
(g10
S'\x004Bv\rIC?'
tRp2538
aa(lp2539
S'ENSG00000204983'
p2540
aFinf
ag8
(g10
S"h\xe1'\x04SJ\x13?"
tRp2541
ag8
(g10
S'\x004Bv\rIC?'
tRp2542
aasg84
g85
((lp2543
S'ENSG00000087157'
p2544
aS'ENSG00000254647'
p2545
aS'ENSG00000112031'
p2546
aS'ENSG00000204740'
p2547
aS'ENSG00000140650'
p2548
aS'ENSG00000260230'
p2549
aS'ENSG00000146535'
p2550
aS'ENSG00000091704'
p2551
aS'ENSG00000204653'
p2552
aS'ENSG00000176593'
p2553
aS'ENSG00000111711'
p2554
aS'ENSG00000204186'
p2555
aS'ENSG00000158516'
p2556
aS'ENSG00000186453'
p2557
aS'ENSG00000128159'
p2558
aS'ENSG00000196458'
p2559
aS'ENSG00000204983'
p2560
atRp2561
ssS'darkred'
p2562
(dp2563
g84
g85
((lp2564
S'ENSG00000161981'
p2565
aS'ENSG00000189171'
p2566
aS'ENSG00000214140'
p2567
aS'ENSG00000188643'
p2568
aS'ENSG00000103740'
p2569
aS'ENSG00000137713'
p2570
aS'ENSG00000168936'
p2571
aS'ENSG00000152056'
p2572
aS'ENSG00000078804'
p2573
aS'ENSG00000162843'
p2574
aS'ENSG00000196139'
p2575
aS'ENSG00000164946'
p2576
aS'ENSG00000178952'
p2577
aS'ENSG00000187134'
p2578
aS'ENSG00000147724'
p2579
aS'ENSG00000143799'
p2580
aS'ENSG00000138399'
p2581
aS'ENSG00000162076'
p2582
aS'ENSG00000066427'
p2583
aS'ENSG00000166140'
p2584
aS'ENSG00000144231'
p2585
aS'ENSG00000129465'
p2586
aS'ENSG00000046889'
p2587
aS'ENSG00000077616'
p2588
aS'ENSG00000161526'
p2589
aS'ENSG00000103226'
p2590
atRp2591
ssS'skyblue2'
p2592
(dp2593
g84
g85
((lp2594
S'ENSG00000080345'
p2595
aS'ENSG00000178234'
p2596
aS'ENSG00000214954'
p2597
aS'ENSG00000115839'
p2598
aS'ENSG00000085415'
p2599
aS'ENSG00000198026'
p2600
aS'ENSG00000013573'
p2601
aS'ENSG00000038274'
p2602
aS'ENSG00000174373'
p2603
aS'ENSG00000197980'
p2604
aS'ENSG00000022567'
p2605
aS'ENSG00000188152'
p2606
aS'ENSG00000122779'
p2607
aS'ENSG00000100150'
p2608
aS'ENSG00000147894'
p2609
aS'ENSG00000132906'
p2610
aS'ENSG00000116761'
p2611
aS'ENSG00000198252'
p2612
atRp2613
ssS'lavenderblush1'
p2614
(dp2615
g4
(lp2616
(lp2617
S'ENSG00000152583'
p2618
aFinf
ag8
(g10
S'\x81\xfdt$\xdb\xa3i?'
tRp2619
ag8
(g10
S'`\xde\x848\x88\x14\x93?'
tRp2620
aa(lp2621
S'ENSG00000122574'
p2622
aFinf
ag8
(g10
S'\x81\xfdt$\xdb\xa3i?'
tRp2623
ag8
(g10
S'`\xde\x848\x88\x14\x93?'
tRp2624
aa(lp2625
S'ENSG00000109472'
p2626
aFinf
ag8
(g10
S'\x81\xfdt$\xdb\xa3i?'
tRp2627
ag8
(g10
S'`\xde\x848\x88\x14\x93?'
tRp2628
aa(lp2629
S'ENSG00000131711'
p2630
ag8
(g10
S'\x00\x00\x00\x00\x00\xe0\x83@'
tRp2631
ag8
(g10
S'\xe8\xee\x84A\xb6\x9ey?'
tRp2632
ag8
(g10
S'\x80\xcbX\x85T\x18\x93?'
tRp2633
aa(lp2634
S'ENSG00000205795'
p2635
ag8
(g10
S'\x00\x00\x00\x00\x00\xd8s@'
tRp2636
ag8
(g10
S'\xe8\xb5\xef\x06-3\x83?'
tRp2637
ag8
(g10
S'\xc0\xb1O\xd8"\x1c\x93?'
tRp2638
aasg84
g85
((lp2639
S'ENSG00000134779'
p2640
aS'ENSG00000183230'
p2641
aS'ENSG00000105058'
p2642
aS'ENSG00000104626'
p2643
aS'ENSG00000156253'
p2644
aS'ENSG00000145901'
p2645
aS'ENSG00000166471'
p2646
aS'ENSG00000253719'
p2647
aS'ENSG00000116977'
p2648
aS'ENSG00000141562'
p2649
aS'ENSG00000152409'
p2650
aS'ENSG00000185274'
p2651
aS'ENSG00000154035'
p2652
aS'ENSG00000087301'
p2653
atRp2654
ssS'lavenderblush3'
p2655
(dp2656
g84
g85
((lp2657
S'ENSG00000057468'
p2658
aS'ENSG00000225526'
p2659
aS'ENSG00000178297'
p2660
aS'ENSG00000243709'
p2661
aS'ENSG00000135632'
p2662
aS'ENSG00000139192'
p2663
aS'ENSG00000166289'
p2664
aS'ENSG00000165124'
p2665
aS'ENSG00000185201'
p2666
aS'ENSG00000112667'
p2667
aS'ENSG00000136448'
p2668
aS'ENSG00000206344'
p2669
aS'ENSG00000184371'
p2670
aS'ENSG00000153048'
p2671
aS'ENSG00000204138'
p2672
aS'ENSG00000136867'
p2673
aS'ENSG00000187758'
p2674
aS'ENSG00000101439'
p2675
atRp2676
ssS'lavenderblush2'
p2677
(dp2678
g4
(lp2679
(lp2680
S'ENSG00000115165'
p2681
ag8
(g10
S'\x00\x00\x00\x00\x00\xe0\x83@'
tRp2682
ag8
(g10
S'\xe8\xee\x84A\xb6\x9ey?'
tRp2683
ag8
(g10
S'Pa\xa9\x11\xe9\x10\xa9?'
tRp2684
aasg84
g85
((lp2685
S'ENSG00000121775'
p2686
aS'ENSG00000136930'
p2687
aS'ENSG00000107643'
p2688
aS'ENSG00000183431'
p2689
aS'ENSG00000082068'
p2690
aS'ENSG00000132429'
p2691
aS'ENSG00000124357'
p2692
aS'ENSG00000104497'
p2693
aS'ENSG00000143156'
p2694
aS'ENSG00000095485'
p2695
aS'ENSG00000105671'
p2696
aS'ENSG00000160588'
p2697
aS'ENSG00000104714'
p2698
aS'ENSG00000186141'
p2699
aS'ENSG00000135847'
p2700
aS'ENSG00000185627'
p2701
atRp2702
ssS'aliceblue'
p2703
(dp2704
g4
(lp2705
(lp2706
S'ENSG00000249825'
p2707
aFinf
ag8
(g10
S'\xd08%H\x1a\x01"?'
tRp2708
ag8
(g10
S'\x00\xf2`\xa3\xe1\xdc`?'
tRp2709
aa(lp2710
S'ENSG00000106809'
p2711
ag8
(g10
S'\x00\x00\x00\x00\x00@j@'
tRp2712
ag8
(g10
S'6\x85\xcfz=\xd6:?'
tRp2713
ag8
(g10
S'\x80\x90\xefA|kw?'
tRp2714
aasg84
g85
((lp2715
S'ENSG00000164292'
p2716
aS'ENSG00000129048'
p2717
aS'ENSG00000163145'
p2718
aS'ENSG00000184985'
p2719
aS'ENSG00000113296'
p2720
aS'ENSG00000033122'
p2721
aS'ENSG00000248905'
p2722
aS'ENSG00000143768'
p2723
aS'ENSG00000137872'
p2724
aS'ENSG00000178538'
p2725
aS'ENSG00000175356'
p2726
aS'ENSG00000143196'
p2727
atRp2728
ssS'lightskyblue2'
p2729
(dp2730
g84
g85
((lp2731
S'ENSG00000109133'
p2732
aS'ENSG00000184792'
p2733
aS'ENSG00000113597'
p2734
aS'ENSG00000100711'
p2735
aS'ENSG00000119718'
p2736
aS'ENSG00000186998'
p2737
aS'ENSG00000133773'
p2738
aS'ENSG00000167311'
p2739
aS'ENSG00000186638'
p2740
aS'ENSG00000214435'
p2741
atRp2742
ssS'lightskyblue3'
p2743
(dp2744
g4
(lp2745
(lp2746
S'ENSG00000172247'
p2747
aFinf
ag8
(g10
S't\xfdt$\xdb\xa3Y?'
tRp2748
ag8
(g10
S'\x80\xd6&\xe4zT\x86?'
tRp2749
aa(lp2750
S'ENSG00000073670'
p2751
aFinf
ag8
(g10
S't\xfdt$\xdb\xa3Y?'
tRp2752
ag8
(g10
S'\x80\xd6&\xe4zT\x86?'
tRp2753
aa(lp2754
S'ENSG00000165186'
p2755
aFinf
ag8
(g10
S'P\x02u$\xdb\xa3i?'
tRp2756
ag8
(g10
S'\x00\xd4\x92\xc2\x9e\xd9\x8f?'
tRp2757
aasg84
g85
((lp2758
S'ENSG00000205078'
p2759
aS'ENSG00000184924'
p2760
aS'ENSG00000111328'
p2761
aS'ENSG00000139370'
p2762
aS'ENSG00000124380'
p2763
aS'ENSG00000197093'
p2764
aS'ENSG00000081665'
p2765
aS'ENSG00000169032'
p2766
aS'ENSG00000130921'
p2767
aS'ENSG00000059769'
p2768
aS'ENSG00000063180'
p2769
aS'ENSG00000153246'
p2770
atRp2771
ssS'blue1'
p2772
(dp2773
g84
g85
((lp2774
S'ENSG00000196653'
p2775
aS'ENSG00000198466'
p2776
aS'ENSG00000062370'
p2777
aS'ENSG00000105497'
p2778
aS'ENSG00000121417'
p2779
aS'ENSG00000130803'
p2780
aS'ENSG00000152439'
p2781
aS'ENSG00000178386'
p2782
aS'ENSG00000166261'
p2783
aS'ENSG00000152433'
p2784
aS'ENSG00000140987'
p2785
aS'ENSG00000173480'
p2786
atRp2787
ssS'blue3'
p2788
(dp2789
g4
(lp2790
(lp2791
S'ENSG00000132429'
p2792
aFinf
ag8
(g10
S'\x81\xfdt$\xdb\xa3i?'
tRp2793
ag8
(g10
S'\x00\xcf\x92\xc2\x9e\xd9\x8f?'
tRp2794
aa(lp2795
S'ENSG00000078814'
p2796
aFinf
ag8
(g10
S'\x81\xfdt$\xdb\xa3i?'
tRp2797
ag8
(g10
S'\x00\xcf\x92\xc2\x9e\xd9\x8f?'
tRp2798
aa(lp2799
S'ENSG00000180210'
p2800
aFinf
ag8
(g10
S'\x81\xfdt$\xdb\xa3i?'
tRp2801
ag8
(g10
S'\x00\xcf\x92\xc2\x9e\xd9\x8f?'
tRp2802
aa(lp2803
g194
ag8
(g10
S'\x00\x00\x00\x00\x00\xc8c@'
tRp2804
ag8
(g10
S'=\x06\xe2~\x19\xf3\x8f?'
tRp2805
ag8
(g10
S'\xe0\xaa\xc8G\x87k\x99?'
tRp2806
aa(lp2807
g198
ag8
(g10
S'\xab\xaa\xaa\xaa\xaajj@'
tRp2808
ag8
(g10
S'\x1b\xdd\xa4{l\x94\x89?'
tRp2809
ag8
(g10
S'\xe0\xaa\xc8G\x87k\x99?'
tRp2810
aasg84
g85
((lp2811
S'ENSG00000164118'
p2812
aS'ENSG00000135424'
p2813
aS'ENSG00000180113'
p2814
aS'ENSG00000127952'
p2815
aS'ENSG00000110169'
p2816
aS'ENSG00000109047'
p2817
aS'ENSG00000197599'
p2818
aS'ENSG00000152348'
p2819
aS'ENSG00000180953'
p2820
aS'ENSG00000122035'
p2821
aS'ENSG00000113231'
p2822
aS'ENSG00000125534'
p2823
aS'ENSG00000170892'
p2824
aS'ENSG00000015520'
p2825
atRp2826
ssS'blue2'
p2827
(dp2828
g4
(lp2829
(lp2830
S'ENSG00000101222'
p2831
ag8
(g10
S'\x00\x00\x00\x00\x00`z@'
tRp2832
ag8
(g10
S'\xe6n9\xc0\xd1:#?'
tRp2833
ag8
(g10
S'\x00j8O\x92\xd1P?'
tRp2834
aa(lp2835
S'ENSG00000133640'
p2836
aFinf
ag8
(g10
S'u\x1e\xc9\xf6h\x06\x80?'
tRp2837
ag8
(g10
S'\xe0\xcc(\xd8|\x92\xa7?'
tRp2838
aa(lp2839
S'ENSG00000184949'
p2840
aFinf
ag8
(g10
S'u\x1e\xc9\xf6h\x06\x80?'
tRp2841
ag8
(g10
S'\xe0\xcc(\xd8|\x92\xa7?'
tRp2842
aasg84
g85
((lp2843
S'ENSG00000109758'
p2844
aS'ENSG00000166435'
p2845
aS'ENSG00000032742'
p2846
aS'ENSG00000185689'
p2847
aS'ENSG00000139182'
p2848
aS'ENSG00000138092'
p2849
aS'ENSG00000168778'
p2850
aS'ENSG00000101004'
p2851
aS'ENSG00000114446'
p2852
aS'ENSG00000183833'
p2853
aS'ENSG00000034239'
p2854
aS'ENSG00000187535'
p2855
aS'ENSG00000114670'
p2856
aS'ENSG00000234465'
p2857
aS'ENSG00000184949'
p2858
aS'ENSG00000114473'
p2859
aS'ENSG00000188596'
p2860
atRp2861
ssS'blue4'
p2862
(dp2863
g84
g85
((lp2864
S'ENSG00000250565'
p2865
aS'ENSG00000174780'
p2866
aS'ENSG00000100304'
p2867
aS'ENSG00000179922'
p2868
aS'ENSG00000204531'
p2869
aS'ENSG00000100815'
p2870
aS'ENSG00000111615'
p2871
aS'ENSG00000196693'
p2872
aS'ENSG00000168275'
p2873
aS'ENSG00000168702'
p2874
aS'ENSG00000066827'
p2875
aS'ENSG00000183605'
p2876
aS'ENSG00000134824'
p2877
aS'ENSG00000169085'
p2878
aS'ENSG00000150768'
p2879
atRp2880
ssS'lightskyblue4'
p2881
(dp2882
g4
(lp2883
(lp2884
S'ENSG00000165304'
p2885
aFinf
ag8
(g10
S't\xfat$\xdb\xa3y?'
tRp2886
ag8
(g10
S'\x00i\xedY\xb9\xb5\x8c?'
tRp2887
aa(lp2888
S'ENSG00000117399'
p2889
aFinf
ag8
(g10
S'o\xbaW[\xe4:s?'
tRp2890
ag8
(g10
S'\x00i\xedY\xb9\xb5\x8c?'
tRp2891
aa(lp2892
g1446
aFinf
ag8
(g10
S"'\xbeW[\xe4:\x83?"
tRp2893
ag8
(g10
S'\x00i\xedY\xb9\xb5\x8c?'
tRp2894
aasg84
g85
((lp2895
S'ENSG00000160882'
p2896
aS'ENSG00000106113'
p2897
aS'ENSG00000197045'
p2898
aS'ENSG00000162642'
p2899
aS'ENSG00000168301'
p2900
aS'ENSG00000259363'
p2901
aS'ENSG00000166321'
p2902
aS'ENSG00000179562'
p2903
aS'ENSG00000151014'
p2904
aS'ENSG00000168795'
p2905
aS'ENSG00000170191'
p2906
aS'ENSG00000132467'
p2907
aS'ENSG00000243317'
p2908
aS'ENSG00000150076'
p2909
atRp2910
ssS'plum4'
p2911
(dp2912
g84
g85
((lp2913
S'ENSG00000100347'
p2914
aS'ENSG00000100697'
p2915
aS'ENSG00000127337'
p2916
aS'ENSG00000144791'
p2917
aS'ENSG00000158711'
p2918
aS'ENSG00000142606'
p2919
aS'ENSG00000198189'
p2920
aS'ENSG00000169967'
p2921
aS'ENSG00000148300'
p2922
aS'ENSG00000176386'
p2923
aS'ENSG00000018189'
p2924
aS'ENSG00000112530'
p2925
aS'ENSG00000069493'
p2926
aS'ENSG00000014216'
p2927
aS'ENSG00000170430'
p2928
atRp2929
ssS'floralwhite'
p2930
(dp2931
g84
g85
((lp2932
S'ENSG00000124164'
p2933
aS'ENSG00000167747'
p2934
aS'ENSG00000168916'
p2935
aS'ENSG00000049759'
p2936
aS'ENSG00000188996'
p2937
aS'ENSG00000196743'
p2938
aS'ENSG00000167555'
p2939
aS'ENSG00000148498'
p2940
aS'ENSG00000105486'
p2941
aS'ENSG00000087510'
p2942
aS'ENSG00000008196'
p2943
aS'ENSG00000172379'
p2944
aS'ENSG00000175104'
p2945
aS'ENSG00000056586'
p2946
aS'ENSG00000166833'
p2947
aS'ENSG00000171067'
p2948
aS'ENSG00000206560'
p2949
aS'ENSG00000197020'
p2950
aS'ENSG00000197951'
p2951
aS'ENSG00000112033'
p2952
atRp2953
ssS'coral'
p2954
(dp2955
g4
(lp2956
(lp2957
S'ENSG00000142765'
p2958
aFinf
ag8
(g10
S't\xfdt$\xdb\xa3Y?'
tRp2959
ag8
(g10
S'\xc0\xc1\xad6H\xaa\x8c?'
tRp2960
aa(lp2961
S'ENSG00000196684'
p2962
aFinf
ag8
(g10
S't\xfdt$\xdb\xa3Y?'
tRp2963
ag8
(g10
S'\xc0\xc1\xad6H\xaa\x8c?'
tRp2964
aa(lp2965
g511
aFinf
ag8
(g10
S't\xfat$\xdb\xa3y?'
tRp2966
ag8
(g10
S'\xb0\xa3\xed\xae\xa2\x04\xa6?'
tRp2967
aasg84
g85
((lp2968
S'ENSG00000189280'
p2969
aS'ENSG00000117984'
p2970
aS'ENSG00000078177'
p2971
aS'ENSG00000249915'
p2972
aS'ENSG00000136048'
p2973
aS'ENSG00000178295'
p2974
aS'ENSG00000183283'
p2975
aS'ENSG00000081087'
p2976
aS'ENSG00000145214'
p2977
aS'ENSG00000083937'
p2978
aS'ENSG00000070614'
p2979
aS'ENSG00000137500'
p2980
aS'ENSG00000185896'
p2981
aS'ENSG00000205352'
p2982
aS'ENSG00000187954'
p2983
aS'ENSG00000110696'
p2984
atRp2985
ssS'whitesmoke'
p2986
(dp2987
g4
(lp2988
(lp2989
S'ENSG00000105357'
p2990
aFinf
ag8
(g10
S'P\x02u$\xdb\xa3i?'
tRp2991
ag8
(g10
S'\x00\x02u$\xdb\xa3i?'
tRp2992
aasg84
g85
((lp2993
S'ENSG00000198130'
p2994
aS'ENSG00000117505'
p2995
aS'ENSG00000070159'
p2996
aS'ENSG00000170638'
p2997
aS'ENSG00000164465'
p2998
aS'ENSG00000145725'
p2999
aS'ENSG00000131591'
p3000
aS'ENSG00000114857'
p3001
aS'ENSG00000169045'
p3002
aS'ENSG00000117335'
p3003
aS'ENSG00000132600'
p3004
aS'ENSG00000095002'
p3005
atRp3006
ssS'paleturquoise4'
p3007
(dp3008
g84
g85
((lp3009
S'ENSG00000149503'
p3010
aS'ENSG00000112110'
p3011
aS'ENSG00000196417'
p3012
aS'ENSG00000163017'
p3013
aS'ENSG00000197265'
p3014
aS'ENSG00000156973'
p3015
aS'ENSG00000213341'
p3016
aS'ENSG00000183647'
p3017
aS'ENSG00000171121'
p3018
aS'ENSG00000133103'
p3019
aS'ENSG00000129083'
p3020
atRp3021
ssS'firebrick3'
p3022
(dp3023
g84
g85
((lp3024
S'ENSG00000139364'
p3025
aS'ENSG00000148484'
p3026
aS'ENSG00000117643'
p3027
aS'ENSG00000160886'
p3028
aS'ENSG00000113621'
p3029
aS'ENSG00000134121'
p3030
aS'ENSG00000104067'
p3031
aS'ENSG00000101546'
p3032
aS'ENSG00000213853'
p3033
aS'ENSG00000176402'
p3034
aS'ENSG00000167972'
p3035
aS'ENSG00000057019'
p3036
aS'ENSG00000162384'
p3037
aS'ENSG00000164308'
p3038
aS'ENSG00000105254'
p3039
atRp3040
ssS'firebrick2'
p3041
(dp3042
g4
(lp3043
(lp3044
g440
aFinf
ag8
(g10
S'+\xd6-\xab\x12/V?'
tRp3045
ag8
(g10
S'\xe0\x8c"9\xf2\xe0\x91?'
tRp3046
aasg84
g85
((lp3047
S'ENSG00000189046'
p3048
aS'ENSG00000121236'
p3049
aS'ENSG00000142621'
p3050
aS'ENSG00000139832'
p3051
aS'ENSG00000164930'
p3052
aS'ENSG00000150540'
p3053
aS'ENSG00000101188'
p3054
aS'ENSG00000139187'
p3055
aS'ENSG00000100522'
p3056
aS'ENSG00000135747'
p3057
aS'ENSG00000158865'
p3058
aS'ENSG00000130635'
p3059
aS'ENSG00000243244'
p3060
aS'ENSG00000197635'
p3061
atRp3062
ssS'darksalmon'
p3063
(dp3064
g84
g85
((lp3065
S'ENSG00000155393'
p3066
aS'ENSG00000115514'
p3067
aS'ENSG00000126870'
p3068
aS'ENSG00000214029'
p3069
aS'ENSG00000119401'
p3070
aS'ENSG00000138686'
p3071
aS'ENSG00000164338'
p3072
aS'ENSG00000138381'
p3073
atRp3074
ssS'sienna3'
p3075
(dp3076
g4
(lp3077
(lp3078
g70
aFinf
ag8
(g10
S'o\xbaW[\xe4:s?'
tRp3079
ag8
(g10
S'\x00i\xedY\xb9\xb5\x8c?'
tRp3080
aa(lp3081
g576
aFinf
ag8
(g10
S'Z\xf7t$\xdb\xa3\x99?'
tRp3082
ag8
(g10
S'\xd0\x9b\xb7\xee\xadQ\xa9?'
tRp3083
aa(lp3084
g65
aFinf
ag8
(g10
S'V\x1f\xc9\xf6h\x06\xa0?'
tRp3085
ag8
(g10
S'\xd0\x9b\xb7\xee\xadQ\xa9?'
tRp3086
aasg84
g85
((lp3087
S'ENSG00000112242'
p3088
aS'ENSG00000170315'
p3089
aS'ENSG00000170634'
p3090
aS'ENSG00000142751'
p3091
aS'ENSG00000088247'
p3092
aS'ENSG00000187630'
p3093
aS'ENSG00000129347'
p3094
aS'ENSG00000179698'
p3095
aS'ENSG00000148219'
p3096
aS'ENSG00000138079'
p3097
aS'ENSG00000168653'
p3098
aS'ENSG00000136367'
p3099
aS'ENSG00000160877'
p3100
aS'ENSG00000006747'
p3101
aS'ENSG00000170473'
p3102
aS'ENSG00000198945'
p3103
aS'ENSG00000148296'
p3104
aS'ENSG00000177169'
p3105
aS'ENSG00000166965'
p3106
aS'ENSG00000105875'
p3107
aS'ENSG00000173376'
p3108
aS'ENSG00000171444'
p3109
atRp3110
ssS'firebrick4'
p3111
(dp3112
g4
(lp3113
(lp3114
S'ENSG00000185818'
p3115
aFinf
ag8
(g10
S'1\xbeW[\xe4:s?'
tRp3116
ag8
(g10
S'\xc0\xa1\x9f\xf0\x1a\xd0\x97?'
tRp3117
aasg84
g85
((lp3118
S'ENSG00000197497'
p3119
aS'ENSG00000103978'
p3120
aS'ENSG00000214694'
p3121
aS'ENSG00000110274'
p3122
aS'ENSG00000131165'
p3123
aS'ENSG00000164344'
p3124
aS'ENSG00000174606'
p3125
aS'ENSG00000145476'
p3126
aS'ENSG00000118307'
p3127
aS'ENSG00000106477'
p3128
aS'ENSG00000171160'
p3129
aS'ENSG00000131044'
p3130
aS'ENSG00000140463'
p3131
aS'ENSG00000148225'
p3132
aS'ENSG00000053900'
p3133
aS'ENSG00000139344'
p3134
aS'ENSG00000138379'
p3135
atRp3136
ssS'honeydew1'
p3137
(dp3138
g84
g85
((lp3139
S'ENSG00000112936'
p3140
aS'ENSG00000134853'
p3141
aS'ENSG00000008838'
p3142
aS'ENSG00000138303'
p3143
aS'ENSG00000256269'
p3144
aS'ENSG00000172292'
p3145
aS'ENSG00000103642'
p3146
aS'ENSG00000174885'
p3147
aS'ENSG00000083312'
p3148
aS'ENSG00000213639'
p3149
aS'ENSG00000145390'
p3150
aS'ENSG00000171862'
p3151
aS'ENSG00000239672'
p3152
aS'ENSG00000131634'
p3153
aS'ENSG00000096060'
p3154
aS'ENSG00000106069'
p3155
aS'ENSG00000105281'
p3156
aS'ENSG00000116857'
p3157
atRp3158
ssS'dodgerblue3'
p3159
(dp3160
g4
(lp3161
(lp3162
S'ENSG00000006327'
p3163
aFinf
ag8
(g10
S't\xfdt$\xdb\xa3Y?'
tRp3164
ag8
(g10
S'\x80\xa9y\xc7v\x94y?'
tRp3165
aa(lp3166
S'ENSG00000167617'
p3167
aFinf
ag8
(g10
S't\xfdt$\xdb\xa3Y?'
tRp3168
ag8
(g10
S'\x80\xa9y\xc7v\x94y?'
tRp3169
aa(lp3170
S'ENSG00000182718'
p3171
aFinf
ag8
(g10
S'P\x02u$\xdb\xa3i?'
tRp3172
ag8
(g10
S'\x80V\xbd}\x95\x99y?'
tRp3173
aa(lp3174
S'ENSG00000172965'
p3175
aFinf
ag8
(g10
S'P\x02u$\xdb\xa3i?'
tRp3176
ag8
(g10
S'\x80V\xbd}\x95\x99y?'
tRp3177
aasg84
g85
((lp3178
S'ENSG00000254852'
p3179
aS'ENSG00000233024'
p3180
aS'ENSG00000224712'
p3181
aS'ENSG00000213759'
p3182
aS'ENSG00000164398'
p3183
atRp3184
ssS'dodgerblue4'
p3185
(dp3186
g84
g85
((lp3187
S'ENSG00000100197'
p3188
aS'ENSG00000163053'
p3189
aS'ENSG00000168038'
p3190
aS'ENSG00000164048'
p3191
aS'ENSG00000117834'
p3192
aS'ENSG00000080166'
p3193
aS'ENSG00000163466'
p3194
aS'ENSG00000055955'
p3195
aS'ENSG00000213533'
p3196
atRp3197
ssS'lightskyblue1'
p3198
(dp3199
g4
(lp3200
(lp3201
S'ENSG00000174672'
p3202
aFinf
ag8
(g10
S't\xfdt$\xdb\xa3Y?'
tRp3203
ag8
(g10
S'\x80\xa9y\xc7v\x94y?'
tRp3204
aa(lp3205
S'ENSG00000185272'
p3206
aFinf
ag8
(g10
S't\xfdt$\xdb\xa3Y?'
tRp3207
ag8
(g10
S'\x80\xa9y\xc7v\x94y?'
tRp3208
aa(lp3209
S'ENSG00000050030'
p3210
aFinf
ag8
(g10
S't\xfat$\xdb\xa3y?'
tRp3211
ag8
(g10
S'\x80\xa3\x05\xd7O\x8f\x89?'
tRp3212
aa(lp3213
g1979
aFinf
ag8
(g10
S'\xdeo\x10\xa9\xa6\xa0\x91?'
tRp3214
ag8
(g10
S'\xe0o\x10\xa9\xa6\xa0\x91?'
tRp3215
aasg84
g85
((lp3216
S'ENSG00000196378'
p3217
aS'ENSG00000158985'
p3218
aS'ENSG00000170703'
p3219
aS'ENSG00000074706'
p3220
aS'ENSG00000135968'
p3221
aS'ENSG00000022556'
p3222
atRp3223
ssS'tomato4'
p3224
(dp3225
g84
g85
((lp3226
S'ENSG00000010322'
p3227
aS'ENSG00000205085'
p3228
aS'ENSG00000167216'
p3229
aS'ENSG00000153291'
p3230
aS'ENSG00000198912'
p3231
aS'ENSG00000134744'
p3232
aS'ENSG00000146233'
p3233
aS'ENSG00000250673'
p3234
aS'ENSG00000122417'
p3235
atRp3236
ssS'yellow4'
p3237
(dp3238
g84
g85
((lp3239
S'ENSG00000175643'
p3240
aS'ENSG00000197948'
p3241
aS'ENSG00000042317'
p3242
aS'ENSG00000124713'
p3243
aS'ENSG00000178053'
p3244
aS'ENSG00000153132'
p3245
aS'ENSG00000003249'
p3246
aS'ENSG00000130731'
p3247
aS'ENSG00000171224'
p3248
aS'ENSG00000130518'
p3249
aS'ENSG00000116883'
p3250
aS'ENSG00000239704'
p3251
aS'ENSG00000111450'
p3252
aS'ENSG00000099999'
p3253
aS'ENSG00000167103'
p3254
aS'ENSG00000125388'
p3255
aS'ENSG00000143845'
p3256
aS'ENSG00000185000'
p3257
atRp3258
ssS'greenyellow'
p3259
(dp3260
g4
(lp3261
(lp3262
S'ENSG00000162894'
p3263
aFinf
ag8
(g10
S't\xfdt$\xdb\xa3Y?'
tRp3264
ag8
(g10
S'\x00(\x19Q\xb8\x9ei?'
tRp3265
aa(lp3266
g1182
aFinf
ag8
(g10
S'P\x02u$\xdb\xa3i?'
tRp3267
ag8
(g10
S'\x00\x02u$\xdb\xa3i?'
tRp3268
aasg84
g85
((lp3269
S'ENSG00000115073'
p3270
aS'ENSG00000171469'
p3271
aS'ENSG00000120008'
p3272
aS'ENSG00000119723'
p3273
aS'ENSG00000145246'
p3274
aS'ENSG00000164081'
p3275
aS'ENSG00000180287'
p3276
aS'ENSG00000036054'
p3277
aS'ENSG00000131019'
p3278
aS'ENSG00000112592'
p3279
aS'ENSG00000148834'
p3280
aS'ENSG00000074319'
p3281
aS'ENSG00000152223'
p3282
aS'ENSG00000104522'
p3283
aS'ENSG00000167112'
p3284
aS'ENSG00000185838'
p3285
aS'ENSG00000113569'
p3286
aS'ENSG00000105669'
p3287
aS'ENSG00000086570'
p3288
aS'ENSG00000049883'
p3289
aS'ENSG00000160695'
p3290
aS'ENSG00000021762'
p3291
aS'ENSG00000104299'
p3292
aS'ENSG00000156261'
p3293
aS'ENSG00000134014'
p3294
aS'ENSG00000158161'
p3295
aS'ENSG00000067596'
p3296
aS'ENSG00000139719'
p3297
aS'ENSG00000119285'
p3298
aS'ENSG00000159111'
p3299
aS'ENSG00000068654'
p3300
atRp3301
ssS'tomato2'
p3302
(dp3303
g4
(lp3304
(lp3305
S'ENSG00000165730'
p3306
ag8
(g10
S'\x00\x00\x00\x00\x00\xe0\x83@'
tRp3307
ag8
(g10
S'\xe8\xee\x84A\xb6\x9ey?'
tRp3308
ag8
(g10
S'\x00\xef\x84A\xb6\x9ey?'
tRp3309
aasg84
g85
((lp3310
S'ENSG00000141971'
p3311
aS'ENSG00000123453'
p3312
aS'ENSG00000198018'
p3313
aS'ENSG00000123454'
p3314
aS'ENSG00000205863'
p3315
aS'ENSG00000255837'
p3316
aS'ENSG00000175198'
p3317
aS'ENSG00000135333'
p3318
aS'ENSG00000212127'
p3319
aS'ENSG00000240654'
p3320
aS'ENSG00000111215'
p3321
atRp3322
ssS'navajowhite4'
p3323
(dp3324
g4
(lp3325
(lp3326
S'ENSG00000205476'
p3327
ag8
(g10
S'\x00\x00\x00\x00\x00\xd8s@'
tRp3328
ag8
(g10
S'\xe8\xb5\xef\x06-3\x83?'
tRp3329
ag8
(g10
S'\xc0\xb1O\xd8"\x1c\x93?'
tRp3330
aa(lp3331
S'ENSG00000055118'
p3332
ag8
(g10
S'\x00\x00\x00\x00\x00\xd8s@'
tRp3333
ag8
(g10
S'\xe8\xb5\xef\x06-3\x83?'
tRp3334
ag8
(g10
S'\xc0\xb1O\xd8"\x1c\x93?'
tRp3335
aasg84
g85
((lp3336
S'ENSG00000119431'
p3337
aS'ENSG00000186399'
p3338
aS'ENSG00000184900'
p3339
aS'ENSG00000132781'
p3340
aS'ENSG00000115138'
p3341
aS'ENSG00000214530'
p3342
aS'ENSG00000166341'
p3343
aS'ENSG00000119411'
p3344
aS'ENSG00000156113'
p3345
aS'ENSG00000173272'
p3346
atRp3347
ssS'mediumorchid'
p3348
(dp3349
g84
g85
((lp3350
S'ENSG00000171105'
p3351
aS'ENSG00000090447'
p3352
aS'ENSG00000100354'
p3353
aS'ENSG00000198799'
p3354
aS'ENSG00000111276'
p3355
aS'ENSG00000189298'
p3356
aS'ENSG00000145907'
p3357
aS'ENSG00000147421'
p3358
aS'ENSG00000178301'
p3359
aS'ENSG00000130338'
p3360
aS'ENSG00000197157'
p3361
aS'ENSG00000114739'
p3362
aS'ENSG00000024048'
p3363
aS'ENSG00000163960'
p3364
aS'ENSG00000114796'
p3365
aS'ENSG00000164916'
p3366
aS'ENSG00000059728'
p3367
aS'ENSG00000008083'
p3368
atRp3369
ssS'navajowhite1'
p3370
(dp3371
g4
(lp3372
(lp3373
g1209
aFinf
ag8
(g10
S'M\x1c\xc9\xf6h\x06\x90?'
tRp3374
ag8
(g10
S'@\x1c\xc9\xf6h\x06\x90?'
tRp3375
aasg84
g85
((lp3376
S'ENSG00000088833'
p3377
aS'ENSG00000183617'
p3378
aS'ENSG00000181396'
p3379
aS'ENSG00000079739'
p3380
aS'ENSG00000131941'
p3381
aS'ENSG00000167671'
p3382
aS'ENSG00000117054'
p3383
aS'ENSG00000138468'
p3384
aS'ENSG00000164309'
p3385
aS'ENSG00000175806'
p3386
aS'ENSG00000123268'
p3387
aS'ENSG00000134809'
p3388
aS'ENSG00000132383'
p3389
aS'ENSG00000143575'
p3390
aS'ENSG00000145949'
p3391
aS'ENSG00000165678'
p3392
atRp3393
ssS'navajowhite2'
p3394
(dp3395
g4
(lp3396
(lp3397
S'ENSG00000179915'
p3398
aFinf
ag8
(g10
S'o\xbaW[\xe4:s?'
tRp3399
ag8
(g10
S'\x00\x8f~\x07U\x18\x93?'
tRp3400
aa(lp3401
S'ENSG00000146090'
p3402
aFinf
ag8
(g10
S'o\xbaW[\xe4:s?'
tRp3403
ag8
(g10
S'\x00\x8f~\x07U\x18\x93?'
tRp3404
aa(lp3405
S'ENSG00000175161'
p3406
aFinf
ag8
(g10
S'o\xbaW[\xe4:s?'
tRp3407
ag8
(g10
S'\x00\x8f~\x07U\x18\x93?'
tRp3408
aa(lp3409
S'ENSG00000206579'
p3410
aFinf
ag8
(g10
S'0\r\x9f\r"\xd5\x94?'
tRp3411
ag8
(g10
S'@\r\x9f\r"\xd5\x94?'
tRp3412
aasg84
g85
((lp3413
S'ENSG00000122203'
p3414
aS'ENSG00000189350'
p3415
aS'ENSG00000198270'
p3416
aS'ENSG00000140400'
p3417
aS'ENSG00000121716'
p3418
aS'ENSG00000198553'
p3419
aS'ENSG00000147669'
p3420
aS'ENSG00000145217'
p3421
aS'ENSG00000182472'
p3422
aS'ENSG00000085514'
p3423
aS'ENSG00000137714'
p3424
aS'ENSG00000178950'
p3425
aS'ENSG00000125337'
p3426
aS'ENSG00000103479'
p3427
aS'ENSG00000163389'
p3428
aS'ENSG00000102967'
p3429
aS'ENSG00000181873'
p3430
aS'ENSG00000196689'
p3431
atRp3432
ssS'magenta2'
p3433
(dp3434
g84
g85
((lp3435
S'ENSG00000136875'
p3436
aS'ENSG00000136932'
p3437
aS'ENSG00000128944'
p3438
aS'ENSG00000166451'
p3439
aS'ENSG00000112077'
p3440
aS'ENSG00000170291'
p3441
aS'ENSG00000105618'
p3442
aS'ENSG00000163684'
p3443
aS'ENSG00000103707'
p3444
aS'ENSG00000100461'
p3445
aS'ENSG00000092621'
p3446
aS'ENSG00000137074'
p3447
aS'ENSG00000163041'
p3448
atRp3449
ssS'sienna'
p3450
(dp3451
g4
(lp3452
(lp3453
S'ENSG00000117472'
p3454
aFinf
ag8
(g10
S'P\x02u$\xdb\xa3i?'
tRp3455
ag8
(g10
S'\xc0\xf0\xc5\xfe\x7f+\x83?'
tRp3456
aa(lp3457
g576
aFinf
ag8
(g10
S'Z\xf7t$\xdb\xa3\x99?'
tRp3458
ag8
(g10
S'\xd0\x9b\xb7\xee\xadQ\xa9?'
tRp3459
aa(lp3460
g65
aFinf
ag8
(g10
S'V\x1f\xc9\xf6h\x06\xa0?'
tRp3461
ag8
(g10
S'\xd0\x9b\xb7\xee\xadQ\xa9?'
tRp3462
aasg84
g85
((lp3463
S'ENSG00000113303'
p3464
aS'ENSG00000151690'
p3465
aS'ENSG00000119147'
p3466
aS'ENSG00000109794'
p3467
aS'ENSG00000213578'
p3468
aS'ENSG00000162437'
p3469
aS'ENSG00000242612'
p3470
aS'ENSG00000130332'
p3471
aS'ENSG00000130038'
p3472
aS'ENSG00000140506'
p3473
atRp3474
ssS'lightcoral'
p3475
(dp3476
g4
(lp3477
(lp3478
S'ENSG00000131242'
p3479
aFinf
ag8
(g10
S'1\xbeW[\xe4:s?'
tRp3480
ag8
(g10
S'\xa0\xf8\xf6dU\x97\xa0?'
tRp3481
aasg84
g85
((lp3482
S'ENSG00000147324'
p3483
aS'ENSG00000160191'
p3484
aS'ENSG00000198089'
p3485
aS'ENSG00000105974'
p3486
aS'ENSG00000058453'
p3487
aS'ENSG00000085563'
p3488
aS'ENSG00000080822'
p3489
aS'ENSG00000184470'
p3490
aS'ENSG00000106688'
p3491
aS'ENSG00000079308'
p3492
aS'ENSG00000125733'
p3493
aS'ENSG00000111837'
p3494
aS'ENSG00000099949'
p3495
aS'ENSG00000104728'
p3496
aS'ENSG00000068793'
p3497
aS'ENSG00000147408'
p3498
aS'ENSG00000162869'
p3499
atRp3500
ssS'orangered'
p3501
(dp3502
g84
g85
((lp3503
S'ENSG00000187783'
p3504
aS'ENSG00000115641'
p3505
aS'ENSG00000107954'
p3506
aS'ENSG00000050405'
p3507
aS'ENSG00000108846'
p3508
aS'ENSG00000168785'
p3509
aS'ENSG00000088881'
p3510
aS'ENSG00000151067'
p3511
aS'ENSG00000169302'
p3512
aS'ENSG00000163947'
p3513
aS'ENSG00000124406'
p3514
aS'ENSG00000127377'
p3515
aS'ENSG00000115107'
p3516
aS'ENSG00000087303'
p3517
atRp3518
ssS'navajowhite'
p3519
(dp3520
g4
(lp3521
(lp3522
g296
ag8
(g10
S'\x00\x00\x00\x00\x00\xd8s@'
tRp3523
ag8
(g10
S'\xe8\xb5\xef\x06-3\x83?'
tRp3524
ag8
(g10
S'\x80\xcbX\x85T\x18\x93?'
tRp3525
aa(lp3526
S'ENSG00000113248'
p3527
ag8
(g10
S'\x00\x00\x00\x00\x00\xe0\x83@'
tRp3528
ag8
(g10
S'\xe8\xee\x84A\xb6\x9ey?'
tRp3529
ag8
(g10
S'\x80\xcbX\x85T\x18\x93?'
tRp3530
aa(lp3531
S'ENSG00000168490'
p3532
ag8
(g10
S'\x00\x00\x00\x00\x00\xe0\x83@'
tRp3533
ag8
(g10
S'\xe8\xee\x84A\xb6\x9ey?'
tRp3534
ag8
(g10
S'\x80\xcbX\x85T\x18\x93?'
tRp3535
aasg84
g85
((lp3536
S'ENSG00000166896'
p3537
aS'ENSG00000146151'
p3538
aS'ENSG00000174226'
p3539
aS'ENSG00000013583'
p3540
aS'ENSG00000063854'
p3541
aS'ENSG00000182685'
p3542
aS'ENSG00000112761'
p3543
aS'ENSG00000184207'
p3544
aS'ENSG00000165060'
p3545
aS'ENSG00000105479'
p3546
aS'ENSG00000204149'
p3547
aS'ENSG00000140470'
p3548
aS'ENSG00000197181'
p3549
aS'ENSG00000166402'
p3550
atRp3551
ssS'pink3'
p3552
(dp3553
g4
(lp3554
(lp3555
g2461
ag8
(g10
S'\x00\x00\x00\x00\x00\xa8S@'
tRp3556
ag8
(g10
S'o0\x03\xa4\x90\xc8Q?'
tRp3557
ag8
(g10
S'@\xfeH1\xee\xb5\x8c?'
tRp3558
aasg84
g85
((lp3559
S'ENSG00000186529'
p3560
aS'ENSG00000184292'
p3561
aS'ENSG00000164825'
p3562
aS'ENSG00000167754'
p3563
aS'ENSG00000169035'
p3564
aS'ENSG00000186395'
p3565
aS'ENSG00000133710'
p3566
aS'ENSG00000176092'
p3567
aS'ENSG00000171989'
p3568
aS'ENSG00000126233'
p3569
aS'ENSG00000118017'
p3570
aS'ENSG00000143631'
p3571
aS'ENSG00000146067'
p3572
aS'ENSG00000158109'
p3573
atRp3574
ssS'pink2'
p3575
(dp3576
g84
g85
((lp3577
S'ENSG00000123349'
p3578
aS'ENSG00000150459'
p3579
aS'ENSG00000168259'
p3580
aS'ENSG00000134453'
p3581
aS'ENSG00000158417'
p3582
aS'ENSG00000150316'
p3583
aS'ENSG00000072864'
p3584
aS'ENSG00000134222'
p3585
aS'ENSG00000174652'
p3586
aS'ENSG00000164610'
p3587
aS'ENSG00000113068'
p3588
aS'ENSG00000139343'
p3589
atRp3590
ssS'burlywood'
p3591
(dp3592
g4
(lp3593
(lp3594
g440
aFinf
ag8
(g10
S'\xd4\xbbW[\xe4:\xa3?'
tRp3595
ag8
(g10
S'\xd0\xbbW[\xe4:\xa3?'
tRp3596
aasg84
g85
((lp3597
S'ENSG00000241186'
p3598
aS'ENSG00000136425'
p3599
aS'ENSG00000178075'
p3600
aS'ENSG00000197329'
p3601
aS'ENSG00000101665'
p3602
aS'ENSG00000248874'
p3603
aS'ENSG00000136717'
p3604
aS'ENSG00000182986'
p3605
aS'ENSG00000143195'
p3606
atRp3607
ssS'royalblue'
p3608
(dp3609
g84
g85
((lp3610
S'ENSG00000137168'
p3611
aS'ENSG00000188295'
p3612
aS'ENSG00000118096'
p3613
aS'ENSG00000071246'
p3614
aS'ENSG00000184787'
p3615
aS'ENSG00000198626'
p3616
aS'ENSG00000174306'
p3617
aS'ENSG00000176903'
p3618
aS'ENSG00000213214'
p3619
aS'ENSG00000100299'
p3620
aS'ENSG00000213889'
p3621
aS'ENSG00000130303'
p3622
aS'ENSG00000111671'
p3623
aS'ENSG00000151838'
p3624
aS'ENSG00000128656'
p3625
aS'ENSG00000137411'
p3626
aS'ENSG00000129055'
p3627
aS'ENSG00000129562'
p3628
aS'ENSG00000197410'
p3629
aS'ENSG00000049449'
p3630
aS'ENSG00000165929'
p3631
aS'ENSG00000170004'
p3632
aS'ENSG00000085063'
p3633
aS'ENSG00000140937'
p3634
aS'ENSG00000138759'
p3635
aS'ENSG00000010626'
p3636
atRp3637
ssS'blanchedalmond'
p3638
(dp3639
g4
(lp3640
(lp3641
S'ENSG00000134242'
p3642
aFinf
ag8
(g10
S't\xfdt$\xdb\xa3Y?'
tRp3643
ag8
(g10
S'\x00j\xae%13s?'
tRp3644
aa(lp3645
S'ENSG00000111424'
p3646
aFinf
ag8
(g10
S'P\x02u$\xdb\xa3i?'
tRp3647
ag8
(g10
S'\x00j\xae%13s?'
tRp3648
aa(lp3649
S'ENSG00000204060'
p3650
aFinf
ag8
(g10
S't\xfdt$\xdb\xa3Y?'
tRp3651
ag8
(g10
S'\x00j\xae%13s?'
tRp3652
aasg84
g85
((lp3653
S'ENSG00000165661'
p3654
aS'ENSG00000131389'
p3655
aS'ENSG00000144134'
p3656
aS'ENSG00000085465'
p3657
aS'ENSG00000126456'
p3658
aS'ENSG00000125885'
p3659
aS'ENSG00000001036'
p3660
aS'ENSG00000137513'
p3661
aS'ENSG00000164088'
p3662
atRp3663
ssS'peru'
p3664
(dp3665
g84
g85
((lp3666
S'ENSG00000186297'
p3667
aS'ENSG00000160282'
p3668
aS'ENSG00000174473'
p3669
aS'ENSG00000160284'
p3670
aS'ENSG00000140263'
p3671
aS'ENSG00000082293'
p3672
aS'ENSG00000171903'
p3673
atRp3674
ssS'white'
p3675
(dp3676
g4
(lp3677
(lp3678
S'ENSG00000101336'
p3679
ag8
(g10
S'fffff\xe6^@'
tRp3680
ag8
(g10
S'b\xe8>Sb\x14\xba='
tRp3681
ag8
(g10
S'\x00\x00\x00\x00\xeb_\x04>'
tRp3682
aa(lp3683
S'ENSG00000175489'
p3684
ag8
(g10
S'fffff\xe6^@'
tRp3685
ag8
(g10
S'b\xe8>Sb\x14\xba='
tRp3686
ag8
(g10
S'\x00\x00\x00\x00\xeb_\x04>'
tRp3687
aa(lp3688
S'ENSG00000122122'
p3689
ag8
(g10
S'\xa8[\xf3\xc3"eB@'
tRp3690
ag8
(g10
S'\x04\xf2\x0e\xe6l\xe2\t>'
tRp3691
ag8
(g10
S'\x00\x00\x00V\xbe\x9aR>'
tRp3692
aa(lp3693
S'ENSG00000143119'
p3694
ag8
(g10
S'\x00\x00\x00\x00\x00\xc8>@'
tRp3695
ag8
(g10
S'k\x0e\xd2W\x8c\x1f*>'
tRp3696
ag8
(g10
S'\x00\x00\x80m\xb0\xf5q>'
tRp3697
aa(lp3698
S'ENSG00000168995'
p3699
ag8
(g10
S'\x8e\xe38\x8e\xe38Q@'
tRp3700
ag8
(g10
S'\x93wtn>\x8b\xe2>'
tRp3701
ag8
(g10
S'\x00\x90\xe7\xe74V(?'
tRp3702
aa(lp3703
S'ENSG00000158869'
p3704
ag8
(g10
S'\x8e\xe38\x8e\xe38Q@'
tRp3705
ag8
(g10
S'\x93wtn>\x8b\xe2>'
tRp3706
ag8
(g10
S'\x00\x90\xe7\xe74V(?'
tRp3707
aa(lp3708
S'ENSG00000204472'
p3709
aFinf
ag8
(g10
S'@-F\xe16"\xeb>'
tRp3710
ag8
(g10
S'\x00\xe8\x04\xa6\xd5\x1b0?'
tRp3711
aa(lp3712
S'ENSG00000066336'
p3713
ag8
(g10
S'\x9a\x99\x99\x99\x99\x99D@'
tRp3714
ag8
(g10
S'{\x92\xeb\xbc\x030\x00?'
tRp3715
ag8
(g10
S'\x00\x08j\n\xcb4B?'
tRp3716
aa(lp3717
S'ENSG00000155659'
p3718
ag8
(g10
S'n\xdb\xb6m\xdb6V@'
tRp3719
ag8
(g10
S'\xee\xce\xb6\xaa\xf3\x82\\?'
tRp3720
ag8
(g10
S'\xc0H\xd6\x12\x1b\xe0\x9d?'
tRp3721
aa(lp3722
S'ENSG00000173369'
p3723
ag8
(g10
S'n\xdb\xb6m\xdb6V@'
tRp3724
ag8
(g10
S'\xee\xce\xb6\xaa\xf3\x82\\?'
tRp3725
ag8
(g10
S'\xc0H\xd6\x12\x1b\xe0\x9d?'
tRp3726
aa(lp3727
S'ENSG00000163220'
p3728
ag8
(g10
S'n\xdb\xb6m\xdb6V@'
tRp3729
ag8
(g10
S'\xee\xce\xb6\xaa\xf3\x82\\?'
tRp3730
ag8
(g10
S'\xc0H\xd6\x12\x1b\xe0\x9d?'
tRp3731
aa(lp3732
S'ENSG00000110079'
p3733
ag8
(g10
S'n\xdb\xb6m\xdb6V@'
tRp3734
ag8
(g10
S'\xee\xce\xb6\xaa\xf3\x82\\?'
tRp3735
ag8
(g10
S'\xc0H\xd6\x12\x1b\xe0\x9d?'
tRp3736
aa(lp3737
S'ENSG00000177575'
p3738
ag8
(g10
S'n\xdb\xb6m\xdb6V@'
tRp3739
ag8
(g10
S'\xee\xce\xb6\xaa\xf3\x82\\?'
tRp3740
ag8
(g10
S'\xc0H\xd6\x12\x1b\xe0\x9d?'
tRp3741
aa(lp3742
S'ENSG00000159189'
p3743
ag8
(g10
S'\xdb\xb6m\xdb\xb6-F@'
tRp3744
ag8
(g10
S'\x18B\xa7\xc1\x14\x18l?'
tRp3745
ag8
(g10
S'\xa0\xc0\xcb\xe6x\xad\xa4?'
tRp3746
aasg84
g85
((lp3747
S'ENSG00000161944'
p3748
aS'ENSG00000143546'
p3749
aS'ENSG00000125831'
p3750
aS'ENSG00000239998'
p3751
aS'ENSG00000091640'
p3752
aS'ENSG00000167851'
p3753
aS'ENSG00000007129'
p3754
aS'ENSG00000204472'
p3755
aS'ENSG00000129450'
p3756
aS'ENSG00000053524'
p3757
aS'ENSG00000155465'
p3758
aS'ENSG00000197256'
p3759
aS'ENSG00000169385'
p3760
aS'ENSG00000122547'
p3761
aS'ENSG00000203747'
p3762
aS'ENSG00000204482'
p3763
aS'ENSG00000163563'
p3764
aS'ENSG00000112799'
p3765
aS'ENSG00000104972'
p3766
aS'ENSG00000010327'
p3767
aS'ENSG00000213471'
p3768
aS'ENSG00000076513'
p3769
aS'ENSG00000119535'
p3770
aS'ENSG00000147654'
p3771
atRp3772
ssS'tan4'
p3773
(dp3774
g84
g85
((lp3775
S'ENSG00000145777'
p3776
aS'ENSG00000111358'
p3777
aS'ENSG00000161243'
p3778
aS'ENSG00000162814'
p3779
aS'ENSG00000168779'
p3780
aS'ENSG00000159733'
p3781
aS'ENSG00000137821'
p3782
aS'ENSG00000113318'
p3783
aS'ENSG00000198754'
p3784
aS'ENSG00000157322'
p3785
aS'ENSG00000205084'
p3786
aS'ENSG00000185527'
p3787
aS'ENSG00000047578'
p3788
aS'ENSG00000144559'
p3789
aS'ENSG00000185988'
p3790
atRp3791
ssS'tan3'
p3792
(dp3793
g84
g85
((lp3794
S'ENSG00000115902'
p3795
aS'ENSG00000182827'
p3796
aS'ENSG00000013375'
p3797
aS'ENSG00000150961'
p3798
aS'ENSG00000176142'
p3799
aS'ENSG00000144591'
p3800
aS'ENSG00000185808'
p3801
aS'ENSG00000089847'
p3802
aS'ENSG00000198380'
p3803
aS'ENSG00000085449'
p3804
aS'ENSG00000179057'
p3805
aS'ENSG00000155660'
p3806
aS'ENSG00000100219'
p3807
atRp3808
ssS'tan2'
p3809
(dp3810
g84
g85
((lp3811
S'ENSG00000113083'
p3812
aS'ENSG00000175893'
p3813
aS'ENSG00000164187'
p3814
aS'ENSG00000071462'
p3815
aS'ENSG00000174775'
p3816
aS'ENSG00000075303'
p3817
aS'ENSG00000268091'
p3818
aS'ENSG00000109163'
p3819
aS'ENSG00000197360'
p3820
aS'ENSG00000031691'
p3821
aS'ENSG00000188199'
p3822
atRp3823
ssS'tan1'
p3824
(dp3825
g84
g85
((lp3826
S'ENSG00000065809'
p3827
aS'ENSG00000064835'
p3828
aS'ENSG00000112159'
p3829
aS'ENSG00000165895'
p3830
aS'ENSG00000116830'
p3831
aS'ENSG00000143772'
p3832
aS'ENSG00000165392'
p3833
aS'ENSG00000012232'
p3834
aS'ENSG00000185324'
p3835
atRp3836
ssS'tomato'
p3837
(dp3838
g4
(lp3839
(lp3840
S'ENSG00000149596'
p3841
aFinf
ag8
(g10
S't\xfdt$\xdb\xa3Y?'
tRp3842
ag8
(g10
S'\x80\xe0{\x14.\xf3\x7f?'
tRp3843
aa(lp3844
S'ENSG00000100628'
p3845
aFinf
ag8
(g10
S't\xfdt$\xdb\xa3Y?'
tRp3846
ag8
(g10
S'\x80\xe0{\x14.\xf3\x7f?'
tRp3847
aa(lp3848
g194
aFinf
ag8
(g10
S'F!\xc9\xf6h\x06\x80?'
tRp3849
ag8
(g10
S'\xa0{7\xdd#\x1c\x93?'
tRp3850
aa(lp3851
g198
aFinf
ag8
(g10
S't\xfat$\xdb\xa3y?'
tRp3852
ag8
(g10
S'\xa0{7\xdd#\x1c\x93?'
tRp3853
aa(lp3854
S'ENSG00000128591'
p3855
aFinf
ag8
(g10
S'P\xfft$\xdb\xa3\x89?'
tRp3856
ag8
(g10
S'\xa0{7\xdd#\x1c\x93?'
tRp3857
aasg84
g85
((lp3858
S'ENSG00000173641'
p3859
aS'ENSG00000107863'
p3860
aS'ENSG00000184203'
p3861
aS'ENSG00000153786'
p3862
aS'ENSG00000136874'
p3863
aS'ENSG00000099889'
p3864
aS'ENSG00000140575'
p3865
aS'ENSG00000050820'
p3866
aS'ENSG00000164010'
p3867
aS'ENSG00000257949'
p3868
aS'ENSG00000132388'
p3869
aS'ENSG00000128039'
p3870
aS'ENSG00000181027'
p3871
atRp3872
ssS'ivory'
p3873
(dp3874
g4
(lp3875
(lp3876
S'ENSG00000116824'
p3877
aFinf
ag8
(g10
S'[.\x10\xc7\xeb\xd7E>'
tRp3878
ag8
(g10
S'\x00\x00@\x80o\xbf\x81>'
tRp3879
aasg84
g85
((lp3880
S'ENSG00000171033'
p3881
aS'ENSG00000172543'
p3882
aS'ENSG00000047365'
p3883
aS'ENSG00000160185'
p3884
aS'ENSG00000113088'
p3885
aS'ENSG00000026950'
p3886
aS'ENSG00000082805'
p3887
aS'ENSG00000186470'
p3888
aS'ENSG00000154710'
p3889
aS'ENSG00000100453'
p3890
aS'ENSG00000106948'
p3891
aS'ENSG00000109180'
p3892
aS'ENSG00000116824'
p3893
aS'ENSG00000130787'
p3894
aS'ENSG00000145649'
p3895
aS'ENSG00000143185'
p3896
aS'ENSG00000197540'
p3897
aS'ENSG00000067248'
p3898
aS'ENSG00000111796'
p3899
aS'ENSG00000162928'
p3900
atRp3901
ssS'lightyellow'
p3902
(dp3903
g4
(lp3904
(lp3905
S'ENSG00000167768'
p3906
aFinf
ag8
(g10
S'\x81\xfdt$\xdb\xa3i?'
tRp3907
ag8
(g10
S'@ \x80\\f\\\x99?'
tRp3908
aa(lp3909
g1113
ag8
(g10
S'\x00\x00\x00\x00\x00\xe0\x83@'
tRp3910
ag8
(g10
S'\xe8\xee\x84A\xb6\x9ey?'
tRp3911
ag8
(g10
S'`\xa3]\xffL\x00\xa6?'
tRp3912
aasg84
g85
((lp3913
S'ENSG00000169733'
p3914
aS'ENSG00000112365'
p3915
aS'ENSG00000123143'
p3916
aS'ENSG00000063245'
p3917
aS'ENSG00000138795'
p3918
aS'ENSG00000131697'
p3919
aS'ENSG00000205609'
p3920
aS'ENSG00000169203'
p3921
aS'ENSG00000172175'
p3922
aS'ENSG00000204169'
p3923
aS'ENSG00000177697'
p3924
aS'ENSG00000180104'
p3925
aS'ENSG00000133243'
p3926
aS'ENSG00000188976'
p3927
aS'ENSG00000104731'
p3928
aS'ENSG00000146574'
p3929
aS'ENSG00000122512'
p3930
aS'ENSG00000095321'
p3931
aS'ENSG00000147852'
p3932
aS'ENSG00000222014'
p3933
aS'ENSG00000111581'
p3934
aS'ENSG00000186844'
p3935
aS'ENSG00000204463'
p3936
aS'ENSG00000108064'
p3937
aS'ENSG00000138095'
p3938
aS'ENSG00000234719'
p3939
atRp3940
ssS'lightgreen'
p3941
(dp3942
g4
(lp3943
(lp3944
S'ENSG00000198125'
p3945
aFinf
ag8
(g10
S'P\x02u$\xdb\xa3i?'
tRp3946
ag8
(g10
S' $\x80\\f\\\x99?'
tRp3947
aa(lp3948
S'ENSG00000077009'
p3949
aFinf
ag8
(g10
S'P\x02u$\xdb\xa3i?'
tRp3950
ag8
(g10
S' $\x80\\f\\\x99?'
tRp3951
aa(lp3952
S'ENSG00000072195'
p3953
aFinf
ag8
(g10
S'P\x02u$\xdb\xa3i?'
tRp3954
ag8
(g10
S' $\x80\\f\\\x99?'
tRp3955
aa(lp3956
g1209
aFinf
ag8
(g10
S'M\x1c\xc9\xf6h\x06\x90?'
tRp3957
ag8
(g10
S'\x00j\xee\x82\xbd\xa6\x9f?'
tRp3958
aa(lp3959
S'ENSG00000172403'
p3960
aFinf
ag8
(g10
S't\xfat$\xdb\xa3y?'
tRp3961
ag8
(g10
S'\x00j\xee\x82\xbd\xa6\x9f?'
tRp3962
aa(lp3963
g1214
aFinf
ag8
(g10
S'F!\xc9\xf6h\x06\x80?'
tRp3964
ag8
(g10
S'\x00j\xee\x82\xbd\xa6\x9f?'
tRp3965
aa(lp3966
S'ENSG00000022267'
p3967
aFinf
ag8
(g10
S't\xfat$\xdb\xa3y?'
tRp3968
ag8
(g10
S'\x00j\xee\x82\xbd\xa6\x9f?'
tRp3969
aa(lp3970
g3855
aFinf
ag8
(g10
S'P\xfft$\xdb\xa3\x89?'
tRp3971
ag8
(g10
S'\x00j\xee\x82\xbd\xa6\x9f?'
tRp3972
aasg84
g85
((lp3973
S'ENSG00000100284'
p3974
aS'ENSG00000182362'
p3975
aS'ENSG00000151292'
p3976
aS'ENSG00000004975'
p3977
aS'ENSG00000172399'
p3978
aS'ENSG00000076924'
p3979
aS'ENSG00000186716'
p3980
aS'ENSG00000160392'
p3981
aS'ENSG00000187792'
p3982
aS'ENSG00000146453'
p3983
aS'ENSG00000158987'
p3984
aS'ENSG00000025770'
p3985
aS'ENSG00000107036'
p3986
aS'ENSG00000155906'
p3987
aS'ENSG00000198892'
p3988
aS'ENSG00000105298'
p3989
aS'ENSG00000118939'
p3990
aS'ENSG00000117222'
p3991
aS'ENSG00000139350'
p3992
aS'ENSG00000214078'
p3993
aS'ENSG00000100003'
p3994
aS'ENSG00000198815'
p3995
aS'ENSG00000160360'
p3996
aS'ENSG00000121350'
p3997
aS'ENSG00000135093'
p3998
aS'ENSG00000140931'
p3999
atRp4000
ssS'lightpink2'
p4001
(dp4002
g84
g85
((lp4003
S'ENSG00000187049'
p4004
aS'ENSG00000129667'
p4005
aS'ENSG00000129673'
p4006
aS'ENSG00000166619'
p4007
aS'ENSG00000144566'
p4008
aS'ENSG00000160094'
p4009
aS'ENSG00000082898'
p4010
aS'ENSG00000142102'
p4011
aS'ENSG00000180263'
p4012
aS'ENSG00000073584'
p4013
aS'ENSG00000151612'
p4014
aS'ENSG00000213139'
p4015
aS'ENSG00000135842'
p4016
aS'ENSG00000154229'
p4017
atRp4018
ssS'lightpink3'
p4019
(dp4020
g84
g85
((lp4021
S'ENSG00000110628'
p4022
aS'ENSG00000124209'
p4023
aS'ENSG00000161958'
p4024
aS'ENSG00000182512'
p4025
aS'ENSG00000188747'
p4026
aS'ENSG00000035115'
p4027
aS'ENSG00000137492'
p4028
aS'ENSG00000121579'
p4029
aS'ENSG00000127249'
p4030
aS'ENSG00000120705'
p4031
aS'ENSG00000100744'
p4032
aS'ENSG00000182372'
p4033
aS'ENSG00000169139'
p4034
aS'ENSG00000176209'
p4035
aS'ENSG00000105968'
p4036
aS'ENSG00000163682'
p4037
atRp4038
ssS'lightpink1'
p4039
(dp4040
g4
(lp4041
(lp4042
S'ENSG00000129159'
p4043
aFinf
ag8
(g10
S'\x81\xfdt$\xdb\xa3i?'
tRp4044
ag8
(g10
S'\xc0\xed\xc5\xfe\x7f+\x83?'
tRp4045
aa(lp4046
S'ENSG00000132872'
p4047
ag8
(g10
S'\x00\x00\x00\x00\x00\xd8s@'
tRp4048
ag8
(g10
S'\xe8\xb5\xef\x06-3\x83?'
tRp4049
ag8
(g10
S'@\xba\x9213\x8a\x89?'
tRp4050
aa(lp4051
S'ENSG00000144834'
p4052
ag8
(g10
S'\x00\x00\x00\x00\x00\xe0\x83@'
tRp4053
ag8
(g10
S'\xe8\xee\x84A\xb6\x9ey?'
tRp4054
ag8
(g10
S'@\xba\x9213\x8a\x89?'
tRp4055
aasg84
g85
((lp4056
S'ENSG00000127955'
p4057
aS'ENSG00000161010'
p4058
aS'ENSG00000148291'
p4059
aS'ENSG00000159055'
p4060
aS'ENSG00000089006'
p4061
aS'ENSG00000170322'
p4062
aS'ENSG00000169371'
p4063
aS'ENSG00000040531'
p4064
aS'ENSG00000182601'
p4065
aS'ENSG00000165684'
p4066
aS'ENSG00000179242'
p4067
aS'ENSG00000132436'
p4068
aS'ENSG00000119328'
p4069
atRp4070
ssS'darkgrey'
p4071
(dp4072
g4
(lp4073
(lp4074
S'ENSG00000136167'
p4075
aFinf
ag8
(g10
S'P\xfft$\xdb\xa3\x89?'
tRp4076
ag8
(g10
S'@\xfft$\xdb\xa3\x89?'
tRp4077
aasg84
g85
((lp4078
S'ENSG00000106263'
p4079
aS'ENSG00000169499'
p4080
aS'ENSG00000196381'
p4081
aS'ENSG00000116406'
p4082
aS'ENSG00000172878'
p4083
aS'ENSG00000164068'
p4084
aS'ENSG00000138380'
p4085
aS'ENSG00000185238'
p4086
aS'ENSG00000184220'
p4087
aS'ENSG00000184178'
p4088
aS'ENSG00000175711'
p4089
aS'ENSG00000101639'
p4090
aS'ENSG00000160803'
p4091
aS'ENSG00000103148'
p4092
aS'ENSG00000143486'
p4093
aS'ENSG00000032444'
p4094
aS'ENSG00000213339'
p4095
aS'ENSG00000161618'
p4096
aS'ENSG00000115419'
p4097
aS'ENSG00000104835'
p4098
aS'ENSG00000136854'
p4099
aS'ENSG00000188878'
p4100
aS'ENSG00000180549'
p4101
aS'ENSG00000156042'
p4102
aS'ENSG00000131149'
p4103
aS'ENSG00000165487'
p4104
atRp4105
ssS'lightpink4'
p4106
(dp4107
g4
(lp4108
(lp4109
S'ENSG00000188086'
p4110
ag8
(g10
S'\xab\xaa\xaa\xaa\xaajj@'
tRp4111
ag8
(g10
S'\x03\xe5\xa4{l\x94\x89?'
tRp4112
ag8
(g10
S'\xc0\xb2\xc8G\x87k\x99?'
tRp4113
aa(lp4114
S'ENSG00000107796'
p4115
ag8
(g10
S'\x00\x00\x00\x00\x00`Z@'
tRp4116
ag8
(g10
S'\x94T\xd4\x91\xc4#\x93?'
tRp4117
ag8
(g10
S'\xc0\xb2\xc8G\x87k\x99?'
tRp4118
aasg84
g85
((lp4119
S'ENSG00000088053'
p4120
aS'ENSG00000112276'
p4121
aS'ENSG00000131471'
p4122
aS'ENSG00000072163'
p4123
aS'ENSG00000092841'
p4124
aS'ENSG00000006530'
p4125
aS'ENSG00000168938'
p4126
aS'ENSG00000175920'
p4127
aS'ENSG00000107796'
p4128
aS'ENSG00000136449'
p4129
aS'ENSG00000167641'
p4130
aS'ENSG00000186792'
p4131
aS'ENSG00000182208'
p4132
aS'ENSG00000116962'
p4133
aS'ENSG00000173992'
p4134
aS'ENSG00000196476'
p4135
aS'ENSG00000155792'
p4136
aS'ENSG00000167535'
p4137
atRp4138
ssS'darkolivegreen1'
p4139
(dp4140
g84
g85
((lp4141
S'ENSG00000188659'
p4142
aS'ENSG00000136271'
p4143
aS'ENSG00000117280'
p4144
aS'ENSG00000120539'
p4145
aS'ENSG00000173338'
p4146
aS'ENSG00000198046'
p4147
aS'ENSG00000152782'
p4148
aS'ENSG00000197168'
p4149
aS'ENSG00000099849'
p4150
aS'ENSG00000138346'
p4151
aS'ENSG00000116031'
p4152
aS'ENSG00000116039'
p4153
aS'ENSG00000183527'
p4154
aS'ENSG00000152672'
p4155
atRp4156
ssS'antiquewhite'
p4157
(dp4158
g84
g85
((lp4159
S'ENSG00000104870'
p4160
aS'ENSG00000173391'
p4161
aS'ENSG00000166927'
p4162
aS'ENSG00000145919'
p4163
aS'ENSG00000254614'
p4164
aS'ENSG00000166928'
p4165
aS'ENSG00000268838'
p4166
aS'ENSG00000180481'
p4167
aS'ENSG00000135480'
p4168
aS'ENSG00000100979'
p4169
atRp4170
ssS'darkorange2'
p4171
(dp4172
g84
g85
((lp4173
S'ENSG00000166908'
p4174
aS'ENSG00000080815'
p4175
aS'ENSG00000181045'
p4176
aS'ENSG00000075399'
p4177
aS'ENSG00000204839'
p4178
aS'ENSG00000138641'
p4179
aS'ENSG00000169894'
p4180
aS'ENSG00000071894'
p4181
aS'ENSG00000115310'
p4182
aS'ENSG00000154265'
p4183
aS'ENSG00000240344'
p4184
aS'ENSG00000006432'
p4185
aS'ENSG00000168591'
p4186
aS'ENSG00000170632'
p4187
aS'ENSG00000168734'
p4188
aS'ENSG00000173137'
p4189
aS'ENSG00000171385'
p4190
aS'ENSG00000136710'
p4191
aS'ENSG00000113971'
p4192
aS'ENSG00000182575'
p4193
atRp4194
ssS'cornsilk2'
p4195
(dp4196
g4
(lp4197
(lp4198
S'ENSG00000115138'
p4199
aFinf
ag8
(g10
S't\xfdt$\xdb\xa3Y?'
tRp4200
ag8
(g10
S'\x00j\xae%13s?'
tRp4201
aa(lp4202
g3327
aFinf
ag8
(g10
S'o\xbaW[\xe4:s?'
tRp4203
ag8
(g10
S'\x80\x19\xc9\xffU/\x83?'
tRp4204
aa(lp4205
g3332
aFinf
ag8
(g10
S'o\xbaW[\xe4:s?'
tRp4206
ag8
(g10
S'\x80\x19\xc9\xffU/\x83?'
tRp4207
aasg84
g85
((lp4208
S'ENSG00000070718'
p4209
aS'ENSG00000151500'
p4210
aS'ENSG00000112218'
p4211
aS'ENSG00000141084'
p4212
aS'ENSG00000259384'
p4213
aS'ENSG00000163536'
p4214
aS'ENSG00000134283'
p4215
aS'ENSG00000163138'
p4216
atRp4217
ssS'moccasin'
p4218
(dp4219
g4
(lp4220
(lp4221
S'ENSG00000179776'
p4222
aFinf
ag8
(g10
S'\x81\xfdt$\xdb\xa3i?'
tRp4223
ag8
(g10
S'\x00Qx\xeb7\x9a\x9f?'
tRp4224
aasg84
g85
((lp4225
S'ENSG00000125845'
p4226
aS'ENSG00000143502'
p4227
aS'ENSG00000103510'
p4228
aS'ENSG00000026103'
p4229
aS'ENSG00000087365'
p4230
aS'ENSG00000127948'
p4231
aS'ENSG00000165959'
p4232
aS'ENSG00000100106'
p4233
aS'ENSG00000154928'
p4234
aS'ENSG00000083168'
p4235
aS'ENSG00000100234'
p4236
aS'ENSG00000105426'
p4237
aS'ENSG00000248487'
p4238
atRp4239
ssS'chocolate1'
p4240
(dp4241
g84
g85
((lp4242
S'ENSG00000213402'
p4243
aS'ENSG00000205572'
p4244
aS'ENSG00000205571'
p4245
aS'ENSG00000172062'
p4246
aS'ENSG00000183111'
p4247
aS'ENSG00000184389'
p4248
aS'ENSG00000125375'
p4249
aS'ENSG00000185298'
p4250
atRp4251
ssS'chocolate2'
p4252
(dp4253
g84
g85
((lp4254
S'ENSG00000175575'
p4255
aS'ENSG00000070010'
p4256
aS'ENSG00000152926'
p4257
aS'ENSG00000213462'
p4258
aS'ENSG00000188227'
p4259
aS'ENSG00000160188'
p4260
aS'ENSG00000104059'
p4261
aS'ENSG00000159210'
p4262
aS'ENSG00000173436'
p4263
aS'ENSG00000123427'
p4264
atRp4265
ssS'chocolate3'
p4266
(dp4267
g4
(lp4268
(lp4269
S'ENSG00000163751'
p4270
ag8
(g10
S'\x00\x00\x00\x00\x00@j@'
tRp4271
ag8
(g10
S'6\x85\xcfz=\xd6:?'
tRp4272
ag8
(g10
S'\x80Q\x10(`\xc0u?'
tRp4273
aasg84
g85
((lp4274
S'ENSG00000120833'
p4275
aS'ENSG00000110848'
p4276
aS'ENSG00000255587'
p4277
aS'ENSG00000185565'
p4278
aS'ENSG00000095917'
p4279
aS'ENSG00000105695'
p4280
aS'ENSG00000128989'
p4281
aS'ENSG00000127507'
p4282
aS'ENSG00000115604'
p4283
aS'ENSG00000110455'
p4284
aS'ENSG00000140287'
p4285
aS'ENSG00000012124'
p4286
atRp4287
ssS'chocolate4'
p4288
(dp4289
g84
g85
((lp4290
S'ENSG00000163156'
p4291
aS'ENSG00000136010'
p4292
aS'ENSG00000100350'
p4293
aS'ENSG00000119632'
p4294
aS'ENSG00000144455'
p4295
aS'ENSG00000182263'
p4296
aS'ENSG00000066379'
p4297
aS'ENSG00000127463'
p4298
aS'ENSG00000153208'
p4299
aS'ENSG00000178381'
p4300
aS'ENSG00000126088'
p4301
aS'ENSG00000171310'
p4302
aS'ENSG00000170445'
p4303
aS'ENSG00000144230'
p4304
atRp4305
ssS'darkslateblue'
p4306
(dp4307
g84
g85
((lp4308
S'ENSG00000119509'
p4309
aS'ENSG00000099984'
p4310
aS'ENSG00000176723'
p4311
aS'ENSG00000188086'
p4312
aS'ENSG00000164414'
p4313
aS'ENSG00000091157'
p4314
aS'ENSG00000189366'
p4315
aS'ENSG00000146054'
p4316
aS'ENSG00000138829'
p4317
aS'ENSG00000198673'
p4318
aS'ENSG00000133433'
p4319
aS'ENSG00000183077'
p4320
aS'ENSG00000175170'
p4321
aS'ENSG00000169282'
p4322
aS'ENSG00000180185'
p4323
aS'ENSG00000206549'
p4324
aS'ENSG00000099974'
p4325
aS'ENSG00000168827'
p4326
aS'ENSG00000134115'
p4327
atRp4328
ssS'salmon1'
p4329
(dp4330
g4
(lp4331
(lp4332
S'ENSG00000205307'
p4333
aFinf
ag8
(g10
S't\xfdt$\xdb\xa3Y?'
tRp4334
ag8
(g10
S'\x00\xfet$\xdb\xa3Y?'
tRp4335
aasg84
g85
((lp4336
S'ENSG00000144214'
p4337
aS'ENSG00000105186'
p4338
aS'ENSG00000186409'
p4339
aS'ENSG00000151466'
p4340
aS'ENSG00000153157'
p4341
aS'ENSG00000185955'
p4342
aS'ENSG00000198150'
p4343
aS'ENSG00000183354'
p4344
aS'ENSG00000178187'
p4345
aS'ENSG00000089177'
p4346
aS'ENSG00000070476'
p4347
aS'ENSG00000129646'
p4348
aS'ENSG00000130035'
p4349
aS'ENSG00000174197'
p4350
aS'ENSG00000006114'
p4351
atRp4352
ssS'deeppink'
p4353
(dp4354
g4
(lp4355
(lp4356
S'ENSG00000185681'
p4357
aFinf
ag8
(g10
S't\xfdt$\xdb\xa3Y?'
tRp4358
ag8
(g10
S'\x00j\xae%13s?'
tRp4359
aa(lp4360
S'ENSG00000130413'
p4361
aFinf
ag8
(g10
S'P\x02u$\xdb\xa3i?'
tRp4362
ag8
(g10
S'\x80V\xbd}\x95\x99y?'
tRp4363
aa(lp4364
g2635
aFinf
ag8
(g10
S'o\xbaW[\xe4:s?'
tRp4365
ag8
(g10
S'\x80V\xbd}\x95\x99y?'
tRp4366
aasg84
g85
((lp4367
S'ENSG00000160949'
p4368
aS'ENSG00000103202'
p4369
aS'ENSG00000141519'
p4370
aS'ENSG00000141576'
p4371
aS'ENSG00000213694'
p4372
aS'ENSG00000168952'
p4373
aS'ENSG00000141425'
p4374
aS'ENSG00000163785'
p4375
aS'ENSG00000100580'
p4376
aS'ENSG00000164764'
p4377
aS'ENSG00000102981'
p4378
aS'ENSG00000151239'
p4379
aS'ENSG00000135698'
p4380
aS'ENSG00000101265'
p4381
aS'ENSG00000148175'
p4382
atRp4383
ssS'plum'
p4384
(dp4385
g4
(lp4386
(lp4387
g4075
ag8
(g10
S'\x00\x00\x00\x00\x00@O@'
tRp4388
ag8
(g10
S'\xa9B\x97\xac\xbb~\x1b?'
tRp4389
ag8
(g10
S'\x00zxP\xc9\xbci?'
tRp4390
aasg84
g85
((lp4391
S'ENSG00000127947'
p4392
aS'ENSG00000126264'
p4393
aS'ENSG00000120586'
p4394
aS'ENSG00000203710'
p4395
aS'ENSG00000188868'
p4396
aS'ENSG00000213654'
p4397
aS'ENSG00000145416'
p4398
aS'ENSG00000178150'
p4399
aS'ENSG00000180353'
p4400
aS'ENSG00000028137'
p4401
aS'ENSG00000180448'
p4402
aS'ENSG00000072694'
p4403
aS'ENSG00000136541'
p4404
aS'ENSG00000108556'
p4405
aS'ENSG00000090382'
p4406
aS'ENSG00000254415'
p4407
aS'ENSG00000107485'
p4408
atRp4409
ssS'thistle'
p4410
(dp4411
g84
g85
((lp4412
S'ENSG00000213676'
p4413
aS'ENSG00000137496'
p4414
aS'ENSG00000165131'
p4415
aS'ENSG00000166913'
p4416
aS'ENSG00000124613'
p4417
aS'ENSG00000128791'
p4418
aS'ENSG00000149499'
p4419
aS'ENSG00000162836'
p4420
aS'ENSG00000225119'
p4421
aS'ENSG00000112394'
p4422
aS'ENSG00000186889'
p4423
aS'ENSG00000123374'
p4424
aS'ENSG00000138772'
p4425
aS'ENSG00000138698'
p4426
aS'ENSG00000112308'
p4427
aS'ENSG00000204020'
p4428
aS'ENSG00000164896'
p4429
atRp4430
ssS'violet'
p4431
(dp4432
g84
g85
((lp4433
S'ENSG00000162761'
p4434
aS'ENSG00000197953'
p4435
aS'ENSG00000092068'
p4436
aS'ENSG00000166016'
p4437
aS'ENSG00000205517'
p4438
aS'ENSG00000153404'
p4439
aS'ENSG00000158856'
p4440
aS'ENSG00000267534'
p4441
aS'ENSG00000168079'
p4442
aS'ENSG00000009950'
p4443
aS'ENSG00000109819'
p4444
aS'ENSG00000128274'
p4445
aS'ENSG00000173727'
p4446
aS'ENSG00000071967'
p4447
aS'ENSG00000166923'
p4448
aS'ENSG00000167780'
p4449
aS'ENSG00000161813'
p4450
aS'ENSG00000186868'
p4451
aS'ENSG00000055483'
p4452
aS'ENSG00000167779'
p4453
aS'ENSG00000137869'
p4454
aS'ENSG00000135926'
p4455
atRp4456
ssS'red1'
p4457
(dp4458
g84
g85
((lp4459
S'ENSG00000254636'
p4460
aS'ENSG00000183032'
p4461
aS'ENSG00000092094'
p4462
aS'ENSG00000214309'
p4463
aS'ENSG00000186567'
p4464
aS'ENSG00000169062'
p4465
aS'ENSG00000136147'
p4466
aS'ENSG00000121390'
p4467
aS'ENSG00000162929'
p4468
atRp4469
ssS'maroon'
p4470
(dp4471
g4
(lp4472
(lp4473
g3694
ag8
(g10
S'KKKKKKG@'
tRp4474
ag8
(g10
S'Zs\xc7\xdd>Z[>'
tRp4475
ag8
(g10
S'\x00\x00\x00\xf58\xf3\xa1>'
tRp4476
aa(lp4477
g3689
ag8
(g10
S'\x11\x11\x11\x11\x11qA@'
tRp4478
ag8
(g10
S'\xc1\x90\x85\x00F\t\x97>'
tRp4479
ag8
(g10
S'\x00\x006Y\x91\xcb\xdc>'
tRp4480
aa(lp4481
S'ENSG00000043462'
p4482
ag8
(g10
S'\xe9\xa2\x8b.\xba\x085@'
tRp4483
ag8
(g10
S'_\x01\xd7\xe12zT?'
tRp4484
ag8
(g10
S"\x80'b\xc2\x94\x0b\x98?"
tRp4485
aasg84
g85
((lp4486
S'ENSG00000196189'
p4487
aS'ENSG00000158717'
p4488
aS'ENSG00000240505'
p4489
aS'ENSG00000009790'
p4490
aS'ENSG00000139193'
p4491
aS'ENSG00000076662'
p4492
aS'ENSG00000167664'
p4493
aS'ENSG00000214688'
p4494
aS'ENSG00000185811'
p4495
aS'ENSG00000137709'
p4496
aS'ENSG00000012779'
p4497
aS'ENSG00000128340'
p4498
aS'ENSG00000187764'
p4499
aS'ENSG00000127084'
p4500
aS'ENSG00000125637'
p4501
aS'ENSG00000112195'
p4502
aS'ENSG00000124256'
p4503
aS'ENSG00000188389'
p4504
atRp4505
ssS'lightcyan1'
p4506
(dp4507
g84
g85
((lp4508
S'ENSG00000109846'
p4509
aS'ENSG00000171471'
p4510
aS'ENSG00000161281'
p4511
aS'ENSG00000232112'
p4512
aS'ENSG00000170906'
p4513
aS'ENSG00000179085'
p4514
aS'ENSG00000239382'
p4515
aS'ENSG00000184779'
p4516
aS'ENSG00000106803'
p4517
aS'ENSG00000160213'
p4518
aS'ENSG00000134825'
p4519
aS'ENSG00000054983'
p4520
aS'ENSG00000005955'
p4521
aS'ENSG00000089693'
p4522
aS'ENSG00000161647'
p4523
aS'ENSG00000132507'
p4524
aS'ENSG00000228474'
p4525
aS'ENSG00000173486'
p4526
aS'ENSG00000162738'
p4527
aS'ENSG00000126457'
p4528
atRp4529
ssS'magenta'
p4530
(dp4531
g84
g85
((lp4532
S'ENSG00000189058'
p4533
aS'ENSG00000141076'
p4534
aS'ENSG00000129596'
p4535
aS'ENSG00000173918'
p4536
aS'ENSG00000177098'
p4537
aS'ENSG00000084072'
p4538
aS'ENSG00000182533'
p4539
aS'ENSG00000272573'
p4540
aS'ENSG00000131055'
p4541
aS'ENSG00000117595'
p4542
aS'ENSG00000140538'
p4543
aS'ENSG00000187013'
p4544
aS'ENSG00000151468'
p4545
aS'ENSG00000130244'
p4546
aS'ENSG00000162616'
p4547
aS'ENSG00000160013'
p4548
aS'ENSG00000151789'
p4549
aS'ENSG00000203872'
p4550
aS'ENSG00000184584'
p4551
aS'ENSG00000197927'
p4552
aS'ENSG00000102606'
p4553
aS'ENSG00000158825'
p4554
aS'ENSG00000181649'
p4555
aS'ENSG00000235162'
p4556
aS'ENSG00000164761'
p4557
aS'ENSG00000269558'
p4558
aS'ENSG00000135547'
p4559
aS'ENSG00000183718'
p4560
aS'ENSG00000157766'
p4561
aS'ENSG00000065029'
p4562
aS'ENSG00000162623'
p4563
aS'ENSG00000115468'
p4564
atRp4565
ssS'mistyrose3'
p4566
(dp4567
g4
(lp4568
(lp4569
S'ENSG00000125869'
p4570
aFinf
ag8
(g10
S't\xfdt$\xdb\xa3Y?'
tRp4571
ag8
(g10
S'\x00(\x19Q\xb8\x9ei?'
tRp4572
aa(lp4573
S'ENSG00000198216'
p4574
aFinf
ag8
(g10
S"'\xbeW[\xe4:\x83?"
tRp4575
ag8
(g10
S'@\xbeW[\xe4:\x83?'
tRp4576
aasg84
g85
((lp4577
S'ENSG00000140905'
p4578
aS'ENSG00000175344'
p4579
aS'ENSG00000173156'
p4580
aS'ENSG00000197915'
p4581
aS'ENSG00000261794'
p4582
aS'ENSG00000169436'
p4583
aS'ENSG00000166664'
p4584
aS'ENSG00000198203'
p4585
atRp4586
ssS'seashell4'
p4587
(dp4588
g4
(lp4589
(lp4590
g3855
aFinf
ag8
(g10
S'P\xfft$\xdb\xa3\x89?'
tRp4591
ag8
(g10
S'@\xfft$\xdb\xa3\x89?'
tRp4592
aasg84
g85
((lp4593
S'ENSG00000166135'
p4594
aS'ENSG00000130684'
p4595
aS'ENSG00000140995'
p4596
aS'ENSG00000139675'
p4597
aS'ENSG00000134775'
p4598
aS'ENSG00000165626'
p4599
aS'ENSG00000146830'
p4600
atRp4601
ssS'pink'
p4602
(dp4603
g84
g85
((lp4604
S'ENSG00000073060'
p4605
aS'ENSG00000197775'
p4606
aS'ENSG00000168404'
p4607
aS'ENSG00000108179'
p4608
aS'ENSG00000255284'
p4609
aS'ENSG00000214106'
p4610
aS'ENSG00000154518'
p4611
aS'ENSG00000172977'
p4612
aS'ENSG00000006695'
p4613
aS'ENSG00000160194'
p4614
aS'ENSG00000087884'
p4615
aS'ENSG00000168993'
p4616
aS'ENSG00000169981'
p4617
aS'ENSG00000188511'
p4618
aS'ENSG00000132313'
p4619
aS'ENSG00000120915'
p4620
aS'ENSG00000129451'
p4621
aS'ENSG00000159307'
p4622
aS'ENSG00000170011'
p4623
aS'ENSG00000158882'
p4624
aS'ENSG00000130770'
p4625
aS'ENSG00000131849'
p4626
aS'ENSG00000160179'
p4627
aS'ENSG00000117640'
p4628
aS'ENSG00000171574'
p4629
aS'ENSG00000112996'
p4630
aS'ENSG00000184983'
p4631
aS'ENSG00000113013'
p4632
aS'ENSG00000138785'
p4633
aS'ENSG00000116985'
p4634
aS'ENSG00000155714'
p4635
aS'ENSG00000126267'
p4636
aS'ENSG00000184313'
p4637
aS'ENSG00000239789'
p4638
aS'ENSG00000139631'
p4639
aS'ENSG00000188234'
p4640
aS'ENSG00000088682'
p4641
atRp4642
ssS'lightblue'
p4643
(dp4644
g84
g85
((lp4645
S'ENSG00000149599'
p4646
aS'ENSG00000174586'
p4647
aS'ENSG00000137691'
p4648
aS'ENSG00000179299'
p4649
aS'ENSG00000111906'
p4650
aS'ENSG00000198924'
p4651
atRp4652
ssS'palevioletred'
p4653
(dp4654
g4
(lp4655
(lp4656
S'ENSG00000177098'
p4657
aFinf
ag8
(g10
S't\xfat$\xdb\xa3y?'
tRp4658
ag8
(g10
S'\xa0{7\xdd#\x1c\x93?'
tRp4659
aa(lp4660
g3410
aFinf
ag8
(g10
S'0\r\x9f\r"\xd5\x94?'
tRp4661
ag8
(g10
S'`\xddSq\xeaO\x96?'
tRp4662
aa(lp4663
S'ENSG00000162951'
p4664
aFinf
ag8
(g10
S'\x93Z\xe6\xbf_o\x86?'
tRp4665
ag8
(g10
S'`\xddSq\xeaO\x96?'
tRp4666
aasg84
g85
((lp4667
S'ENSG00000172613'
p4668
aS'ENSG00000090097'
p4669
aS'ENSG00000197713'
p4670
aS'ENSG00000213240'
p4671
aS'ENSG00000165716'
p4672
aS'ENSG00000163382'
p4673
aS'ENSG00000203993'
p4674
aS'ENSG00000015532'
p4675
aS'ENSG00000173581'
p4676
aS'ENSG00000103811'
p4677
aS'ENSG00000157103'
p4678
aS'ENSG00000122435'
p4679
aS'ENSG00000143028'
p4680
atRp4681
ssS'slateblue'
p4682
(dp4683
g4
(lp4684
(lp4685
S'ENSG00000070808'
p4686
aFinf
ag8
(g10
S'o\xbaW[\xe4:s?'
tRp4687
ag8
(g10
S'\x00i\xedY\xb9\xb5\x8c?'
tRp4688
aa(lp4689
S'ENSG00000078328'
p4690
aFinf
ag8
(g10
S'o\xbaW[\xe4:s?'
tRp4691
ag8
(g10
S'\x00i\xedY\xb9\xb5\x8c?'
tRp4692
aa(lp4693
S'ENSG00000058404'
p4694
aFinf
ag8
(g10
S't\xfat$\xdb\xa3y?'
tRp4695
ag8
(g10
S'\x00i\xedY\xb9\xb5\x8c?'
tRp4696
aasg84
g85
((lp4697
S'ENSG00000165733'
p4698
aS'ENSG00000118690'
p4699
aS'ENSG00000213672'
p4700
aS'ENSG00000176124'
p4701
aS'ENSG00000090861'
p4702
aS'ENSG00000159212'
p4703
aS'ENSG00000165801'
p4704
aS'ENSG00000002016'
p4705
aS'ENSG00000087191'
p4706
aS'ENSG00000108439'
p4707
aS'ENSG00000004534'
p4708
aS'ENSG00000108592'
p4709
aS'ENSG00000037042'
p4710
aS'ENSG00000127252'
p4711
atRp4712
ssS'sienna4'
p4713
(dp4714
g4
(lp4715
(lp4716
S'ENSG00000105369'
p4717
aFinf
ag8
(g10
S'1\xbeW[\xe4:s?'
tRp4718
ag8
(g10
S'@n\xedY\xb9\xb5\x8c?'
tRp4719
aa(lp4720
S'ENSG00000143297'
p4721
aFinf
ag8
(g10
S'1\xbeW[\xe4:s?'
tRp4722
ag8
(g10
S'@n\xedY\xb9\xb5\x8c?'
tRp4723
aa(lp4724
S'ENSG00000106100'
p4725
ag8
(g10
S'\x00\x00\x00\x00\x00\xd8s@'
tRp4726
ag8
(g10
S'A\xbd\xef\x06-3\x83?'
tRp4727
ag8
(g10
S'@n\xedY\xb9\xb5\x8c?'
tRp4728
aasg84
g85
((lp4729
S'ENSG00000137731'
p4730
aS'ENSG00000204677'
p4731
aS'ENSG00000170074'
p4732
aS'ENSG00000214946'
p4733
aS'ENSG00000111364'
p4734
aS'ENSG00000100362'
p4735
aS'ENSG00000225940'
p4736
aS'ENSG00000140307'
p4737
aS'ENSG00000085788'
p4738
aS'ENSG00000075643'
p4739
aS'ENSG00000196263'
p4740
aS'ENSG00000177465'
p4741
aS'ENSG00000204084'
p4742
aS'ENSG00000138777'
p4743
aS'ENSG00000174405'
p4744
atRp4745
ssS'darkorange'
p4746
(dp4747
g4
(lp4748
(lp4749
S'ENSG00000172020'
p4750
aFinf
ag8
(g10
S'\x81\xfdt$\xdb\xa3i?'
tRp4751
ag8
(g10
S'\x00\xcf\x92\xc2\x9e\xd9\x8f?'
tRp4752
aa(lp4753
S'ENSG00000155980'
p4754
ag8
(g10
S'\xab\xaa\xaa\xaa\xaajj@'
tRp4755
ag8
(g10
S'\x1b\xdd\xa4{l\x94\x89?'
tRp4756
ag8
(g10
S'\xe0T\xfc\x94\xc1\x1a\xa9?'
tRp4757
aa(lp4758
g3210
ag8
(g10
S'\xab\xaa\xaa\xaa\xaajj@'
tRp4759
ag8
(g10
S'\x1b\xdd\xa4{l\x94\x89?'
tRp4760
ag8
(g10
S'\xe0T\xfc\x94\xc1\x1a\xa9?'
tRp4761
aa(lp4762
S'ENSG00000066032'
p4763
ag8
(g10
S'\x00\x00\x00\x00\x00\x80V@'
tRp4764
ag8
(g10
S'\x8d\xcf\xe4\xef\xd8\x7f\x99?'
tRp4765
ag8
(g10
S' \xbe\xea\xe8\x91.\xa9?'
tRp4766
aa(lp4767
g1979
ag8
(g10
S'\x9a\x99\x99\x99\x99YO@'
tRp4768
ag8
(g10
S'@4\xde\x10I}\xa1?'
tRp4769
ag8
(g10
S' \xbe\xea\xe8\x91.\xa9?'
tRp4770
aasg84
g85
((lp4771
S'ENSG00000119878'
p4772
aS'ENSG00000116791'
p4773
aS'ENSG00000165055'
p4774
aS'ENSG00000185658'
p4775
aS'ENSG00000148396'
p4776
aS'ENSG00000153147'
p4777
aS'ENSG00000100053'
p4778
aS'ENSG00000232859'
p4779
aS'ENSG00000138621'
p4780
aS'ENSG00000189306'
p4781
aS'ENSG00000110075'
p4782
aS'ENSG00000153820'
p4783
aS'ENSG00000072518'
p4784
aS'ENSG00000143437'
p4785
aS'ENSG00000147874'
p4786
aS'ENSG00000177302'
p4787
aS'ENSG00000124422'
p4788
aS'ENSG00000182446'
p4789
aS'ENSG00000102837'
p4790
aS'ENSG00000145916'
p4791
aS'ENSG00000135336'
p4792
aS'ENSG00000119414'
p4793
aS'ENSG00000103248'
p4794
aS'ENSG00000160208'
p4795
aS'ENSG00000241839'
p4796
atRp4797
ssS'powderblue'
p4798
(dp4799
g84
g85
((lp4800
S'ENSG00000140526'
p4801
aS'ENSG00000141759'
p4802
aS'ENSG00000139668'
p4803
aS'ENSG00000197837'
p4804
aS'ENSG00000157823'
p4805
aS'ENSG00000106603'
p4806
aS'ENSG00000165983'
p4807
aS'ENSG00000135452'
p4808
aS'ENSG00000188321'
p4809
aS'ENSG00000141698'
p4810
aS'ENSG00000072682'
p4811
aS'ENSG00000154719'
p4812
aS'ENSG00000103351'
p4813
atRp4814
ssS'mistyrose4'
p4815
(dp4816
g4
(lp4817
(lp4818
S'ENSG00000177791'
p4819
aFinf
ag8
(g10
S'1\xbeW[\xe4:s?'
tRp4820
ag8
(g10
S'\x80\x92~\x07U\x18\x93?'
tRp4821
aa(lp4822
S'ENSG00000186439'
p4823
ag8
(g10
S'\x00\x00\x00\x00\x00\xd8s@'
tRp4824
ag8
(g10
S'A\xbd\xef\x06-3\x83?'
tRp4825
ag8
(g10
S'\x80\xe1\x18J\xdc\x87\x9c?'
tRp4826
aa(lp4827
S'ENSG00000239474'
p4828
ag8
(g10
S'\x00\x00\x00\x00\x00\xd0c@'
tRp4829
ag8
(g10
S'\xa8\xe8\xa5\xa53\xc1\x8c?'
tRp4830
ag8
(g10
S' \x81\xf3S\x86\x8d\x9c?'
tRp4831
aa(lp4832
S'ENSG00000130592'
p4833
ag8
(g10
S'\x00\x00\x00\x00\x00\xd0c@'
tRp4834
ag8
(g10
S'\xa8\xe8\xa5\xa53\xc1\x8c?'
tRp4835
ag8
(g10
S' \x81\xf3S\x86\x8d\x9c?'
tRp4836
aasg84
g85
((lp4837
S'ENSG00000188042'
p4838
aS'ENSG00000100726'
p4839
aS'ENSG00000167118'
p4840
aS'ENSG00000185215'
p4841
aS'ENSG00000104921'
p4842
aS'ENSG00000187642'
p4843
aS'ENSG00000127080'
p4844
aS'ENSG00000120063'
p4845
aS'ENSG00000136888'
p4846
aS'ENSG00000063978'
p4847
aS'ENSG00000196937'
p4848
atRp4849
ssS'lightcyan'
p4850
(dp4851
g4
(lp4852
(lp4853
S'ENSG00000170681'
p4854
aFinf
ag8
(g10
S'\x81\xfdt$\xdb\xa3i?'
tRp4855
ag8
(g10
S'@ \x80\\f\\\x99?'
tRp4856
aa(lp4857
S'ENSG00000154358'
p4858
aFinf
ag8
(g10
S'\x81\xfdt$\xdb\xa3i?'
tRp4859
ag8
(g10
S'@ \x80\\f\\\x99?'
tRp4860
aasg84
g85
((lp4861
S'ENSG00000054277'
p4862
aS'ENSG00000197756'
p4863
aS'ENSG00000162244'
p4864
aS'ENSG00000108298'
p4865
aS'ENSG00000231500'
p4866
aS'ENSG00000186814'
p4867
aS'ENSG00000115268'
p4868
aS'ENSG00000166441'
p4869
aS'ENSG00000106665'
p4870
aS'ENSG00000101158'
p4871
aS'ENSG00000094975'
p4872
aS'ENSG00000167720'
p4873
aS'ENSG00000137818'
p4874
aS'ENSG00000186468'
p4875
aS'ENSG00000117601'
p4876
aS'ENSG00000118181'
p4877
aS'ENSG00000100888'
p4878
aS'ENSG00000145592'
p4879
aS'ENSG00000105193'
p4880
aS'ENSG00000156030'
p4881
aS'ENSG00000161970'
p4882
aS'ENSG00000090060'
p4883
aS'ENSG00000142937'
p4884
aS'ENSG00000105372'
p4885
aS'ENSG00000070031'
p4886
aS'ENSG00000148735'
p4887
aS'ENSG00000196683'
p4888
aS'ENSG00000149273'
p4889
atRp4890
ssS'sienna1'
p4891
(dp4892
g4
(lp4893
(lp4894
S'ENSG00000128340'
p4895
aFinf
ag8
(g10
S'1\xbeW[\xe4:s?'
tRp4896
ag8
(g10
S'\x80\x92~\x07U\x18\x93?'
tRp4897
aa(lp4898
S'ENSG00000134594'
p4899
aFinf
ag8
(g10
S'1\xbeW[\xe4:s?'
tRp4900
ag8
(g10
S'\x80\x92~\x07U\x18\x93?'
tRp4901
aa(lp4902
S'ENSG00000157087'
p4903
aFinf
ag8
(g10
S'1\xbeW[\xe4:s?'
tRp4904
ag8
(g10
S'\x80\x92~\x07U\x18\x93?'
tRp4905
aa(lp4906
g797
ag8
(g10
S'n\xdb\xb6m\xdbvF@'
tRp4907
ag8
(g10
S'\xa3\xbcpv\x0c\x05\xa3?'
tRp4908
ag8
(g10
S'\xa0\xbcpv\x0c\x05\xa3?'
tRp4909
aasg84
g85
((lp4910
S'ENSG00000186231'
p4911
aS'ENSG00000160991'
p4912
aS'ENSG00000243414'
p4913
aS'ENSG00000111644'
p4914
aS'ENSG00000175137'
p4915
aS'ENSG00000159873'
p4916
aS'ENSG00000187715'
p4917
aS'ENSG00000254531'
p4918
aS'ENSG00000103489'
p4919
aS'ENSG00000167525'
p4920
aS'ENSG00000110871'
p4921
aS'ENSG00000170027'
p4922
atRp4923
ssS'midnightblue'
p4924
(dp4925
g84
g85
((lp4926
S'ENSG00000115526'
p4927
aS'ENSG00000050130'
p4928
aS'ENSG00000069943'
p4929
aS'ENSG00000122481'
p4930
aS'ENSG00000213965'
p4931
aS'ENSG00000172938'
p4932
aS'ENSG00000168385'
p4933
aS'ENSG00000120645'
p4934
aS'ENSG00000174599'
p4935
aS'ENSG00000101440'
p4936
aS'ENSG00000108379'
p4937
aS'ENSG00000172113'
p4938
aS'ENSG00000138741'
p4939
aS'ENSG00000011523'
p4940
aS'ENSG00000130222'
p4941
aS'ENSG00000173653'
p4942
aS'ENSG00000145020'
p4943
aS'ENSG00000116157'
p4944
aS'ENSG00000132749'
p4945
aS'ENSG00000127481'
p4946
aS'ENSG00000136052'
p4947
aS'ENSG00000157833'
p4948
aS'ENSG00000139998'
p4949
aS'ENSG00000120860'
p4950
aS'ENSG00000214376'
p4951
aS'ENSG00000144485'
p4952
aS'ENSG00000172123'
p4953
aS'ENSG00000197345'
p4954
aS'ENSG00000188707'
p4955
atRp4956
ssS'paleturquoise'
p4957
(dp4958
g4
(lp4959
(lp4960
S'ENSG00000088827'
p4961
aFinf
ag8
(g10
S'1\xbeW[\xe4:s?'
tRp4962
ag8
(g10
S'`\xb98A5\x82\x9c?'
tRp4963
aa(lp4964
S'ENSG00000105281'
p4965
ag8
(g10
S'\x00\x00\x00\x00\x00\xd8s@'
tRp4966
ag8
(g10
S'A\xbd\xef\x06-3\x83?'
tRp4967
ag8
(g10
S'\x00v<\x8e\xd8\x8d\xa7?'
tRp4968
aasg84
g85
((lp4969
S'ENSG00000161542'
p4970
aS'ENSG00000164144'
p4971
aS'ENSG00000248712'
p4972
aS'ENSG00000248098'
p4973
aS'ENSG00000114395'
p4974
aS'ENSG00000054282'
p4975
aS'ENSG00000048462'
p4976
aS'ENSG00000117748'
p4977
aS'ENSG00000141994'
p4978
aS'ENSG00000167523'
p4979
aS'ENSG00000149548'
p4980
aS'ENSG00000130997'
p4981
aS'ENSG00000000460'
p4982
aS'ENSG00000176390'
p4983
aS'ENSG00000092295'
p4984
aS'ENSG00000090372'
p4985
aS'ENSG00000145708'
p4986
aS'ENSG00000137673'
p4987
aS'ENSG00000164053'
p4988
aS'ENSG00000221838'
p4989
aS'ENSG00000141499'
p4990
aS'ENSG00000118197'
p4991
aS'ENSG00000144802'
p4992
atRp4993
ssS'purple2'
p4994
(dp4995
g4
(lp4996
(lp4997
S'ENSG00000196620'
p4998
aFinf
ag8
(g10
S't\xfdt$\xdb\xa3Y?'
tRp4999
ag8
(g10
S'\x00(\x19Q\xb8\x9ei?'
tRp5000
aa(lp5001
S'ENSG00000197888'
p5002
aFinf
ag8
(g10
S't\xfdt$\xdb\xa3Y?'
tRp5003
ag8
(g10
S'\x00(\x19Q\xb8\x9ei?'
tRp5004
aasg84
g85
((lp5005
S'ENSG00000162104'
p5006
aS'ENSG00000173421'
p5007
aS'ENSG00000136104'
p5008
aS'ENSG00000163295'
p5009
aS'ENSG00000142675'
p5010
aS'ENSG00000217702'
p5011
aS'ENSG00000137414'
p5012
aS'ENSG00000152894'
p5013
aS'ENSG00000156171'
p5014
aS'ENSG00000225399'
p5015
aS'ENSG00000142684'
p5016
atRp5017
ssS'orangered3'
p5018
(dp5019
g84
g85
((lp5020
S'ENSG00000107104'
p5021
aS'ENSG00000106692'
p5022
aS'ENSG00000151773'
p5023
aS'ENSG00000100075'
p5024
aS'ENSG00000151640'
p5025
aS'ENSG00000144741'
p5026
aS'ENSG00000257093'
p5027
aS'ENSG00000100300'
p5028
aS'ENSG00000151151'
p5029
aS'ENSG00000125834'
p5030
aS'ENSG00000139433'
p5031
aS'ENSG00000135052'
p5032
aS'ENSG00000065060'
p5033
aS'ENSG00000059588'
p5034
aS'ENSG00000136828'
p5035
aS'ENSG00000198933'
p5036
aS'ENSG00000015475'
p5037
atRp5038
ssS'deeppink2'
p5039
(dp5040
g84
g85
((lp5041
S'ENSG00000139835'
p5042
aS'ENSG00000185829'
p5043
aS'ENSG00000221953'
p5044
aS'ENSG00000183250'
p5045
aS'ENSG00000238083'
p5046
aS'ENSG00000258572'
p5047
aS'ENSG00000120071'
p5048
aS'ENSG00000108771'
p5049
aS'ENSG00000170954'
p5050
aS'ENSG00000228696'
p5051
aS'ENSG00000176681'
p5052
atRp5053
ssS'deeppink1'
p5054
(dp5055
g84
g85
((lp5056
S'ENSG00000139537'
p5057
aS'ENSG00000143158'
p5058
aS'ENSG00000258839'
p5059
aS'ENSG00000176222'
p5060
aS'ENSG00000178852'
p5061
aS'ENSG00000184117'
p5062
aS'ENSG00000079332'
p5063
aS'ENSG00000120742'
p5064
aS'ENSG00000180398'
p5065
aS'ENSG00000074696'
p5066
aS'ENSG00000148248'
p5067
aS'ENSG00000086598'
p5068
aS'ENSG00000144712'
p5069
atRp5070
ssS'orangered4'
p5071
(dp5072
g4
(lp5073
(lp5074
S'ENSG00000118160'
p5075
aFinf
ag8
(g10
S'1\xbeW[\xe4:s?'
tRp5076
ag8
(g10
S'\xc0\xa1\x9f\xf0\x1a\xd0\x97?'
tRp5077
aa(lp5078
S'ENSG00000111249'
p5079
ag8
(g10
S'\x00\x00\x00\x00\x00\xd8s@'
tRp5080
ag8
(g10
S'A\xbd\xef\x06-3\x83?'
tRp5081
ag8
(g10
S'P\xbc\xd7\xcf|\xee\xa2?'
tRp5082
aa(lp5083
S'ENSG00000019505'
p5084
ag8
(g10
S'\x00\x00\x00\x00\x00\xd0c@'
tRp5085
ag8
(g10
S'\xa8\xe8\xa5\xa53\xc1\x8c?'
tRp5086
ag8
(g10
S'@D\x01\xa1\xbfC\xa5?'
tRp5087
aa(lp5088
S'ENSG00000054690'
p5089
ag8
(g10
S'\x00\x00\x00\x00\x00\xd0c@'
tRp5090
ag8
(g10
S'\xa8\xe8\xa5\xa53\xc1\x8c?'
tRp5091
ag8
(g10
S'@D\x01\xa1\xbfC\xa5?'
tRp5092
aasg84
g85
((lp5093
S'ENSG00000163630'
p5094
aS'ENSG00000196405'
p5095
aS'ENSG00000091262'
p5096
aS'ENSG00000143434'
p5097
aS'ENSG00000188690'
p5098
aS'ENSG00000183346'
p5099
aS'ENSG00000179528'
p5100
aS'ENSG00000176623'
p5101
aS'ENSG00000106853'
p5102
aS'ENSG00000185823'
p5103
aS'ENSG00000151208'
p5104
aS'ENSG00000122873'
p5105
aS'ENSG00000154889'
p5106
aS'ENSG00000116783'
p5107
aS'ENSG00000124641'
p5108
aS'ENSG00000101160'
p5109
aS'ENSG00000215252'
p5110
aS'ENSG00000178449'
p5111
aS'ENSG00000198250'
p5112
aS'ENSG00000185133'
p5113
aS'ENSG00000203778'
p5114
atRp5115
ssS'thistle3'
p5116
(dp5117
g84
g85
((lp5118
S'ENSG00000160741'
p5119
aS'ENSG00000196776'
p5120
aS'ENSG00000204371'
p5121
aS'ENSG00000259803'
p5122
aS'ENSG00000165985'
p5123
aS'ENSG00000168538'
p5124
aS'ENSG00000187624'
p5125
aS'ENSG00000168792'
p5126
aS'ENSG00000171421'
p5127
aS'ENSG00000115275'
p5128
aS'ENSG00000022976'
p5129
aS'ENSG00000172932'
p5130
aS'ENSG00000137218'
p5131
aS'ENSG00000142794'
p5132
aS'ENSG00000146826'
p5133
aS'ENSG00000134262'
p5134
aS'ENSG00000110925'
p5135
atRp5136
ssS'thistle2'
p5137
(dp5138
g4
(lp5139
(lp5140
S'ENSG00000253276'
p5141
aFinf
ag8
(g10
S'\x8f\xfdt$\xdb\xa3y?'
tRp5142
ag8
(g10
S'\x00\t\xe1\xcf}\xee\xa2?'
tRp5143
aasg84
g85
((lp5144
S'ENSG00000196639'
p5145
aS'ENSG00000249087'
p5146
aS'ENSG00000221963'
p5147
aS'ENSG00000167740'
p5148
aS'ENSG00000134627'
p5149
aS'ENSG00000000457'
p5150
aS'ENSG00000013364'
p5151
aS'ENSG00000243646'
p5152
aS'ENSG00000134851'
p5153
aS'ENSG00000163320'
p5154
aS'ENSG00000125945'
p5155
aS'ENSG00000175505'
p5156
aS'ENSG00000245317'
p5157
aS'ENSG00000188015'
p5158
aS'ENSG00000157214'
p5159
aS'ENSG00000183891'
p5160
aS'ENSG00000097046'
p5161
aS'ENSG00000178202'
p5162
aS'ENSG00000064932'
p5163
atRp5164
ssS'thistle1'
p5165
(dp5166
g4
(lp5167
(lp5168
S'ENSG00000021300'
p5169
ag8
(g10
S'\x00\x00\x00\x00\x00\xe0\x83@'
tRp5170
ag8
(g10
S'\xe8\xee\x84A\xb6\x9ey?'
tRp5171
ag8
(g10
S'@\xba\x9213\x8a\x89?'
tRp5172
aa(lp5173
g1672
ag8
(g10
S'\xab\xaa\xaa\xaa\xaajj@'
tRp5174
ag8
(g10
S'\x1b\xdd\xa4{l\x94\x89?'
tRp5175
ag8
(g10
S'\x00\xdd\xa4{l\x94\x89?'
tRp5176
aasg84
g85
((lp5177
S'ENSG00000057704'
p5178
aS'ENSG00000163902'
p5179
aS'ENSG00000059691'
p5180
aS'ENSG00000123643'
p5181
aS'ENSG00000164039'
p5182
aS'ENSG00000121064'
p5183
aS'ENSG00000138744'
p5184
aS'ENSG00000214046'
p5185
aS'ENSG00000122863'
p5186
aS'ENSG00000166246'
p5187
aS'ENSG00000182132'
p5188
aS'ENSG00000204970'
p5189
aS'ENSG00000175264'
p5190
aS'ENSG00000172728'
p5191
aS'ENSG00000169169'
p5192
aS'ENSG00000111602'
p5193
aS'ENSG00000249693'
p5194
aS'ENSG00000143183'
p5195
aS'ENSG00000168701'
p5196
atRp5197
ssS'sienna2'
p5198
(dp5199
g4
(lp5200
(lp5201
S'ENSG00000145386'
p5202
aFinf
ag8
(g10
S't\xfdt$\xdb\xa3Y?'
tRp5203
ag8
(g10
S'\x00(\x19Q\xb8\x9ei?'
tRp5204
aa(lp5205
S'ENSG00000081818'
p5206
aFinf
ag8
(g10
S'=\xf0J;\x94r\x9e?'
tRp5207
ag8
(g10
S'@\xf0J;\x94r\x9e?'
tRp5208
aasg84
g85
((lp5209
S'ENSG00000198185'
p5210
aS'ENSG00000175224'
p5211
aS'ENSG00000221890'
p5212
aS'ENSG00000184293'
p5213
aS'ENSG00000158457'
p5214
aS'ENSG00000184840'
p5215
aS'ENSG00000170209'
p5216
aS'ENSG00000167550'
p5217
aS'ENSG00000187147'
p5218
aS'ENSG00000158773'
p5219
aS'ENSG00000005486'
p5220
aS'ENSG00000121101'
p5221
aS'ENSG00000159592'
p5222
aS'ENSG00000137161'
p5223
atRp5224
ssS'salmon'
p5225
(dp5226
g4
(lp5227
(lp5228
g2187
ag8
(g10
S'\x00\x00\x00\x00\x00`Z@'
tRp5229
ag8
(g10
S'\xe4U\xd4\x91\xc4#\x93?'
tRp5230
ag8
(g10
S'P\xcb4\x0c\xfa\xf5\xa2?'
tRp5231
aa(lp5232
g2191
ag8
(g10
S'\x00\x00\x00\x00\x00`Z@'
tRp5233
ag8
(g10
S'\xe4U\xd4\x91\xc4#\x93?'
tRp5234
ag8
(g10
S'P\xcb4\x0c\xfa\xf5\xa2?'
tRp5235
aasg84
g85
((lp5236
S'ENSG00000050327'
p5237
aS'ENSG00000105792'
p5238
aS'ENSG00000167081'
p5239
aS'ENSG00000120451'
p5240
aS'ENSG00000198231'
p5241
aS'ENSG00000111707'
p5242
aS'ENSG00000037474'
p5243
aS'ENSG00000197520'
p5244
aS'ENSG00000267127'
p5245
aS'ENSG00000204104'
p5246
aS'ENSG00000151689'
p5247
aS'ENSG00000158113'
p5248
aS'ENSG00000131037'
p5249
aS'ENSG00000163629'
p5250
aS'ENSG00000119685'
p5251
aS'ENSG00000158623'
p5252
aS'ENSG00000163257'
p5253
aS'ENSG00000078674'
p5254
aS'ENSG00000203666'
p5255
aS'ENSG00000179361'
p5256
aS'ENSG00000085511'
p5257
aS'ENSG00000167193'
p5258
aS'ENSG00000153113'
p5259
aS'ENSG00000130413'
p5260
aS'ENSG00000197262'
p5261
aS'ENSG00000149679'
p5262
aS'ENSG00000117523'
p5263
aS'ENSG00000158467'
p5264
aS'ENSG00000112130'
p5265
aS'ENSG00000143036'
p5266
atRp5267
ssS'thistle4'
p5268
(dp5269
g4
(lp5270
(lp5271
S'ENSG00000107954'
p5272
aFinf
ag8
(g10
S'\x81\xfdt$\xdb\xa3i?'
tRp5273
ag8
(g10
S'\x80\xd3\xbf\xb4\x8f|\x9c?'
tRp5274
aa(lp5275
S'ENSG00000105997'
p5276
ag8
(g10
S'\x00\x00\x00\x00\x00\xe0\x83@'
tRp5277
ag8
(g10
S'\xe8\xee\x84A\xb6\x9ey?'
tRp5278
ag8
(g10
S'Pa\xa9\x11\xe9\x10\xa9?'
tRp5279
aa(lp5280
S'ENSG00000167964'
p5281
ag8
(g10
S'\x00\x00\x00\x00\x00\xe0\x83@'
tRp5282
ag8
(g10
S'\xe8\xee\x84A\xb6\x9ey?'
tRp5283
ag8
(g10
S'Pa\xa9\x11\xe9\x10\xa9?'
tRp5284
aasg84
g85
((lp5285
S'ENSG00000152292'
p5286
aS'ENSG00000173917'
p5287
aS'ENSG00000197363'
p5288
aS'ENSG00000005436'
p5289
aS'ENSG00000167565'
p5290
aS'ENSG00000166527'
p5291
aS'ENSG00000105996'
p5292
aS'ENSG00000181240'
p5293
aS'ENSG00000170390'
p5294
aS'ENSG00000125458'
p5295
aS'ENSG00000178951'
p5296
aS'ENSG00000137221'
p5297
aS'ENSG00000127399'
p5298
aS'ENSG00000213221'
p5299
aS'ENSG00000131778'
p5300
atRp5301
ssS'oldlace'
p5302
(dp5303
g4
(lp5304
(lp5305
g2072
ag8
(g10
S'\x00\x00\x00\x00\x00\xe0\x83@'
tRp5306
ag8
(g10
S'\xe8\xee\x84A\xb6\x9ey?'
tRp5307
ag8
(g10
S'\x80\xcbX\x85T\x18\x93?'
tRp5308
aa(lp5309
g2076
ag8
(g10
S'\x00\x00\x00\x00\x00\xe0\x83@'
tRp5310
ag8
(g10
S'\xe8\xee\x84A\xb6\x9ey?'
tRp5311
ag8
(g10
S'\x80\xcbX\x85T\x18\x93?'
tRp5312
aa(lp5313
g2080
ag8
(g10
S'\x00\x00\x00\x00\x00\xe0\x83@'
tRp5314
ag8
(g10
S'\xe8\xee\x84A\xb6\x9ey?'
tRp5315
ag8
(g10
S'\x80\xcbX\x85T\x18\x93?'
tRp5316
aasg84
g85
((lp5317
S'ENSG00000126251'
p5318
aS'ENSG00000138152'
p5319
aS'ENSG00000185610'
p5320
aS'ENSG00000185897'
p5321
aS'ENSG00000129422'
p5322
aS'ENSG00000141956'
p5323
aS'ENSG00000214491'
p5324
atRp5325
ssS'pink1'
p5326
(dp5327
g4
(lp5328
(lp5329
S'ENSG00000137261'
p5330
aFinf
ag8
(g10
S"'\xbeW[\xe4:\x83?"
tRp5331
ag8
(g10
S'@\xa7\x02\xf27\x93\x9c?'
tRp5332
aa(lp5333
g787
aFinf
ag8
(g10
S'\xcd\xc1W[\xe4:\x93?'
tRp5334
ag8
(g10
S'\x10>\x1d\xed\xaa\x0c\xa3?'
tRp5335
aasg84
g85
((lp5336
S'ENSG00000009830'
p5337
aS'ENSG00000110719'
p5338
aS'ENSG00000114626'
p5339
aS'ENSG00000131043'
p5340
aS'ENSG00000103168'
p5341
aS'ENSG00000161055'
p5342
aS'ENSG00000205281'
p5343
aS'ENSG00000174080'
p5344
aS'ENSG00000135070'
p5345
aS'ENSG00000100483'
p5346
atRp5347
ssS'mediumpurple1'
p5348
(dp5349
g4
(lp5350
(lp5351
S'ENSG00000143147'
p5352
aFinf
ag8
(g10
S'1\xbeW[\xe4:s?'
tRp5353
ag8
(g10
S'@n\xedY\xb9\xb5\x8c?'
tRp5354
aa(lp5355
g4115
ag8
(g10
S'\x00\x00\x00\x00\x00\xd0c@'
tRp5356
ag8
(g10
S'\xa8\xe8\xa5\xa53\xc1\x8c?'
tRp5357
ag8
(g10
S' \x81\xf3S\x86\x8d\x9c?'
tRp5358
aa(lp5359
S'ENSG00000144730'
p5360
ag8
(g10
S'\x00\x00\x00\x00\x00`Z@'
tRp5361
ag8
(g10
S'\xe4U\xd4\x91\xc4#\x93?'
tRp5362
ag8
(g10
S' \x81\xf3S\x86\x8d\x9c?'
tRp5363
aasg84
g85
((lp5364
S'ENSG00000020181'
p5365
aS'ENSG00000162599'
p5366
aS'ENSG00000112562'
p5367
aS'ENSG00000105738'
p5368
aS'ENSG00000082212'
p5369
aS'ENSG00000189269'
p5370
aS'ENSG00000101464'
p5371
aS'ENSG00000196151'
p5372
aS'ENSG00000174236'
p5373
aS'ENSG00000143776'
p5374
aS'ENSG00000069275'
p5375
aS'ENSG00000162877'
p5376
aS'ENSG00000067141'
p5377
aS'ENSG00000107186'
p5378
aS'ENSG00000168268'
p5379
atRp5380
ssS'mediumpurple2'
p5381
(dp5382
g84
g85
((lp5383
S'ENSG00000168763'
p5384
aS'ENSG00000103599'
p5385
aS'ENSG00000205090'
p5386
aS'ENSG00000136044'
p5387
aS'ENSG00000183255'
p5388
aS'ENSG00000076984'
p5389
aS'ENSG00000203880'
p5390
aS'ENSG00000184206'
p5391
aS'ENSG00000162576'
p5392
aS'ENSG00000161013'
p5393
aS'ENSG00000188906'
p5394
aS'ENSG00000121440'
p5395
aS'ENSG00000125731'
p5396
aS'ENSG00000165699'
p5397
aS'ENSG00000186625'
p5398
aS'ENSG00000049239'
p5399
aS'ENSG00000100296'
p5400
atRp5401
ssS'mediumpurple3'
p5402
(dp5403
g84
g85
((lp5404
S'ENSG00000157870'
p5405
aS'ENSG00000125124'
p5406
aS'ENSG00000122375'
p5407
aS'ENSG00000145604'
p5408
aS'ENSG00000064012'
p5409
aS'ENSG00000187815'
p5410
aS'ENSG00000175595'
p5411
aS'ENSG00000168661'
p5412
aS'ENSG00000074966'
p5413
aS'ENSG00000156172'
p5414
aS'ENSG00000213132'
p5415
aS'ENSG00000239388'
p5416
aS'ENSG00000109929'
p5417
aS'ENSG00000187091'
p5418
aS'ENSG00000153406'
p5419
aS'ENSG00000183475'
p5420
aS'ENSG00000204315'
p5421
aS'ENSG00000144021'
p5422
aS'ENSG00000136810'
p5423
aS'ENSG00000133661'
p5424
aS'ENSG00000104660'
p5425
atRp5426
ssS'mediumpurple4'
p5427
(dp5428
g4
(lp5429
(lp5430
g3410
ag8
(g10
S'\xe9\xa2\x8b.\xbah\\@'
tRp5431
ag8
(g10
S'wJ\xff\x9do\x97R?'
tRp5432
ag8
(g10
S'@\x15x\x99\x98\xfd\x96?'
tRp5433
aasg84
g85
((lp5434
S'ENSG00000107862'
p5435
aS'ENSG00000151632'
p5436
aS'ENSG00000075856'
p5437
aS'ENSG00000114279'
p5438
aS'ENSG00000124228'
p5439
aS'ENSG00000148606'
p5440
aS'ENSG00000165323'
p5441
aS'ENSG00000107223'
p5442
aS'ENSG00000130348'
p5443
aS'ENSG00000128408'
p5444
aS'ENSG00000198894'
p5445
aS'ENSG00000164975'
p5446
aS'ENSG00000090316'
p5447
aS'ENSG00000152404'
p5448
aS'ENSG00000186777'
p5449
aS'ENSG00000139899'
p5450
atRp5451
ssS'pink4'
p5452
(dp5453
g84
g85
((lp5454
S'ENSG00000176974'
p5455
aS'ENSG00000107984'
p5456
aS'ENSG00000197586'
p5457
aS'ENSG00000110063'
p5458
aS'ENSG00000167920'
p5459
aS'ENSG00000187094'
p5460
aS'ENSG00000103647'
p5461
aS'ENSG00000163702'
p5462
aS'ENSG00000130429'
p5463
aS'ENSG00000134504'
p5464
aS'ENSG00000138101'
p5465
aS'ENSG00000109775'
p5466
aS'ENSG00000168899'
p5467
aS'ENSG00000156990'
p5468
aS'ENSG00000151233'
p5469
atRp5470
ssS'paleturquoise3'
p5471
(dp5472
g84
g85
((lp5473
S'ENSG00000169629'
p5474
aS'ENSG00000239713'
p5475
aS'ENSG00000155363'
p5476
aS'ENSG00000204267'
p5477
aS'ENSG00000240065'
p5478
aS'ENSG00000117228'
p5479
aS'ENSG00000170464'
p5480
aS'ENSG00000131781'
p5481
aS'ENSG00000180332'
p5482
atRp5483
ssS'hotpink4'
p5484
(dp5485
g84
g85
((lp5486
S'ENSG00000138172'
p5487
aS'ENSG00000067715'
p5488
aS'ENSG00000135472'
p5489
aS'ENSG00000144891'
p5490
aS'ENSG00000183578'
p5491
atRp5492
ssS'khaki4'
p5493
(dp5494
g4
(lp5495
(lp5496
g2183
aFinf
ag8
(g10
S'P\x02u$\xdb\xa3i?'
tRp5497
ag8
(g10
S'\xc0\xf0\xc5\xfe\x7f+\x83?'
tRp5498
aa(lp5499
g2187
aFinf
ag8
(g10
S't\xfat$\xdb\xa3y?'
tRp5500
ag8
(g10
S'\x80\xa3\x05\xd7O\x8f\x89?'
tRp5501
aa(lp5502
g2191
aFinf
ag8
(g10
S't\xfat$\xdb\xa3y?'
tRp5503
ag8
(g10
S'\x80\xa3\x05\xd7O\x8f\x89?'
tRp5504
aasg84
g85
((lp5505
S'ENSG00000177106'
p5506
aS'ENSG00000134873'
p5507
aS'ENSG00000099290'
p5508
aS'ENSG00000218537'
p5509
aS'ENSG00000165555'
p5510
aS'ENSG00000099977'
p5511
aS'ENSG00000135750'
p5512
aS'ENSG00000184674'
p5513
atRp5514
ssS'darkolivegreen4'
p5515
(dp5516
g4
(lp5517
(lp5518
S'ENSG00000118298'
p5519
ag8
(g10
S'\x00\x00\x00\x00\x00@j@'
tRp5520
ag8
(g10
S'6\x85\xcfz=\xd6:?'
tRp5521
ag8
(g10
S'\x80\x90\xefA|kw?'
tRp5522
aasg84
g85
((lp5523
S'ENSG00000139517'
p5524
aS'ENSG00000150893'
p5525
aS'ENSG00000214087'
p5526
aS'ENSG00000092203'
p5527
aS'ENSG00000148655'
p5528
aS'ENSG00000167861'
p5529
aS'ENSG00000164841'
p5530
aS'ENSG00000231672'
p5531
aS'ENSG00000168621'
p5532
aS'ENSG00000119280'
p5533
aS'ENSG00000130561'
p5534
aS'ENSG00000267508'
p5535
aS'ENSG00000163681'
p5536
aS'ENSG00000203797'
p5537
aS'ENSG00000138823'
p5538
aS'ENSG00000183508'
p5539
aS'ENSG00000183571'
p5540
atRp5541
ssS'darkseagreen4'
p5542
(dp5543
g84
g85
((lp5544
S'ENSG00000122550'
p5545
aS'ENSG00000169217'
p5546
aS'ENSG00000134548'
p5547
aS'ENSG00000100418'
p5548
aS'ENSG00000185909'
p5549
aS'ENSG00000138162'
p5550
aS'ENSG00000101493'
p5551
aS'ENSG00000132432'
p5552
aS'ENSG00000004766'
p5553
aS'ENSG00000122483'
p5554
aS'ENSG00000138778'
p5555
aS'ENSG00000100731'
p5556
aS'ENSG00000149575'
p5557
aS'ENSG00000156219'
p5558
aS'ENSG00000137764'
p5559
aS'ENSG00000248485'
p5560
aS'ENSG00000165899'
p5561
aS'ENSG00000147364'
p5562
atRp5563
ssS'darkseagreen3'
p5564
(dp5565
g84
g85
((lp5566
S'ENSG00000013288'
p5567
aS'ENSG00000126522'
p5568
aS'ENSG00000160325'
p5569
aS'ENSG00000153790'
p5570
aS'ENSG00000196814'
p5571
aS'ENSG00000155085'
p5572
aS'ENSG00000115875'
p5573
aS'ENSG00000249115'
p5574
aS'ENSG00000176834'
p5575
aS'ENSG00000080603'
p5576
aS'ENSG00000241973'
p5577
aS'ENSG00000131238'
p5578
aS'ENSG00000161328'
p5579
aS'ENSG00000181982'
p5580
aS'ENSG00000069248'
p5581
aS'ENSG00000101181'
p5582
atRp5583
ssS'darkseagreen2'
p5584
(dp5585
g4
(lp5586
(lp5587
S'ENSG00000157992'
p5588
aFinf
ag8
(g10
S'\x81\xfdt$\xdb\xa3i?'
tRp5589
ag8
(g10
S'\xc0Y/\x81\xb0Z\xa1?'
tRp5590
aa(lp5591
S'ENSG00000102890'
p5592
aFinf
ag8
(g10
S'\x81\xfdt$\xdb\xa3i?'
tRp5593
ag8
(g10
S'\xc0Y/\x81\xb0Z\xa1?'
tRp5594
aasg84
g85
((lp5595
S'ENSG00000101337'
p5596
aS'ENSG00000140319'
p5597
aS'ENSG00000164124'
p5598
aS'ENSG00000141013'
p5599
aS'ENSG00000142192'
p5600
aS'ENSG00000218739'
p5601
aS'ENSG00000090581'
p5602
aS'ENSG00000172493'
p5603
aS'ENSG00000172650'
p5604
aS'ENSG00000169313'
p5605
aS'ENSG00000163468'
p5606
aS'ENSG00000146242'
p5607
aS'ENSG00000170482'
p5608
aS'ENSG00000021488'
p5609
atRp5610
ssS'darkseagreen1'
p5611
(dp5612
g4
(lp5613
(lp5614
S'ENSG00000162738'
p5615
aFinf
ag8
(g10
S'o\xbaW[\xe4:s?'
tRp5616
ag8
(g10
S'\x80\xbaW[\xe4:s?'
tRp5617
aasg84
g85
((lp5618
S'ENSG00000125877'
p5619
aS'ENSG00000177030'
p5620
aS'ENSG00000007341'
p5621
aS'ENSG00000187987'
p5622
aS'ENSG00000138190'
p5623
aS'ENSG00000109606'
p5624
aS'ENSG00000148824'
p5625
aS'ENSG00000115998'
p5626
aS'ENSG00000122674'
p5627
aS'ENSG00000129946'
p5628
aS'ENSG00000197362'
p5629
aS'ENSG00000103245'
p5630
aS'ENSG00000172785'
p5631
atRp5632
ssS'darkolivegreen2'
p5633
(dp5634
g84
g85
((lp5635
S'ENSG00000178222'
p5636
aS'ENSG00000222012'
p5637
aS'ENSG00000183570'
p5638
aS'ENSG00000120693'
p5639
aS'ENSG00000082397'
p5640
aS'ENSG00000196648'
p5641
aS'ENSG00000180739'
p5642
aS'ENSG00000135677'
p5643
aS'ENSG00000198015'
p5644
aS'ENSG00000139921'
p5645
aS'ENSG00000142856'
p5646
aS'ENSG00000005073'
p5647
aS'ENSG00000131944'
p5648
aS'ENSG00000167332'
p5649
aS'ENSG00000183780'
p5650
atRp5651
ssS'lavenderblush'
p5652
(dp5653
g4
(lp5654
(lp5655
S'ENSG00000149418'
p5656
aFinf
ag8
(g10
S'P\xfft$\xdb\xa3\x89?'
tRp5657
ag8
(g10
S'\x10%=\xe1\x9d)\xa9?'
tRp5658
aa(lp5659
S'ENSG00000115112'
p5660
aFinf
ag8
(g10
S'P\xfft$\xdb\xa3\x89?'
tRp5661
ag8
(g10
S'\x10%=\xe1\x9d)\xa9?'
tRp5662
aa(lp5663
g576
aFinf
ag8
(g10
S'Z\xf7t$\xdb\xa3\x99?'
tRp5664
ag8
(g10
S'\xd0\x9b\xb7\xee\xadQ\xa9?'
tRp5665
aa(lp5666
g65
aFinf
ag8
(g10
S'V\x1f\xc9\xf6h\x06\xa0?'
tRp5667
ag8
(g10
S'\xd0\x9b\xb7\xee\xadQ\xa9?'
tRp5668
aasg84
g85
((lp5669
S'ENSG00000163312'
p5670
aS'ENSG00000064225'
p5671
aS'ENSG00000163328'
p5672
aS'ENSG00000084110'
p5673
aS'ENSG00000141127'
p5674
aS'ENSG00000167881'
p5675
aS'ENSG00000227124'
p5676
aS'ENSG00000125827'
p5677
aS'ENSG00000108666'
p5678
aS'ENSG00000072786'
p5679
aS'ENSG00000188859'
p5680
aS'ENSG00000121297'
p5681
aS'ENSG00000176476'
p5682
atRp5683
ssS'salmon2'
p5684
(dp5685
g4
(lp5686
(lp5687
S'ENSG00000198844'
p5688
ag8
(g10
S'33333\x83W@'
tRp5689
ag8
(g10
S'$\xc1C\xb4\xab/\x07?'
tRp5690
ag8
(g10
S'\x00\xc4\xbe\x1b8HD?'
tRp5691
aa(lp5692
S'ENSG00000183807'
p5693
ag8
(g10
S'\x00\x00\x00\x00\x00\x90S@'
tRp5694
ag8
(g10
S'\x93,(\xb5\xa7N\x11?'
tRp5695
ag8
(g10
S'\x00 ,\x92\xf6\x1cL?'
tRp5696
aa(lp5697
S'ENSG00000100368'
p5698
ag8
(g10
S'\x00\x00\x00\x00\x00\x80_@'
tRp5699
ag8
(g10
S'\x00\xf4H\xe7\x19\x0bD?'
tRp5700
ag8
(g10
S'\x00fZ\xb3\xcf\xf6}?'
tRp5701
aa(lp5702
g228
ag8
(g10
S'\x00\x00\x00\x00\x00\x003@'
tRp5703
ag8
(g10
S'2\xd5\xe7h\xc2Fa?'
tRp5704
ag8
(g10
S' \x0c#\xa9\x92\x81\x97?'
tRp5705
aa(lp5706
g233
ag8
(g10
S'\x00\x00\x00\x00\x00\x003@'
tRp5707
ag8
(g10
S'2\xd5\xe7h\xc2Fa?'
tRp5708
ag8
(g10
S' \x0c#\xa9\x92\x81\x97?'
tRp5709
aa(lp5710
S'ENSG00000141968'
p5711
ag8
(g10
S'\xde\xdd\xdd\xdd\xdd\xddD@'
tRp5712
ag8
(g10
S'\x07;2\x80\xbd\xe5f?'
tRp5713
ag8
(g10
S'\x00\xcb\x9dB5y\x99?'
tRp5714
aa(lp5715
S'ENSG00000111679'
p5716
ag8
(g10
S'333333?@'
tRp5717
ag8
(g10
S'\xcb\x12z\xb7\xfe4r?'
tRp5718
ag8
(g10
S'\x90<\x15\x1a\x1f\xed\xa1?'
tRp5719
aa(lp5720
S'ENSG00000110934'
p5721
ag8
(g10
S'\xe1z\x14\xaeG\xe18@'
tRp5722
ag8
(g10
S'VcS6ulz?'
tRp5723
ag8
(g10
S'P\xab\x87\x02\x93\xad\xa6?'
tRp5724
aasg84
g85
((lp5725
S'ENSG00000196411'
p5726
aS'ENSG00000185245'
p5727
aS'ENSG00000164045'
p5728
aS'ENSG00000065054'
p5729
aS'ENSG00000167771'
p5730
aS'ENSG00000130584'
p5731
aS'ENSG00000142748'
p5732
aS'ENSG00000184916'
p5733
aS'ENSG00000179111'
p5734
aS'ENSG00000005102'
p5735
aS'ENSG00000225968'
p5736
aS'ENSG00000174175'
p5737
aS'ENSG00000078401'
p5738
aS'ENSG00000177600'
p5739
aS'ENSG00000107290'
p5740
aS'ENSG00000122679'
p5741
atRp5742
ssS'salmon4'
p5743
(dp5744
g84
g85
((lp5745
S'ENSG00000134882'
p5746
aS'ENSG00000122678'
p5747
aS'ENSG00000130699'
p5748
aS'ENSG00000139436'
p5749
aS'ENSG00000099917'
p5750
aS'ENSG00000131626'
p5751
aS'ENSG00000149231'
p5752
aS'ENSG00000122335'
p5753
aS'ENSG00000130559'
p5754
aS'ENSG00000164535'
p5755
aS'ENSG00000205937'
p5756
aS'ENSG00000117174'
p5757
aS'ENSG00000006744'
p5758
aS'ENSG00000136754'
p5759
aS'ENSG00000087470'
p5760
aS'ENSG00000166192'
p5761
aS'ENSG00000204859'
p5762
aS'ENSG00000198909'
p5763
aS'ENSG00000008869'
p5764
atRp5765
ssS'linen'
p5766
(dp5767
g84
g85
((lp5768
S'ENSG00000233927'
p5769
aS'ENSG00000101447'
p5770
aS'ENSG00000101452'
p5771
aS'ENSG00000163933'
p5772
aS'ENSG00000162976'
p5773
aS'ENSG00000111321'
p5774
aS'ENSG00000164307'
p5775
aS'ENSG00000180817'
p5776
atRp5777
ssS'green'
p5778
(dp5779
g84
g85
((lp5780
S'ENSG00000124593'
p5781
aS'ENSG00000179855'
p5782
aS'ENSG00000214944'
p5783
aS'ENSG00000151883'
p5784
aS'ENSG00000149474'
p5785
aS'ENSG00000167799'
p5786
aS'ENSG00000046604'
p5787
aS'ENSG00000165379'
p5788
aS'ENSG00000044090'
p5789
aS'ENSG00000037241'
p5790
aS'ENSG00000079337'
p5791
aS'ENSG00000172031'
p5792
aS'ENSG00000168077'
p5793
aS'ENSG00000242110'
p5794
aS'ENSG00000112902'
p5795
aS'ENSG00000165312'
p5796
aS'ENSG00000101425'
p5797
aS'ENSG00000135736'
p5798
aS'ENSG00000133107'
p5799
aS'ENSG00000197701'
p5800
aS'ENSG00000119684'
p5801
aS'ENSG00000178209'
p5802
aS'ENSG00000205853'
p5803
aS'ENSG00000104490'
p5804
aS'ENSG00000219481'
p5805
aS'ENSG00000196781'
p5806
aS'ENSG00000109854'
p5807
aS'ENSG00000235098'
p5808
aS'ENSG00000198920'
p5809
aS'ENSG00000248727'
p5810
aS'ENSG00000133488'
p5811
aS'ENSG00000144647'
p5812
aS'ENSG00000172380'
p5813
aS'ENSG00000170854'
p5814
aS'ENSG00000198400'
p5815
aS'ENSG00000089692'
p5816
aS'ENSG00000140859'
p5817
aS'ENSG00000056661'
p5818
aS'ENSG00000176595'
p5819
aS'ENSG00000137962'
p5820
atRp5821
ssS'blueviolet'
p5822
(dp5823
g4
(lp5824
(lp5825
g2029
ag8
(g10
S'\x00\x00\x00\x00\x00\x80V@'
tRp5826
ag8
(g10
S'\x8d\xcf\xe4\xef\xd8\x7f\x99?'
tRp5827
ag8
(g10
S' \xbe\xea\xe8\x91.\xa9?'
tRp5828
aasg84
g85
((lp5829
S'ENSG00000158023'
p5830
aS'ENSG00000165730'
p5831
aS'ENSG00000120662'
p5832
aS'ENSG00000114098'
p5833
aS'ENSG00000044459'
p5834
aS'ENSG00000162769'
p5835
aS'ENSG00000166130'
p5836
aS'ENSG00000137776'
p5837
aS'ENSG00000151348'
p5838
aS'ENSG00000106868'
p5839
aS'ENSG00000188130'
p5840
aS'ENSG00000152240'
p5841
aS'ENSG00000103723'
p5842
aS'ENSG00000101751'
p5843
aS'ENSG00000213023'
p5844
atRp5845
ssS'brown2'
p5846
(dp5847
g84
g85
((lp5848
S'ENSG00000198718'
p5849
aS'ENSG00000003393'
p5850
aS'ENSG00000132305'
p5851
aS'ENSG00000115750'
p5852
aS'ENSG00000159256'
p5853
aS'ENSG00000076321'
p5854
aS'ENSG00000134490'
p5855
aS'ENSG00000146909'
p5856
aS'ENSG00000105948'
p5857
aS'ENSG00000196247'
p5858
aS'ENSG00000135597'
p5859
aS'ENSG00000145014'
p5860
aS'ENSG00000079335'
p5861
aS'ENSG00000119661'
p5862
aS'ENSG00000140104'
p5863
aS'ENSG00000138592'
p5864
aS'ENSG00000175518'
p5865
atRp5866
ssS'brown3'
p5867
(dp5868
g84
g85
((lp5869
S'ENSG00000020577'
p5870
aS'ENSG00000204538'
p5871
aS'ENSG00000144824'
p5872
aS'ENSG00000132964'
p5873
aS'ENSG00000215114'
p5874
aS'ENSG00000242441'
p5875
aS'ENSG00000104783'
p5876
aS'ENSG00000068781'
p5877
aS'ENSG00000123636'
p5878
aS'ENSG00000204540'
p5879
aS'ENSG00000138039'
p5880
atRp5881
ssS'brown1'
p5882
(dp5883
g84
g85
((lp5884
S'ENSG00000234745'
p5885
aS'ENSG00000184990'
p5886
aS'ENSG00000106733'
p5887
aS'ENSG00000204642'
p5888
aS'ENSG00000139410'
p5889
aS'ENSG00000226124'
p5890
aS'ENSG00000160226'
p5891
aS'ENSG00000125818'
p5892
aS'ENSG00000148690'
p5893
aS'ENSG00000125551'
p5894
aS'ENSG00000204520'
p5895
aS'ENSG00000267106'
p5896
aS'ENSG00000204525'
p5897
atRp5898
ssS'steelblue'
p5899
(dp5900
g84
g85
((lp5901
S'ENSG00000215012'
p5902
aS'ENSG00000006837'
p5903
aS'ENSG00000181016'
p5904
aS'ENSG00000169905'
p5905
aS'ENSG00000145002'
p5906
aS'ENSG00000115084'
p5907
aS'ENSG00000256073'
p5908
aS'ENSG00000153531'
p5909
aS'ENSG00000145354'
p5910
aS'ENSG00000196935'
p5911
aS'ENSG00000165806'
p5912
aS'ENSG00000148943'
p5913
aS'ENSG00000119862'
p5914
aS'ENSG00000100478'
p5915
aS'ENSG00000176293'
p5916
aS'ENSG00000145331'
p5917
aS'ENSG00000166181'
p5918
aS'ENSG00000125611'
p5919
aS'ENSG00000072415'
p5920
aS'ENSG00000034152'
p5921
aS'ENSG00000134815'
p5922
aS'ENSG00000268885'
p5923
aS'ENSG00000033627'
p5924
atRp5925
ssS'brown4'
p5926
(dp5927
g4
(lp5928
(lp5929
S'ENSG00000018280'
p5930
ag8
(g10
S'\x00\x00\x00\x00\x00\xa8S@'
tRp5931
ag8
(g10
S'\x9d\x1f\x93\x8e\n\xaa\x9c?'
tRp5932
ag8
(g10
S'\xa0\x1f\x93\x8e\n\xaa\x9c?'
tRp5933
aasg84
g85
((lp5934
S'ENSG00000163155'
p5935
aS'ENSG00000198792'
p5936
aS'ENSG00000048544'
p5937
aS'ENSG00000185684'
p5938
aS'ENSG00000112685'
p5939
aS'ENSG00000166483'
p5940
aS'ENSG00000112599'
p5941
aS'ENSG00000186523'
p5942
aS'ENSG00000186352'
p5943
aS'ENSG00000176986'
p5944
aS'ENSG00000188760'
p5945
aS'ENSG00000035928'
p5946
aS'ENSG00000206503'
p5947
aS'ENSG00000152256'
p5948
aS'ENSG00000128645'
p5949
aS'ENSG00000027847'
p5950
aS'ENSG00000181104'
p5951
aS'ENSG00000068971'
p5952
aS'ENSG00000137135'
p5953
aS'ENSG00000133422'
p5954
atRp5955
ss.