(dp1
S'yellow'
p2
(dp3
S'module_genes'
p4
c__builtin__
set
p5
((lp6
S'ENSG00000154310'
p7
aS'ENSG00000121236'
p8
aS'ENSG00000174226'
p9
aS'ENSG00000172425'
p10
aS'ENSG00000162642'
p11
aS'ENSG00000108733'
p12
aS'ENSG00000197619'
p13
aS'ENSG00000122375'
p14
aS'ENSG00000083844'
p15
aS'ENSG00000237440'
p16
aS'ENSG00000213965'
p17
aS'ENSG00000161542'
p18
aS'ENSG00000164610'
p19
aS'ENSG00000107362'
p20
aS'ENSG00000164897'
p21
aS'ENSG00000168385'
p22
aS'ENSG00000173480'
p23
aS'ENSG00000213015'
p24
aS'ENSG00000135974'
p25
aS'ENSG00000172113'
p26
aS'ENSG00000136448'
p27
aS'ENSG00000130312'
p28
aS'ENSG00000157734'
p29
aS'ENSG00000104899'
p30
aS'ENSG00000196460'
p31
aS'ENSG00000141568'
p32
aS'ENSG00000197775'
p33
aS'ENSG00000037042'
p34
aS'ENSG00000130770'
p35
aS'ENSG00000062370'
p36
aS'ENSG00000167685'
p37
aS'ENSG00000133247'
p38
aS'ENSG00000157613'
p39
aS'ENSG00000171574'
p40
aS'ENSG00000181007'
p41
aS'ENSG00000171453'
p42
aS'ENSG00000154781'
p43
aS'ENSG00000148908'
p44
aS'ENSG00000100336'
p45
aS'ENSG00000251369'
p46
aS'ENSG00000152778'
p47
aS'ENSG00000177764'
p48
aS'ENSG00000164038'
p49
aS'ENSG00000103202'
p50
aS'ENSG00000167046'
p51
aS'ENSG00000174721'
p52
aS'ENSG00000170122'
p53
aS'ENSG00000138772'
p54
aS'ENSG00000187260'
p55
aS'ENSG00000170043'
p56
aS'ENSG00000218891'
p57
atRp58
ssS'darkolivegreen'
p59
(dp60
S'driver_genes'
p61
(lp62
(lp63
S'ENSG00000126233'
p64
aFinf
acnumpy.core.multiarray
scalar
p65
(cnumpy
dtype
p66
(S'f8'
I0
I1
tRp67
(I3
S'<'
NNNI-1
I-1
I0
tbS'\xe2\xf3\x88F\xe6\x8dZ?'
tRp68
ag65
(g67
S'\x00\xb2\xc0\x0fd}z?'
tRp69
aa(lp70
S'ENSG00000171401'
p71
aFinf
ag65
(g67
S'>\x96\x15\xec\xaf\x98\x90?'
tRp72
ag65
(g67
S'\xd0e\xd0W\xb3:\xa1?'
tRp73
aa(lp74
S'ENSG00000169474'
p75
aFinf
ag65
(g67
S'\x17\xd2\xb7})<\x87?'
tRp76
ag65
(g67
S'\xd0e\xd0W\xb3:\xa1?'
tRp77
aa(lp78
S'ENSG00000143536'
p79
aFinf
ag65
(g67
S'>\x96\x15\xec\xaf\x98\x90?'
tRp80
ag65
(g67
S'\xd0e\xd0W\xb3:\xa1?'
tRp81
aasg4
g5
((lp82
S'ENSG00000115718'
p83
aS'ENSG00000159648'
p84
aS'ENSG00000184779'
p85
aS'ENSG00000129595'
p86
aS'ENSG00000197933'
p87
aS'ENSG00000179627'
p88
aS'ENSG00000231500'
p89
aS'ENSG00000144713'
p90
aS'ENSG00000129219'
p91
aS'ENSG00000171858'
p92
aS'ENSG00000136848'
p93
aS'ENSG00000140987'
p94
aS'ENSG00000112306'
p95
aS'ENSG00000181751'
p96
aS'ENSG00000186468'
p97
aS'ENSG00000156171'
p98
aS'ENSG00000103061'
p99
aS'ENSG00000066379'
p100
aS'ENSG00000142534'
p101
aS'ENSG00000130348'
p102
aS'ENSG00000181666'
p103
aS'ENSG00000166002'
p104
aS'ENSG00000164037'
p105
aS'ENSG00000136875'
p106
aS'ENSG00000106733'
p107
aS'ENSG00000178381'
p108
aS'ENSG00000135074'
p109
aS'ENSG00000117174'
p110
aS'ENSG00000196683'
p111
atRp112
ssS'grey60'
p113
(dp114
g4
g5
((lp115
S'ENSG00000172081'
p116
aS'ENSG00000170500'
p117
aS'ENSG00000183172'
p118
aS'ENSG00000148057'
p119
aS'ENSG00000189366'
p120
aS'ENSG00000171135'
p121
aS'ENSG00000198951'
p122
aS'ENSG00000160886'
p123
aS'ENSG00000155792'
p124
aS'ENSG00000081985'
p125
aS'ENSG00000166289'
p126
aS'ENSG00000198625'
p127
aS'ENSG00000058063'
p128
aS'ENSG00000173221'
p129
aS'ENSG00000105928'
p130
aS'ENSG00000133104'
p131
aS'ENSG00000166183'
p132
aS'ENSG00000166839'
p133
aS'ENSG00000120251'
p134
aS'ENSG00000178222'
p135
aS'ENSG00000124217'
p136
aS'ENSG00000088298'
p137
aS'ENSG00000170638'
p138
aS'ENSG00000204851'
p139
aS'ENSG00000183891'
p140
aS'ENSG00000185442'
p141
aS'ENSG00000176485'
p142
aS'ENSG00000148296'
p143
aS'ENSG00000182400'
p144
aS'ENSG00000093183'
p145
aS'ENSG00000099821'
p146
aS'ENSG00000153208'
p147
aS'ENSG00000128482'
p148
aS'ENSG00000187688'
p149
aS'ENSG00000156671'
p150
atRp151
ssS'green4'
p152
(dp153
g61
(lp154
(lp155
S'ENSG00000021645'
p156
aFinf
ag65
(g67
S'\xe2\xf3\x88F\xe6\x8dZ?'
tRp157
ag65
(g67
S'\x00\xf4\x88F\xe6\x8dZ?'
tRp158
aasg4
g5
((lp159
S'ENSG00000135213'
p160
aS'ENSG00000165271'
p161
aS'ENSG00000105963'
p162
aS'ENSG00000143442'
p163
aS'ENSG00000185591'
p164
aS'ENSG00000170291'
p165
aS'ENSG00000113648'
p166
aS'ENSG00000165637'
p167
aS'ENSG00000129749'
p168
aS'ENSG00000132182'
p169
aS'ENSG00000168152'
p170
aS'ENSG00000121440'
p171
aS'ENSG00000135390'
p172
aS'ENSG00000149532'
p173
aS'ENSG00000157110'
p174
atRp175
ssS'sienna4'
p176
(dp177
g4
g5
((lp178
S'ENSG00000183617'
p179
aS'ENSG00000182004'
p180
aS'ENSG00000111652'
p181
aS'ENSG00000141252'
p182
aS'ENSG00000153774'
p183
aS'ENSG00000111906'
p184
aS'ENSG00000133983'
p185
aS'ENSG00000160213'
p186
aS'ENSG00000125743'
p187
aS'ENSG00000184900'
p188
aS'ENSG00000099338'
p189
aS'ENSG00000214113'
p190
aS'ENSG00000005075'
p191
aS'ENSG00000127366'
p192
aS'ENSG00000168159'
p193
aS'ENSG00000143977'
p194
aS'ENSG00000262484'
p195
aS'ENSG00000139343'
p196
aS'ENSG00000100216'
p197
atRp198
ssS'magenta4'
p199
(dp200
g61
(lp201
(lp202
S'ENSG00000151617'
p203
aFinf
ag65
(g67
S'\xe2\xf3\x88F\xe6\x8dZ?'
tRp204
ag65
(g67
S'\x00[\xad\x03d\x88j?'
tRp205
aa(lp206
S'ENSG00000004776'
p207
aFinf
ag65
(g67
S'\xeb\xf8\x88F\xe6\x8dj?'
tRp208
ag65
(g67
S'\x00\xf9\x88F\xe6\x8dj?'
tRp209
aasg4
g5
((lp210
S'ENSG00000100258'
p211
aS'ENSG00000256087'
p212
aS'ENSG00000138834'
p213
aS'ENSG00000007376'
p214
aS'ENSG00000150687'
p215
aS'ENSG00000187815'
p216
aS'ENSG00000103168'
p217
aS'ENSG00000187624'
p218
aS'ENSG00000176890'
p219
aS'ENSG00000168661'
p220
aS'ENSG00000126746'
p221
aS'ENSG00000141959'
p222
aS'ENSG00000177082'
p223
aS'ENSG00000122674'
p224
aS'ENSG00000185359'
p225
aS'ENSG00000168438'
p226
aS'ENSG00000122641'
p227
aS'ENSG00000069493'
p228
aS'ENSG00000242802'
p229
aS'ENSG00000140955'
p230
aS'ENSG00000147852'
p231
atRp232
ssS'mediumorchid'
p233
(dp234
g4
g5
((lp235
S'ENSG00000136271'
p236
aS'ENSG00000155957'
p237
aS'ENSG00000054219'
p238
aS'ENSG00000124570'
p239
aS'ENSG00000099991'
p240
aS'ENSG00000168813'
p241
aS'ENSG00000151806'
p242
aS'ENSG00000157895'
p243
aS'ENSG00000169682'
p244
aS'ENSG00000136891'
p245
aS'ENSG00000204149'
p246
aS'ENSG00000141994'
p247
aS'ENSG00000184381'
p248
aS'ENSG00000179698'
p249
aS'ENSG00000107771'
p250
aS'ENSG00000129480'
p251
aS'ENSG00000105726'
p252
aS'ENSG00000100296'
p253
aS'ENSG00000174080'
p254
aS'ENSG00000125630'
p255
aS'ENSG00000128463'
p256
aS'ENSG00000185689'
p257
aS'ENSG00000005801'
p258
aS'ENSG00000075826'
p259
aS'ENSG00000166947'
p260
atRp261
ssS'yellow2'
p262
(dp263
g61
(lp264
(lp265
S'ENSG00000226482'
p266
aFinf
ag65
(g67
S'\xc7\xf0\x88F\xe6\x8dz?'
tRp267
ag65
(g67
S'\x00\x9ax\x9e\x07\xde\x83?'
tRp268
aa(lp269
S'ENSG00000167588'
p270
aFinf
ag65
(g67
S' \xb3\xe6\xb4l\xeas?'
tRp271
ag65
(g67
S'\x00\x9ax\x9e\x07\xde\x83?'
tRp272
aasg4
g5
((lp273
S'ENSG00000074211'
p274
aS'ENSG00000075975'
p275
aS'ENSG00000166123'
p276
aS'ENSG00000144115'
p277
aS'ENSG00000157823'
p278
aS'ENSG00000149809'
p279
aS'ENSG00000167701'
p280
aS'ENSG00000116791'
p281
aS'ENSG00000136868'
p282
aS'ENSG00000105568'
p283
aS'ENSG00000204084'
p284
aS'ENSG00000167840'
p285
aS'ENSG00000175183'
p286
atRp287
ssS'black'
p288
(dp289
g4
g5
((lp290
S'ENSG00000105186'
p291
aS'ENSG00000167904'
p292
aS'ENSG00000197885'
p293
aS'ENSG00000186174'
p294
aS'ENSG00000103642'
p295
aS'ENSG00000122484'
p296
aS'ENSG00000180855'
p297
aS'ENSG00000166886'
p298
aS'ENSG00000133884'
p299
aS'ENSG00000172939'
p300
aS'ENSG00000170892'
p301
aS'ENSG00000198933'
p302
aS'ENSG00000144712'
p303
aS'ENSG00000186814'
p304
aS'ENSG00000253598'
p305
aS'ENSG00000151148'
p306
aS'ENSG00000198646'
p307
aS'ENSG00000197562'
p308
aS'ENSG00000176222'
p309
aS'ENSG00000068137'
p310
aS'ENSG00000183864'
p311
aS'ENSG00000100211'
p312
aS'ENSG00000138400'
p313
aS'ENSG00000143028'
p314
aS'ENSG00000160753'
p315
aS'ENSG00000189157'
p316
aS'ENSG00000159164'
p317
aS'ENSG00000169972'
p318
aS'ENSG00000243749'
p319
aS'ENSG00000165801'
p320
aS'ENSG00000154917'
p321
aS'ENSG00000110395'
p322
aS'ENSG00000203668'
p323
aS'ENSG00000067191'
p324
aS'ENSG00000127129'
p325
aS'ENSG00000186283'
p326
aS'ENSG00000130940'
p327
aS'ENSG00000047932'
p328
aS'ENSG00000165233'
p329
aS'ENSG00000171150'
p330
aS'ENSG00000040633'
p331
aS'ENSG00000100068'
p332
atRp333
ssS'orange'
p334
(dp335
g61
(lp336
(lp337
S'ENSG00000185811'
p338
ag65
(g67
S'\xab\xaa\xaa\xaa\xaaj@@'
tRp339
ag65
(g67
S'p\xc0\xe9\xd6>\x19\xe2>'
tRp340
ag65
(g67
S"\x00 \xea'<\xab/?"
tRp341
aa(lp342
S'ENSG00000110934'
p343
ag65
(g67
S'\x9d\x82\x97S\xf0rH@'
tRp344
ag65
(g67
S'\xf9\x924\xa6f\xe7\xf1>'
tRp345
ag65
(g67
S'\x00(n\xc7\xc54>?'
tRp346
aa(lp347
S'ENSG00000134516'
p348
ag65
(g67
S'\xb7m\xdb\xb6m\x0b@@'
tRp349
ag65
(g67
S'\r\xd8$\xeex\x17??'
tRp350
ag65
(g67
S'\xc0\x18\xb2p\xdd\x1c\x89?'
tRp351
aa(lp352
S'ENSG00000136167'
p353
ag65
(g67
S'\x00\x00\x00\x00\x00\xe08@'
tRp354
ag65
(g67
S'\x99\xb4\xeeE\x9c\xf1K?'
tRp355
ag65
(g67
S'\xe0\x9f\xeeR\xf0\x9b\x95?'
tRp356
aa(lp357
S'ENSG00000043462'
p358
ag65
(g67
S'\xe9\xa2\x8b.\xbaH4@'
tRp359
ag65
(g67
S'\xbb:\xbc\xc33\xaaV?'
tRp360
ag65
(g67
S'`"\x02\xd1\x1e\xbb\xa0?'
tRp361
aa(lp362
S'ENSG00000143119'
p363
ag65
(g67
S'\xe9\xa2\x8b.\xbaH4@'
tRp364
ag65
(g67
S'\xbb:\xbc\xc33\xaaV?'
tRp365
ag65
(g67
S'`"\x02\xd1\x1e\xbb\xa0?'
tRp366
aasg4
g5
((lp367
S'ENSG00000196776'
p368
aS'ENSG00000197323'
p369
aS'ENSG00000123892'
p370
aS'ENSG00000117054'
p371
aS'ENSG00000167895'
p372
aS'ENSG00000134200'
p373
aS'ENSG00000116747'
p374
aS'ENSG00000125871'
p375
aS'ENSG00000152520'
p376
aS'ENSG00000007264'
p377
aS'ENSG00000156886'
p378
aS'ENSG00000003509'
p379
aS'ENSG00000104894'
p380
aS'ENSG00000131669'
p381
aS'ENSG00000172543'
p382
aS'ENSG00000163219'
p383
aS'ENSG00000115523'
p384
aS'ENSG00000145214'
p385
aS'ENSG00000204963'
p386
aS'ENSG00000119714'
p387
aS'ENSG00000185245'
p388
aS'ENSG00000138964'
p389
aS'ENSG00000006128'
p390
aS'ENSG00000168255'
p391
aS'ENSG00000112701'
p392
aS'ENSG00000143164'
p393
aS'ENSG00000170667'
p394
aS'ENSG00000174136'
p395
aS'ENSG00000143851'
p396
aS'ENSG00000137841'
p397
aS'ENSG00000138777'
p398
atRp399
ssS'brown'
p400
(dp401
g4
g5
((lp402
S'ENSG00000167103'
p403
aS'ENSG00000174238'
p404
aS'ENSG00000006715'
p405
aS'ENSG00000112541'
p406
aS'ENSG00000240344'
p407
aS'ENSG00000149084'
p408
aS'ENSG00000111450'
p409
aS'ENSG00000167972'
p410
aS'ENSG00000136783'
p411
aS'ENSG00000165502'
p412
aS'ENSG00000183665'
p413
aS'ENSG00000170634'
p414
aS'ENSG00000255374'
p415
aS'ENSG00000118096'
p416
aS'ENSG00000166762'
p417
aS'ENSG00000047578'
p418
aS'ENSG00000092850'
p419
aS'ENSG00000140575'
p420
aS'ENSG00000068724'
p421
aS'ENSG00000113712'
p422
aS'ENSG00000178950'
p423
aS'ENSG00000134285'
p424
aS'ENSG00000099814'
p425
aS'ENSG00000122417'
p426
aS'ENSG00000122203'
p427
aS'ENSG00000174943'
p428
aS'ENSG00000167377'
p429
aS'ENSG00000232070'
p430
aS'ENSG00000116151'
p431
aS'ENSG00000151693'
p432
aS'ENSG00000142794'
p433
aS'ENSG00000145217'
p434
aS'ENSG00000154240'
p435
aS'ENSG00000099889'
p436
aS'ENSG00000182606'
p437
aS'ENSG00000175170'
p438
aS'ENSG00000100473'
p439
aS'ENSG00000101349'
p440
aS'ENSG00000114841'
p441
aS'ENSG00000141519'
p442
aS'ENSG00000141258'
p443
aS'ENSG00000099949'
p444
aS'ENSG00000139537'
p445
aS'ENSG00000173272'
p446
aS'ENSG00000153113'
p447
aS'ENSG00000011485'
p448
aS'ENSG00000145020'
p449
aS'ENSG00000055211'
p450
aS'ENSG00000149292'
p451
aS'ENSG00000163879'
p452
aS'ENSG00000039139'
p453
aS'ENSG00000114744'
p454
aS'ENSG00000242866'
p455
atRp456
ssS'turquoise'
p457
(dp458
g4
g5
((lp459
S'ENSG00000184908'
p460
aS'ENSG00000132141'
p461
aS'ENSG00000125648'
p462
aS'ENSG00000156140'
p463
aS'ENSG00000164366'
p464
aS'ENSG00000181004'
p465
aS'ENSG00000128944'
p466
aS'ENSG00000189171'
p467
aS'ENSG00000129493'
p468
aS'ENSG00000157800'
p469
aS'ENSG00000137574'
p470
aS'ENSG00000165813'
p471
aS'ENSG00000119878'
p472
aS'ENSG00000120008'
p473
aS'ENSG00000123374'
p474
aS'ENSG00000244414'
p475
aS'ENSG00000038002'
p476
aS'ENSG00000135845'
p477
aS'ENSG00000110244'
p478
aS'ENSG00000203778'
p479
aS'ENSG00000100038'
p480
aS'ENSG00000176148'
p481
aS'ENSG00000250565'
p482
aS'ENSG00000157827'
p483
aS'ENSG00000163902'
p484
aS'ENSG00000112304'
p485
aS'ENSG00000108379'
p486
aS'ENSG00000242110'
p487
aS'ENSG00000119689'
p488
aS'ENSG00000174886'
p489
aS'ENSG00000103995'
p490
aS'ENSG00000256073'
p491
aS'ENSG00000158882'
p492
aS'ENSG00000119684'
p493
aS'ENSG00000100106'
p494
aS'ENSG00000197580'
p495
aS'ENSG00000174106'
p496
aS'ENSG00000086232'
p497
aS'ENSG00000180979'
p498
aS'ENSG00000132031'
p499
aS'ENSG00000117280'
p500
aS'ENSG00000122481'
p501
aS'ENSG00000165807'
p502
aS'ENSG00000168792'
p503
aS'ENSG00000171307'
p504
aS'ENSG00000090316'
p505
aS'ENSG00000101343'
p506
aS'ENSG00000204315'
p507
aS'ENSG00000123297'
p508
aS'ENSG00000102780'
p509
aS'ENSG00000060491'
p510
aS'ENSG00000012061'
p511
aS'ENSG00000124783'
p512
aS'ENSG00000140416'
p513
aS'ENSG00000164236'
p514
aS'ENSG00000129460'
p515
aS'ENSG00000129038'
p516
aS'ENSG00000115275'
p517
aS'ENSG00000152439'
p518
aS'ENSG00000167671'
p519
aS'ENSG00000138750'
p520
aS'ENSG00000110931'
p521
aS'ENSG00000146373'
p522
aS'ENSG00000214491'
p523
atRp524
ssS'antiquewhite2'
p525
(dp526
g4
g5
((lp527
S'ENSG00000152990'
p528
aS'ENSG00000188732'
p529
aS'ENSG00000169826'
p530
aS'ENSG00000107679'
p531
aS'ENSG00000050405'
p532
aS'ENSG00000158234'
p533
aS'ENSG00000066455'
p534
aS'ENSG00000115419'
p535
aS'ENSG00000135540'
p536
aS'ENSG00000182919'
p537
aS'ENSG00000136052'
p538
aS'ENSG00000170390'
p539
aS'ENSG00000184206'
p540
aS'ENSG00000221838'
p541
aS'ENSG00000159231'
p542
aS'ENSG00000128617'
p543
aS'ENSG00000038382'
p544
aS'ENSG00000164164'
p545
aS'ENSG00000152492'
p546
aS'ENSG00000114790'
p547
atRp548
ssS'antiquewhite1'
p549
(dp550
g61
(lp551
(lp552
S'ENSG00000161940'
p553
ag65
(g67
S'\x00\x00\x00\x00\x00(s@'
tRp554
ag65
(g67
S'\t\x92}\xe1%\xe2\x83?'
tRp555
ag65
(g67
S'\xd0\x9f\xd8\xfdT`\xa8?'
tRp556
aasg4
g5
((lp557
S'ENSG00000120645'
p558
aS'ENSG00000148225'
p559
aS'ENSG00000101276'
p560
aS'ENSG00000214140'
p561
aS'ENSG00000135480'
p562
aS'ENSG00000143776'
p563
aS'ENSG00000167670'
p564
aS'ENSG00000164867'
p565
aS'ENSG00000170464'
p566
aS'ENSG00000129993'
p567
aS'ENSG00000130158'
p568
aS'ENSG00000177600'
p569
aS'ENSG00000172554'
p570
aS'ENSG00000177000'
p571
atRp572
ssS'antiquewhite4'
p573
(dp574
g4
g5
((lp575
S'ENSG00000173917'
p576
aS'ENSG00000029534'
p577
aS'ENSG00000106537'
p578
aS'ENSG00000112031'
p579
aS'ENSG00000182472'
p580
aS'ENSG00000126785'
p581
aS'ENSG00000068781'
p582
aS'ENSG00000152402'
p583
aS'ENSG00000152467'
p584
aS'ENSG00000140319'
p585
aS'ENSG00000120071'
p586
aS'ENSG00000167720'
p587
aS'ENSG00000188171'
p588
aS'ENSG00000023445'
p589
aS'ENSG00000107854'
p590
aS'ENSG00000089847'
p591
aS'ENSG00000165511'
p592
aS'ENSG00000181350'
p593
aS'ENSG00000242441'
p594
aS'ENSG00000120093'
p595
aS'ENSG00000178386'
p596
aS'ENSG00000164978'
p597
aS'ENSG00000085063'
p598
aS'ENSG00000198113'
p599
aS'ENSG00000169169'
p600
atRp601
ssS'indianred4'
p602
(dp603
g4
g5
((lp604
S'ENSG00000168952'
p605
aS'ENSG00000103365'
p606
aS'ENSG00000196821'
p607
aS'ENSG00000164344'
p608
aS'ENSG00000143819'
p609
aS'ENSG00000167978'
p610
aS'ENSG00000006652'
p611
aS'ENSG00000181019'
p612
aS'ENSG00000145476'
p613
aS'ENSG00000139112'
p614
aS'ENSG00000164045'
p615
aS'ENSG00000164048'
p616
aS'ENSG00000116133'
p617
aS'ENSG00000169136'
p618
aS'ENSG00000122547'
p619
aS'ENSG00000109854'
p620
aS'ENSG00000163444'
p621
aS'ENSG00000085274'
p622
aS'ENSG00000126790'
p623
aS'ENSG00000227471'
p624
aS'ENSG00000148290'
p625
aS'ENSG00000136932'
p626
aS'ENSG00000151778'
p627
atRp628
ssS'bisque4'
p629
(dp630
g61
(lp631
(lp632
S'ENSG00000188487'
p633
aFinf
ag65
(g67
S'\xb7(N;z\xd4(?'
tRp634
ag65
(g67
S'\x00\xe0\xf2\xe2d\x9ab?'
tRp635
aa(lp636
S'ENSG00000158887'
p637
aFinf
ag65
(g67
S'\xb7(N;z\xd4(?'
tRp638
ag65
(g67
S'\x00\xe0\xf2\xe2d\x9ab?'
tRp639
aa(lp640
S'ENSG00000146013'
p641
ag65
(g67
S'\xf4<\xcf\xf3<\xcfL@'
tRp642
ag65
(g67
S'\xf4ESQ\x0bV^?'
tRp643
ag65
(g67
S'\xa0<\xbf\xe1\x88\xcd\x92?'
tRp644
aasg4
g5
((lp645
S'ENSG00000152219'
p646
aS'ENSG00000136048'
p647
aS'ENSG00000171798'
p648
aS'ENSG00000213853'
p649
aS'ENSG00000134265'
p650
aS'ENSG00000049239'
p651
aS'ENSG00000185436'
p652
aS'ENSG00000156273'
p653
aS'ENSG00000133805'
p654
aS'ENSG00000165868'
p655
aS'ENSG00000155130'
p656
aS'ENSG00000165863'
p657
aS'ENSG00000171903'
p658
aS'ENSG00000197746'
p659
aS'ENSG00000006432'
p660
aS'ENSG00000086589'
p661
aS'ENSG00000164220'
p662
aS'ENSG00000165512'
p663
aS'ENSG00000117602'
p664
aS'ENSG00000145703'
p665
aS'ENSG00000143924'
p666
aS'ENSG00000176444'
p667
aS'ENSG00000164112'
p668
aS'ENSG00000155511'
p669
aS'ENSG00000154027'
p670
aS'ENSG00000182372'
p671
aS'ENSG00000138759'
p672
aS'ENSG00000183793'
p673
atRp674
ssS'cyan'
p675
(dp676
g4
g5
((lp677
S'ENSG00000131711'
p678
aS'ENSG00000198150'
p679
aS'ENSG00000101596'
p680
aS'ENSG00000175216'
p681
aS'ENSG00000138792'
p682
aS'ENSG00000104824'
p683
aS'ENSG00000156414'
p684
aS'ENSG00000153147'
p685
aS'ENSG00000007168'
p686
aS'ENSG00000171497'
p687
aS'ENSG00000059691'
p688
aS'ENSG00000143702'
p689
aS'ENSG00000140259'
p690
aS'ENSG00000024048'
p691
aS'ENSG00000174007'
p692
aS'ENSG00000134900'
p693
aS'ENSG00000132275'
p694
aS'ENSG00000169762'
p695
aS'ENSG00000110075'
p696
aS'ENSG00000110429'
p697
aS'ENSG00000188895'
p698
aS'ENSG00000131558'
p699
aS'ENSG00000104497'
p700
aS'ENSG00000164331'
p701
aS'ENSG00000119718'
p702
aS'ENSG00000140043'
p703
aS'ENSG00000100865'
p704
aS'ENSG00000148396'
p705
aS'ENSG00000083097'
p706
aS'ENSG00000109775'
p707
aS'ENSG00000169314'
p708
aS'ENSG00000120675'
p709
aS'ENSG00000187627'
p710
aS'ENSG00000196455'
p711
aS'ENSG00000134744'
p712
aS'ENSG00000103245'
p713
atRp714
ssS'skyblue'
p715
(dp716
g61
(lp717
(lp718
S'ENSG00000174948'
p719
aFinf
ag65
(g67
S'\xfe\xf3\x88F\xe6\x8dz?'
tRp720
ag65
(g67
S'\xb0?C\xef\xb7\xc9\xa6?'
tRp721
aa(lp722
S'ENSG00000235597'
p723
aFinf
ag65
(g67
S'\xfe\xf3\x88F\xe6\x8dz?'
tRp724
ag65
(g67
S'\xb0?C\xef\xb7\xc9\xa6?'
tRp725
aa(lp726
S'ENSG00000146267'
p727
aFinf
ag65
(g67
S'\xfe\xf3\x88F\xe6\x8dz?'
tRp728
ag65
(g67
S'\xb0?C\xef\xb7\xc9\xa6?'
tRp729
aasg4
g5
((lp730
S'ENSG00000257218'
p731
aS'ENSG00000137161'
p732
aS'ENSG00000182324'
p733
aS'ENSG00000187122'
p734
aS'ENSG00000173875'
p735
aS'ENSG00000218739'
p736
aS'ENSG00000174748'
p737
aS'ENSG00000163536'
p738
aS'ENSG00000178445'
p739
aS'ENSG00000085719'
p740
aS'ENSG00000253368'
p741
aS'ENSG00000239713'
p742
aS'ENSG00000143156'
p743
aS'ENSG00000162976'
p744
aS'ENSG00000145779'
p745
aS'ENSG00000166200'
p746
aS'ENSG00000100075'
p747
aS'ENSG00000124587'
p748
aS'ENSG00000123179'
p749
aS'ENSG00000115944'
p750
aS'ENSG00000063046'
p751
aS'ENSG00000160323'
p752
aS'ENSG00000100263'
p753
aS'ENSG00000115255'
p754
aS'ENSG00000174586'
p755
aS'ENSG00000254521'
p756
aS'ENSG00000170820'
p757
aS'ENSG00000198755'
p758
aS'ENSG00000139433'
p759
aS'ENSG00000173548'
p760
aS'ENSG00000240694'
p761
atRp762
ssS'darkturquoise'
p763
(dp764
g61
(lp765
(lp766
S'ENSG00000164692'
p767
ag65
(g67
S'\x00\x00\x00\x00\x000\x83@'
tRp768
ag65
(g67
S'\xfa-\x98\xb9a\x88z?'
tRp769
ag65
(g67
S'\xf0\x84p:\x7f\x94\xa3?'
tRp770
aa(lp771
S'ENSG00000225194'
p772
ag65
(g67
S'\x00\x00\x00\x00\x000\x83@'
tRp773
ag65
(g67
S'\xfa-\x98\xb9a\x88z?'
tRp774
ag65
(g67
S'\xf0\x84p:\x7f\x94\xa3?'
tRp775
aa(lp776
S'ENSG00000168542'
p777
ag65
(g67
S'\x00\x00\x00\x00\x00(s@'
tRp778
ag65
(g67
S'm\x8a}\xe1%\xe2\x83?'
tRp779
ag65
(g67
S'@\xef\x81\xa5\x7f\x98\xa3?'
tRp780
aa(lp781
S'ENSG00000184347'
p782
ag65
(g67
S'\x00\x00\x00\x00\x00\x80i@'
tRp783
ag65
(g67
S'\xdc\xab\xb6\x9fX}\x8a?'
tRp784
ag65
(g67
S'\xe0\xaa\x91B\x82\x9c\xa3?'
tRp785
aa(lp786
S'ENSG00000105737'
p787
ag65
(g67
S'\x00\x00\x00\x00\x00@N@'
tRp788
ag65
(g67
S'o\x1b\x87\x07\x9f\x1b\xa2?'
tRp789
ag65
(g67
S'\x80\xff\xd9\x1a\x8e\xa4\xa3?'
tRp790
aa(lp791
S'ENSG00000184905'
p792
ag65
(g67
S'\x00\x00\x00\x00\x00\x80^@'
tRp793
ag65
(g67
S'7\xe9_\xa4\xbb\xd5\x93?'
tRp794
ag65
(g67
S'\x80\xff\xd9\x1a\x8e\xa4\xa3?'
tRp795
aasg4
g5
((lp796
S'ENSG00000167799'
p797
aS'ENSG00000163071'
p798
aS'ENSG00000132591'
p799
aS'ENSG00000139192'
p800
aS'ENSG00000184860'
p801
aS'ENSG00000119950'
p802
aS'ENSG00000181274'
p803
aS'ENSG00000175166'
p804
aS'ENSG00000048392'
p805
aS'ENSG00000172938'
p806
aS'ENSG00000158856'
p807
aS'ENSG00000177595'
p808
aS'ENSG00000130159'
p809
aS'ENSG00000178996'
p810
aS'ENSG00000124299'
p811
aS'ENSG00000175470'
p812
aS'ENSG00000167765'
p813
aS'ENSG00000187013'
p814
aS'ENSG00000204169'
p815
aS'ENSG00000108963'
p816
aS'ENSG00000123600'
p817
aS'ENSG00000111328'
p818
aS'ENSG00000103510'
p819
aS'ENSG00000132740'
p820
aS'ENSG00000164609'
p821
aS'ENSG00000105856'
p822
aS'ENSG00000269514'
p823
aS'ENSG00000143457'
p824
aS'ENSG00000174953'
p825
aS'ENSG00000002016'
p826
aS'ENSG00000241973'
p827
aS'ENSG00000181467'
p828
atRp829
ssS'darkgreen'
p830
(dp831
g61
(lp832
(lp833
S'ENSG00000173947'
p834
ag65
(g67
S'\x00\x00\x00\x00\x00(s@'
tRp835
ag65
(g67
S'\t\x92}\xe1%\xe2\x83?'
tRp836
ag65
(g67
S'\x00\x92}\xe1%\xe2\x83?'
tRp837
aasg4
g5
((lp838
S'ENSG00000029725'
p839
aS'ENSG00000141034'
p840
aS'ENSG00000100461'
p841
aS'ENSG00000118402'
p842
aS'ENSG00000144959'
p843
aS'ENSG00000141759'
p844
aS'ENSG00000136908'
p845
aS'ENSG00000100376'
p846
aS'ENSG00000172728'
p847
aS'ENSG00000134115'
p848
aS'ENSG00000148218'
p849
aS'ENSG00000132199'
p850
aS'ENSG00000067798'
p851
aS'ENSG00000111364'
p852
aS'ENSG00000055070'
p853
aS'ENSG00000148943'
p854
aS'ENSG00000081913'
p855
aS'ENSG00000197299'
p856
aS'ENSG00000116198'
p857
aS'ENSG00000089916'
p858
aS'ENSG00000101181'
p859
aS'ENSG00000163687'
p860
aS'ENSG00000121931'
p861
aS'ENSG00000162981'
p862
aS'ENSG00000169598'
p863
aS'ENSG00000131165'
p864
aS'ENSG00000070961'
p865
aS'ENSG00000130270'
p866
aS'ENSG00000101773'
p867
aS'ENSG00000180957'
p868
aS'ENSG00000254667'
p869
aS'ENSG00000176593'
p870
aS'ENSG00000004534'
p871
atRp872
ssS'darkviolet'
p873
(dp874
g4
g5
((lp875
S'ENSG00000177432'
p876
aS'ENSG00000106004'
p877
aS'ENSG00000119900'
p878
aS'ENSG00000169490'
p879
aS'ENSG00000116406'
p880
aS'ENSG00000205352'
p881
aS'ENSG00000103932'
p882
aS'ENSG00000164124'
p883
aS'ENSG00000164120'
p884
aS'ENSG00000119403'
p885
aS'ENSG00000101425'
p886
aS'ENSG00000065665'
p887
aS'ENSG00000118526'
p888
aS'ENSG00000111671'
p889
aS'ENSG00000136918'
p890
aS'ENSG00000203666'
p891
aS'ENSG00000057468'
p892
aS'ENSG00000244607'
p893
aS'ENSG00000128585'
p894
aS'ENSG00000116667'
p895
aS'ENSG00000072682'
p896
aS'ENSG00000251692'
p897
atRp898
ssS'red'
p899
(dp900
g4
g5
((lp901
S'ENSG00000166321'
p902
aS'ENSG00000138658'
p903
aS'ENSG00000020922'
p904
aS'ENSG00000198862'
p905
aS'ENSG00000167186'
p906
aS'ENSG00000137642'
p907
aS'ENSG00000047410'
p908
aS'ENSG00000030066'
p909
aS'ENSG00000141956'
p910
aS'ENSG00000176476'
p911
aS'ENSG00000128191'
p912
aS'ENSG00000168958'
p913
aS'ENSG00000113396'
p914
aS'ENSG00000185219'
p915
aS'ENSG00000100949'
p916
aS'ENSG00000166938'
p917
aS'ENSG00000137877'
p918
aS'ENSG00000141562'
p919
aS'ENSG00000168306'
p920
aS'ENSG00000069943'
p921
aS'ENSG00000133706'
p922
aS'ENSG00000136861'
p923
aS'ENSG00000173575'
p924
aS'ENSG00000180104'
p925
aS'ENSG00000070061'
p926
aS'ENSG00000184584'
p927
aS'ENSG00000161618'
p928
aS'ENSG00000066827'
p929
aS'ENSG00000146411'
p930
aS'ENSG00000162542'
p931
aS'ENSG00000175110'
p932
aS'ENSG00000085788'
p933
aS'ENSG00000066427'
p934
aS'ENSG00000166140'
p935
aS'ENSG00000145919'
p936
aS'ENSG00000180773'
p937
aS'ENSG00000128563'
p938
aS'ENSG00000118156'
p939
aS'ENSG00000197696'
p940
aS'ENSG00000106714'
p941
aS'ENSG00000064607'
p942
aS'ENSG00000118197'
p943
aS'ENSG00000103227'
p944
atRp945
ssS'darkmagenta'
p946
(dp947
g4
g5
((lp948
S'ENSG00000145632'
p949
aS'ENSG00000198355'
p950
aS'ENSG00000064419'
p951
aS'ENSG00000163638'
p952
aS'ENSG00000163576'
p953
aS'ENSG00000171236'
p954
aS'ENSG00000127311'
p955
aS'ENSG00000151929'
p956
aS'ENSG00000197467'
p957
aS'ENSG00000175592'
p958
aS'ENSG00000069399'
p959
aS'ENSG00000159307'
p960
aS'ENSG00000132840'
p961
aS'ENSG00000115556'
p962
aS'ENSG00000186716'
p963
aS'ENSG00000011523'
p964
aS'ENSG00000184385'
p965
aS'ENSG00000113303'
p966
aS'ENSG00000224420'
p967
aS'ENSG00000166004'
p968
aS'ENSG00000197841'
p969
aS'ENSG00000198858'
p970
aS'ENSG00000105835'
p971
aS'ENSG00000152944'
p972
aS'ENSG00000115353'
p973
aS'ENSG00000164830'
p974
aS'ENSG00000198805'
p975
aS'ENSG00000197245'
p976
aS'ENSG00000241839'
p977
atRp978
ssS'indianred3'
p979
(dp980
g61
(lp981
(lp982
S'ENSG00000255394'
p983
aFinf
ag65
(g67
S'\x04\xb7\xe6\xb4l\xeas?'
tRp984
ag65
(g67
S'`\xceLC\\\xc5\x93?'
tRp985
aa(lp986
S'ENSG00000114790'
p987
aFinf
ag65
(g67
S'\x04\xb7\xe6\xb4l\xeas?'
tRp988
ag65
(g67
S'`\xceLC\\\xc5\x93?'
tRp989
aasg4
g5
((lp990
S'ENSG00000110628'
p991
aS'ENSG00000162461'
p992
aS'ENSG00000205307'
p993
aS'ENSG00000113739'
p994
aS'ENSG00000196391'
p995
aS'ENSG00000134283'
p996
aS'ENSG00000127578'
p997
aS'ENSG00000176788'
p998
aS'ENSG00000138744'
p999
aS'ENSG00000183397'
p1000
aS'ENSG00000103549'
p1001
aS'ENSG00000069275'
p1002
aS'ENSG00000137691'
p1003
aS'ENSG00000135525'
p1004
aS'ENSG00000116032'
p1005
aS'ENSG00000100987'
p1006
aS'ENSG00000258472'
p1007
aS'ENSG00000167193'
p1008
atRp1009
ssS'plum3'
p1010
(dp1011
g61
(lp1012
(lp1013
S'ENSG00000069122'
p1014
ag65
(g67
S'\xef\xee\xee\xee\xee\xeeC@'
tRp1015
ag65
(g67
S'\xb2?\xef|U\x05q?'
tRp1016
ag65
(g67
S'\x90a\xf0\x91c\xec\xa6?'
tRp1017
aasg4
g5
((lp1018
S'ENSG00000115641'
p1019
aS'ENSG00000196417'
p1020
aS'ENSG00000137501'
p1021
aS'ENSG00000006016'
p1022
aS'ENSG00000148110'
p1023
aS'ENSG00000007080'
p1024
aS'ENSG00000113068'
p1025
aS'ENSG00000110328'
p1026
aS'ENSG00000153317'
p1027
aS'ENSG00000108786'
p1028
aS'ENSG00000188517'
p1029
aS'ENSG00000232859'
p1030
aS'ENSG00000129204'
p1031
aS'ENSG00000075391'
p1032
aS'ENSG00000106034'
p1033
aS'ENSG00000168453'
p1034
aS'ENSG00000198208'
p1035
aS'ENSG00000114270'
p1036
aS'ENSG00000211460'
p1037
aS'ENSG00000051128'
p1038
aS'ENSG00000151491'
p1039
aS'ENSG00000065457'
p1040
atRp1041
ssS'plum2'
p1042
(dp1043
g4
g5
((lp1044
S'ENSG00000172716'
p1045
aS'ENSG00000179855'
p1046
aS'ENSG00000102595'
p1047
aS'ENSG00000109047'
p1048
aS'ENSG00000146453'
p1049
aS'ENSG00000166035'
p1050
aS'ENSG00000125726'
p1051
aS'ENSG00000134245'
p1052
aS'ENSG00000111254'
p1053
aS'ENSG00000168079'
p1054
aS'ENSG00000175866'
p1055
aS'ENSG00000117594'
p1056
aS'ENSG00000102802'
p1057
aS'ENSG00000099937'
p1058
aS'ENSG00000146223'
p1059
aS'ENSG00000132623'
p1060
aS'ENSG00000071967'
p1061
aS'ENSG00000187151'
p1062
aS'ENSG00000159128'
p1063
aS'ENSG00000167780'
p1064
aS'ENSG00000136527'
p1065
aS'ENSG00000112874'
p1066
aS'ENSG00000169218'
p1067
aS'ENSG00000175600'
p1068
aS'ENSG00000100490'
p1069
aS'ENSG00000131459'
p1070
aS'ENSG00000241043'
p1071
aS'ENSG00000021488'
p1072
atRp1073
ssS'plum1'
p1074
(dp1075
g4
g5
((lp1076
S'ENSG00000163050'
p1077
aS'ENSG00000104884'
p1078
aS'ENSG00000146409'
p1079
aS'ENSG00000050130'
p1080
aS'ENSG00000113318'
p1081
aS'ENSG00000166669'
p1082
aS'ENSG00000138101'
p1083
aS'ENSG00000153406'
p1084
aS'ENSG00000179409'
p1085
aS'ENSG00000124535'
p1086
aS'ENSG00000095002'
p1087
aS'ENSG00000156787'
p1088
aS'ENSG00000112293'
p1089
aS'ENSG00000111790'
p1090
aS'ENSG00000092036'
p1091
aS'ENSG00000196814'
p1092
aS'ENSG00000149548'
p1093
aS'ENSG00000111731'
p1094
aS'ENSG00000150967'
p1095
aS'ENSG00000242612'
p1096
aS'ENSG00000118420'
p1097
aS'ENSG00000138111'
p1098
aS'ENSG00000135686'
p1099
aS'ENSG00000048471'
p1100
aS'ENSG00000007171'
p1101
aS'ENSG00000164114'
p1102
aS'ENSG00000067836'
p1103
aS'ENSG00000099866'
p1104
aS'ENSG00000130413'
p1105
atRp1106
ssS'saddlebrown'
p1107
(dp1108
g61
(lp1109
(lp1110
S'ENSG00000136383'
p1111
aFinf
ag65
(g67
S'\x16\x1b4\xd2\xa6\x8d\x00?'
tRp1112
ag65
(g67
S'\x00\x80,\xcb\xf9\xd3(?'
tRp1113
aa(lp1114
S'ENSG00000198523'
p1115
ag65
(g67
S'\x00\x00\x00\x00\x00\x18s@'
tRp1116
ag65
(g67
S'\xd6\xff\xc3\xad\xee\xb8(?'
tRp1117
ag65
(g67
S'\x00T)\x7f.\xe4N?'
tRp1118
aa(lp1119
S'ENSG00000154553'
p1120
ag65
(g67
S'I\x92$I\x92dE@'
tRp1121
ag65
(g67
S'\xd3oP/X\x1an?'
tRp1122
ag65
(g67
S'\x80\xba2\x94\xf8\xef\x8d?'
tRp1123
aa(lp1124
S'ENSG00000171992'
p1125
aFinf
ag65
(g67
S'\xfe\xf3\x88F\xe6\x8dz?'
tRp1126
ag65
(g67
S'\xc0\xd4\xd0lq\xc9\x93?'
tRp1127
aa(lp1128
S'ENSG00000189221'
p1129
ag65
(g67
S'UUUUUuY@'
tRp1130
ag65
(g67
S'\xe5\x89\xa2\x1e\x9f\xd1\x93?'
tRp1131
ag65
(g67
S'@\xa8*\xf6\x85\xa0\xa3?'
tRp1132
aa(lp1133
S'ENSG00000082196'
p1134
ag65
(g67
S'UUUUUuY@'
tRp1135
ag65
(g67
S'\xe5\x89\xa2\x1e\x9f\xd1\x93?'
tRp1136
ag65
(g67
S'@\xa8*\xf6\x85\xa0\xa3?'
tRp1137
aasg4
g5
((lp1138
S'ENSG00000167100'
p1139
aS'ENSG00000075239'
p1140
aS'ENSG00000071894'
p1141
aS'ENSG00000106992'
p1142
aS'ENSG00000196966'
p1143
aS'ENSG00000138439'
p1144
aS'ENSG00000128928'
p1145
aS'ENSG00000110455'
p1146
aS'ENSG00000128218'
p1147
aS'ENSG00000155849'
p1148
aS'ENSG00000080200'
p1149
aS'ENSG00000101017'
p1150
aS'ENSG00000197275'
p1151
aS'ENSG00000112149'
p1152
aS'ENSG00000107537'
p1153
aS'ENSG00000180155'
p1154
aS'ENSG00000170917'
p1155
aS'ENSG00000115762'
p1156
aS'ENSG00000135617'
p1157
aS'ENSG00000123643'
p1158
aS'ENSG00000110697'
p1159
aS'ENSG00000196636'
p1160
aS'ENSG00000152556'
p1161
aS'ENSG00000159251'
p1162
aS'ENSG00000171992'
p1163
aS'ENSG00000058453'
p1164
aS'ENSG00000186532'
p1165
aS'ENSG00000146729'
p1166
aS'ENSG00000144485'
p1167
aS'ENSG00000166825'
p1168
aS'ENSG00000112078'
p1169
atRp1170
ssS'yellowgreen'
p1171
(dp1172
g4
g5
((lp1173
S'ENSG00000106477'
p1174
aS'ENSG00000185619'
p1175
aS'ENSG00000204957'
p1176
aS'ENSG00000175040'
p1177
aS'ENSG00000256660'
p1178
aS'ENSG00000166501'
p1179
aS'ENSG00000157107'
p1180
aS'ENSG00000008282'
p1181
aS'ENSG00000168476'
p1182
aS'ENSG00000198189'
p1183
aS'ENSG00000145439'
p1184
aS'ENSG00000188554'
p1185
aS'ENSG00000135778'
p1186
aS'ENSG00000154035'
p1187
aS'ENSG00000175137'
p1188
aS'ENSG00000163251'
p1189
aS'ENSG00000203880'
p1190
aS'ENSG00000101188'
p1191
aS'ENSG00000090238'
p1192
aS'ENSG00000076641'
p1193
aS'ENSG00000133069'
p1194
aS'ENSG00000204377'
p1195
aS'ENSG00000140564'
p1196
aS'ENSG00000138867'
p1197
aS'ENSG00000147853'
p1198
aS'ENSG00000172322'
p1199
aS'ENSG00000059145'
p1200
aS'ENSG00000151617'
p1201
aS'ENSG00000172731'
p1202
atRp1203
ssS'thistle'
p1204
(dp1205
g4
g5
((lp1206
S'ENSG00000184293'
p1207
aS'ENSG00000090013'
p1208
aS'ENSG00000180834'
p1209
aS'ENSG00000127948'
p1210
aS'ENSG00000087274'
p1211
aS'ENSG00000111077'
p1212
aS'ENSG00000228570'
p1213
aS'ENSG00000197991'
p1214
aS'ENSG00000197406'
p1215
aS'ENSG00000100644'
p1216
aS'ENSG00000197256'
p1217
aS'ENSG00000139835'
p1218
aS'ENSG00000261701'
p1219
aS'ENSG00000175322'
p1220
aS'ENSG00000122870'
p1221
aS'ENSG00000089177'
p1222
aS'ENSG00000124440'
p1223
aS'ENSG00000237172'
p1224
aS'ENSG00000184838'
p1225
aS'ENSG00000141905'
p1226
aS'ENSG00000106633'
p1227
aS'ENSG00000131634'
p1228
atRp1229
ssS'violet'
p1230
(dp1231
g61
(lp1232
(lp1233
S'ENSG00000198851'
p1234
ag65
(g67
S'\x00\x00\x00\x00\x00\x00i@'
tRp1235
ag65
(g67
S'5s\xd0t[\xd3\xd0='
tRp1236
ag65
(g67
S'\x00\x00\x00\x80\x9e"\x17>'
tRp1237
aa(lp1238
g338
ag65
(g67
S'\x9a\x99\x99\x99\x99Y-@'
tRp1239
ag65
(g67
S'Fj\x1a\x84\xa8\x82E?'
tRp1240
ag65
(g67
S'\x00\xc2\xfe\xbc=\x0c\x8c?'
tRp1241
aa(lp1242
S'ENSG00000013725'
p1243
ag65
(g67
S'UUUUU\x15Y@'
tRp1244
ag65
(g67
S'\xbb\x0b*\x17\x08;W?'
tRp1245
ag65
(g67
S'\x80\xb6\x9c\x02\x81\xa6\x9c?'
tRp1246
aa(lp1247
S'ENSG00000153563'
p1248
ag65
(g67
S'UUUUU\x15Y@'
tRp1249
ag65
(g67
S'\xbb\x0b*\x17\x08;W?'
tRp1250
ag65
(g67
S'\x80\xb6\x9c\x02\x81\xa6\x9c?'
tRp1251
aa(lp1252
g353
ag65
(g67
S'\x00\x00\x00\x00\x00\x002@'
tRp1253
ag65
(g67
S'&\xacg\xf0\x02\xd0]?'
tRp1254
ag65
(g67
S'\xe0?\xf4l?\x83\xa0?'
tRp1255
aa(lp1256
g358
ag65
(g67
S'\x8a\xf7#\xa7\xf9Z-@'
tRp1257
ag65
(g67
S'\xc6>H\xbc\xa3\x00h?'
tRp1258
ag65
(g67
S'\xe0+\xe1\xe6\xdd\xe9\xa8?'
tRp1259
aa(lp1260
g363
ag65
(g67
S'\x8a\xf7#\xa7\xf9Z-@'
tRp1261
ag65
(g67
S'\xc6>H\xbc\xa3\x00h?'
tRp1262
ag65
(g67
S'\xe0+\xe1\xe6\xdd\xe9\xa8?'
tRp1263
aasg4
g5
((lp1264
S'ENSG00000136104'
p1265
aS'ENSG00000198885'
p1266
aS'ENSG00000237541'
p1267
aS'ENSG00000204642'
p1268
aS'ENSG00000213402'
p1269
aS'ENSG00000084070'
p1270
aS'ENSG00000107518'
p1271
aS'ENSG00000172116'
p1272
aS'ENSG00000121966'
p1273
aS'ENSG00000145864'
p1274
aS'ENSG00000171700'
p1275
aS'ENSG00000232629'
p1276
aS'ENSG00000160791'
p1277
aS'ENSG00000172215'
p1278
aS'ENSG00000127152'
p1279
aS'ENSG00000234745'
p1280
aS'ENSG00000227507'
p1281
aS'ENSG00000100453'
p1282
aS'ENSG00000110448'
p1283
aS'ENSG00000188389'
p1284
aS'ENSG00000186517'
p1285
aS'ENSG00000214078'
p1286
aS'ENSG00000154451'
p1287
aS'ENSG00000110665'
p1288
aS'ENSG00000153898'
p1289
aS'ENSG00000134545'
p1290
aS'ENSG00000196684'
p1291
aS'ENSG00000160654'
p1292
aS'ENSG00000054967'
p1293
aS'ENSG00000204525'
p1294
atRp1295
ssS'blue'
p1296
(dp1297
g61
(lp1298
(lp1299
S'ENSG00000148798'
p1300
ag65
(g67
S'\x1c\xc7q\x1c\xc7\x91B@'
tRp1301
ag65
(g67
S'>o\x80\xad~\xdeS='
tRp1302
ag65
(g67
S'\x00\x00\x00\x00\x08\x86\xb8='
tRp1303
aa(lp1304
S'ENSG00000144834'
p1305
ag65
(g67
S'\x00\x00\x00\x00\x00@=@'
tRp1306
ag65
(g67
S'\x14\x1dl\xfcP\x1c\xc4>'
tRp1307
ag65
(g67
S'\x00@\x17t\xee\x81(?'
tRp1308
aa(lp1309
S'ENSG00000130540'
p1310
aFinf
ag65
(g67
S'(\x1e\r:\xbf\xf8\xc4>'
tRp1311
ag65
(g67
S'\x00`%\xfd\xa8:)?'
tRp1312
aa(lp1313
S'ENSG00000145920'
p1314
ag65
(g67
S'\xd1E\x17]t\xd1Z@'
tRp1315
ag65
(g67
S'\xee\xad\x89\x1fAv\xe9>'
tRp1316
ag65
(g67
S'\x00\x900j\xe78N?'
tRp1317
aa(lp1318
S'ENSG00000135406'
p1319
ag65
(g67
S'F\x17]t\xd1\xc5J@'
tRp1320
ag65
(g67
S'\xb9\x81\xcdAP\x8c\x02?'
tRp1321
ag65
(g67
S"\x00v`\x07'\xb5e?"
tRp1322
aa(lp1323
S'ENSG00000104435'
p1324
ag65
(g67
S'\xf7\x06\x94\x89+\xdd3@'
tRp1325
ag65
(g67
S'V6\xbcu\x1ff\x0e?'
tRp1326
ag65
(g67
S'\x00\xc2\xe4\x18\x88\x89q?'
tRp1327
aa(lp1328
S'ENSG00000067715'
p1329
aFinf
ag65
(g67
S'\xed^\xa5\x9d\xd1~\x11?'
tRp1330
ag65
(g67
S'\x80H:\xdce\xe8s?'
tRp1331
aa(lp1332
S'ENSG00000089199'
p1333
ag65
(g67
S'oz\xd3\x9b\xde4C@'
tRp1334
ag65
(g67
S'\x84&\x1e\xe4v\xa8D?'
tRp1335
ag65
(g67
S'\xe0\xe5\xbc\xaaN\xba\xa6?'
tRp1336
aa(lp1337
S'ENSG00000132872'
p1338
ag65
(g67
S'\xc4Y\xf9\tqV.@'
tRp1339
ag65
(g67
S'\\X\x99e\xa2\x0bF?'
tRp1340
ag65
(g67
S"\x90'Ew\xbc\xe3\xa7?"
tRp1341
aasg4
g5
((lp1342
S'ENSG00000065809'
p1343
aS'ENSG00000178809'
p1344
aS'ENSG00000149256'
p1345
aS'ENSG00000215012'
p1346
aS'ENSG00000181577'
p1347
aS'ENSG00000110042'
p1348
aS'ENSG00000120457'
p1349
aS'ENSG00000009413'
p1350
aS'ENSG00000184613'
p1351
aS'ENSG00000166261'
p1352
aS'ENSG00000128059'
p1353
aS'ENSG00000102452'
p1354
aS'ENSG00000165462'
p1355
aS'ENSG00000146833'
p1356
aS'ENSG00000138028'
p1357
aS'ENSG00000125814'
p1358
aS'ENSG00000151025'
p1359
aS'ENSG00000197444'
p1360
aS'ENSG00000147576'
p1361
aS'ENSG00000237289'
p1362
aS'ENSG00000182747'
p1363
aS'ENSG00000077782'
p1364
aS'ENSG00000188573'
p1365
aS'ENSG00000177272'
p1366
aS'ENSG00000159784'
p1367
aS'ENSG00000140623'
p1368
aS'ENSG00000176903'
p1369
aS'ENSG00000196542'
p1370
aS'ENSG00000065609'
p1371
aS'ENSG00000105278'
p1372
aS'ENSG00000179292'
p1373
aS'ENSG00000168032'
p1374
aS'ENSG00000060709'
p1375
aS'ENSG00000175985'
p1376
aS'ENSG00000154096'
p1377
aS'ENSG00000197106'
p1378
aS'ENSG00000185760'
p1379
aS'ENSG00000188818'
p1380
aS'ENSG00000132639'
p1381
aS'ENSG00000144406'
p1382
aS'ENSG00000168826'
p1383
aS'ENSG00000133657'
p1384
aS'ENSG00000101198'
p1385
aS'ENSG00000205085'
p1386
aS'ENSG00000079689'
p1387
aS'ENSG00000091536'
p1388
aS'ENSG00000141433'
p1389
aS'ENSG00000143340'
p1390
aS'ENSG00000169903'
p1391
aS'ENSG00000066230'
p1392
aS'ENSG00000171951'
p1393
aS'ENSG00000081059'
p1394
aS'ENSG00000143850'
p1395
atRp1396
ssS'honeydew'
p1397
(dp1398
g4
g5
((lp1399
S'ENSG00000141385'
p1400
aS'ENSG00000107984'
p1401
aS'ENSG00000132305'
p1402
aS'ENSG00000132681'
p1403
aS'ENSG00000168936'
p1404
aS'ENSG00000111224'
p1405
aS'ENSG00000157315'
p1406
aS'ENSG00000184983'
p1407
aS'ENSG00000149922'
p1408
aS'ENSG00000241837'
p1409
aS'ENSG00000179091'
p1410
aS'ENSG00000130414'
p1411
aS'ENSG00000163607'
p1412
aS'ENSG00000141384'
p1413
aS'ENSG00000110076'
p1414
aS'ENSG00000122140'
p1415
aS'ENSG00000140521'
p1416
aS'ENSG00000163719'
p1417
aS'ENSG00000231672'
p1418
aS'ENSG00000089335'
p1419
atRp1420
ssS'purple'
p1421
(dp1422
g61
(lp1423
(lp1424
S'ENSG00000254453'
p1425
aFinf
ag65
(g67
S'\xf0\xf3\x88F\xe6\x8dj?'
tRp1426
ag65
(g67
S'\xa0\xa0\x87\x19FA\x9a?'
tRp1427
aa(lp1428
S'ENSG00000088881'
p1429
aFinf
ag65
(g67
S'\xf0\xf3\x88F\xe6\x8dj?'
tRp1430
ag65
(g67
S'\xa0\xa0\x87\x19FA\x9a?'
tRp1431
aa(lp1432
S'ENSG00000162543'
p1433
aFinf
ag65
(g67
S'\xf0\xf3\x88F\xe6\x8dj?'
tRp1434
ag65
(g67
S'\xa0\xa0\x87\x19FA\x9a?'
tRp1435
aa(lp1436
S'ENSG00000072952'
p1437
ag65
(g67
S'\x00\x00\x00\x00\x000\x83@'
tRp1438
ag65
(g67
S'\xfa-\x98\xb9a\x88z?'
tRp1439
ag65
(g67
S'Pv\xb3B\x98^\xa0?'
tRp1440
aa(lp1441
S'ENSG00000150510'
p1442
ag65
(g67
S'\x00\x00\x00\x00\x000\x83@'
tRp1443
ag65
(g67
S'\xfa-\x98\xb9a\x88z?'
tRp1444
ag65
(g67
S'Pv\xb3B\x98^\xa0?'
tRp1445
aa(lp1446
S'ENSG00000239523'
p1447
ag65
(g67
S'n\xdb\xb6m\xdb\xb6U@'
tRp1448
ag65
(g67
S'f\xc1\xf3kFg\x9a?'
tRp1449
ag65
(g67
S'Pv\xb3B\x98^\xa0?'
tRp1450
aa(lp1451
S'ENSG00000196557'
p1452
ag65
(g67
S'\x00\x00\x00\x00\x00(s@'
tRp1453
ag65
(g67
S'm\x8a}\xe1%\xe2\x83?'
tRp1454
ag65
(g67
S'Pv\xb3B\x98^\xa0?'
tRp1455
aa(lp1456
S'ENSG00000173175'
p1457
ag65
(g67
S'\x00\x00\x00\x00\x00(s@'
tRp1458
ag65
(g67
S'm\x8a}\xe1%\xe2\x83?'
tRp1459
ag65
(g67
S'Pv\xb3B\x98^\xa0?'
tRp1460
aasg4
g5
((lp1461
S'ENSG00000241058'
p1462
aS'ENSG00000051596'
p1463
aS'ENSG00000188312'
p1464
aS'ENSG00000197157'
p1465
aS'ENSG00000163636'
p1466
aS'ENSG00000151414'
p1467
aS'ENSG00000242252'
p1468
aS'ENSG00000155085'
p1469
aS'ENSG00000108883'
p1470
aS'ENSG00000221947'
p1471
aS'ENSG00000136824'
p1472
aS'ENSG00000076924'
p1473
aS'ENSG00000109756'
p1474
aS'ENSG00000127463'
p1475
aS'ENSG00000040275'
p1476
aS'ENSG00000133119'
p1477
aS'ENSG00000040531'
p1478
aS'ENSG00000100330'
p1479
aS'ENSG00000100749'
p1480
aS'ENSG00000147606'
p1481
aS'ENSG00000110074'
p1482
aS'ENSG00000141140'
p1483
aS'ENSG00000151503'
p1484
aS'ENSG00000119943'
p1485
aS'ENSG00000169379'
p1486
aS'ENSG00000188385'
p1487
aS'ENSG00000131944'
p1488
aS'ENSG00000109576'
p1489
aS'ENSG00000163682'
p1490
aS'ENSG00000144214'
p1491
aS'ENSG00000057019'
p1492
aS'ENSG00000144741'
p1493
aS'ENSG00000166965'
p1494
aS'ENSG00000139921'
p1495
aS'ENSG00000002822'
p1496
aS'ENSG00000133398'
p1497
aS'ENSG00000156650'
p1498
atRp1499
ssS'palevioletred1'
p1500
(dp1501
g4
g5
((lp1502
S'ENSG00000090432'
p1503
aS'ENSG00000169629'
p1504
aS'ENSG00000238083'
p1505
aS'ENSG00000013573'
p1506
aS'ENSG00000182093'
p1507
aS'ENSG00000188643'
p1508
aS'ENSG00000197134'
p1509
aS'ENSG00000235109'
p1510
aS'ENSG00000183208'
p1511
aS'ENSG00000119227'
p1512
aS'ENSG00000122176'
p1513
aS'ENSG00000185437'
p1514
aS'ENSG00000176681'
p1515
aS'ENSG00000182993'
p1516
aS'ENSG00000157578'
p1517
atRp1518
ssS'palevioletred2'
p1519
(dp1520
g4
g5
((lp1521
S'ENSG00000107863'
p1522
aS'ENSG00000126267'
p1523
aS'ENSG00000167863'
p1524
aS'ENSG00000168653'
p1525
aS'ENSG00000110200'
p1526
aS'ENSG00000120162'
p1527
aS'ENSG00000114054'
p1528
aS'ENSG00000159199'
p1529
aS'ENSG00000079691'
p1530
aS'ENSG00000106392'
p1531
aS'ENSG00000101337'
p1532
aS'ENSG00000170906'
p1533
aS'ENSG00000159377'
p1534
aS'ENSG00000101294'
p1535
aS'ENSG00000125611'
p1536
aS'ENSG00000239672'
p1537
aS'ENSG00000182117'
p1538
aS'ENSG00000175416'
p1539
aS'ENSG00000099785'
p1540
aS'ENSG00000196247'
p1541
aS'ENSG00000137413'
p1542
atRp1543
ssS'palevioletred3'
p1544
(dp1545
g4
g5
((lp1546
S'ENSG00000127947'
p1547
aS'ENSG00000180817'
p1548
aS'ENSG00000214872'
p1549
aS'ENSG00000104518'
p1550
aS'ENSG00000065060'
p1551
aS'ENSG00000105894'
p1552
aS'ENSG00000103740'
p1553
aS'ENSG00000108771'
p1554
aS'ENSG00000090554'
p1555
aS'ENSG00000067066'
p1556
aS'ENSG00000121900'
p1557
aS'ENSG00000134321'
p1558
aS'ENSG00000204267'
p1559
aS'ENSG00000135454'
p1560
aS'ENSG00000121858'
p1561
aS'ENSG00000188779'
p1562
aS'ENSG00000025708'
p1563
aS'ENSG00000172922'
p1564
aS'ENSG00000073921'
p1565
aS'ENSG00000173193'
p1566
aS'ENSG00000176236'
p1567
aS'ENSG00000166801'
p1568
aS'ENSG00000151364'
p1569
aS'ENSG00000138496'
p1570
aS'ENSG00000157601'
p1571
aS'ENSG00000178882'
p1572
atRp1573
ssS'coral3'
p1574
(dp1575
g4
g5
((lp1576
S'ENSG00000166292'
p1577
aS'ENSG00000181104'
p1578
aS'ENSG00000111665'
p1579
aS'ENSG00000148123'
p1580
aS'ENSG00000072736'
p1581
aS'ENSG00000196792'
p1582
aS'ENSG00000159899'
p1583
aS'ENSG00000095951'
p1584
aS'ENSG00000214021'
p1585
aS'ENSG00000164039'
p1586
aS'ENSG00000157379'
p1587
aS'ENSG00000111664'
p1588
aS'ENSG00000105793'
p1589
aS'ENSG00000196968'
p1590
aS'ENSG00000162722'
p1591
aS'ENSG00000139899'
p1592
aS'ENSG00000234465'
p1593
aS'ENSG00000121297'
p1594
aS'ENSG00000158793'
p1595
atRp1596
ssS'coral2'
p1597
(dp1598
g61
(lp1599
(lp1600
S'ENSG00000196376'
p1601
aFinf
ag65
(g67
S'\xeb\xf8\x88F\xe6\x8dj?'
tRp1602
ag65
(g67
S'\xa0\x0b\xa5o;}\x90?'
tRp1603
aa(lp1604
S'ENSG00000179915'
p1605
aFinf
ag65
(g67
S'\xeb\xf8\x88F\xe6\x8dj?'
tRp1606
ag65
(g67
S'\xa0\x0b\xa5o;}\x90?'
tRp1607
aa(lp1608
S'ENSG00000108018'
p1609
aFinf
ag65
(g67
S'\xfb\xb6\xe6\xb4l\xea\x83?'
tRp1610
ag65
(g67
S'\xa0\xd2\xd0lq\xc9\x93?'
tRp1611
aa(lp1612
S'ENSG00000163873'
p1613
aFinf
ag65
(g67
S'e\x9b\x15\xec\xaf\x98\x80?'
tRp1614
ag65
(g67
S'\xa0\xd2\xd0lq\xc9\x93?'
tRp1615
aa(lp1616
S'ENSG00000100146'
p1617
aFinf
ag65
(g67
S'\xc7\xf0\x88F\xe6\x8dz?'
tRp1618
ag65
(g67
S'\xa0\xd2\xd0lq\xc9\x93?'
tRp1619
aasg4
g5
((lp1620
S'ENSG00000160282'
p1621
aS'ENSG00000160284'
p1622
aS'ENSG00000130479'
p1623
aS'ENSG00000197136'
p1624
aS'ENSG00000163468'
p1625
aS'ENSG00000222040'
p1626
aS'ENSG00000196591'
p1627
aS'ENSG00000006114'
p1628
aS'ENSG00000126464'
p1629
aS'ENSG00000186281'
p1630
aS'ENSG00000108219'
p1631
aS'ENSG00000185518'
p1632
aS'ENSG00000224051'
p1633
aS'ENSG00000156172'
p1634
aS'ENSG00000211456'
p1635
aS'ENSG00000115020'
p1636
aS'ENSG00000165555'
p1637
aS'ENSG00000163684'
p1638
aS'ENSG00000130669'
p1639
aS'ENSG00000173327'
p1640
aS'ENSG00000189091'
p1641
aS'ENSG00000137103'
p1642
aS'ENSG00000100065'
p1643
aS'ENSG00000039319'
p1644
aS'ENSG00000111786'
p1645
atRp1646
ssS'coral1'
p1647
(dp1648
g61
(lp1649
(lp1650
S'ENSG00000176092'
p1651
aFinf
ag65
(g67
S'k\x1e\x81\xa9X~\xe8>'
tRp1652
ag65
(g67
S'\x00x\xad\xa5\xe9\xe53?'
tRp1653
aa(lp1654
S'ENSG00000166145'
p1655
ag65
(g67
S'\x00\x00\x00\x00\x00@5@'
tRp1656
ag65
(g67
S'.\x82Q7\xae\xb4T?'
tRp1657
ag65
(g67
S'@\xc16\xe5\xea\xdd\x9f?'
tRp1658
aasg4
g5
((lp1659
S'ENSG00000002726'
p1660
aS'ENSG00000078140'
p1661
aS'ENSG00000165055'
p1662
aS'ENSG00000137648'
p1663
aS'ENSG00000162069'
p1664
aS'ENSG00000101213'
p1665
aS'ENSG00000165409'
p1666
aS'ENSG00000022556'
p1667
aS'ENSG00000134324'
p1668
aS'ENSG00000134716'
p1669
aS'ENSG00000118245'
p1670
aS'ENSG00000198643'
p1671
aS'ENSG00000108839'
p1672
aS'ENSG00000184012'
p1673
aS'ENSG00000125144'
p1674
aS'ENSG00000189280'
p1675
aS'ENSG00000176945'
p1676
aS'ENSG00000115008'
p1677
aS'ENSG00000189143'
p1678
aS'ENSG00000204839'
p1679
aS'ENSG00000178750'
p1680
aS'ENSG00000145113'
p1681
aS'ENSG00000187720'
p1682
aS'ENSG00000230567'
p1683
aS'ENSG00000241644'
p1684
atRp1685
ssS'mediumpurple'
p1686
(dp1687
g4
g5
((lp1688
S'ENSG00000035115'
p1689
aS'ENSG00000144895'
p1690
aS'ENSG00000125652'
p1691
aS'ENSG00000196712'
p1692
aS'ENSG00000108255'
p1693
aS'ENSG00000099984'
p1694
aS'ENSG00000099974'
p1695
aS'ENSG00000154485'
p1696
aS'ENSG00000162244'
p1697
aS'ENSG00000133433'
p1698
aS'ENSG00000188493'
p1699
atRp1700
ssS'indianred2'
p1701
(dp1702
g61
(lp1703
(lp1704
S'ENSG00000124429'
p1705
aFinf
ag65
(g67
S'\x04\xb7\xe6\xb4l\xeas?'
tRp1706
ag65
(g67
S'\x00\t\xb59\x83\xba\x8d?'
tRp1707
aa(lp1708
S'ENSG00000145692'
p1709
ag65
(g67
S'\x00\x00\x00\x00\x00\x10S@'
tRp1710
ag65
(g67
S'\x98\xcf\xfc\xfa\xb6\xbb\x98?'
tRp1711
ag65
(g67
S'\xe03\x80|?o\xa8?'
tRp1712
aa(lp1713
S'ENSG00000107099'
p1714
ag65
(g67
S'\x00\x00\x00\x00\x00\x10S@'
tRp1715
ag65
(g67
S'\x98\xcf\xfc\xfa\xb6\xbb\x98?'
tRp1716
ag65
(g67
S'\xe03\x80|?o\xa8?'
tRp1717
aasg4
g5
((lp1718
S'ENSG00000174446'
p1719
aS'ENSG00000170584'
p1720
aS'ENSG00000169550'
p1721
aS'ENSG00000163293'
p1722
aS'ENSG00000179979'
p1723
aS'ENSG00000011638'
p1724
aS'ENSG00000184517'
p1725
aS'ENSG00000135747'
p1726
aS'ENSG00000108823'
p1727
aS'ENSG00000100528'
p1728
aS'ENSG00000163945'
p1729
atRp1730
ssS'coral4'
p1731
(dp1732
g61
(lp1733
(lp1734
S'ENSG00000182487'
p1735
aFinf
ag65
(g67
S'\xf0\xf3\x88F\xe6\x8dj?'
tRp1736
ag65
(g67
S'\x80\xc1\xd1\xc0\xe1\x82z?'
tRp1737
aa(lp1738
S'ENSG00000158517'
p1739
ag65
(g67
S'\x00\x00\x00\x00\x000\x83@'
tRp1740
ag65
(g67
S'\xfa-\x98\xb9a\x88z?'
tRp1741
ag65
(g67
S'\x00.\x98\xb9a\x88z?'
tRp1742
aasg4
g5
((lp1743
S'ENSG00000197535'
p1744
aS'ENSG00000172613'
p1745
aS'ENSG00000104093'
p1746
aS'ENSG00000100577'
p1747
aS'ENSG00000183250'
p1748
aS'ENSG00000176623'
p1749
aS'ENSG00000170322'
p1750
aS'ENSG00000177663'
p1751
aS'ENSG00000152256'
p1752
aS'ENSG00000158517'
p1753
aS'ENSG00000004897'
p1754
aS'ENSG00000139344'
p1755
aS'ENSG00000163013'
p1756
aS'ENSG00000122223'
p1757
atRp1758
ssS'lightblue3'
p1759
(dp1760
g4
g5
((lp1761
S'ENSG00000178115'
p1762
aS'ENSG00000186399'
p1763
aS'ENSG00000117834'
p1764
aS'ENSG00000218537'
p1765
aS'ENSG00000232653'
p1766
aS'ENSG00000176401'
p1767
aS'ENSG00000184389'
p1768
aS'ENSG00000099977'
p1769
aS'ENSG00000167526'
p1770
aS'ENSG00000167311'
p1771
aS'ENSG00000184674'
p1772
atRp1773
ssS'lightslateblue'
p1774
(dp1775
g4
g5
((lp1776
S'ENSG00000119335'
p1777
aS'ENSG00000167862'
p1778
aS'ENSG00000131844'
p1779
aS'ENSG00000164176'
p1780
aS'ENSG00000187166'
p1781
aS'ENSG00000249242'
p1782
aS'ENSG00000196141'
p1783
aS'ENSG00000214753'
p1784
aS'ENSG00000125818'
p1785
aS'ENSG00000184708'
p1786
aS'ENSG00000258289'
p1787
aS'ENSG00000062650'
p1788
aS'ENSG00000204644'
p1789
aS'ENSG00000139998'
p1790
aS'ENSG00000065559'
p1791
aS'ENSG00000156486'
p1792
aS'ENSG00000204217'
p1793
aS'ENSG00000164091'
p1794
atRp1795
ssS'lightblue4'
p1796
(dp1797
g4
g5
((lp1798
S'ENSG00000221821'
p1799
aS'ENSG00000196510'
p1800
aS'ENSG00000155970'
p1801
aS'ENSG00000196867'
p1802
aS'ENSG00000182272'
p1803
aS'ENSG00000144791'
p1804
aS'ENSG00000171853'
p1805
aS'ENSG00000158428'
p1806
aS'ENSG00000125835'
p1807
aS'ENSG00000142694'
p1808
aS'ENSG00000125458'
p1809
aS'ENSG00000128408'
p1810
aS'ENSG00000167641'
p1811
aS'ENSG00000070423'
p1812
aS'ENSG00000198860'
p1813
aS'ENSG00000198920'
p1814
aS'ENSG00000065621'
p1815
aS'ENSG00000181027'
p1816
atRp1817
ssS'lightsteelblue1'
p1818
(dp1819
g61
(lp1820
(lp1821
S'ENSG00000113916'
p1822
aFinf
ag65
(g67
S'\xf0\xf3\x88F\xe6\x8dj?'
tRp1823
ag65
(g67
S'@\x19\xb5YI\xc1\x93?'
tRp1824
aa(lp1825
S'ENSG00000015592'
p1826
aFinf
ag65
(g67
S'\xf0\xf3\x88F\xe6\x8dj?'
tRp1827
ag65
(g67
S'@\x19\xb5YI\xc1\x93?'
tRp1828
aa(lp1829
S'ENSG00000174521'
p1830
aFinf
ag65
(g67
S'\xf0\xf3\x88F\xe6\x8dj?'
tRp1831
ag65
(g67
S'@\x19\xb5YI\xc1\x93?'
tRp1832
aa(lp1833
S'ENSG00000187193'
p1834
aFinf
ag65
(g67
S'\xf0\xf3\x88F\xe6\x8dj?'
tRp1835
ag65
(g67
S'@\x19\xb5YI\xc1\x93?'
tRp1836
aasg4
g5
((lp1837
S'ENSG00000198130'
p1838
aS'ENSG00000120265'
p1839
aS'ENSG00000213901'
p1840
aS'ENSG00000144792'
p1841
aS'ENSG00000124207'
p1842
aS'ENSG00000236882'
p1843
aS'ENSG00000152465'
p1844
aS'ENSG00000176102'
p1845
aS'ENSG00000168116'
p1846
aS'ENSG00000205572'
p1847
aS'ENSG00000032742'
p1848
aS'ENSG00000144118'
p1849
aS'ENSG00000136280'
p1850
aS'ENSG00000124767'
p1851
aS'ENSG00000138663'
p1852
aS'ENSG00000152942'
p1853
aS'ENSG00000163312'
p1854
aS'ENSG00000185627'
p1855
aS'ENSG00000136243'
p1856
aS'ENSG00000106399'
p1857
aS'ENSG00000131966'
p1858
aS'ENSG00000136628'
p1859
aS'ENSG00000055609'
p1860
aS'ENSG00000173258'
p1861
aS'ENSG00000198250'
p1862
aS'ENSG00000100321'
p1863
aS'ENSG00000138468'
p1864
aS'ENSG00000177868'
p1865
aS'ENSG00000167325'
p1866
atRp1867
ssS'skyblue4'
p1868
(dp1869
g61
(lp1870
(lp1871
S'ENSG00000070808'
p1872
aFinf
ag65
(g67
S'\xf0\xf3\x88F\xe6\x8dj?'
tRp1873
ag65
(g67
S'\xa0\xa0\x87\x19FA\x9a?'
tRp1874
aa(lp1875
S'ENSG00000112297'
p1876
ag65
(g67
S'\x00\x00\x00\x00\x000\x83@'
tRp1877
ag65
(g67
S'\xfa-\x98\xb9a\x88z?'
tRp1878
ag65
(g67
S'\x90\xc0\x13=\x13\xc5\xa6?'
tRp1879
aa(lp1880
S'ENSG00000170500'
p1881
ag65
(g67
S'\x00\x00\x00\x00\x000\x83@'
tRp1882
ag65
(g67
S'\xfa-\x98\xb9a\x88z?'
tRp1883
ag65
(g67
S'\x90\xc0\x13=\x13\xc5\xa6?'
tRp1884
aa(lp1885
S'ENSG00000186868'
p1886
ag65
(g67
S'\x00\x00\x00\x00\x000\x83@'
tRp1887
ag65
(g67
S'\xfa-\x98\xb9a\x88z?'
tRp1888
ag65
(g67
S'\x90\xc0\x13=\x13\xc5\xa6?'
tRp1889
aasg4
g5
((lp1890
S'ENSG00000196653'
p1891
aS'ENSG00000253710'
p1892
aS'ENSG00000196227'
p1893
aS'ENSG00000182134'
p1894
aS'ENSG00000185666'
p1895
aS'ENSG00000165806'
p1896
aS'ENSG00000093072'
p1897
aS'ENSG00000123219'
p1898
aS'ENSG00000136206'
p1899
aS'ENSG00000144401'
p1900
aS'ENSG00000164241'
p1901
aS'ENSG00000157445'
p1902
aS'ENSG00000261794'
p1903
aS'ENSG00000144182'
p1904
aS'ENSG00000121350'
p1905
aS'ENSG00000166664'
p1906
aS'ENSG00000175344'
p1907
aS'ENSG00000133315'
p1908
aS'ENSG00000174652'
p1909
atRp1910
ssS'skyblue1'
p1911
(dp1912
g4
g5
((lp1913
S'ENSG00000138459'
p1914
aS'ENSG00000196963'
p1915
aS'ENSG00000165392'
p1916
aS'ENSG00000136869'
p1917
aS'ENSG00000135473'
p1918
aS'ENSG00000138381'
p1919
aS'ENSG00000250673'
p1920
aS'ENSG00000136630'
p1921
aS'ENSG00000155508'
p1922
aS'ENSG00000112852'
p1923
aS'ENSG00000087494'
p1924
aS'ENSG00000183060'
p1925
aS'ENSG00000223496'
p1926
aS'ENSG00000183671'
p1927
aS'ENSG00000087008'
p1928
aS'ENSG00000185684'
p1929
aS'ENSG00000162496'
p1930
aS'ENSG00000187068'
p1931
aS'ENSG00000213246'
p1932
aS'ENSG00000256771'
p1933
aS'ENSG00000197361'
p1934
aS'ENSG00000164694'
p1935
aS'ENSG00000157927'
p1936
aS'ENSG00000112130'
p1937
atRp1938
ssS'darkred'
p1939
(dp1940
g4
g5
((lp1941
S'ENSG00000107745'
p1942
aS'ENSG00000139190'
p1943
aS'ENSG00000175899'
p1944
aS'ENSG00000153012'
p1945
aS'ENSG00000217702'
p1946
aS'ENSG00000100994'
p1947
aS'ENSG00000119487'
p1948
aS'ENSG00000166689'
p1949
aS'ENSG00000112096'
p1950
aS'ENSG00000162688'
p1951
aS'ENSG00000155158'
p1952
aS'ENSG00000129103'
p1953
aS'ENSG00000135677'
p1954
aS'ENSG00000144935'
p1955
aS'ENSG00000070476'
p1956
aS'ENSG00000233276'
p1957
aS'ENSG00000184743'
p1958
aS'ENSG00000025796'
p1959
aS'ENSG00000197969'
p1960
aS'ENSG00000006282'
p1961
aS'ENSG00000129925'
p1962
aS'ENSG00000054654'
p1963
aS'ENSG00000084734'
p1964
aS'ENSG00000119969'
p1965
aS'ENSG00000151690'
p1966
aS'ENSG00000010318'
p1967
aS'ENSG00000100003'
p1968
aS'ENSG00000087088'
p1969
aS'ENSG00000164877'
p1970
aS'ENSG00000162704'
p1971
aS'ENSG00000168234'
p1972
aS'ENSG00000083290'
p1973
aS'ENSG00000130517'
p1974
atRp1975
ssS'skyblue2'
p1976
(dp1977
g4
g5
((lp1978
S'ENSG00000181826'
p1979
aS'ENSG00000160539'
p1980
aS'ENSG00000087365'
p1981
aS'ENSG00000153015'
p1982
aS'ENSG00000144026'
p1983
aS'ENSG00000068784'
p1984
aS'ENSG00000168096'
p1985
aS'ENSG00000101464'
p1986
aS'ENSG00000204531'
p1987
aS'ENSG00000142675'
p1988
aS'ENSG00000107614'
p1989
aS'ENSG00000125375'
p1990
aS'ENSG00000103356'
p1991
aS'ENSG00000104731'
p1992
aS'ENSG00000128973'
p1993
aS'ENSG00000159063'
p1994
aS'ENSG00000176715'
p1995
aS'ENSG00000205937'
p1996
aS'ENSG00000148690'
p1997
aS'ENSG00000108559'
p1998
aS'ENSG00000168803'
p1999
aS'ENSG00000156958'
p2000
aS'ENSG00000018699'
p2001
aS'ENSG00000095464'
p2002
aS'ENSG00000142684'
p2003
atRp2004
ssS'lightskyblue4'
p2005
(dp2006
g61
(lp2007
(lp2008
S'ENSG00000124205'
p2009
aFinf
ag65
(g67
S'\xcd!\xc1\x86\x10\xb1\x14?'
tRp2010
ag65
(g67
S'\x008\xb4\xa9\xd0pa?'
tRp2011
aa(lp2012
S'ENSG00000175497'
p2013
aFinf
ag65
(g67
S'\xcd!\xc1\x86\x10\xb1\x14?'
tRp2014
ag65
(g67
S'\x008\xb4\xa9\xd0pa?'
tRp2015
aa(lp2016
S'ENSG00000150625'
p2017
ag65
(g67
S'\x00\x00\x00\x00\x00\x10s@'
tRp2018
ag65
(g67
S'/\x0e6\xf6$\xe7.?'
tRp2019
ag65
(g67
S'\x80Qzq \x13x?'
tRp2020
aasg4
g5
((lp2021
S'ENSG00000161981'
p2022
aS'ENSG00000129673'
p2023
aS'ENSG00000196502'
p2024
aS'ENSG00000176165'
p2025
aS'ENSG00000075618'
p2026
aS'ENSG00000120699'
p2027
aS'ENSG00000172061'
p2028
aS'ENSG00000217455'
p2029
aS'ENSG00000186960'
p2030
aS'ENSG00000214046'
p2031
aS'ENSG00000156687'
p2032
atRp2033
ssS'lavenderblush3'
p2034
(dp2035
g61
(lp2036
(lp2037
g1014
ag65
(g67
S'wwwww\xf7S@'
tRp2038
ag65
(g67
S'\x7f\xa6\x02\x1dKMa?'
tRp2039
ag65
(g67
S'\xa0U\xea\x90M\xa7\x99?'
tRp2040
aa(lp2041
S'ENSG00000110799'
p2042
ag65
(g67
S'\x0f\x0f\x0f\x0f\x0f\x8fQ@'
tRp2043
ag65
(g67
S'X%LR\xe9\xb4e?'
tRp2044
ag65
(g67
S'@\xc8\xa1\xd2Rt\x9d?'
tRp2045
aa(lp2046
S'ENSG00000179776'
p2047
ag65
(g67
S'\x8f\xc2\xf5(\\\x8fG@'
tRp2048
ag65
(g67
S'N\x9f\xaa[\xc2\x14v?'
tRp2049
ag65
(g67
S'\xc0\x0e\xcc\x94a[\xa8?'
tRp2050
aa(lp2051
S'ENSG00000135218'
p2052
aFinf
ag65
(g67
S'\x04\xb7\xe6\xb4l\xeas?'
tRp2053
ag65
(g67
S'\xc0\x0e\xcc\x94a[\xa8?'
tRp2054
aa(lp2055
S'ENSG00000131477'
p2056
aFinf
ag65
(g67
S'\x04\xb7\xe6\xb4l\xeas?'
tRp2057
ag65
(g67
S'\xc0\x0e\xcc\x94a[\xa8?'
tRp2058
aa(lp2059
S'ENSG00000025708'
p2060
aFinf
ag65
(g67
S'\x04\xb7\xe6\xb4l\xeas?'
tRp2061
ag65
(g67
S'\xc0\x0e\xcc\x94a[\xa8?'
tRp2062
aa(lp2063
S'ENSG00000158258'
p2064
aFinf
ag65
(g67
S'\x04\xb7\xe6\xb4l\xeas?'
tRp2065
ag65
(g67
S'\xc0\x0e\xcc\x94a[\xa8?'
tRp2066
aa(lp2067
S'ENSG00000176435'
p2068
ag65
(g67
S'\x00\x00\x00\x00\x00(s@'
tRp2069
ag65
(g67
S'\t\x92}\xe1%\xe2\x83?'
tRp2070
ag65
(g67
S'\xd0\x9f\xd8\xfdT`\xa8?'
tRp2071
aasg4
g5
((lp2072
S'ENSG00000162415'
p2073
aS'ENSG00000107669'
p2074
aS'ENSG00000141295'
p2075
aS'ENSG00000005882'
p2076
aS'ENSG00000086200'
p2077
aS'ENSG00000165810'
p2078
aS'ENSG00000135698'
p2079
aS'ENSG00000204435'
p2080
aS'ENSG00000171503'
p2081
aS'ENSG00000128829'
p2082
aS'ENSG00000104823'
p2083
aS'ENSG00000168036'
p2084
aS'ENSG00000075407'
p2085
aS'ENSG00000240563'
p2086
aS'ENSG00000172590'
p2087
aS'ENSG00000065600'
p2088
aS'ENSG00000123191'
p2089
aS'ENSG00000170323'
p2090
aS'ENSG00000163703'
p2091
aS'ENSG00000235098'
p2092
aS'ENSG00000007312'
p2093
aS'ENSG00000062598'
p2094
aS'ENSG00000110318'
p2095
aS'ENSG00000072778'
p2096
aS'ENSG00000119471'
p2097
atRp2098
ssS'lavenderblush2'
p2099
(dp2100
g4
g5
((lp2101
S'ENSG00000096872'
p2102
aS'ENSG00000113296'
p2103
aS'ENSG00000163257'
p2104
aS'ENSG00000203791'
p2105
aS'ENSG00000243317'
p2106
aS'ENSG00000167118'
p2107
aS'ENSG00000167595'
p2108
aS'ENSG00000102904'
p2109
aS'ENSG00000088812'
p2110
aS'ENSG00000123810'
p2111
aS'ENSG00000148331'
p2112
aS'ENSG00000183833'
p2113
aS'ENSG00000144191'
p2114
aS'ENSG00000189306'
p2115
aS'ENSG00000166171'
p2116
aS'ENSG00000108264'
p2117
aS'ENSG00000140104'
p2118
aS'ENSG00000184949'
p2119
aS'ENSG00000123080'
p2120
aS'ENSG00000203965'
p2121
atRp2122
ssS'skyblue3'
p2123
(dp2124
g61
(lp2125
(lp2126
g2047
ag65
(g67
S'\xe9\xa2\x8b.\xba\x880@'
tRp2127
ag65
(g67
S'\x10;\xb32M\x1d\x1d?'
tRp2128
ag65
(g67
S'\x00\xa8R1|\x10m?'
tRp2129
aa(lp2130
S'ENSG00000187513'
p2131
aFinf
ag65
(g67
S'\x01\xac\x94\x15/\xe6:?'
tRp2132
ag65
(g67
S'@]\xa1\xe9\x14\xe6\x89?'
tRp2133
aa(lp2134
S'ENSG00000198844'
p2135
aFinf
ag65
(g67
S'\x01\xac\x94\x15/\xe6:?'
tRp2136
ag65
(g67
S'@]\xa1\xe9\x14\xe6\x89?'
tRp2137
aasg4
g5
((lp2138
S'ENSG00000163053'
p2139
aS'ENSG00000037749'
p2140
aS'ENSG00000113319'
p2141
aS'ENSG00000088387'
p2142
aS'ENSG00000141934'
p2143
aS'ENSG00000125810'
p2144
aS'ENSG00000118946'
p2145
aS'ENSG00000111490'
p2146
aS'ENSG00000182534'
p2147
aS'ENSG00000125878'
p2148
aS'ENSG00000122691'
p2149
aS'ENSG00000120256'
p2150
aS'ENSG00000141469'
p2151
aS'ENSG00000204301'
p2152
aS'ENSG00000088808'
p2153
aS'ENSG00000131849'
p2154
aS'ENSG00000130300'
p2155
aS'ENSG00000078114'
p2156
aS'ENSG00000196872'
p2157
aS'ENSG00000182446'
p2158
aS'ENSG00000167861'
p2159
aS'ENSG00000105699'
p2160
aS'ENSG00000101574'
p2161
aS'ENSG00000169894'
p2162
aS'ENSG00000179776'
p2163
aS'ENSG00000105939'
p2164
aS'ENSG00000127329'
p2165
aS'ENSG00000174640'
p2166
aS'ENSG00000102755'
p2167
atRp2168
ssS'blue2'
p2169
(dp2170
g4
g5
((lp2171
S'ENSG00000198353'
p2172
aS'ENSG00000174373'
p2173
aS'ENSG00000086189'
p2174
aS'ENSG00000183722'
p2175
aS'ENSG00000109794'
p2176
aS'ENSG00000103148'
p2177
aS'ENSG00000143194'
p2178
aS'ENSG00000135387'
p2179
aS'ENSG00000158987'
p2180
aS'ENSG00000136856'
p2181
aS'ENSG00000137573'
p2182
aS'ENSG00000128739'
p2183
aS'ENSG00000066185'
p2184
aS'ENSG00000129946'
p2185
aS'ENSG00000179715'
p2186
aS'ENSG00000187955'
p2187
aS'ENSG00000177106'
p2188
aS'ENSG00000166377'
p2189
aS'ENSG00000106809'
p2190
aS'ENSG00000116922'
p2191
aS'ENSG00000150782'
p2192
aS'ENSG00000112139'
p2193
aS'ENSG00000136235'
p2194
atRp2195
ssS'blue4'
p2196
(dp2197
g61
(lp2198
(lp2199
S'ENSG00000147576'
p2200
aFinf
ag65
(g67
S' \xb3\xe6\xb4l\xeas?'
tRp2201
ag65
(g67
S'\x00\xb3\xe6\xb4l\xeas?'
tRp2202
aasg4
g5
((lp2203
S'ENSG00000112343'
p2204
aS'ENSG00000198270'
p2205
aS'ENSG00000008226'
p2206
aS'ENSG00000164253'
p2207
aS'ENSG00000142632'
p2208
aS'ENSG00000203684'
p2209
aS'ENSG00000173933'
p2210
aS'ENSG00000178852'
p2211
aS'ENSG00000187987'
p2212
aS'ENSG00000187980'
p2213
aS'ENSG00000117228'
p2214
aS'ENSG00000186765'
p2215
aS'ENSG00000137996'
p2216
aS'ENSG00000158483'
p2217
aS'ENSG00000026950'
p2218
aS'ENSG00000171843'
p2219
aS'ENSG00000157999'
p2220
atRp2221
ssS'lavenderblush1'
p2222
(dp2223
g4
g5
((lp2224
S'ENSG00000131044'
p2225
aS'ENSG00000133962'
p2226
aS'ENSG00000163492'
p2227
aS'ENSG00000171757'
p2228
aS'ENSG00000141337'
p2229
aS'ENSG00000183066'
p2230
aS'ENSG00000137441'
p2231
aS'ENSG00000198464'
p2232
aS'ENSG00000187994'
p2233
aS'ENSG00000005100'
p2234
aS'ENSG00000118922'
p2235
aS'ENSG00000165929'
p2236
aS'ENSG00000168275'
p2237
aS'ENSG00000186453'
p2238
aS'ENSG00000204632'
p2239
atRp2240
ssS'plum4'
p2241
(dp2242
g61
(lp2243
(lp2244
S'ENSG00000169679'
p2245
aFinf
ag65
(g67
S'\x04\xb7\xe6\xb4l\xeas?'
tRp2246
ag65
(g67
S'\xc0\x0e\xcc\x94a[\xa8?'
tRp2247
aasg4
g5
((lp2248
S'ENSG00000179580'
p2249
aS'ENSG00000161980'
p2250
aS'ENSG00000198736'
p2251
aS'ENSG00000006607'
p2252
aS'ENSG00000109466'
p2253
aS'ENSG00000228146'
p2254
aS'ENSG00000177169'
p2255
aS'ENSG00000148343'
p2256
aS'ENSG00000100024'
p2257
aS'ENSG00000178177'
p2258
aS'ENSG00000106948'
p2259
aS'ENSG00000143669'
p2260
aS'ENSG00000142856'
p2261
aS'ENSG00000177885'
p2262
aS'ENSG00000174038'
p2263
aS'ENSG00000167130'
p2264
aS'ENSG00000175264'
p2265
atRp2266
ssS'floralwhite'
p2267
(dp2268
g4
g5
((lp2269
S'ENSG00000072310'
p2270
aS'ENSG00000083123'
p2271
aS'ENSG00000169738'
p2272
aS'ENSG00000172340'
p2273
aS'ENSG00000183569'
p2274
aS'ENSG00000165752'
p2275
aS'ENSG00000170469'
p2276
aS'ENSG00000105552'
p2277
aS'ENSG00000189269'
p2278
aS'ENSG00000118200'
p2279
aS'ENSG00000073584'
p2280
aS'ENSG00000145945'
p2281
aS'ENSG00000089220'
p2282
aS'ENSG00000103005'
p2283
aS'ENSG00000206044'
p2284
aS'ENSG00000156030'
p2285
aS'ENSG00000183044'
p2286
aS'ENSG00000204947'
p2287
aS'ENSG00000172785'
p2288
aS'ENSG00000169085'
p2289
aS'ENSG00000151834'
p2290
aS'ENSG00000184232'
p2291
aS'ENSG00000180953'
p2292
aS'ENSG00000049245'
p2293
aS'ENSG00000156639'
p2294
aS'ENSG00000100304'
p2295
aS'ENSG00000102858'
p2296
aS'ENSG00000113758'
p2297
atRp2298
ssS'coral'
p2299
(dp2300
g4
g5
((lp2301
S'ENSG00000186638'
p2302
aS'ENSG00000127337'
p2303
aS'ENSG00000183291'
p2304
aS'ENSG00000176720'
p2305
aS'ENSG00000156869'
p2306
aS'ENSG00000172171'
p2307
aS'ENSG00000178202'
p2308
aS'ENSG00000103199'
p2309
aS'ENSG00000172273'
p2310
aS'ENSG00000184898'
p2311
aS'ENSG00000132254'
p2312
aS'ENSG00000153446'
p2313
aS'ENSG00000189129'
p2314
aS'ENSG00000135750'
p2315
aS'ENSG00000177697'
p2316
aS'ENSG00000164825'
p2317
aS'ENSG00000112276'
p2318
aS'ENSG00000089063'
p2319
aS'ENSG00000129116'
p2320
aS'ENSG00000180902'
p2321
atRp2322
ssS'firebrick3'
p2323
(dp2324
g61
(lp2325
(lp2326
S'ENSG00000179104'
p2327
ag65
(g67
S'\x00\x00\x00\x00\x000\x83@'
tRp2328
ag65
(g67
S'\xfa-\x98\xb9a\x88z?'
tRp2329
ag65
(g67
S'\x90\xc0\x13=\x13\xc5\xa6?'
tRp2330
aasg4
g5
((lp2331
S'ENSG00000131127'
p2332
aS'ENSG00000124171'
p2333
aS'ENSG00000185565'
p2334
aS'ENSG00000169914'
p2335
aS'ENSG00000130684'
p2336
aS'ENSG00000135164'
p2337
aS'ENSG00000183186'
p2338
aS'ENSG00000140386'
p2339
aS'ENSG00000100201'
p2340
aS'ENSG00000243943'
p2341
aS'ENSG00000130024'
p2342
aS'ENSG00000101191'
p2343
aS'ENSG00000141497'
p2344
aS'ENSG00000181513'
p2345
aS'ENSG00000100650'
p2346
aS'ENSG00000120333'
p2347
aS'ENSG00000164308'
p2348
aS'ENSG00000142686'
p2349
atRp2350
ssS'lightcyan'
p2351
(dp2352
g4
g5
((lp2353
S'ENSG00000141076'
p2354
aS'ENSG00000163159'
p2355
aS'ENSG00000115053'
p2356
aS'ENSG00000138363'
p2357
aS'ENSG00000255150'
p2358
aS'ENSG00000110104'
p2359
aS'ENSG00000152404'
p2360
aS'ENSG00000132382'
p2361
aS'ENSG00000053372'
p2362
aS'ENSG00000136925'
p2363
aS'ENSG00000204775'
p2364
aS'ENSG00000140153'
p2365
aS'ENSG00000179314'
p2366
aS'ENSG00000126602'
p2367
aS'ENSG00000114491'
p2368
aS'ENSG00000102967'
p2369
aS'ENSG00000122085'
p2370
aS'ENSG00000164323'
p2371
aS'ENSG00000173114'
p2372
aS'ENSG00000091127'
p2373
aS'ENSG00000168827'
p2374
aS'ENSG00000118894'
p2375
aS'ENSG00000134809'
p2376
aS'ENSG00000166478'
p2377
aS'ENSG00000108064'
p2378
aS'ENSG00000108588'
p2379
aS'ENSG00000171714'
p2380
aS'ENSG00000187514'
p2381
aS'ENSG00000150783'
p2382
aS'ENSG00000174177'
p2383
aS'ENSG00000171861'
p2384
aS'ENSG00000101161'
p2385
aS'ENSG00000105447'
p2386
aS'ENSG00000068654'
p2387
aS'ENSG00000136371'
p2388
atRp2389
ssS'sienna3'
p2390
(dp2391
g4
g5
((lp2392
S'ENSG00000151632'
p2393
aS'ENSG00000115073'
p2394
aS'ENSG00000132329'
p2395
aS'ENSG00000172346'
p2396
aS'ENSG00000139946'
p2397
aS'ENSG00000103051'
p2398
aS'ENSG00000101134'
p2399
aS'ENSG00000067208'
p2400
aS'ENSG00000058404'
p2401
aS'ENSG00000169203'
p2402
aS'ENSG00000184887'
p2403
aS'ENSG00000086289'
p2404
aS'ENSG00000254531'
p2405
aS'ENSG00000134775'
p2406
aS'ENSG00000109819'
p2407
aS'ENSG00000177425'
p2408
aS'ENSG00000112697'
p2409
aS'ENSG00000164414'
p2410
aS'ENSG00000063127'
p2411
aS'ENSG00000110400'
p2412
aS'ENSG00000204611'
p2413
aS'ENSG00000215375'
p2414
aS'ENSG00000108515'
p2415
aS'ENSG00000160991'
p2416
aS'ENSG00000138039'
p2417
aS'ENSG00000163749'
p2418
aS'ENSG00000169026'
p2419
aS'ENSG00000105404'
p2420
aS'ENSG00000134769'
p2421
atRp2422
ssS'firebrick4'
p2423
(dp2424
g61
(lp2425
(lp2426
S'ENSG00000135298'
p2427
aFinf
ag65
(g67
S'\xfe\xf3\x88F\xe6\x8dz?'
tRp2428
ag65
(g67
S'\x10\x1b\x0bq\xf4a\xa0?'
tRp2429
aasg4
g5
((lp2430
S'ENSG00000220205'
p2431
aS'ENSG00000102882'
p2432
aS'ENSG00000182141'
p2433
aS'ENSG00000070269'
p2434
aS'ENSG00000150456'
p2435
aS'ENSG00000118307'
p2436
aS'ENSG00000148832'
p2437
aS'ENSG00000169071'
p2438
aS'ENSG00000149260'
p2439
aS'ENSG00000127399'
p2440
aS'ENSG00000160293'
p2441
aS'ENSG00000117477'
p2442
aS'ENSG00000064309'
p2443
aS'ENSG00000141127'
p2444
aS'ENSG00000156795'
p2445
aS'ENSG00000135951'
p2446
aS'ENSG00000169592'
p2447
aS'ENSG00000188687'
p2448
aS'ENSG00000196263'
p2449
aS'ENSG00000090661'
p2450
aS'ENSG00000112280'
p2451
aS'ENSG00000072134'
p2452
aS'ENSG00000219626'
p2453
atRp2454
ssS'honeydew1'
p2455
(dp2456
g61
(lp2457
(lp2458
S'ENSG00000198805'
p2459
aFinf
ag65
(g67
S'\x1c\xc3(nY%\xae>'
tRp2460
ag65
(g67
S'\x00\x00\x9cO\xfe\xf4\xe0>'
tRp2461
aa(lp2462
S'ENSG00000105639'
p2463
aFinf
ag65
(g67
S'\x1c\xc3(nY%\xae>'
tRp2464
ag65
(g67
S'\x00\x00\x9cO\xfe\xf4\xe0>'
tRp2465
aa(lp2466
S'ENSG00000069399'
p2467
ag65
(g67
S'\x00\x00\x00\x00\x00\xe0R@'
tRp2468
ag65
(g67
S'\x93\x12\\\xca|5\x13?'
tRp2469
ag65
(g67
S'\x00\x18u\x13\xdb\xcd@?'
tRp2470
aa(lp2471
S'ENSG00000097046'
p2472
aFinf
ag65
(g67
S'h/\xdb\xef\xe3\xf7\x1c?'
tRp2473
ag65
(g67
S'\x00x\x16\xa7a\xb8E?'
tRp2474
aasg4
g5
((lp2475
S'ENSG00000118804'
p2476
aS'ENSG00000110060'
p2477
aS'ENSG00000162669'
p2478
aS'ENSG00000106538'
p2479
aS'ENSG00000114698'
p2480
aS'ENSG00000108797'
p2481
aS'ENSG00000097046'
p2482
aS'ENSG00000244731'
p2483
aS'ENSG00000154127'
p2484
aS'ENSG00000249087'
p2485
aS'ENSG00000109381'
p2486
aS'ENSG00000064225'
p2487
aS'ENSG00000047315'
p2488
aS'ENSG00000132313'
p2489
aS'ENSG00000106565'
p2490
aS'ENSG00000105497'
p2491
aS'ENSG00000150403'
p2492
aS'ENSG00000006625'
p2493
aS'ENSG00000125945'
p2494
aS'ENSG00000078018'
p2495
aS'ENSG00000105355'
p2496
aS'ENSG00000171302'
p2497
aS'ENSG00000043591'
p2498
aS'ENSG00000159216'
p2499
aS'ENSG00000186628'
p2500
atRp2501
ssS'lightsteelblue'
p2502
(dp2503
g4
g5
((lp2504
S'ENSG00000157653'
p2505
aS'ENSG00000073060'
p2506
aS'ENSG00000136100'
p2507
aS'ENSG00000106799'
p2508
aS'ENSG00000133466'
p2509
aS'ENSG00000182670'
p2510
aS'ENSG00000166788'
p2511
aS'ENSG00000111057'
p2512
aS'ENSG00000079841'
p2513
aS'ENSG00000167528'
p2514
aS'ENSG00000170759'
p2515
aS'ENSG00000172985'
p2516
aS'ENSG00000101452'
p2517
aS'ENSG00000157680'
p2518
aS'ENSG00000134871'
p2519
aS'ENSG00000101447'
p2520
aS'ENSG00000183426'
p2521
aS'ENSG00000198586'
p2522
aS'ENSG00000108187'
p2523
aS'ENSG00000185201'
p2524
aS'ENSG00000162836'
p2525
aS'ENSG00000186417'
p2526
aS'ENSG00000123427'
p2527
atRp2528
ssS'yellow4'
p2529
(dp2530
g4
g5
((lp2531
S'ENSG00000186493'
p2532
aS'ENSG00000177646'
p2533
aS'ENSG00000169967'
p2534
aS'ENSG00000145780'
p2535
aS'ENSG00000108010'
p2536
aS'ENSG00000125877'
p2537
aS'ENSG00000018189'
p2538
aS'ENSG00000101391'
p2539
aS'ENSG00000111696'
p2540
aS'ENSG00000137074'
p2541
aS'ENSG00000197548'
p2542
aS'ENSG00000136011'
p2543
aS'ENSG00000099290'
p2544
aS'ENSG00000119321'
p2545
aS'ENSG00000173163'
p2546
aS'ENSG00000162885'
p2547
aS'ENSG00000103671'
p2548
aS'ENSG00000082781'
p2549
aS'ENSG00000135506'
p2550
aS'ENSG00000156261'
p2551
aS'ENSG00000136930'
p2552
aS'ENSG00000156831'
p2553
aS'ENSG00000188992'
p2554
aS'ENSG00000163959'
p2555
atRp2556
ssS'greenyellow'
p2557
(dp2558
g61
(lp2559
(lp2560
S'ENSG00000133454'
p2561
ag65
(g67
S'\x00\x00\x00\x00\x00(s@'
tRp2562
ag65
(g67
S'\t\x92}\xe1%\xe2\x83?'
tRp2563
ag65
(g67
S'\xd0\x9f\xd8\xfdT`\xa8?'
tRp2564
aasg4
g5
((lp2565
S'ENSG00000158717'
p2566
aS'ENSG00000073169'
p2567
aS'ENSG00000184470'
p2568
aS'ENSG00000144021'
p2569
aS'ENSG00000126870'
p2570
aS'ENSG00000146830'
p2571
aS'ENSG00000204516'
p2572
aS'ENSG00000140400'
p2573
aS'ENSG00000152527'
p2574
aS'ENSG00000168772'
p2575
aS'ENSG00000132563'
p2576
aS'ENSG00000187715'
p2577
aS'ENSG00000131238'
p2578
aS'ENSG00000125337'
p2579
aS'ENSG00000152952'
p2580
aS'ENSG00000173209'
p2581
aS'ENSG00000162959'
p2582
aS'ENSG00000050165'
p2583
aS'ENSG00000183688'
p2584
aS'ENSG00000157259'
p2585
aS'ENSG00000176853'
p2586
aS'ENSG00000110719'
p2587
aS'ENSG00000100299'
p2588
aS'ENSG00000161265'
p2589
aS'ENSG00000085982'
p2590
aS'ENSG00000115828'
p2591
aS'ENSG00000168517'
p2592
aS'ENSG00000215440'
p2593
aS'ENSG00000104953'
p2594
aS'ENSG00000185013'
p2595
aS'ENSG00000182759'
p2596
aS'ENSG00000145781'
p2597
aS'ENSG00000139718'
p2598
aS'ENSG00000103226'
p2599
aS'ENSG00000170949'
p2600
aS'ENSG00000122033'
p2601
aS'ENSG00000258366'
p2602
atRp2603
ssS'magenta3'
p2604
(dp2605
g61
(lp2606
(lp2607
S'ENSG00000016082'
p2608
ag65
(g67
S'\xe9\xa2\x8b.\xbah[@'
tRp2609
ag65
(g67
S'\xbb_\xfa\xde\r\xefS?'
tRp2610
ag65
(g67
S'\x00\x02\xcaW\xe8`\x81?'
tRp2611
aa(lp2612
S'ENSG00000259663'
p2613
ag65
(g67
S'\x00\x00\x00\x00\x00\xb0R@'
tRp2614
ag65
(g67
S'6y\xa9\xd7vqc?'
tRp2615
ag65
(g67
S'\xc0(\x1c\xed\x08\xfe\x8c?'
tRp2616
aa(lp2617
S'ENSG00000131668'
p2618
ag65
(g67
S'\x00\x00\x00\x00\x00(s@'
tRp2619
ag65
(g67
S'\t\x92}\xe1%\xe2\x83?'
tRp2620
ag65
(g67
S'\xd0\x9f\xd8\xfdT`\xa8?'
tRp2621
aa(lp2622
S'ENSG00000224259'
p2623
ag65
(g67
S'\x00\x00\x00\x00\x00(s@'
tRp2624
ag65
(g67
S'\t\x92}\xe1%\xe2\x83?'
tRp2625
ag65
(g67
S'\xd0\x9f\xd8\xfdT`\xa8?'
tRp2626
aasg4
g5
((lp2627
S'ENSG00000121579'
p2628
aS'ENSG00000059122'
p2629
aS'ENSG00000182150'
p2630
aS'ENSG00000011590'
p2631
aS'ENSG00000164118'
p2632
aS'ENSG00000181240'
p2633
aS'ENSG00000131668'
p2634
aS'ENSG00000165650'
p2635
aS'ENSG00000213077'
p2636
aS'ENSG00000163380'
p2637
aS'ENSG00000069011'
p2638
aS'ENSG00000167196'
p2639
aS'ENSG00000048544'
p2640
aS'ENSG00000048545'
p2641
aS'ENSG00000112599'
p2642
atRp2643
ssS'navajowhite1'
p2644
(dp2645
g4
g5
((lp2646
S'ENSG00000197140'
p2647
aS'ENSG00000116157'
p2648
aS'ENSG00000163900'
p2649
aS'ENSG00000116815'
p2650
aS'ENSG00000018510'
p2651
aS'ENSG00000146535'
p2652
aS'ENSG00000266173'
p2653
aS'ENSG00000106803'
p2654
aS'ENSG00000188888'
p2655
aS'ENSG00000167766'
p2656
aS'ENSG00000131100'
p2657
aS'ENSG00000109016'
p2658
aS'ENSG00000119977'
p2659
aS'ENSG00000136827'
p2660
aS'ENSG00000143486'
p2661
aS'ENSG00000111886'
p2662
aS'ENSG00000204128'
p2663
aS'ENSG00000180210'
p2664
aS'ENSG00000088986'
p2665
aS'ENSG00000146221'
p2666
aS'ENSG00000171617'
p2667
atRp2668
ssS'navajowhite2'
p2669
(dp2670
g4
g5
((lp2671
S'ENSG00000124731'
p2672
aS'ENSG00000257335'
p2673
aS'ENSG00000151651'
p2674
aS'ENSG00000122861'
p2675
aS'ENSG00000148935'
p2676
aS'ENSG00000186529'
p2677
aS'ENSG00000008516'
p2678
aS'ENSG00000254087'
p2679
aS'ENSG00000145287'
p2680
aS'ENSG00000198848'
p2681
aS'ENSG00000143603'
p2682
aS'ENSG00000213523'
p2683
aS'ENSG00000142512'
p2684
aS'ENSG00000118322'
p2685
aS'ENSG00000154719'
p2686
aS'ENSG00000130751'
p2687
aS'ENSG00000254415'
p2688
aS'ENSG00000198168'
p2689
aS'ENSG00000171431'
p2690
aS'ENSG00000100985'
p2691
aS'ENSG00000170866'
p2692
aS'ENSG00000186431'
p2693
aS'ENSG00000101307'
p2694
aS'ENSG00000186470'
p2695
aS'ENSG00000197249'
p2696
aS'ENSG00000105501'
p2697
atRp2698
ssS'lightcoral'
p2699
(dp2700
g61
(lp2701
(lp2702
S'ENSG00000137571'
p2703
aFinf
ag65
(g67
S'\xcd!\xc1\x86\x10\xb1\x14?'
tRp2704
ag65
(g67
S'\x00Dy\xf5\x99\xafD?'
tRp2705
aasg4
g5
((lp2706
S'ENSG00000160695'
p2707
aS'ENSG00000185290'
p2708
aS'ENSG00000170684'
p2709
aS'ENSG00000124882'
p2710
aS'ENSG00000154928'
p2711
aS'ENSG00000185298'
p2712
aS'ENSG00000105519'
p2713
aS'ENSG00000253719'
p2714
aS'ENSG00000255098'
p2715
aS'ENSG00000137776'
p2716
aS'ENSG00000138600'
p2717
aS'ENSG00000078674'
p2718
aS'ENSG00000036448'
p2719
aS'ENSG00000119888'
p2720
aS'ENSG00000113361'
p2721
aS'ENSG00000111321'
p2722
aS'ENSG00000182771'
p2723
aS'ENSG00000183346'
p2724
aS'ENSG00000144644'
p2725
aS'ENSG00000105877'
p2726
aS'ENSG00000152061'
p2727
aS'ENSG00000151208'
p2728
aS'ENSG00000138829'
p2729
atRp2730
ssS'orangered'
p2731
(dp2732
g61
(lp2733
(lp2734
g641
ag65
(g67
S'\xab\xaa\xaa\xaa\xaa\xea`@'
tRp2735
ag65
(g67
S'a\x00`\x93B\x13A?'
tRp2736
ag65
(g67
S'@\x19\x90\x8c\xccg\x88?'
tRp2737
aasg4
g5
((lp2738
S'ENSG00000177042'
p2739
aS'ENSG00000184454'
p2740
aS'ENSG00000186297'
p2741
aS'ENSG00000166897'
p2742
aS'ENSG00000259363'
p2743
aS'ENSG00000169245'
p2744
aS'ENSG00000105695'
p2745
aS'ENSG00000255046'
p2746
aS'ENSG00000166682'
p2747
aS'ENSG00000163347'
p2748
aS'ENSG00000243284'
p2749
aS'ENSG00000158887'
p2750
atRp2751
ssS'navajowhite'
p2752
(dp2753
g61
(lp2754
(lp2755
S'ENSG00000184809'
p2756
aFinf
ag65
(g67
S'\xf0\xf3\x88F\xe6\x8dj?'
tRp2757
ag65
(g67
S'\x80\x08\xa5o;}\x90?'
tRp2758
aa(lp2759
S'ENSG00000113212'
p2760
ag65
(g67
S'\x00\x00\x00\x00\x000\x83@'
tRp2761
ag65
(g67
S'\xfa-\x98\xb9a\x88z?'
tRp2762
ag65
(g67
S'\x80F\xe0\xe5\xaaF\x9a?'
tRp2763
aa(lp2764
S'ENSG00000120324'
p2765
ag65
(g67
S'\x00\x00\x00\x00\x00\x80i@'
tRp2766
ag65
(g67
S'\xdc\xab\xb6\x9fX}\x8a?'
tRp2767
ag65
(g67
S'\x80F\xe0\xe5\xaaF\x9a?'
tRp2768
aa(lp2769
S'ENSG00000120327'
p2770
ag65
(g67
S'\x00\x00\x00\x00\x00(s@'
tRp2771
ag65
(g67
S'm\x8a}\xe1%\xe2\x83?'
tRp2772
ag65
(g67
S'\x80F\xe0\xe5\xaaF\x9a?'
tRp2773
aa(lp2774
S'ENSG00000081818'
p2775
ag65
(g67
S'\x00\x00\x00\x00\x000\x83@'
tRp2776
ag65
(g67
S'\xfa-\x98\xb9a\x88z?'
tRp2777
ag65
(g67
S'\x80F\xe0\xe5\xaaF\x9a?'
tRp2778
aasg4
g5
((lp2779
S'ENSG00000168487'
p2780
aS'ENSG00000161243'
p2781
aS'ENSG00000044574'
p2782
aS'ENSG00000166598'
p2783
aS'ENSG00000180398'
p2784
aS'ENSG00000128791'
p2785
aS'ENSG00000116489'
p2786
aS'ENSG00000139675'
p2787
aS'ENSG00000146151'
p2788
aS'ENSG00000164307'
p2789
aS'ENSG00000166794'
p2790
aS'ENSG00000125731'
p2791
aS'ENSG00000183778'
p2792
aS'ENSG00000091136'
p2793
aS'ENSG00000156234'
p2794
atRp2795
ssS'pink3'
p2796
(dp2797
g4
g5
((lp2798
S'ENSG00000243667'
p2799
aS'ENSG00000127952'
p2800
aS'ENSG00000112218'
p2801
aS'ENSG00000169609'
p2802
aS'ENSG00000118017'
p2803
aS'ENSG00000146707'
p2804
aS'ENSG00000172123'
p2805
aS'ENSG00000188372'
p2806
aS'ENSG00000143185'
p2807
aS'ENSG00000198035'
p2808
aS'ENSG00000100599'
p2809
aS'ENSG00000135968'
p2810
atRp2811
ssS'mistyrose'
p2812
(dp2813
g4
g5
((lp2814
S'ENSG00000103253'
p2815
aS'ENSG00000135914'
p2816
aS'ENSG00000158417'
p2817
aS'ENSG00000134278'
p2818
aS'ENSG00000115364'
p2819
aS'ENSG00000133739'
p2820
aS'ENSG00000137709'
p2821
aS'ENSG00000185808'
p2822
aS'ENSG00000214226'
p2823
aS'ENSG00000123415'
p2824
aS'ENSG00000008952'
p2825
aS'ENSG00000143149'
p2826
aS'ENSG00000268838'
p2827
atRp2828
ssS'royalblue'
p2829
(dp2830
g61
(lp2831
(lp2832
S'ENSG00000174672'
p2833
ag65
(g67
S'\x00\x00\x00\x00\x000\x83@'
tRp2834
ag65
(g67
S'\xfa-\x98\xb9a\x88z?'
tRp2835
ag65
(g67
S'\xc0\xc2\x8a\xd5ar\x8a?'
tRp2836
aa(lp2837
S'ENSG00000196507'
p2838
ag65
(g67
S'UUUUU\xd5P@'
tRp2839
ag65
(g67
S'9qKS\xa6y\xa0?'
tRp2840
ag65
(g67
S'@qKS\xa6y\xa0?'
tRp2841
aasg4
g5
((lp2842
S'ENSG00000169750'
p2843
aS'ENSG00000119185'
p2844
aS'ENSG00000241258'
p2845
aS'ENSG00000130193'
p2846
aS'ENSG00000100284'
p2847
aS'ENSG00000087237'
p2848
aS'ENSG00000166260'
p2849
aS'ENSG00000189045'
p2850
aS'ENSG00000185324'
p2851
aS'ENSG00000169689'
p2852
aS'ENSG00000169683'
p2853
aS'ENSG00000157322'
p2854
aS'ENSG00000164941'
p2855
aS'ENSG00000122692'
p2856
aS'ENSG00000139428'
p2857
aS'ENSG00000136682'
p2858
aS'ENSG00000134905'
p2859
aS'ENSG00000108932'
p2860
aS'ENSG00000123552'
p2861
aS'ENSG00000146574'
p2862
aS'ENSG00000206530'
p2863
aS'ENSG00000151917'
p2864
aS'ENSG00000119715'
p2865
aS'ENSG00000164494'
p2866
aS'ENSG00000172878'
p2867
aS'ENSG00000107611'
p2868
aS'ENSG00000070669'
p2869
aS'ENSG00000160226'
p2870
aS'ENSG00000114770'
p2871
aS'ENSG00000079432'
p2872
aS'ENSG00000053900'
p2873
aS'ENSG00000187535'
p2874
aS'ENSG00000197020'
p2875
aS'ENSG00000196458'
p2876
atRp2877
ssS'white'
p2878
(dp2879
g4
g5
((lp2880
S'ENSG00000198131'
p2881
aS'ENSG00000117139'
p2882
aS'ENSG00000196743'
p2883
aS'ENSG00000165983'
p2884
aS'ENSG00000164081'
p2885
aS'ENSG00000130714'
p2886
aS'ENSG00000166037'
p2887
aS'ENSG00000183605'
p2888
aS'ENSG00000183255'
p2889
aS'ENSG00000187650'
p2890
aS'ENSG00000163666'
p2891
aS'ENSG00000105926'
p2892
aS'ENSG00000109790'
p2893
aS'ENSG00000056586'
p2894
aS'ENSG00000143771'
p2895
aS'ENSG00000171649'
p2896
aS'ENSG00000111670'
p2897
aS'ENSG00000006744'
p2898
aS'ENSG00000104915'
p2899
aS'ENSG00000137513'
p2900
aS'ENSG00000128185'
p2901
aS'ENSG00000139372'
p2902
aS'ENSG00000130943'
p2903
aS'ENSG00000182931'
p2904
aS'ENSG00000139636'
p2905
aS'ENSG00000160785'
p2906
aS'ENSG00000234719'
p2907
aS'ENSG00000135317'
p2908
aS'ENSG00000131899'
p2909
aS'ENSG00000156990'
p2910
aS'ENSG00000214595'
p2911
atRp2912
ssS'tan4'
p2913
(dp2914
g4
g5
((lp2915
S'ENSG00000092140'
p2916
aS'ENSG00000068097'
p2917
aS'ENSG00000197782'
p2918
aS'ENSG00000159921'
p2919
aS'ENSG00000162402'
p2920
aS'ENSG00000026103'
p2921
aS'ENSG00000092094'
p2922
aS'ENSG00000166341'
p2923
aS'ENSG00000111711'
p2924
aS'ENSG00000100441'
p2925
aS'ENSG00000206344'
p2926
aS'ENSG00000112282'
p2927
aS'ENSG00000114857'
p2928
aS'ENSG00000080345'
p2929
aS'ENSG00000117335'
p2930
aS'ENSG00000139324'
p2931
atRp2932
ssS'ivory'
p2933
(dp2934
g61
(lp2935
(lp2936
S'ENSG00000148773'
p2937
ag65
(g67
S'n\xdb\xb6m\xdb&\x80@'
tRp2938
ag65
(g67
S'\x8cH\x13M*\xdc\xe5='
tRp2939
ag65
(g67
S'\x00\x00\x00`g~$>'
tRp2940
aa(lp2941
S'ENSG00000131747'
p2942
aFinf
ag65
(g67
S'\x1c\xbe\xdf0B\x0c\x80>'
tRp2943
ag65
(g67
S'\x00\x00 gr\x15\xbc>'
tRp2944
aasg4
g5
((lp2945
S'ENSG00000138160'
p2946
aS'ENSG00000117399'
p2947
aS'ENSG00000112984'
p2948
aS'ENSG00000164611'
p2949
aS'ENSG00000197768'
p2950
aS'ENSG00000126460'
p2951
aS'ENSG00000259511'
p2952
aS'ENSG00000084072'
p2953
aS'ENSG00000120669'
p2954
aS'ENSG00000204991'
p2955
aS'ENSG00000100162'
p2956
aS'ENSG00000151725'
p2957
aS'ENSG00000013810'
p2958
aS'ENSG00000184661'
p2959
aS'ENSG00000163041'
p2960
aS'ENSG00000175643'
p2961
aS'ENSG00000105499'
p2962
aS'ENSG00000187741'
p2963
aS'ENSG00000106462'
p2964
aS'ENSG00000242715'
p2965
aS'ENSG00000176273'
p2966
aS'ENSG00000164251'
p2967
aS'ENSG00000128891'
p2968
aS'ENSG00000138778'
p2969
aS'ENSG00000076382'
p2970
aS'ENSG00000165480'
p2971
aS'ENSG00000183853'
p2972
aS'ENSG00000109805'
p2973
atRp2974
ssS'lightgreen'
p2975
(dp2976
g61
(lp2977
(lp2978
g1129
aFinf
ag65
(g67
S' \xb3\xe6\xb4l\xeas?'
tRp2979
ag65
(g67
S'\xa0{=f[\xa7\x98?'
tRp2980
aa(lp2981
S'ENSG00000177606'
p2982
aFinf
ag65
(g67
S' \xb3\xe6\xb4l\xeas?'
tRp2983
ag65
(g67
S'\xa0{=f[\xa7\x98?'
tRp2984
aa(lp2985
S'ENSG00000125740'
p2986
aFinf
ag65
(g67
S'\xc7\xf0\x88F\xe6\x8dz?'
tRp2987
ag65
(g67
S'\xa0{=f[\xa7\x98?'
tRp2988
aa(lp2989
S'ENSG00000162772'
p2990
aFinf
ag65
(g67
S'\xc7\xf0\x88F\xe6\x8dz?'
tRp2991
ag65
(g67
S'\xa0{=f[\xa7\x98?'
tRp2992
aa(lp2993
S'ENSG00000123358'
p2994
aFinf
ag65
(g67
S'\xc7\xf0\x88F\xe6\x8dz?'
tRp2995
ag65
(g67
S'\xa0{=f[\xa7\x98?'
tRp2996
aasg4
g5
((lp2997
S'ENSG00000116213'
p2998
aS'ENSG00000137310'
p2999
aS'ENSG00000150527'
p3000
aS'ENSG00000240038'
p3001
aS'ENSG00000075131'
p3002
aS'ENSG00000089723'
p3003
aS'ENSG00000163510'
p3004
aS'ENSG00000178295'
p3005
aS'ENSG00000167914'
p3006
aS'ENSG00000213079'
p3007
aS'ENSG00000204536'
p3008
aS'ENSG00000164002'
p3009
aS'ENSG00000176209'
p3010
aS'ENSG00000166971'
p3011
aS'ENSG00000163781'
p3012
aS'ENSG00000167077'
p3013
aS'ENSG00000145949'
p3014
aS'ENSG00000163161'
p3015
aS'ENSG00000051009'
p3016
aS'ENSG00000125124'
p3017
aS'ENSG00000164535'
p3018
aS'ENSG00000134982'
p3019
aS'ENSG00000196584'
p3020
aS'ENSG00000168397'
p3021
aS'ENSG00000164743'
p3022
aS'ENSG00000132436'
p3023
aS'ENSG00000118523'
p3024
aS'ENSG00000147454'
p3025
aS'ENSG00000130518'
p3026
aS'ENSG00000183354'
p3027
aS'ENSG00000213341'
p3028
aS'ENSG00000067082'
p3029
aS'ENSG00000198440'
p3030
aS'ENSG00000161526'
p3031
atRp3032
ssS'lightpink2'
p3033
(dp3034
g4
g5
((lp3035
S'ENSG00000058085'
p3036
aS'ENSG00000115310'
p3037
aS'ENSG00000163531'
p3038
aS'ENSG00000118257'
p3039
aS'ENSG00000124116'
p3040
aS'ENSG00000101457'
p3041
aS'ENSG00000058668'
p3042
aS'ENSG00000021645'
p3043
aS'ENSG00000205693'
p3044
aS'ENSG00000175970'
p3045
aS'ENSG00000122965'
p3046
aS'ENSG00000126088'
p3047
aS'ENSG00000087448'
p3048
aS'ENSG00000188878'
p3049
aS'ENSG00000170113'
p3050
atRp3051
ssS'lightpink3'
p3052
(dp3053
g61
(lp3054
(lp3055
S'ENSG00000140945'
p3056
aFinf
ag65
(g67
S'\xe2\xf3\x88F\xe6\x8dZ?'
tRp3057
ag65
(g67
S'\x80L.u*\xe2s?'
tRp3058
aa(lp3059
S'ENSG00000137809'
p3060
aFinf
ag65
(g67
S'\xcf\xf5\x88F\xe6\x8d\x8a?'
tRp3061
ag65
(g67
S'@+\xac/\xd4a\x9a?'
tRp3062
aasg4
g5
((lp3063
S'ENSG00000241186'
p3064
aS'ENSG00000148484'
p3065
aS'ENSG00000178209'
p3066
aS'ENSG00000173226'
p3067
aS'ENSG00000255837'
p3068
aS'ENSG00000169570'
p3069
aS'ENSG00000125505'
p3070
aS'ENSG00000157837'
p3071
aS'ENSG00000121318'
p3072
aS'ENSG00000166130'
p3073
aS'ENSG00000185880'
p3074
aS'ENSG00000189190'
p3075
aS'ENSG00000138376'
p3076
aS'ENSG00000104626'
p3077
aS'ENSG00000177239'
p3078
aS'ENSG00000212124'
p3079
aS'ENSG00000137106'
p3080
aS'ENSG00000212127'
p3081
aS'ENSG00000182986'
p3082
aS'ENSG00000111215'
p3083
atRp3084
ssS'darkgrey'
p3085
(dp3086
g4
g5
((lp3087
S'ENSG00000197958'
p3088
aS'ENSG00000133460'
p3089
aS'ENSG00000110700'
p3090
aS'ENSG00000182362'
p3091
aS'ENSG00000122512'
p3092
aS'ENSG00000124614'
p3093
aS'ENSG00000173156'
p3094
aS'ENSG00000197915'
p3095
aS'ENSG00000084092'
p3096
aS'ENSG00000082701'
p3097
aS'ENSG00000167081'
p3098
aS'ENSG00000164756'
p3099
aS'ENSG00000100426'
p3100
aS'ENSG00000134247'
p3101
aS'ENSG00000178035'
p3102
aS'ENSG00000012963'
p3103
aS'ENSG00000120915'
p3104
aS'ENSG00000136816'
p3105
aS'ENSG00000167555'
p3106
aS'ENSG00000197056'
p3107
aS'ENSG00000197376'
p3108
aS'ENSG00000254636'
p3109
aS'ENSG00000078487'
p3110
aS'ENSG00000008988'
p3111
aS'ENSG00000148358'
p3112
aS'ENSG00000170889'
p3113
aS'ENSG00000089157'
p3114
aS'ENSG00000144035'
p3115
aS'ENSG00000168028'
p3116
aS'ENSG00000140995'
p3117
aS'ENSG00000163349'
p3118
aS'ENSG00000131653'
p3119
atRp3120
ssS'lightpink4'
p3121
(dp3122
g4
g5
((lp3123
S'ENSG00000149231'
p3124
aS'ENSG00000124613'
p3125
aS'ENSG00000139197'
p3126
aS'ENSG00000197816'
p3127
aS'ENSG00000118961'
p3128
aS'ENSG00000120647'
p3129
aS'ENSG00000013016'
p3130
aS'ENSG00000160602'
p3131
aS'ENSG00000163864'
p3132
aS'ENSG00000165490'
p3133
aS'ENSG00000133103'
p3134
aS'ENSG00000204147'
p3135
aS'ENSG00000111737'
p3136
aS'ENSG00000205853'
p3137
aS'ENSG00000048342'
p3138
aS'ENSG00000171045'
p3139
aS'ENSG00000184465'
p3140
aS'ENSG00000130347'
p3141
aS'ENSG00000156931'
p3142
aS'ENSG00000158169'
p3143
aS'ENSG00000112877'
p3144
aS'ENSG00000100300'
p3145
aS'ENSG00000117528'
p3146
aS'ENSG00000255298'
p3147
aS'ENSG00000140263'
p3148
aS'ENSG00000184677'
p3149
atRp3150
ssS'darkolivegreen1'
p3151
(dp3152
g4
g5
((lp3153
S'ENSG00000254852'
p3154
aS'ENSG00000174749'
p3155
aS'ENSG00000158113'
p3156
aS'ENSG00000135744'
p3157
aS'ENSG00000224712'
p3158
aS'ENSG00000231925'
p3159
aS'ENSG00000080007'
p3160
atRp3161
ssS'darkorange2'
p3162
(dp3163
g4
g5
((lp3164
S'ENSG00000166888'
p3165
aS'ENSG00000169554'
p3166
aS'ENSG00000115935'
p3167
aS'ENSG00000163320'
p3168
aS'ENSG00000122966'
p3169
aS'ENSG00000213859'
p3170
aS'ENSG00000166912'
p3171
aS'ENSG00000134121'
p3172
aS'ENSG00000255394'
p3173
aS'ENSG00000135205'
p3174
aS'ENSG00000057608'
p3175
aS'ENSG00000118785'
p3176
aS'ENSG00000134824'
p3177
aS'ENSG00000182985'
p3178
aS'ENSG00000124164'
p3179
aS'ENSG00000130653'
p3180
aS'ENSG00000147724'
p3181
aS'ENSG00000100292'
p3182
aS'ENSG00000164078'
p3183
aS'ENSG00000101224'
p3184
aS'ENSG00000213551'
p3185
aS'ENSG00000110693'
p3186
aS'ENSG00000141576'
p3187
aS'ENSG00000089356'
p3188
aS'ENSG00000157637'
p3189
aS'ENSG00000141458'
p3190
aS'ENSG00000079931'
p3191
aS'ENSG00000134508'
p3192
atRp3193
ssS'darkolivegreen2'
p3194
(dp3195
g4
g5
((lp3196
S'ENSG00000139364'
p3197
aS'ENSG00000234906'
p3198
aS'ENSG00000159197'
p3199
aS'ENSG00000138294'
p3200
aS'ENSG00000171564'
p3201
aS'ENSG00000171560'
p3202
aS'ENSG00000113924'
p3203
aS'ENSG00000171103'
p3204
aS'ENSG00000197927'
p3205
aS'ENSG00000118271'
p3206
aS'ENSG00000196151'
p3207
aS'ENSG00000163586'
p3208
aS'ENSG00000090487'
p3209
aS'ENSG00000100425'
p3210
aS'ENSG00000170627'
p3211
aS'ENSG00000135773'
p3212
aS'ENSG00000131941'
p3213
atRp3214
ssS'chocolate4'
p3215
(dp3216
g61
(lp3217
(lp3218
S'ENSG00000143632'
p3219
ag65
(g67
S'\xab\xaa\xaa\xaa\xaaji@'
tRp3220
ag65
(g67
S'\xa6c\xd3x\xa7\x8e4?'
tRp3221
ag65
(g67
S'\x00\xad2C\xde\xabp?'
tRp3222
aasg4
g5
((lp3223
S'ENSG00000198336'
p3224
aS'ENSG00000198125'
p3225
aS'ENSG00000198203'
p3226
aS'ENSG00000100191'
p3227
aS'ENSG00000154252'
p3228
aS'ENSG00000183431'
p3229
aS'ENSG00000177508'
p3230
aS'ENSG00000101470'
p3231
aS'ENSG00000159212'
p3232
aS'ENSG00000140986'
p3233
aS'ENSG00000166135'
p3234
aS'ENSG00000156603'
p3235
aS'ENSG00000159352'
p3236
aS'ENSG00000130382'
p3237
aS'ENSG00000106631'
p3238
atRp3239
ssS'darkslateblue'
p3240
(dp3241
g4
g5
((lp3242
S'ENSG00000110063'
p3243
aS'ENSG00000075234'
p3244
aS'ENSG00000165985'
p3245
aS'ENSG00000132970'
p3246
aS'ENSG00000197445'
p3247
aS'ENSG00000196236'
p3248
aS'ENSG00000141380'
p3249
aS'ENSG00000204740'
p3250
aS'ENSG00000109189'
p3251
aS'ENSG00000088305'
p3252
aS'ENSG00000163393'
p3253
aS'ENSG00000118160'
p3254
aS'ENSG00000149357'
p3255
aS'ENSG00000172216'
p3256
aS'ENSG00000166896'
p3257
aS'ENSG00000269402'
p3258
aS'ENSG00000120215'
p3259
aS'ENSG00000178187'
p3260
aS'ENSG00000173041'
p3261
aS'ENSG00000015676'
p3262
aS'ENSG00000205659'
p3263
aS'ENSG00000198874'
p3264
aS'ENSG00000125901'
p3265
aS'ENSG00000183423'
p3266
aS'ENSG00000121542'
p3267
aS'ENSG00000132881'
p3268
aS'ENSG00000172469'
p3269
aS'ENSG00000213221'
p3270
atRp3271
ssS'deeppink'
p3272
(dp3273
g4
g5
((lp3274
S'ENSG00000153207'
p3275
aS'ENSG00000129007'
p3276
aS'ENSG00000033800'
p3277
aS'ENSG00000138050'
p3278
aS'ENSG00000198099'
p3279
aS'ENSG00000145416'
p3280
aS'ENSG00000148803'
p3281
aS'ENSG00000080166'
p3282
aS'ENSG00000140382'
p3283
aS'ENSG00000137944'
p3284
aS'ENSG00000258572'
p3285
aS'ENSG00000211445'
p3286
aS'ENSG00000116774'
p3287
aS'ENSG00000092208'
p3288
aS'ENSG00000117122'
p3289
aS'ENSG00000140534'
p3290
aS'ENSG00000161955'
p3291
atRp3292
ssS'plum'
p3293
(dp3294
g61
(lp3295
(lp3296
S'ENSG00000185015'
p3297
aFinf
ag65
(g67
S'\xf0\xf3\x88F\xe6\x8dj?'
tRp3298
ag65
(g67
S'\x80\xd8\x97~\xea\xd9\x83?'
tRp3299
aa(lp3300
S'ENSG00000062716'
p3301
ag65
(g67
S'\x00\x00\x00\x00\x000\x83@'
tRp3302
ag65
(g67
S'\xfa-\x98\xb9a\x88z?'
tRp3303
ag65
(g67
S'\xc0\xc2\x8a\xd5ar\x8a?'
tRp3304
aa(lp3305
g2467
ag65
(g67
S'\x00\x00\x00\x00\x00\xf8R@'
tRp3306
ag65
(g67
S'Y]\xe3\x1a\xfa\xad\x9d?'
tRp3307
ag65
(g67
S'`]\xe3\x1a\xfa\xad\x9d?'
tRp3308
aasg4
g5
((lp3309
S'ENSG00000174243'
p3310
aS'ENSG00000180185'
p3311
aS'ENSG00000168404'
p3312
aS'ENSG00000130177'
p3313
aS'ENSG00000168522'
p3314
aS'ENSG00000115750'
p3315
aS'ENSG00000110768'
p3316
aS'ENSG00000119979'
p3317
aS'ENSG00000138085'
p3318
aS'ENSG00000159086'
p3319
aS'ENSG00000108592'
p3320
aS'ENSG00000102743'
p3321
aS'ENSG00000108055'
p3322
aS'ENSG00000138246'
p3323
aS'ENSG00000108666'
p3324
aS'ENSG00000111581'
p3325
aS'ENSG00000235878'
p3326
aS'ENSG00000204463'
p3327
aS'ENSG00000256812'
p3328
aS'ENSG00000102910'
p3329
aS'ENSG00000185567'
p3330
aS'ENSG00000101751'
p3331
aS'ENSG00000116906'
p3332
aS'ENSG00000162607'
p3333
atRp3334
ssS'maroon'
p3335
(dp3336
g61
(lp3337
(lp3338
g2765
ag65
(g67
S'\x00\x00\x00\x00\x00\x18s@'
tRp3339
ag65
(g67
S'\xd6\xff\xc3\xad\xee\xb8(?'
tRp3340
ag65
(g67
S'\x80\xc3\x9d\x89\x891p?'
tRp3341
aasg4
g5
((lp3342
S'ENSG00000112110'
p3343
aS'ENSG00000107020'
p3344
aS'ENSG00000144455'
p3345
aS'ENSG00000182263'
p3346
aS'ENSG00000242419'
p3347
aS'ENSG00000119953'
p3348
aS'ENSG00000214106'
p3349
aS'ENSG00000261934'
p3350
aS'ENSG00000243244'
p3351
aS'ENSG00000114933'
p3352
aS'ENSG00000151849'
p3353
aS'ENSG00000188690'
p3354
aS'ENSG00000068024'
p3355
aS'ENSG00000155324'
p3356
aS'ENSG00000167332'
p3357
aS'ENSG00000120327'
p3358
aS'ENSG00000120322'
p3359
aS'ENSG00000073111'
p3360
aS'ENSG00000120328'
p3361
aS'ENSG00000168393'
p3362
aS'ENSG00000031691'
p3363
aS'ENSG00000143942'
p3364
aS'ENSG00000159210'
p3365
aS'ENSG00000148824'
p3366
aS'ENSG00000162144'
p3367
aS'ENSG00000188707'
p3368
atRp3369
ssS'lightcyan1'
p3370
(dp3371
g4
g5
((lp3372
S'ENSG00000214706'
p3373
aS'ENSG00000185909'
p3374
aS'ENSG00000148341'
p3375
aS'ENSG00000149089'
p3376
aS'ENSG00000185340'
p3377
aS'ENSG00000205078'
p3378
aS'ENSG00000178078'
p3379
aS'ENSG00000146909'
p3380
aS'ENSG00000099817'
p3381
aS'ENSG00000131981'
p3382
aS'ENSG00000100483'
p3383
aS'ENSG00000174738'
p3384
aS'ENSG00000167074'
p3385
aS'ENSG00000106113'
p3386
aS'ENSG00000006042'
p3387
aS'ENSG00000084207'
p3388
aS'ENSG00000166394'
p3389
aS'ENSG00000084674'
p3390
aS'ENSG00000178665'
p3391
aS'ENSG00000153976'
p3392
aS'ENSG00000183421'
p3393
aS'ENSG00000187758'
p3394
aS'ENSG00000163817'
p3395
aS'ENSG00000198015'
p3396
aS'ENSG00000094963'
p3397
aS'ENSG00000111863'
p3398
aS'ENSG00000173621'
p3399
aS'ENSG00000151552'
p3400
atRp3401
ssS'magenta'
p3402
(dp3403
g61
(lp3404
(lp3405
g2990
ag65
(g67
S'\xb7m\xdb\xb6m;p@'
tRp3406
ag65
(g67
S'@\x90\xc8{O\x9e\xe9>'
tRp3407
ag65
(g67
S'\x00\x90\x05\x94]\xcf0?'
tRp3408
aa(lp3409
g2994
ag65
(g67
S'\xb7m\xdb\xb6m;p@'
tRp3410
ag65
(g67
S'@\x90\xc8{O\x9e\xe9>'
tRp3411
ag65
(g67
S'\x00\x90\x05\x94]\xcf0?'
tRp3412
aa(lp3413
S'ENSG00000059804'
p3414
aFinf
ag65
(g67
S'\xbe\xb2!\xca\x98\t/?'
tRp3415
ag65
(g67
S'\x00{\x9bH\xa8cr?'
tRp3416
aa(lp3417
S'ENSG00000205502'
p3418
aFinf
ag65
(g67
S'\xbe\xb2!\xca\x98\t/?'
tRp3419
ag65
(g67
S'\x00{\x9bH\xa8cr?'
tRp3420
aa(lp3421
S'ENSG00000170345'
p3422
aFinf
ag65
(g67
S'\xbe\xb2!\xca\x98\t/?'
tRp3423
ag65
(g67
S'\x00{\x9bH\xa8cr?'
tRp3424
aa(lp3425
g2982
ag65
(g67
S'\x00\x00\x00\x00\x00\xf0b@'
tRp3426
ag65
(g67
S'\x88\xdf\xb7\xd9\x84\x13G?'
tRp3427
ag65
(g67
S'\x80\xe1/Xk\xf4\x86?'
tRp3428
aa(lp3429
g2986
ag65
(g67
S'\x00\x00\x00\x00\x00\xe8R@'
tRp3430
ag65
(g67
S'\xe0V\xc0:H\xe0V?'
tRp3431
ag65
(g67
S'\x00?\xbao\xed<\x95?'
tRp3432
aasg4
g5
((lp3433
S'ENSG00000166548'
p3434
aS'ENSG00000214087'
p3435
aS'ENSG00000119431'
p3436
aS'ENSG00000165832'
p3437
aS'ENSG00000100815'
p3438
aS'ENSG00000248874'
p3439
aS'ENSG00000108423'
p3440
aS'ENSG00000118242'
p3441
aS'ENSG00000117480'
p3442
aS'ENSG00000141446'
p3443
aS'ENSG00000165171'
p3444
aS'ENSG00000163002'
p3445
aS'ENSG00000116830'
p3446
aS'ENSG00000134107'
p3447
aS'ENSG00000007908'
p3448
aS'ENSG00000198576'
p3449
aS'ENSG00000106608'
p3450
aS'ENSG00000136244'
p3451
aS'ENSG00000100889'
p3452
aS'ENSG00000170340'
p3453
aS'ENSG00000139722'
p3454
aS'ENSG00000081041'
p3455
aS'ENSG00000146576'
p3456
aS'ENSG00000125657'
p3457
aS'ENSG00000138801'
p3458
aS'ENSG00000165997'
p3459
aS'ENSG00000125968'
p3460
aS'ENSG00000117222'
p3461
aS'ENSG00000145708'
p3462
aS'ENSG00000170430'
p3463
aS'ENSG00000189350'
p3464
aS'ENSG00000123975'
p3465
aS'ENSG00000028116'
p3466
aS'ENSG00000163933'
p3467
aS'ENSG00000215504'
p3468
aS'ENSG00000177380'
p3469
aS'ENSG00000115211'
p3470
aS'ENSG00000136319'
p3471
aS'ENSG00000164219'
p3472
aS'ENSG00000169062'
p3473
aS'ENSG00000197262'
p3474
atRp3475
ssS'tan'
p3476
(dp3477
g61
(lp3478
(lp3479
S'ENSG00000140538'
p3480
aFinf
ag65
(g67
S'\x86#)$\xb2\xbf\xa5>'
tRp3481
ag65
(g67
S'\x00\x80\xce\xb1\xa4O\x10?'
tRp3482
aa(lp3483
S'ENSG00000197614'
p3484
ag65
(g67
S"*x9\x05/'>@"
tRp3485
ag65
(g67
S'\x9b6\x06W\xd4\x03\xe7>'
tRp3486
ag65
(g67
S'\x00\xba\xb6b\x96\x12Q?'
tRp3487
aa(lp3488
S'ENSG00000221818'
p3489
ag65
(g67
S'\xfa\xa4O\xfa\xa4O:@'
tRp3490
ag65
(g67
S'\xb4\x8fg\xf1\x82\xaf\x1f?'
tRp3491
ag65
(g67
S'\x80\x8b\x0e\xc9\x88#\x87?'
tRp3492
aasg4
g5
((lp3493
S'ENSG00000163634'
p3494
aS'ENSG00000197329'
p3495
aS'ENSG00000108179'
p3496
aS'ENSG00000185924'
p3497
aS'ENSG00000068078'
p3498
aS'ENSG00000118514'
p3499
aS'ENSG00000142494'
p3500
aS'ENSG00000034053'
p3501
aS'ENSG00000185875'
p3502
aS'ENSG00000176194'
p3503
aS'ENSG00000144619'
p3504
aS'ENSG00000141750'
p3505
aS'ENSG00000168779'
p3506
aS'ENSG00000117595'
p3507
aS'ENSG00000106484'
p3508
aS'ENSG00000129596'
p3509
aS'ENSG00000169783'
p3510
aS'ENSG00000102924'
p3511
aS'ENSG00000111816'
p3512
aS'ENSG00000092607'
p3513
aS'ENSG00000125257'
p3514
aS'ENSG00000111404'
p3515
aS'ENSG00000165478'
p3516
aS'ENSG00000221818'
p3517
aS'ENSG00000235162'
p3518
aS'ENSG00000101361'
p3519
aS'ENSG00000176692'
p3520
aS'ENSG00000142627'
p3521
aS'ENSG00000186684'
p3522
aS'ENSG00000169594'
p3523
aS'ENSG00000134014'
p3524
aS'ENSG00000182732'
p3525
aS'ENSG00000139292'
p3526
aS'ENSG00000169692'
p3527
aS'ENSG00000135604'
p3528
aS'ENSG00000162384'
p3529
atRp3530
ssS'pink'
p3531
(dp3532
g61
(lp3533
(lp3534
S'ENSG00000122176'
p3535
aFinf
ag65
(g67
S'\x04\xb7\xe6\xb4l\xeas?'
tRp3536
ag65
(g67
S'\x80\x80=f[\xa7\x98?'
tRp3537
aasg4
g5
((lp3538
S'ENSG00000166226'
p3539
aS'ENSG00000124713'
p3540
aS'ENSG00000104921'
p3541
aS'ENSG00000148229'
p3542
aS'ENSG00000104537'
p3543
aS'ENSG00000243710'
p3544
aS'ENSG00000204540'
p3545
aS'ENSG00000064313'
p3546
aS'ENSG00000108395'
p3547
aS'ENSG00000169154'
p3548
aS'ENSG00000108465'
p3549
aS'ENSG00000177628'
p3550
aS'ENSG00000066697'
p3551
aS'ENSG00000215305'
p3552
aS'ENSG00000164144'
p3553
aS'ENSG00000013288'
p3554
aS'ENSG00000204538'
p3555
aS'ENSG00000250506'
p3556
aS'ENSG00000184203'
p3557
aS'ENSG00000198046'
p3558
aS'ENSG00000141504'
p3559
aS'ENSG00000167702'
p3560
aS'ENSG00000161328'
p3561
aS'ENSG00000172661'
p3562
aS'ENSG00000168634'
p3563
aS'ENSG00000146676'
p3564
aS'ENSG00000184428'
p3565
aS'ENSG00000171109'
p3566
aS'ENSG00000172803'
p3567
aS'ENSG00000164761'
p3568
aS'ENSG00000134375'
p3569
aS'ENSG00000065268'
p3570
aS'ENSG00000158286'
p3571
aS'ENSG00000257949'
p3572
aS'ENSG00000001629'
p3573
aS'ENSG00000221990'
p3574
aS'ENSG00000131778'
p3575
aS'ENSG00000122643'
p3576
aS'ENSG00000136147'
p3577
aS'ENSG00000075399'
p3578
aS'ENSG00000140265'
p3579
atRp3580
ssS'slateblue'
p3581
(dp3582
g4
g5
((lp3583
S'ENSG00000110786'
p3584
aS'ENSG00000106868'
p3585
aS'ENSG00000168411'
p3586
aS'ENSG00000114378'
p3587
aS'ENSG00000188629'
p3588
aS'ENSG00000095485'
p3589
aS'ENSG00000185187'
p3590
aS'ENSG00000179057'
p3591
aS'ENSG00000137337'
p3592
aS'ENSG00000106080'
p3593
aS'ENSG00000112530'
p3594
aS'ENSG00000171928'
p3595
aS'ENSG00000268162'
p3596
atRp3597
ssS'firebrick2'
p3598
(dp3599
g4
g5
((lp3600
S'ENSG00000123453'
p3601
aS'ENSG00000247077'
p3602
aS'ENSG00000147813'
p3603
aS'ENSG00000100033'
p3604
aS'ENSG00000183628'
p3605
aS'ENSG00000180767'
p3606
aS'ENSG00000036530'
p3607
aS'ENSG00000198515'
p3608
aS'ENSG00000268885'
p3609
atRp3610
ssS'darkorange'
p3611
(dp3612
g61
(lp3613
(lp3614
S'ENSG00000076554'
p3615
aFinf
ag65
(g67
S'\xe2\xf3\x88F\xe6\x8dZ?'
tRp3616
ag65
(g67
S'\xc0$\xd0avg\x8a?'
tRp3617
aa(lp3618
S'ENSG00000126778'
p3619
aFinf
ag65
(g67
S'\xe2\xf3\x88F\xe6\x8dZ?'
tRp3620
ag65
(g67
S'\xc0$\xd0avg\x8a?'
tRp3621
aa(lp3622
S'ENSG00000116132'
p3623
aFinf
ag65
(g67
S'\xeb\xf8\x88F\xe6\x8dj?'
tRp3624
ag65
(g67
S'\x00\x1d\xb5YI\xc1\x93?'
tRp3625
aa(lp3626
g792
aFinf
ag65
(g67
S'\xfb\xb6\xe6\xb4l\xea\x83?'
tRp3627
ag65
(g67
S'`\xb3f\x13Hj\xa8?'
tRp3628
aasg4
g5
((lp3629
S'ENSG00000256269'
p3630
aS'ENSG00000112249'
p3631
aS'ENSG00000183011'
p3632
aS'ENSG00000111530'
p3633
aS'ENSG00000152217'
p3634
aS'ENSG00000091157'
p3635
aS'ENSG00000176641'
p3636
aS'ENSG00000115970'
p3637
aS'ENSG00000176473'
p3638
aS'ENSG00000125912'
p3639
aS'ENSG00000119509'
p3640
aS'ENSG00000111859'
p3641
aS'ENSG00000181638'
p3642
aS'ENSG00000099917'
p3643
aS'ENSG00000156232'
p3644
aS'ENSG00000100218'
p3645
aS'ENSG00000128039'
p3646
aS'ENSG00000011376'
p3647
aS'ENSG00000124275'
p3648
aS'ENSG00000161180'
p3649
aS'ENSG00000122970'
p3650
aS'ENSG00000229809'
p3651
aS'ENSG00000104835'
p3652
aS'ENSG00000185404'
p3653
aS'ENSG00000164880'
p3654
aS'ENSG00000112309'
p3655
aS'ENSG00000169371'
p3656
aS'ENSG00000171953'
p3657
aS'ENSG00000213347'
p3658
aS'ENSG00000168237'
p3659
aS'ENSG00000110497'
p3660
atRp3661
ssS'midnightblue'
p3662
(dp3663
g61
(lp3664
(lp3665
S'ENSG00000117091'
p3666
aFinf
ag65
(g67
S'K\xa5\x07a\xc5\xc26?'
tRp3667
ag65
(g67
S'\x80\xfbT\x81-;\x85?'
tRp3668
aa(lp3669
S'ENSG00000169224'
p3670
aFinf
ag65
(g67
S'K\xa5\x07a\xc5\xc26?'
tRp3671
ag65
(g67
S'\x80\xfbT\x81-;\x85?'
tRp3672
aa(lp3673
S'ENSG00000168421'
p3674
ag65
(g67
S'333333^@'
tRp3675
ag65
(g67
S'\xd2\xb7a\xc5\xb4\xe2P?'
tRp3676
ag65
(g67
S'\xa0\xd3\xeddk$\x9d?'
tRp3677
aasg4
g5
((lp3678
S'ENSG00000184923'
p3679
aS'ENSG00000087157'
p3680
aS'ENSG00000006194'
p3681
aS'ENSG00000156127'
p3682
aS'ENSG00000095917'
p3683
aS'ENSG00000109062'
p3684
aS'ENSG00000134201'
p3685
aS'ENSG00000101203'
p3686
aS'ENSG00000175294'
p3687
aS'ENSG00000111110'
p3688
aS'ENSG00000198570'
p3689
aS'ENSG00000122778'
p3690
aS'ENSG00000183323'
p3691
aS'ENSG00000117748'
p3692
aS'ENSG00000197646'
p3693
aS'ENSG00000182264'
p3694
aS'ENSG00000163106'
p3695
aS'ENSG00000042493'
p3696
aS'ENSG00000060971'
p3697
aS'ENSG00000254614'
p3698
aS'ENSG00000172548'
p3699
aS'ENSG00000172568'
p3700
aS'ENSG00000244509'
p3701
aS'ENSG00000168297'
p3702
aS'ENSG00000144161'
p3703
aS'ENSG00000165475'
p3704
aS'ENSG00000144230'
p3705
aS'ENSG00000135541'
p3706
aS'ENSG00000118503'
p3707
aS'ENSG00000205639'
p3708
aS'ENSG00000140563'
p3709
aS'ENSG00000182173'
p3710
aS'ENSG00000148848'
p3711
aS'ENSG00000149679'
p3712
aS'ENSG00000106069'
p3713
atRp3714
ssS'paleturquoise'
p3715
(dp3716
g4
g5
((lp3717
S'ENSG00000167693'
p3718
aS'ENSG00000080503'
p3719
aS'ENSG00000085563'
p3720
aS'ENSG00000013561'
p3721
aS'ENSG00000226124'
p3722
aS'ENSG00000005243'
p3723
aS'ENSG00000198502'
p3724
aS'ENSG00000204287'
p3725
aS'ENSG00000241563'
p3726
aS'ENSG00000161692'
p3727
aS'ENSG00000185345'
p3728
aS'ENSG00000231389'
p3729
aS'ENSG00000167644'
p3730
aS'ENSG00000204228'
p3731
aS'ENSG00000164687'
p3732
aS'ENSG00000223865'
p3733
aS'ENSG00000179344'
p3734
aS'ENSG00000196126'
p3735
aS'ENSG00000152689'
p3736
aS'ENSG00000183715'
p3737
aS'ENSG00000007255'
p3738
aS'ENSG00000143079'
p3739
aS'ENSG00000148655'
p3740
aS'ENSG00000213578'
p3741
aS'ENSG00000139168'
p3742
aS'ENSG00000171174'
p3743
aS'ENSG00000116783'
p3744
aS'ENSG00000143756'
p3745
aS'ENSG00000160570'
p3746
aS'ENSG00000196735'
p3747
atRp3748
ssS'yellow3'
p3749
(dp3750
g61
(lp3751
(lp3752
S'ENSG00000171714'
p3753
aFinf
ag65
(g67
S'\xf0\xf3\x88F\xe6\x8dj?'
tRp3754
ag65
(g67
S'\x80\xd8\x97~\xea\xd9\x83?'
tRp3755
aa(lp3756
g1115
ag65
(g67
S'\x00\x00\x00\x00\x00\x80i@'
tRp3757
ag65
(g67
S'\xdc\xab\xb6\x9fX}\x8a?'
tRp3758
ag65
(g67
S'\xa0\xef\xb4i}Q\x9a?'
tRp3759
aasg4
g5
((lp3760
S'ENSG00000123091'
p3761
aS'ENSG00000204677'
p3762
aS'ENSG00000188086'
p3763
aS'ENSG00000063854'
p3764
aS'ENSG00000143443'
p3765
aS'ENSG00000182685'
p3766
aS'ENSG00000197980'
p3767
aS'ENSG00000178922'
p3768
aS'ENSG00000184207'
p3769
aS'ENSG00000214309'
p3770
aS'ENSG00000144354'
p3771
aS'ENSG00000182952'
p3772
aS'ENSG00000140470'
p3773
aS'ENSG00000111666'
p3774
aS'ENSG00000108556'
p3775
aS'ENSG00000222009'
p3776
aS'ENSG00000078808'
p3777
aS'ENSG00000258429'
p3778
aS'ENSG00000131473'
p3779
atRp3780
ssS'orangered3'
p3781
(dp3782
g61
(lp3783
(lp3784
S'ENSG00000254535'
p3785
aFinf
ag65
(g67
S'\xe2\xf3\x88F\xe6\x8dZ?'
tRp3786
ag65
(g67
S'\x00[\xad\x03d\x88j?'
tRp3787
aa(lp3788
S'ENSG00000165323'
p3789
aFinf
ag65
(g67
S'\xe2\xf3\x88F\xe6\x8dZ?'
tRp3790
ag65
(g67
S'\x00[\xad\x03d\x88j?'
tRp3791
aasg4
g5
((lp3792
S'ENSG00000143815'
p3793
aS'ENSG00000130695'
p3794
aS'ENSG00000103351'
p3795
aS'ENSG00000162994'
p3796
aS'ENSG00000205212'
p3797
aS'ENSG00000107882'
p3798
aS'ENSG00000171160'
p3799
aS'ENSG00000135045'
p3800
aS'ENSG00000144815'
p3801
aS'ENSG00000048140'
p3802
aS'ENSG00000183281'
p3803
aS'ENSG00000114544'
p3804
aS'ENSG00000066135'
p3805
aS'ENSG00000112234'
p3806
aS'ENSG00000043514'
p3807
aS'ENSG00000163686'
p3808
aS'ENSG00000059728'
p3809
aS'ENSG00000124508'
p3810
aS'ENSG00000112763'
p3811
aS'ENSG00000115339'
p3812
aS'ENSG00000064490'
p3813
aS'ENSG00000171444'
p3814
aS'ENSG00000181690'
p3815
aS'ENSG00000135100'
p3816
atRp3817
ssS'orangered1'
p3818
(dp3819
g4
g5
((lp3820
S'ENSG00000177150'
p3821
aS'ENSG00000104660'
p3822
aS'ENSG00000116299'
p3823
aS'ENSG00000180113'
p3824
aS'ENSG00000178623'
p3825
aS'ENSG00000133661'
p3826
aS'ENSG00000109771'
p3827
aS'ENSG00000173320'
p3828
aS'ENSG00000132541'
p3829
aS'ENSG00000142875'
p3830
aS'ENSG00000127920'
p3831
aS'ENSG00000170835'
p3832
aS'ENSG00000177990'
p3833
aS'ENSG00000177669'
p3834
aS'ENSG00000163346'
p3835
aS'ENSG00000243480'
p3836
aS'ENSG00000185133'
p3837
aS'ENSG00000138449'
p3838
atRp3839
ssS'orangered4'
p3840
(dp3841
g4
g5
((lp3842
S'ENSG00000165966'
p3843
aS'ENSG00000014824'
p3844
aS'ENSG00000259803'
p3845
aS'ENSG00000131504'
p3846
aS'ENSG00000163453'
p3847
aS'ENSG00000137563'
p3848
aS'ENSG00000023191'
p3849
aS'ENSG00000187486'
p3850
aS'ENSG00000171596'
p3851
aS'ENSG00000132972'
p3852
aS'ENSG00000128989'
p3853
aS'ENSG00000044115'
p3854
aS'ENSG00000134779'
p3855
aS'ENSG00000113194'
p3856
aS'ENSG00000164924'
p3857
aS'ENSG00000197586'
p3858
aS'ENSG00000187231'
p3859
aS'ENSG00000134198'
p3860
aS'ENSG00000110675'
p3861
aS'ENSG00000114784'
p3862
aS'ENSG00000178752'
p3863
aS'ENSG00000167962'
p3864
aS'ENSG00000092820'
p3865
aS'ENSG00000184313'
p3866
aS'ENSG00000120805'
p3867
aS'ENSG00000104059'
p3868
aS'ENSG00000187642'
p3869
aS'ENSG00000125247'
p3870
aS'ENSG00000099904'
p3871
atRp3872
ssS'thistle3'
p3873
(dp3874
g4
g5
((lp3875
S'ENSG00000120539'
p3876
aS'ENSG00000138346'
p3877
aS'ENSG00000166743'
p3878
aS'ENSG00000129667'
p3879
aS'ENSG00000254122'
p3880
aS'ENSG00000161040'
p3881
aS'ENSG00000198682'
p3882
aS'ENSG00000063978'
p3883
aS'ENSG00000153291'
p3884
aS'ENSG00000005187'
p3885
aS'ENSG00000203705'
p3886
aS'ENSG00000051825'
p3887
aS'ENSG00000136381'
p3888
aS'ENSG00000184182'
p3889
aS'ENSG00000254004'
p3890
aS'ENSG00000144746'
p3891
aS'ENSG00000164031'
p3892
aS'ENSG00000162493'
p3893
aS'ENSG00000167711'
p3894
aS'ENSG00000123384'
p3895
aS'ENSG00000003436'
p3896
aS'ENSG00000116962'
p3897
atRp3898
ssS'thistle2'
p3899
(dp3900
g61
(lp3901
(lp3902
S'ENSG00000138944'
p3903
ag65
(g67
S'\x00\x00\x00\x00\x000\x83@'
tRp3904
ag65
(g67
S'\xfa-\x98\xb9a\x88z?'
tRp3905
ag65
(g67
S'\x00.\x98\xb9a\x88z?'
tRp3906
aasg4
g5
((lp3907
S'ENSG00000125388'
p3908
aS'ENSG00000144152'
p3909
aS'ENSG00000021826'
p3910
aS'ENSG00000077463'
p3911
aS'ENSG00000140553'
p3912
aS'ENSG00000005955'
p3913
aS'ENSG00000135972'
p3914
aS'ENSG00000130529'
p3915
aS'ENSG00000241106'
p3916
aS'ENSG00000106460'
p3917
aS'ENSG00000125510'
p3918
aS'ENSG00000172350'
p3919
aS'ENSG00000187091'
p3920
aS'ENSG00000042753'
p3921
aS'ENSG00000095321'
p3922
aS'ENSG00000022567'
p3923
aS'ENSG00000185585'
p3924
aS'ENSG00000164197'
p3925
aS'ENSG00000055955'
p3926
aS'ENSG00000124602'
p3927
aS'ENSG00000144488'
p3928
aS'ENSG00000014164'
p3929
aS'ENSG00000163932'
p3930
aS'ENSG00000070371'
p3931
aS'ENSG00000134463'
p3932
aS'ENSG00000089057'
p3933
aS'ENSG00000169359'
p3934
atRp3935
ssS'thistle1'
p3936
(dp3937
g61
(lp3938
(lp3939
S'ENSG00000177098'
p3940
aFinf
ag65
(g67
S'\xf0\xf3\x88F\xe6\x8dj?'
tRp3941
ag65
(g67
S'\xa0\xa0\x87\x19FA\x9a?'
tRp3942
aasg4
g5
((lp3943
S'ENSG00000104883'
p3944
aS'ENSG00000141013'
p3945
aS'ENSG00000114956'
p3946
aS'ENSG00000144134'
p3947
aS'ENSG00000108774'
p3948
aS'ENSG00000113141'
p3949
aS'ENSG00000249915'
p3950
aS'ENSG00000168038'
p3951
aS'ENSG00000198707'
p3952
aS'ENSG00000168778'
p3953
aS'ENSG00000112041'
p3954
aS'ENSG00000167178'
p3955
aS'ENSG00000198089'
p3956
aS'ENSG00000106012'
p3957
aS'ENSG00000037757'
p3958
aS'ENSG00000164818'
p3959
aS'ENSG00000165661'
p3960
aS'ENSG00000159079'
p3961
aS'ENSG00000011143'
p3962
aS'ENSG00000152380'
p3963
aS'ENSG00000160188'
p3964
aS'ENSG00000099940'
p3965
aS'ENSG00000149300'
p3966
aS'ENSG00000158109'
p3967
aS'ENSG00000163138'
p3968
aS'ENSG00000010626'
p3969
aS'ENSG00000143183'
p3970
atRp3971
ssS'sienna2'
p3972
(dp3973
g61
(lp3974
(lp3975
S'ENSG00000175793'
p3976
aFinf
ag65
(g67
S'8\x833iP#9>'
tRp3977
ag65
(g67
S'\x00\x00\x00M\xe6\xfeu>'
tRp3978
aa(lp3979
S'ENSG00000171346'
p3980
aFinf
ag65
(g67
S'\x1c\xc3(nY%\xae>'
tRp3981
ag65
(g67
S'\x00\x00e\x02P~\xe8>'
tRp3982
aa(lp3983
S'ENSG00000186847'
p3984
aFinf
ag65
(g67
S'\x1c\xc3(nY%\xae>'
tRp3985
ag65
(g67
S'\x00\x00e\x02P~\xe8>'
tRp3986
aasg4
g5
((lp3987
S'ENSG00000175315'
p3988
aS'ENSG00000121053'
p3989
aS'ENSG00000161634'
p3990
aS'ENSG00000186081'
p3991
aS'ENSG00000167754'
p3992
aS'ENSG00000154803'
p3993
aS'ENSG00000171346'
p3994
aS'ENSG00000103550'
p3995
aS'ENSG00000197360'
p3996
aS'ENSG00000065618'
p3997
aS'ENSG00000106125'
p3998
aS'ENSG00000110484'
p3999
atRp4000
ssS'salmon'
p4001
(dp4002
g4
g5
((lp4003
S'ENSG00000186230'
p4004
aS'ENSG00000176845'
p4005
aS'ENSG00000144867'
p4006
aS'ENSG00000007341'
p4007
aS'ENSG00000172260'
p4008
aS'ENSG00000156689'
p4009
aS'ENSG00000111452'
p4010
aS'ENSG00000165501'
p4011
aS'ENSG00000165568'
p4012
aS'ENSG00000182704'
p4013
aS'ENSG00000132975'
p4014
aS'ENSG00000078043'
p4015
aS'ENSG00000122687'
p4016
aS'ENSG00000166188'
p4017
aS'ENSG00000261115'
p4018
aS'ENSG00000188199'
p4019
aS'ENSG00000100997'
p4020
aS'ENSG00000131378'
p4021
aS'ENSG00000168883'
p4022
aS'ENSG00000090581'
p4023
aS'ENSG00000244405'
p4024
aS'ENSG00000101460'
p4025
aS'ENSG00000206127'
p4026
aS'ENSG00000148357'
p4027
aS'ENSG00000168807'
p4028
aS'ENSG00000196890'
p4029
aS'ENSG00000145428'
p4030
aS'ENSG00000186377'
p4031
aS'ENSG00000155393'
p4032
aS'ENSG00000113812'
p4033
aS'ENSG00000198056'
p4034
aS'ENSG00000112312'
p4035
aS'ENSG00000151176'
p4036
aS'ENSG00000161204'
p4037
aS'ENSG00000163389'
p4038
aS'ENSG00000183696'
p4039
atRp4040
ssS'thistle4'
p4041
(dp4042
g61
(lp4043
(lp4044
S'ENSG00000175084'
p4045
aFinf
ag65
(g67
S'\\d \xe2\x07\xe5\x98?'
tRp4046
ag65
(g67
S'`d \xe2\x07\xe5\x98?'
tRp4047
aasg4
g5
((lp4048
S'ENSG00000115159'
p4049
aS'ENSG00000160194'
p4050
aS'ENSG00000123178'
p4051
aS'ENSG00000087076'
p4052
aS'ENSG00000176125'
p4053
aS'ENSG00000037474'
p4054
aS'ENSG00000101407'
p4055
aS'ENSG00000076201'
p4056
aS'ENSG00000149596'
p4057
aS'ENSG00000167987'
p4058
aS'ENSG00000176390'
p4059
aS'ENSG00000005156'
p4060
aS'ENSG00000104299'
p4061
aS'ENSG00000105617'
p4062
aS'ENSG00000136738'
p4063
aS'ENSG00000109445'
p4064
atRp4065
ssS'mediumpurple1'
p4066
(dp4067
g61
(lp4068
(lp4069
g71
ag65
(g67
S'%I\x92$I\x12`@'
tRp4070
ag65
(g67
S'\xce\xe2"\xbf\xfc\xe43>'
tRp4071
ag65
(g67
S'\x00\x00\x00qL#\x85>'
tRp4072
aa(lp4073
g79
ag65
(g67
S'%I\x92$I\x12`@'
tRp4074
ag65
(g67
S'\xce\xe2"\xbf\xfc\xe43>'
tRp4075
ag65
(g67
S'\x00\x00\x00qL#\x85>'
tRp4076
aa(lp4077
g75
ag65
(g67
S'&\xb4\x97\xd0^BV@'
tRp4078
ag65
(g67
S'\xcf8\xeat\xcb\xf0\xd0>'
tRp4079
ag65
(g67
S'\x00\xa0\x9e\xf4\x85\xf0 ?'
tRp4080
aasg4
g5
((lp4081
S'ENSG00000019549'
p4082
aS'ENSG00000169474'
p4083
aS'ENSG00000184292'
p4084
aS'ENSG00000169006'
p4085
aS'ENSG00000115232'
p4086
aS'ENSG00000151640'
p4087
aS'ENSG00000133710'
p4088
aS'ENSG00000121742'
p4089
aS'ENSG00000172007'
p4090
aS'ENSG00000040731'
p4091
aS'ENSG00000104901'
p4092
aS'ENSG00000143556'
p4093
aS'ENSG00000163545'
p4094
aS'ENSG00000166359'
p4095
aS'ENSG00000123268'
p4096
aS'ENSG00000165474'
p4097
aS'ENSG00000103316'
p4098
aS'ENSG00000203785'
p4099
atRp4100
ssS'mediumpurple2'
p4101
(dp4102
g61
(lp4103
(lp4104
g1609
ag65
(g67
S'UUUUU5Y@'
tRp4105
ag65
(g67
S'\x82\x80\xb4~\x94\x1d\x06?'
tRp4106
ag65
(g67
S'\x00\xac3\t\xdfDQ?'
tRp4107
aa(lp4108
g1617
ag65
(g67
S'I\x92$I\x92\xa4U@'
tRp4109
ag65
(g67
S'\xbb\xebd\xe8EWR?'
tRp4110
ag65
(g67
S' \x05\xffr\xfb(\x9b?'
tRp4111
aa(lp4112
g1613
ag65
(g67
S'\xf4<\xcf\xf3<\xcfL@'
tRp4113
ag65
(g67
S'\xf4ESQ\x0bV^?'
tRp4114
ag65
(g67
S'\x00Y\x1c\n\x9e]\xa5?'
tRp4115
aasg4
g5
((lp4116
S'ENSG00000177683'
p4117
aS'ENSG00000017373'
p4118
aS'ENSG00000137601'
p4119
aS'ENSG00000164346'
p4120
aS'ENSG00000182103'
p4121
aS'ENSG00000103723'
p4122
aS'ENSG00000176472'
p4123
aS'ENSG00000224153'
p4124
aS'ENSG00000125851'
p4125
aS'ENSG00000019144'
p4126
aS'ENSG00000162951'
p4127
aS'ENSG00000153902'
p4128
aS'ENSG00000112146'
p4129
aS'ENSG00000146090'
p4130
aS'ENSG00000170075'
p4131
aS'ENSG00000142188'
p4132
aS'ENSG00000118094'
p4133
aS'ENSG00000135378'
p4134
aS'ENSG00000161016'
p4135
aS'ENSG00000137968'
p4136
aS'ENSG00000184144'
p4137
aS'ENSG00000076053'
p4138
aS'ENSG00000161509'
p4139
aS'ENSG00000143036'
p4140
atRp4141
ssS'mediumpurple3'
p4142
(dp4143
g4
g5
((lp4144
S'ENSG00000160410'
p4145
aS'ENSG00000186496'
p4146
aS'ENSG00000100288'
p4147
aS'ENSG00000124226'
p4148
aS'ENSG00000214530'
p4149
aS'ENSG00000241322'
p4150
aS'ENSG00000188295'
p4151
aS'ENSG00000107959'
p4152
aS'ENSG00000184227'
p4153
aS'ENSG00000149743'
p4154
aS'ENSG00000119782'
p4155
aS'ENSG00000151062'
p4156
aS'ENSG00000196693'
p4157
aS'ENSG00000161653'
p4158
aS'ENSG00000146205'
p4159
aS'ENSG00000169660'
p4160
aS'ENSG00000105708'
p4161
aS'ENSG00000197723'
p4162
aS'ENSG00000124541'
p4163
aS'ENSG00000125618'
p4164
aS'ENSG00000181827'
p4165
aS'ENSG00000171806'
p4166
aS'ENSG00000214376'
p4167
aS'ENSG00000106263'
p4168
aS'ENSG00000205060'
p4169
aS'ENSG00000099256'
p4170
aS'ENSG00000204351'
p4171
aS'ENSG00000157214'
p4172
aS'ENSG00000167733'
p4173
atRp4174
ssS'mediumpurple4'
p4175
(dp4176
g4
g5
((lp4177
S'ENSG00000204843'
p4178
aS'ENSG00000146243'
p4179
aS'ENSG00000248333'
p4180
aS'ENSG00000136247'
p4181
aS'ENSG00000122042'
p4182
aS'ENSG00000124356'
p4183
aS'ENSG00000106290'
p4184
aS'ENSG00000109163'
p4185
aS'ENSG00000196365'
p4186
aS'ENSG00000121716'
p4187
aS'ENSG00000175029'
p4188
aS'ENSG00000141971'
p4189
aS'ENSG00000185674'
p4190
aS'ENSG00000178952'
p4191
aS'ENSG00000116005'
p4192
aS'ENSG00000144306'
p4193
aS'ENSG00000186792'
p4194
aS'ENSG00000085514'
p4195
aS'ENSG00000180376'
p4196
atRp4197
ssS'pink4'
p4198
(dp4199
g4
g5
((lp4200
S'ENSG00000121848'
p4201
aS'ENSG00000088053'
p4202
aS'ENSG00000117281'
p4203
aS'ENSG00000108947'
p4204
aS'ENSG00000066933'
p4205
aS'ENSG00000180340'
p4206
aS'ENSG00000248713'
p4207
aS'ENSG00000113593'
p4208
aS'ENSG00000129187'
p4209
aS'ENSG00000093167'
p4210
aS'ENSG00000198160'
p4211
aS'ENSG00000113742'
p4212
aS'ENSG00000085465'
p4213
aS'ENSG00000166974'
p4214
aS'ENSG00000089486'
p4215
aS'ENSG00000125046'
p4216
aS'ENSG00000125450'
p4217
aS'ENSG00000130703'
p4218
aS'ENSG00000145331'
p4219
atRp4220
ssS'darkolivegreen4'
p4221
(dp4222
g4
g5
((lp4223
S'ENSG00000185386'
p4224
aS'ENSG00000087502'
p4225
aS'ENSG00000166546'
p4226
aS'ENSG00000134222'
p4227
aS'ENSG00000236624'
p4228
aS'ENSG00000034239'
p4229
aS'ENSG00000185274'
p4230
aS'ENSG00000081803'
p4231
aS'ENSG00000128609'
p4232
aS'ENSG00000091972'
p4233
aS'ENSG00000132429'
p4234
aS'ENSG00000138741'
p4235
aS'ENSG00000105419'
p4236
aS'ENSG00000121871'
p4237
aS'ENSG00000137558'
p4238
aS'ENSG00000186867'
p4239
aS'ENSG00000205281'
p4240
aS'ENSG00000250305'
p4241
aS'ENSG00000048740'
p4242
aS'ENSG00000178966'
p4243
aS'ENSG00000154760'
p4244
aS'ENSG00000146374'
p4245
aS'ENSG00000164675'
p4246
atRp4247
ssS'darkseagreen4'
p4248
(dp4249
g4
g5
((lp4250
S'ENSG00000176974'
p4251
aS'ENSG00000171130'
p4252
aS'ENSG00000000457'
p4253
aS'ENSG00000164542'
p4254
aS'ENSG00000214435'
p4255
aS'ENSG00000181031'
p4256
aS'ENSG00000109332'
p4257
aS'ENSG00000101255'
p4258
aS'ENSG00000106853'
p4259
aS'ENSG00000087495'
p4260
aS'ENSG00000089060'
p4261
aS'ENSG00000171763'
p4262
aS'ENSG00000136643'
p4263
aS'ENSG00000243646'
p4264
aS'ENSG00000158270'
p4265
aS'ENSG00000145692'
p4266
aS'ENSG00000124406'
p4267
aS'ENSG00000235750'
p4268
aS'ENSG00000205302'
p4269
aS'ENSG00000178773'
p4270
aS'ENSG00000153048'
p4271
aS'ENSG00000028528'
p4272
aS'ENSG00000077616'
p4273
aS'ENSG00000105426'
p4274
aS'ENSG00000169515'
p4275
atRp4276
ssS'darkseagreen3'
p4277
(dp4278
g4
g5
((lp4279
S'ENSG00000139531'
p4280
aS'ENSG00000115825'
p4281
aS'ENSG00000145022'
p4282
aS'ENSG00000164291'
p4283
aS'ENSG00000213390'
p4284
aS'ENSG00000213672'
p4285
aS'ENSG00000120725'
p4286
aS'ENSG00000174915'
p4287
aS'ENSG00000090863'
p4288
aS'ENSG00000151893'
p4289
aS'ENSG00000111540'
p4290
aS'ENSG00000136840'
p4291
aS'ENSG00000156973'
p4292
aS'ENSG00000125734'
p4293
aS'ENSG00000094975'
p4294
aS'ENSG00000173486'
p4295
aS'ENSG00000163352'
p4296
aS'ENSG00000134253'
p4297
aS'ENSG00000221829'
p4298
aS'ENSG00000105755'
p4299
atRp4300
ssS'darkseagreen2'
p4301
(dp4302
g4
g5
((lp4303
S'ENSG00000117984'
p4304
aS'ENSG00000139505'
p4305
aS'ENSG00000009335'
p4306
aS'ENSG00000122477'
p4307
aS'ENSG00000131626'
p4308
aS'ENSG00000188986'
p4309
aS'ENSG00000217128'
p4310
aS'ENSG00000146731'
p4311
aS'ENSG00000232013'
p4312
aS'ENSG00000065000'
p4313
aS'ENSG00000105063'
p4314
aS'ENSG00000114650'
p4315
aS'ENSG00000152683'
p4316
aS'ENSG00000174194'
p4317
aS'ENSG00000137135'
p4318
atRp4319
ssS'lightyellow'
p4320
(dp4321
g4
g5
((lp4322
S'ENSG00000134873'
p4323
aS'ENSG00000128294'
p4324
aS'ENSG00000136114'
p4325
aS'ENSG00000188763'
p4326
aS'ENSG00000175697'
p4327
aS'ENSG00000101230'
p4328
aS'ENSG00000099998'
p4329
aS'ENSG00000168447'
p4330
aS'ENSG00000139269'
p4331
aS'ENSG00000248712'
p4332
aS'ENSG00000154263'
p4333
aS'ENSG00000155749'
p4334
aS'ENSG00000244617'
p4335
aS'ENSG00000146054'
p4336
aS'ENSG00000197168'
p4337
aS'ENSG00000188026'
p4338
aS'ENSG00000203876'
p4339
aS'ENSG00000149506'
p4340
aS'ENSG00000196655'
p4341
aS'ENSG00000165621'
p4342
aS'ENSG00000040199'
p4343
aS'ENSG00000037965'
p4344
aS'ENSG00000249109'
p4345
aS'ENSG00000105072'
p4346
aS'ENSG00000166257'
p4347
aS'ENSG00000197128'
p4348
aS'ENSG00000196220'
p4349
aS'ENSG00000214253'
p4350
aS'ENSG00000078053'
p4351
aS'ENSG00000217930'
p4352
aS'ENSG00000213214'
p4353
aS'ENSG00000170881'
p4354
aS'ENSG00000160439'
p4355
aS'ENSG00000172992'
p4356
atRp4357
ssS'salmon1'
p4358
(dp4359
g61
(lp4360
(lp4361
S'ENSG00000186648'
p4362
ag65
(g67
S'\x00\x00\x00\x00\x000\x83@'
tRp4363
ag65
(g67
S'\xfa-\x98\xb9a\x88z?'
tRp4364
ag65
(g67
S'\xf0\x84p:\x7f\x94\xa3?'
tRp4365
aasg4
g5
((lp4366
S'ENSG00000197497'
p4367
aS'ENSG00000140406'
p4368
aS'ENSG00000010072'
p4369
aS'ENSG00000179454'
p4370
aS'ENSG00000172179'
p4371
aS'ENSG00000197724'
p4372
aS'ENSG00000180822'
p4373
aS'ENSG00000115138'
p4374
aS'ENSG00000221923'
p4375
aS'ENSG00000167395'
p4376
aS'ENSG00000125485'
p4377
aS'ENSG00000143256'
p4378
aS'ENSG00000197345'
p4379
aS'ENSG00000167363'
p4380
aS'ENSG00000181588'
p4381
aS'ENSG00000134056'
p4382
atRp4383
ssS'salmon2'
p4384
(dp4385
g61
(lp4386
(lp4387
S'ENSG00000116035'
p4388
aFinf
ag65
(g67
S'\xf3\x174\xd2\xa6\x8d\xf0>'
tRp4389
ag65
(g67
S'\x00@\t\x8b`\xd4\x08?'
tRp4390
aa(lp4391
g2613
aFinf
ag65
(g67
S'\xe2\x02\x03\xdf\xc1aJ?'
tRp4392
ag65
(g67
S'\x00:M\xde\t_Z?'
tRp4393
aa(lp4394
S'ENSG00000116039'
p4395
aFinf
ag65
(g67
S'\xf0\xf3\x88F\xe6\x8dj?'
tRp4396
ag65
(g67
S'\x00\xf4\x88F\xe6\x8dj?'
tRp4397
aasg4
g5
((lp4398
S'ENSG00000131475'
p4399
aS'ENSG00000124593'
p4400
aS'ENSG00000084623'
p4401
aS'ENSG00000178252'
p4402
aS'ENSG00000145191'
p4403
aS'ENSG00000152672'
p4404
aS'ENSG00000156253'
p4405
aS'ENSG00000182923'
p4406
aS'ENSG00000116039'
p4407
aS'ENSG00000138448'
p4408
aS'ENSG00000100804'
p4409
aS'ENSG00000187010'
p4410
aS'ENSG00000010165'
p4411
aS'ENSG00000013306'
p4412
aS'ENSG00000129055'
p4413
aS'ENSG00000008838'
p4414
aS'ENSG00000187024'
p4415
aS'ENSG00000049449'
p4416
aS'ENSG00000137806'
p4417
aS'ENSG00000158106'
p4418
aS'ENSG00000125445'
p4419
aS'ENSG00000164068'
p4420
atRp4421
ssS'salmon4'
p4422
(dp4423
g4
g5
((lp4424
S'ENSG00000166796'
p4425
aS'ENSG00000113971'
p4426
aS'ENSG00000164080'
p4427
aS'ENSG00000176105'
p4428
aS'ENSG00000141429'
p4429
aS'ENSG00000163214'
p4430
aS'ENSG00000140598'
p4431
aS'ENSG00000101639'
p4432
aS'ENSG00000149054'
p4433
aS'ENSG00000101158'
p4434
aS'ENSG00000198380'
p4435
aS'ENSG00000184117'
p4436
aS'ENSG00000136982'
p4437
aS'ENSG00000189007'
p4438
aS'ENSG00000137713'
p4439
aS'ENSG00000179532'
p4440
aS'ENSG00000142082'
p4441
aS'ENSG00000138375'
p4442
aS'ENSG00000152240'
p4443
aS'ENSG00000138030'
p4444
aS'ENSG00000103496'
p4445
aS'ENSG00000113761'
p4446
aS'ENSG00000158163'
p4447
aS'ENSG00000134815'
p4448
aS'ENSG00000100150'
p4449
aS'ENSG00000135587'
p4450
aS'ENSG00000177963'
p4451
atRp4452
ssS'green'
p4453
(dp4454
g61
(lp4455
(lp4456
S'ENSG00000159189'
p4457
ag65
(g67
S'\x18\xf3\xa9\x17\xf3\xa9C@'
tRp4458
ag65
(g67
S'\xf3\xfaz-\xea+I>'
tRp4459
ag65
(g67
S'\x00\x00Pe\x07\x88\xab>'
tRp4460
aa(lp4461
S'ENSG00000173369'
p4462
ag65
(g67
S'\x18\xf3\xa9\x17\xf3\xa9C@'
tRp4463
ag65
(g67
S'\xf3\xfaz-\xea+I>'
tRp4464
ag65
(g67
S'\x00\x00Pe\x07\x88\xab>'
tRp4465
aa(lp4466
S'ENSG00000110079'
p4467
ag65
(g67
S'A\xc6\x05\x19\x17d:@'
tRp4468
ag65
(g67
S'\n\xab\xe8\x9b\xf33\xcc>'
tRp4469
ag65
(g67
S'\x00\x10\xe7\xaaU\xf6-?'
tRp4470
aa(lp4471
S'ENSG00000173372'
p4472
ag65
(g67
S'A\xc6\x05\x19\x17d:@'
tRp4473
ag65
(g67
S'\n\xab\xe8\x9b\xf33\xcc>'
tRp4474
ag65
(g67
S'\x00\x10\xe7\xaaU\xf6-?'
tRp4475
aa(lp4476
S'ENSG00000160883'
p4477
aFinf
ag65
(g67
S'\xd2l\xaee\x10\xf4\x0e?'
tRp4478
ag65
(g67
S'\x00\x00^\xff\x07\xdco?'
tRp4479
aa(lp4480
S'ENSG00000169896'
p4481
aFinf
ag65
(g67
S'\xd2l\xaee\x10\xf4\x0e?'
tRp4482
ag65
(g67
S'\x00\x00^\xff\x07\xdco?'
tRp4483
aa(lp4484
S'ENSG00000110077'
p4485
ag65
(g67
S'\x00\x00\x00\x00\x00\x00<@'
tRp4486
ag65
(g67
S'c\r\x90\t\xd7]!?'
tRp4487
ag65
(g67
S'\x00\xd9\x97\xdbUK\x81?'
tRp4488
aasg4
g5
((lp4489
S'ENSG00000137731'
p4490
aS'ENSG00000147443'
p4491
aS'ENSG00000203710'
p4492
aS'ENSG00000026297'
p4493
aS'ENSG00000161944'
p4494
aS'ENSG00000171298'
p4495
aS'ENSG00000164733'
p4496
aS'ENSG00000213614'
p4497
aS'ENSG00000183748'
p4498
aS'ENSG00000198598'
p4499
aS'ENSG00000163694'
p4500
aS'ENSG00000136425'
p4501
aS'ENSG00000102575'
p4502
aS'ENSG00000172243'
p4503
aS'ENSG00000175634'
p4504
aS'ENSG00000188820'
p4505
aS'ENSG00000120586'
p4506
aS'ENSG00000134755'
p4507
aS'ENSG00000216490'
p4508
aS'ENSG00000128604'
p4509
aS'ENSG00000010610'
p4510
aS'ENSG00000179299'
p4511
aS'ENSG00000116874'
p4512
aS'ENSG00000053918'
p4513
aS'ENSG00000196932'
p4514
aS'ENSG00000142185'
p4515
aS'ENSG00000103353'
p4516
aS'ENSG00000124357'
p4517
aS'ENSG00000165025'
p4518
aS'ENSG00000161929'
p4519
aS'ENSG00000141391'
p4520
aS'ENSG00000088827'
p4521
aS'ENSG00000125637'
p4522
aS'ENSG00000178789'
p4523
aS'ENSG00000117226'
p4524
aS'ENSG00000121933'
p4525
aS'ENSG00000166927'
p4526
aS'ENSG00000168546'
p4527
aS'ENSG00000166928'
p4528
aS'ENSG00000169313'
p4529
aS'ENSG00000154274'
p4530
aS'ENSG00000198466'
p4531
aS'ENSG00000145850'
p4532
aS'ENSG00000135124'
p4533
aS'ENSG00000182578'
p4534
aS'ENSG00000157884'
p4535
aS'ENSG00000134830'
p4536
aS'ENSG00000100979'
p4537
aS'ENSG00000132514'
p4538
aS'ENSG00000064886'
p4539
atRp4540
ssS'blueviolet'
p4541
(dp4542
g61
(lp4543
(lp4544
S'ENSG00000022267'
p4545
aFinf
ag65
(g67
S'\xf0\xf3\x88F\xe6\x8dj?'
tRp4546
ag65
(g67
S'@\x19\xb5YI\xc1\x93?'
tRp4547
aa(lp4548
S'ENSG00000172403'
p4549
aFinf
ag65
(g67
S'\xf0\xf3\x88F\xe6\x8dj?'
tRp4550
ag65
(g67
S'@\x19\xb5YI\xc1\x93?'
tRp4551
aasg4
g5
((lp4552
S'ENSG00000244274'
p4553
aS'ENSG00000160948'
p4554
aS'ENSG00000136098'
p4555
aS'ENSG00000175220'
p4556
aS'ENSG00000159840'
p4557
aS'ENSG00000166333'
p4558
aS'ENSG00000267060'
p4559
aS'ENSG00000138152'
p4560
aS'ENSG00000064115'
p4561
aS'ENSG00000243452'
p4562
aS'ENSG00000140682'
p4563
aS'ENSG00000141698'
p4564
aS'ENSG00000172500'
p4565
aS'ENSG00000165915'
p4566
aS'ENSG00000114999'
p4567
aS'ENSG00000170955'
p4568
aS'ENSG00000258365'
p4569
atRp4570
ssS'brown2'
p4571
(dp4572
g61
(lp4573
(lp4574
S'ENSG00000205403'
p4575
aFinf
ag65
(g67
S'\x04\xb7\xe6\xb4l\xeas?'
tRp4576
ag65
(g67
S'\xc0\x0e\xcc\x94a[\xa8?'
tRp4577
aa(lp4578
S'ENSG00000135519'
p4579
aFinf
ag65
(g67
S'\x04\xb7\xe6\xb4l\xeas?'
tRp4580
ag65
(g67
S'\xc0\x0e\xcc\x94a[\xa8?'
tRp4581
aasg4
g5
((lp4582
S'ENSG00000197043'
p4583
aS'ENSG00000168993'
p4584
aS'ENSG00000164402'
p4585
aS'ENSG00000162572'
p4586
aS'ENSG00000167123'
p4587
aS'ENSG00000157103'
p4588
aS'ENSG00000167608'
p4589
aS'ENSG00000152749'
p4590
aS'ENSG00000168938'
p4591
aS'ENSG00000142102'
p4592
aS'ENSG00000160352'
p4593
aS'ENSG00000167525'
p4594
aS'ENSG00000228696'
p4595
aS'ENSG00000177879'
p4596
aS'ENSG00000106367'
p4597
aS'ENSG00000198185'
p4598
aS'ENSG00000130201'
p4599
aS'ENSG00000106404'
p4600
aS'ENSG00000006025'
p4601
aS'ENSG00000100196'
p4602
aS'ENSG00000175287'
p4603
aS'ENSG00000149927'
p4604
aS'ENSG00000177383'
p4605
atRp4606
ssS'steelblue'
p4607
(dp4608
g61
(lp4609
(lp4610
S'ENSG00000108309'
p4611
aFinf
ag65
(g67
S'\xeb\xf8\x88F\xe6\x8dj?'
tRp4612
ag65
(g67
S'@\xfa\xa7\xfa\xeal\x8a?'
tRp4613
aa(lp4614
S'ENSG00000130643'
p4615
aFinf
ag65
(g67
S'\xeb\xf8\x88F\xe6\x8dj?'
tRp4616
ag65
(g67
S'@\xfa\xa7\xfa\xeal\x8a?'
tRp4617
aa(lp4618
g1305
aFinf
ag65
(g67
S'\xc1\xba\xe6\xb4l\xea\x93?'
tRp4619
ag65
(g67
S'\xf0V.[\xd8\xb8\xa3?'
tRp4620
aasg4
g5
((lp4621
S'ENSG00000166562'
p4622
aS'ENSG00000153832'
p4623
aS'ENSG00000103056'
p4624
aS'ENSG00000197599'
p4625
aS'ENSG00000184903'
p4626
aS'ENSG00000243566'
p4627
aS'ENSG00000175334'
p4628
aS'ENSG00000177889'
p4629
aS'ENSG00000130038'
p4630
aS'ENSG00000131697'
p4631
aS'ENSG00000152926'
p4632
aS'ENSG00000143314'
p4633
aS'ENSG00000167747'
p4634
aS'ENSG00000206562'
p4635
aS'ENSG00000213462'
p4636
aS'ENSG00000111237'
p4637
aS'ENSG00000113734'
p4638
aS'ENSG00000166582'
p4639
aS'ENSG00000168591'
p4640
aS'ENSG00000141560'
p4641
aS'ENSG00000100744'
p4642
aS'ENSG00000132600'
p4643
aS'ENSG00000172456'
p4644
aS'ENSG00000164053'
p4645
aS'ENSG00000171792'
p4646
aS'ENSG00000101367'
p4647
aS'ENSG00000127364'
p4648
aS'ENSG00000239704'
p4649
aS'ENSG00000004777'
p4650
aS'ENSG00000156042'
p4651
atRp4652
ssS'brown4'
p4653
(dp4654
g4
g5
((lp4655
S'ENSG00000172349'
p4656
aS'ENSG00000172345'
p4657
aS'ENSG00000116729'
p4658
aS'ENSG00000129625'
p4659
aS'ENSG00000144559'
p4660
aS'ENSG00000111052'
p4661
aS'ENSG00000164040'
p4662
aS'ENSG00000213694'
p4663
aS'ENSG00000187630'
p4664
aS'ENSG00000128536'
p4665
aS'ENSG00000135597'
p4666
aS'ENSG00000183785'
p4667
aS'ENSG00000147408'
p4668
aS'ENSG00000130731'
p4669
aS'ENSG00000082175'
p4670
aS'ENSG00000124641'
p4671
aS'ENSG00000239665'
p4672
aS'ENSG00000101246'
p4673
aS'ENSG00000183570'
p4674
aS'ENSG00000167920'
p4675
aS'ENSG00000100364'
p4676
aS'ENSG00000157985'
p4677
aS'ENSG00000259207'
p4678
aS'ENSG00000064763'
p4679
aS'ENSG00000117153'
p4680
aS'ENSG00000169045'
p4681
aS'ENSG00000169418'
p4682
aS'ENSG00000157510'
p4683
atRp4684
ss.