(dp1
S'yellow'
p2
(dp3
S'driver_genes'
p4
(lp5
(lp6
S'ENSG00000146090'
p7
acnumpy.core.multiarray
scalar
p8
(cnumpy
dtype
p9
(S'f8'
I0
I1
tRp10
(I3
S'<'
NNNI-1
I-1
I0
tbS'B{\t\xed%\xf4?@'
tRp11
ag8
(g10
S'v!\xca\rK:\x96>'
tRp12
ag8
(g10
S'\x00\xc0c\xed\xe7h\x10?'
tRp13
aa(lp14
S'ENSG00000206579'
p15
ag8
(g10
S'B{\t\xed%\xf4?@'
tRp16
ag8
(g10
S'v!\xca\rK:\x96>'
tRp17
ag8
(g10
S'\x00\xc0c\xed\xe7h\x10?'
tRp18
aa(lp19
S'ENSG00000230798'
p20
ag8
(g10
S'n\xdb\xb6m\xdb\xb6W@'
tRp21
ag8
(g10
S'g\xb1_\\\xa2\xaa\xf4>'
tRp22
ag8
(g10
S'\x00\xa9\x9d\xbf"#n?'
tRp23
aasS'module_genes'
p24
c__builtin__
set
p25
((lp26
S'ENSG00000130762'
p27
aS'ENSG00000196381'
p28
aS'ENSG00000161542'
p29
aS'ENSG00000162763'
p30
aS'ENSG00000141542'
p31
aS'ENSG00000086159'
p32
aS'ENSG00000173809'
p33
aS'ENSG00000087250'
p34
aS'ENSG00000139549'
p35
aS'ENSG00000108018'
p36
aS'ENSG00000020922'
p37
aS'ENSG00000162512'
p38
aS'ENSG00000116991'
p39
aS'ENSG00000154945'
p40
aS'ENSG00000139343'
p41
aS'ENSG00000261857'
p42
aS'ENSG00000139364'
p43
aS'ENSG00000180660'
p44
aS'ENSG00000257727'
p45
aS'ENSG00000107551'
p46
aS'ENSG00000049759'
p47
aS'ENSG00000165795'
p48
aS'ENSG00000184564'
p49
aS'ENSG00000183317'
p50
aS'ENSG00000189266'
p51
aS'ENSG00000149218'
p52
aS'ENSG00000173786'
p53
aS'ENSG00000025434'
p54
aS'ENSG00000138623'
p55
aS'ENSG00000102760'
p56
aS'ENSG00000171877'
p57
aS'ENSG00000103089'
p58
aS'ENSG00000140090'
p59
aS'ENSG00000161265'
p60
aS'ENSG00000186469'
p61
aS'ENSG00000172661'
p62
aS'ENSG00000133069'
p63
aS'ENSG00000070731'
p64
aS'ENSG00000128872'
p65
aS'ENSG00000175224'
p66
aS'ENSG00000170075'
p67
aS'ENSG00000137764'
p68
aS'ENSG00000175348'
p69
aS'ENSG00000183715'
p70
aS'ENSG00000221953'
p71
aS'ENSG00000136643'
p72
aS'ENSG00000109956'
p73
aS'ENSG00000188488'
p74
aS'ENSG00000069188'
p75
aS'ENSG00000167566'
p76
aS'ENSG00000165478'
p77
aS'ENSG00000110756'
p78
aS'ENSG00000089847'
p79
aS'ENSG00000178297'
p80
aS'ENSG00000132906'
p81
aS'ENSG00000171903'
p82
aS'ENSG00000161791'
p83
aS'ENSG00000110693'
p84
aS'ENSG00000175662'
p85
aS'ENSG00000110218'
p86
aS'ENSG00000105186'
p87
aS'ENSG00000139354'
p88
aS'ENSG00000071991'
p89
aS'ENSG00000135773'
p90
aS'ENSG00000179066'
p91
aS'ENSG00000165300'
p92
aS'ENSG00000183549'
p93
aS'ENSG00000162877'
p94
aS'ENSG00000160781'
p95
aS'ENSG00000162946'
p96
aS'ENSG00000184144'
p97
aS'ENSG00000187535'
p98
aS'ENSG00000150054'
p99
aS'ENSG00000163873'
p100
aS'ENSG00000105426'
p101
aS'ENSG00000166091'
p102
atRp103
ssS'darkolivegreen'
p104
(dp105
g24
g25
((lp106
S'ENSG00000165730'
p107
aS'ENSG00000104059'
p108
aS'ENSG00000139192'
p109
aS'ENSG00000166263'
p110
aS'ENSG00000076706'
p111
aS'ENSG00000244045'
p112
aS'ENSG00000156414'
p113
aS'ENSG00000142494'
p114
aS'ENSG00000153233'
p115
aS'ENSG00000141837'
p116
aS'ENSG00000084072'
p117
aS'ENSG00000170412'
p118
aS'ENSG00000162458'
p119
aS'ENSG00000154146'
p120
aS'ENSG00000176678'
p121
aS'ENSG00000126218'
p122
aS'ENSG00000132604'
p123
aS'ENSG00000039650'
p124
aS'ENSG00000092607'
p125
aS'ENSG00000110195'
p126
aS'ENSG00000165959'
p127
aS'ENSG00000111404'
p128
aS'ENSG00000235162'
p129
aS'ENSG00000102890'
p130
aS'ENSG00000185070'
p131
aS'ENSG00000182771'
p132
aS'ENSG00000155714'
p133
aS'ENSG00000111224'
p134
aS'ENSG00000251209'
p135
aS'ENSG00000182732'
p136
aS'ENSG00000196187'
p137
aS'ENSG00000134259'
p138
aS'ENSG00000143140'
p139
aS'ENSG00000198015'
p140
aS'ENSG00000187513'
p141
aS'ENSG00000166825'
p142
aS'ENSG00000196666'
p143
atRp144
ssS'grey60'
p145
(dp146
g24
g25
((lp147
S'ENSG00000166788'
p148
aS'ENSG00000141295'
p149
aS'ENSG00000180855'
p150
aS'ENSG00000173581'
p151
aS'ENSG00000172830'
p152
aS'ENSG00000175334'
p153
aS'ENSG00000183495'
p154
aS'ENSG00000111667'
p155
aS'ENSG00000197912'
p156
aS'ENSG00000100568'
p157
aS'ENSG00000075131'
p158
aS'ENSG00000165502'
p159
aS'ENSG00000203791'
p160
aS'ENSG00000103544'
p161
aS'ENSG00000196502'
p162
aS'ENSG00000198824'
p163
aS'ENSG00000149735'
p164
aS'ENSG00000087191'
p165
aS'ENSG00000162063'
p166
aS'ENSG00000173264'
p167
aS'ENSG00000121101'
p168
aS'ENSG00000172500'
p169
aS'ENSG00000099814'
p170
aS'ENSG00000149262'
p171
aS'ENSG00000134146'
p172
aS'ENSG00000185324'
p173
aS'ENSG00000103024'
p174
aS'ENSG00000174292'
p175
aS'ENSG00000149503'
p176
aS'ENSG00000175643'
p177
aS'ENSG00000203943'
p178
aS'ENSG00000117475'
p179
aS'ENSG00000168096'
p180
aS'ENSG00000092148'
p181
aS'ENSG00000103335'
p182
aS'ENSG00000169727'
p183
aS'ENSG00000215041'
p184
aS'ENSG00000141569'
p185
aS'ENSG00000006744'
p186
aS'ENSG00000148690'
p187
aS'ENSG00000108592'
p188
aS'ENSG00000116514'
p189
aS'ENSG00000090372'
p190
aS'ENSG00000157077'
p191
aS'ENSG00000168803'
p192
aS'ENSG00000176108'
p193
aS'ENSG00000188878'
p194
aS'ENSG00000127616'
p195
aS'ENSG00000213380'
p196
aS'ENSG00000259363'
p197
aS'ENSG00000169689'
p198
aS'ENSG00000213782'
p199
aS'ENSG00000117090'
p200
aS'ENSG00000166947'
p201
aS'ENSG00000125912'
p202
aS'ENSG00000167272'
p203
atRp204
ssS'lightsteelblue1'
p205
(dp206
g4
(lp207
(lp208
S'ENSG00000171951'
p209
ag8
(g10
S'\xcd\xcc\xcc\xcc\xcc\x0cC@'
tRp210
ag8
(g10
S'\xc6\xc9\xb3\xd5|\xf77?'
tRp211
ag8
(g10
S'\x80\x80\x94\x011\xee\xa2?'
tRp212
aa(lp213
S'ENSG00000089250'
p214
ag8
(g10
S'fffff\xe6@@'
tRp215
ag8
(g10
S'7M,\xc0E\xb9??'
tRp216
ag8
(g10
S'`S8\xcb\xf5\xab\xa8?'
tRp217
aasg24
g25
((lp218
S'ENSG00000007933'
p219
aS'ENSG00000196793'
p220
aS'ENSG00000133962'
p221
aS'ENSG00000116406'
p222
aS'ENSG00000180287'
p223
aS'ENSG00000175634'
p224
aS'ENSG00000104043'
p225
aS'ENSG00000111058'
p226
aS'ENSG00000148604'
p227
aS'ENSG00000140525'
p228
aS'ENSG00000135778'
p229
aS'ENSG00000180185'
p230
aS'ENSG00000102967'
p231
aS'ENSG00000141469'
p232
aS'ENSG00000160013'
p233
aS'ENSG00000168539'
p234
aS'ENSG00000151892'
p235
aS'ENSG00000102466'
p236
aS'ENSG00000111731'
p237
aS'ENSG00000213402'
p238
aS'ENSG00000122870'
p239
aS'ENSG00000123338'
p240
aS'ENSG00000166068'
p241
aS'ENSG00000151835'
p242
aS'ENSG00000049247'
p243
aS'ENSG00000166261'
p244
aS'ENSG00000171914'
p245
aS'ENSG00000197841'
p246
aS'ENSG00000149926'
p247
aS'ENSG00000204130'
p248
aS'ENSG00000165929'
p249
aS'ENSG00000094963'
p250
aS'ENSG00000143850'
p251
atRp252
ssS'yellow4'
p253
(dp254
g24
g25
((lp255
S'ENSG00000103175'
p256
aS'ENSG00000087258'
p257
aS'ENSG00000170442'
p258
aS'ENSG00000185842'
p259
aS'ENSG00000213965'
p260
aS'ENSG00000213988'
p261
aS'ENSG00000214575'
p262
aS'ENSG00000198848'
p263
aS'ENSG00000101542'
p264
aS'ENSG00000184524'
p265
aS'ENSG00000097021'
p266
aS'ENSG00000167705'
p267
aS'ENSG00000134779'
p268
aS'ENSG00000116857'
p269
aS'ENSG00000157978'
p270
aS'ENSG00000109854'
p271
aS'ENSG00000067057'
p272
aS'ENSG00000205426'
p273
aS'ENSG00000126790'
p274
aS'ENSG00000100739'
p275
aS'ENSG00000116396'
p276
aS'ENSG00000154065'
p277
aS'ENSG00000103222'
p278
aS'ENSG00000168234'
p279
aS'ENSG00000053747'
p280
atRp281
ssS'mediumorchid'
p282
(dp283
g24
g25
((lp284
S'ENSG00000214087'
p285
aS'ENSG00000173517'
p286
aS'ENSG00000171502'
p287
aS'ENSG00000120008'
p288
aS'ENSG00000165672'
p289
aS'ENSG00000165568'
p290
aS'ENSG00000197782'
p291
aS'ENSG00000110328'
p292
aS'ENSG00000108370'
p293
aS'ENSG00000018625'
p294
aS'ENSG00000197562'
p295
aS'ENSG00000162885'
p296
aS'ENSG00000143001'
p297
aS'ENSG00000117410'
p298
aS'ENSG00000197608'
p299
aS'ENSG00000166847'
p300
aS'ENSG00000126803'
p301
aS'ENSG00000198929'
p302
aS'ENSG00000239887'
p303
aS'ENSG00000049245'
p304
aS'ENSG00000178773'
p305
aS'ENSG00000127578'
p306
aS'ENSG00000188629'
p307
aS'ENSG00000182993'
p308
aS'ENSG00000095485'
p309
atRp310
ssS'black'
p311
(dp312
g24
g25
((lp313
S'ENSG00000120696'
p314
aS'ENSG00000169021'
p315
aS'ENSG00000177025'
p316
aS'ENSG00000172345'
p317
aS'ENSG00000266173'
p318
aS'ENSG00000187145'
p319
aS'ENSG00000087253'
p320
aS'ENSG00000165983'
p321
aS'ENSG00000167595'
p322
aS'ENSG00000182472'
p323
aS'ENSG00000138311'
p324
aS'ENSG00000198046'
p325
aS'ENSG00000089916'
p326
aS'ENSG00000108759'
p327
aS'ENSG00000175538'
p328
aS'ENSG00000108010'
p329
aS'ENSG00000103546'
p330
aS'ENSG00000176148'
p331
aS'ENSG00000139668'
p332
aS'ENSG00000183454'
p333
aS'ENSG00000205212'
p334
aS'ENSG00000143337'
p335
aS'ENSG00000011114'
p336
aS'ENSG00000173821'
p337
aS'ENSG00000198626'
p338
aS'ENSG00000152782'
p339
aS'ENSG00000119689'
p340
aS'ENSG00000196263'
p341
aS'ENSG00000161558'
p342
aS'ENSG00000197056'
p343
aS'ENSG00000131981'
p344
aS'ENSG00000125375'
p345
aS'ENSG00000136448'
p346
aS'ENSG00000116157'
p347
aS'ENSG00000179456'
p348
aS'ENSG00000188227'
p349
aS'ENSG00000117791'
p350
aS'ENSG00000136052'
p351
aS'ENSG00000062038'
p352
aS'ENSG00000103485'
p353
aS'ENSG00000133895'
p354
aS'ENSG00000158864'
p355
aS'ENSG00000214290'
p356
aS'ENSG00000196167'
p357
aS'ENSG00000108963'
p358
aS'ENSG00000133818'
p359
aS'ENSG00000099330'
p360
aS'ENSG00000186868'
p361
aS'ENSG00000040199'
p362
aS'ENSG00000021762'
p363
aS'ENSG00000158023'
p364
aS'ENSG00000090621'
p365
aS'ENSG00000158286'
p366
aS'ENSG00000196876'
p367
aS'ENSG00000107562'
p368
aS'ENSG00000065325'
p369
aS'ENSG00000183578'
p370
aS'ENSG00000165572'
p371
aS'ENSG00000140995'
p372
aS'ENSG00000258572'
p373
aS'ENSG00000128487'
p374
aS'ENSG00000100490'
p375
aS'ENSG00000116489'
p376
aS'ENSG00000187105'
p377
aS'ENSG00000162384'
p378
aS'ENSG00000077616'
p379
aS'ENSG00000196458'
p380
aS'ENSG00000128000'
p381
atRp382
ssS'orange'
p383
(dp384
g24
g25
((lp385
S'ENSG00000104885'
p386
aS'ENSG00000139197'
p387
aS'ENSG00000166780'
p388
aS'ENSG00000150456'
p389
aS'ENSG00000108294'
p390
aS'ENSG00000153406'
p391
aS'ENSG00000166035'
p392
aS'ENSG00000049239'
p393
aS'ENSG00000166801'
p394
aS'ENSG00000143158'
p395
aS'ENSG00000197273'
p396
aS'ENSG00000133805'
p397
aS'ENSG00000198625'
p398
aS'ENSG00000166750'
p399
aS'ENSG00000143702'
p400
aS'ENSG00000182446'
p401
aS'ENSG00000133392'
p402
aS'ENSG00000138600'
p403
aS'ENSG00000171953'
p404
aS'ENSG00000182264'
p405
aS'ENSG00000108509'
p406
aS'ENSG00000204851'
p407
aS'ENSG00000008441'
p408
aS'ENSG00000198231'
p409
aS'ENSG00000166796'
p410
aS'ENSG00000171067'
p411
aS'ENSG00000066427'
p412
aS'ENSG00000102780'
p413
aS'ENSG00000239665'
p414
aS'ENSG00000035664'
p415
aS'ENSG00000121957'
p416
aS'ENSG00000141905'
p417
aS'ENSG00000197013'
p418
aS'ENSG00000103199'
p419
aS'ENSG00000196182'
p420
aS'ENSG00000158161'
p421
aS'ENSG00000161642'
p422
aS'ENSG00000028528'
p423
aS'ENSG00000140470'
p424
aS'ENSG00000110315'
p425
aS'ENSG00000135148'
p426
aS'ENSG00000143756'
p427
aS'ENSG00000228570'
p428
atRp429
ssS'brown'
p430
(dp431
g24
g25
((lp432
S'ENSG00000081665'
p433
aS'ENSG00000263053'
p434
aS'ENSG00000162517'
p435
aS'ENSG00000104884'
p436
aS'ENSG00000162434'
p437
aS'ENSG00000008382'
p438
aS'ENSG00000116701'
p439
aS'ENSG00000162769'
p440
aS'ENSG00000135698'
p441
aS'ENSG00000198551'
p442
aS'ENSG00000141252'
p443
aS'ENSG00000205784'
p444
aS'ENSG00000111199'
p445
aS'ENSG00000183605'
p446
aS'ENSG00000013306'
p447
aS'ENSG00000096996'
p448
aS'ENSG00000197444'
p449
aS'ENSG00000129667'
p450
aS'ENSG00000126353'
p451
aS'ENSG00000256087'
p452
aS'ENSG00000175711'
p453
aS'ENSG00000234465'
p454
aS'ENSG00000168952'
p455
aS'ENSG00000174775'
p456
aS'ENSG00000118307'
p457
aS'ENSG00000100580'
p458
aS'ENSG00000204169'
p459
aS'ENSG00000100604'
p460
aS'ENSG00000130818'
p461
aS'ENSG00000100483'
p462
aS'ENSG00000132259'
p463
aS'ENSG00000182272'
p464
aS'ENSG00000130731'
p465
aS'ENSG00000170906'
p466
aS'ENSG00000137494'
p467
aS'ENSG00000001461'
p468
aS'ENSG00000134758'
p469
aS'ENSG00000103510'
p470
aS'ENSG00000130775'
p471
aS'ENSG00000104731'
p472
aS'ENSG00000196935'
p473
aS'ENSG00000162545'
p474
aS'ENSG00000138134'
p475
aS'ENSG00000189144'
p476
aS'ENSG00000142082'
p477
aS'ENSG00000162542'
p478
aS'ENSG00000137709'
p479
aS'ENSG00000105700'
p480
aS'ENSG00000154957'
p481
aS'ENSG00000198521'
p482
aS'ENSG00000141759'
p483
aS'ENSG00000160396'
p484
aS'ENSG00000068903'
p485
aS'ENSG00000033327'
p486
aS'ENSG00000116199'
p487
aS'ENSG00000204577'
p488
aS'ENSG00000090581'
p489
aS'ENSG00000166676'
p490
aS'ENSG00000226742'
p491
aS'ENSG00000213995'
p492
aS'ENSG00000225614'
p493
aS'ENSG00000054967'
p494
aS'ENSG00000176715'
p495
aS'ENSG00000166927'
p496
aS'ENSG00000166450'
p497
aS'ENSG00000152104'
p498
aS'ENSG00000069424'
p499
aS'ENSG00000166928'
p500
aS'ENSG00000198858'
p501
aS'ENSG00000244482'
p502
aS'ENSG00000117481'
p503
aS'ENSG00000171714'
p504
aS'ENSG00000102962'
p505
aS'ENSG00000104863'
p506
aS'ENSG00000158483'
p507
aS'ENSG00000256771'
p508
aS'ENSG00000177963'
p509
aS'ENSG00000011028'
p510
aS'ENSG00000167325'
p511
aS'ENSG00000103241'
p512
atRp513
ssS'turquoise'
p514
(dp515
g24
g25
((lp516
S'ENSG00000172247'
p517
aS'ENSG00000173917'
p518
aS'ENSG00000182087'
p519
aS'ENSG00000102595'
p520
aS'ENSG00000116141'
p521
aS'ENSG00000050130'
p522
aS'ENSG00000007520'
p523
aS'ENSG00000104899'
p524
aS'ENSG00000105373'
p525
aS'ENSG00000104921'
p526
aS'ENSG00000176022'
p527
aS'ENSG00000136122'
p528
aS'ENSG00000005955'
p529
aS'ENSG00000177576'
p530
aS'ENSG00000006015'
p531
aS'ENSG00000153187'
p532
aS'ENSG00000177374'
p533
aS'ENSG00000197696'
p534
aS'ENSG00000170892'
p535
aS'ENSG00000128829'
p536
aS'ENSG00000099326'
p537
aS'ENSG00000141933'
p538
aS'ENSG00000157322'
p539
aS'ENSG00000213015'
p540
aS'ENSG00000139684'
p541
aS'ENSG00000214026'
p542
aS'ENSG00000182004'
p543
aS'ENSG00000179588'
p544
aS'ENSG00000183248'
p545
aS'ENSG00000130881'
p546
aS'ENSG00000083520'
p547
aS'ENSG00000168056'
p548
aS'ENSG00000257704'
p549
aS'ENSG00000142694'
p550
aS'ENSG00000121454'
p551
aS'ENSG00000149927'
p552
aS'ENSG00000139116'
p553
aS'ENSG00000094975'
p554
aS'ENSG00000203859'
p555
aS'ENSG00000170955'
p556
aS'ENSG00000167526'
p557
aS'ENSG00000245848'
p558
aS'ENSG00000165644'
p559
aS'ENSG00000258429'
p560
aS'ENSG00000135736'
p561
aS'ENSG00000197747'
p562
aS'ENSG00000065665'
p563
aS'ENSG00000103254'
p564
aS'ENSG00000188779'
p565
aS'ENSG00000171763'
p566
aS'ENSG00000133265'
p567
aS'ENSG00000151640'
p568
aS'ENSG00000138152'
p569
aS'ENSG00000165609'
p570
aS'ENSG00000110057'
p571
aS'ENSG00000223496'
p572
aS'ENSG00000130758'
p573
aS'ENSG00000116032'
p574
aS'ENSG00000237172'
p575
aS'ENSG00000125458'
p576
aS'ENSG00000216937'
p577
aS'ENSG00000156876'
p578
aS'ENSG00000152475'
p579
aS'ENSG00000185522'
p580
aS'ENSG00000161243'
p581
aS'ENSG00000075461'
p582
aS'ENSG00000105698'
p583
aS'ENSG00000178922'
p584
aS'ENSG00000189190'
p585
aS'ENSG00000143207'
p586
aS'ENSG00000108406'
p587
aS'ENSG00000075945'
p588
aS'ENSG00000141664'
p589
aS'ENSG00000116661'
p590
aS'ENSG00000160113'
p591
aS'ENSG00000140905'
p592
aS'ENSG00000197345'
p593
aS'ENSG00000117153'
p594
aS'ENSG00000167617'
p595
aS'ENSG00000168040'
p596
aS'ENSG00000133250'
p597
aS'ENSG00000218891'
p598
atRp599
ssS'antiquewhite4'
p600
(dp601
g4
(lp602
(lp603
S'ENSG00000054356'
p604
aFinf
ag8
(g10
S'jg\xee\x82\xbf\x8a\x83?'
tRp605
ag8
(g10
S'\x80\xe2(m\xf0?\x97?'
tRp606
aa(lp607
S'ENSG00000169213'
p608
aFinf
ag8
(g10
S'\xa6\xa6\xb76Lsw?'
tRp609
ag8
(g10
S'\x80\xe2(m\xf0?\x97?'
tRp610
aa(lp611
g209
aFinf
ag8
(g10
S'}\t\xd3\xdc\x05\x7f\x95?'
tRp612
ag8
(g10
S'\x80\xe2(m\xf0?\x97?'
tRp613
aa(lp614
S'ENSG00000174938'
p615
aFinf
ag8
(g10
S'\xa6\xa6\xb76Lsw?'
tRp616
ag8
(g10
S'\x80\xe2(m\xf0?\x97?'
tRp617
aasg24
g25
((lp618
S'ENSG00000166224'
p619
aS'ENSG00000141337'
p620
aS'ENSG00000152467'
p621
aS'ENSG00000134201'
p622
aS'ENSG00000166170'
p623
aS'ENSG00000134202'
p624
aS'ENSG00000183476'
p625
aS'ENSG00000166689'
p626
aS'ENSG00000134184'
p627
aS'ENSG00000158113'
p628
aS'ENSG00000149311'
p629
aS'ENSG00000136425'
p630
aS'ENSG00000139624'
p631
aS'ENSG00000117640'
p632
aS'ENSG00000139180'
p633
aS'ENSG00000143434'
p634
aS'ENSG00000122873'
p635
aS'ENSG00000205281'
p636
aS'ENSG00000152556'
p637
aS'ENSG00000168765'
p638
aS'ENSG00000213366'
p639
aS'ENSG00000171608'
p640
aS'ENSG00000140564'
p641
aS'ENSG00000103326'
p642
aS'ENSG00000135480'
p643
aS'ENSG00000119698'
p644
atRp645
ssS'bisque4'
p646
(dp647
g24
g25
((lp648
S'ENSG00000087157'
p649
aS'ENSG00000068383'
p650
aS'ENSG00000011638'
p651
aS'ENSG00000166016'
p652
aS'ENSG00000108799'
p653
aS'ENSG00000183077'
p654
aS'ENSG00000228032'
p655
aS'ENSG00000059588'
p656
aS'ENSG00000187775'
p657
aS'ENSG00000065600'
p658
aS'ENSG00000242852'
p659
aS'ENSG00000163866'
p660
aS'ENSG00000116852'
p661
aS'ENSG00000139722'
p662
aS'ENSG00000143195'
p663
aS'ENSG00000139970'
p664
aS'ENSG00000129562'
p665
aS'ENSG00000107719'
p666
aS'ENSG00000035687'
p667
aS'ENSG00000082175'
p668
aS'ENSG00000090376'
p669
aS'ENSG00000057704'
p670
aS'ENSG00000100632'
p671
aS'ENSG00000080371'
p672
aS'ENSG00000184999'
p673
aS'ENSG00000198771'
p674
aS'ENSG00000129219'
p675
aS'ENSG00000143194'
p676
aS'ENSG00000167323'
p677
aS'ENSG00000173621'
p678
aS'ENSG00000159842'
p679
atRp680
ssS'cyan'
p681
(dp682
g24
g25
((lp683
S'ENSG00000139826'
p684
aS'ENSG00000105617'
p685
aS'ENSG00000184293'
p686
aS'ENSG00000010072'
p687
aS'ENSG00000117505'
p688
aS'ENSG00000105483'
p689
aS'ENSG00000167383'
p690
aS'ENSG00000092208'
p691
aS'ENSG00000175376'
p692
aS'ENSG00000166262'
p693
aS'ENSG00000141576'
p694
aS'ENSG00000122435'
p695
aS'ENSG00000170291'
p696
aS'ENSG00000158850'
p697
aS'ENSG00000141428'
p698
aS'ENSG00000245680'
p699
aS'ENSG00000122035'
p700
aS'ENSG00000006210'
p701
aS'ENSG00000129472'
p702
aS'ENSG00000141560'
p703
aS'ENSG00000156603'
p704
aS'ENSG00000160352'
p705
aS'ENSG00000128016'
p706
aS'ENSG00000167333'
p707
aS'ENSG00000105419'
p708
aS'ENSG00000143319'
p709
aS'ENSG00000166822'
p710
aS'ENSG00000137731'
p711
aS'ENSG00000162775'
p712
aS'ENSG00000137713'
p713
aS'ENSG00000131845'
p714
aS'ENSG00000148572'
p715
aS'ENSG00000132581'
p716
aS'ENSG00000105497'
p717
aS'ENSG00000125124'
p718
aS'ENSG00000167565'
p719
aS'ENSG00000095539'
p720
aS'ENSG00000189164'
p721
aS'ENSG00000139531'
p722
aS'ENSG00000157429'
p723
aS'ENSG00000165861'
p724
aS'ENSG00000120616'
p725
aS'ENSG00000133661'
p726
aS'ENSG00000189195'
p727
aS'ENSG00000174606'
p728
aS'ENSG00000184677'
p729
aS'ENSG00000160785'
p730
aS'ENSG00000163382'
p731
aS'ENSG00000011105'
p732
aS'ENSG00000151491'
p733
aS'ENSG00000157379'
p734
aS'ENSG00000172171'
p735
aS'ENSG00000056661'
p736
aS'ENSG00000103037'
p737
aS'ENSG00000116962'
p738
aS'ENSG00000143751'
p739
aS'ENSG00000137802'
p740
atRp741
ssS'skyblue'
p742
(dp743
g4
(lp744
(lp745
S'ENSG00000099954'
p746
aFinf
ag8
(g10
S'y9J\x9eeD_?'
tRp747
ag8
(g10
S'\x00E\x85X\xc2<o?'
tRp748
aa(lp749
S'ENSG00000105357'
p750
aFinf
ag8
(g10
S'y9J\x9eeD_?'
tRp751
ag8
(g10
S'\x00E\x85X\xc2<o?'
tRp752
aasg24
g25
((lp753
S'ENSG00000166896'
p754
aS'ENSG00000129910'
p755
aS'ENSG00000064545'
p756
aS'ENSG00000141568'
p757
aS'ENSG00000259803'
p758
aS'ENSG00000141338'
p759
aS'ENSG00000171791'
p760
aS'ENSG00000269891'
p761
aS'ENSG00000108272'
p762
aS'ENSG00000074696'
p763
aS'ENSG00000053372'
p764
aS'ENSG00000107902'
p765
aS'ENSG00000213465'
p766
aS'ENSG00000148700'
p767
aS'ENSG00000267127'
p768
aS'ENSG00000104886'
p769
aS'ENSG00000165868'
p770
aS'ENSG00000138621'
p771
aS'ENSG00000196407'
p772
aS'ENSG00000143742'
p773
aS'ENSG00000092036'
p774
aS'ENSG00000197622'
p775
aS'ENSG00000160818'
p776
aS'ENSG00000141140'
p777
aS'ENSG00000172775'
p778
aS'ENSG00000110717'
p779
aS'ENSG00000122912'
p780
aS'ENSG00000116353'
p781
aS'ENSG00000185262'
p782
aS'ENSG00000165555'
p783
aS'ENSG00000120594'
p784
aS'ENSG00000108381'
p785
aS'ENSG00000153898'
p786
aS'ENSG00000159199'
p787
aS'ENSG00000169609'
p788
aS'ENSG00000175970'
p789
aS'ENSG00000138131'
p790
aS'ENSG00000140521'
p791
aS'ENSG00000132122'
p792
aS'ENSG00000155287'
p793
aS'ENSG00000172992'
p794
atRp795
ssS'darkturquoise'
p796
(dp797
g4
(lp798
(lp799
S'ENSG00000105492'
p800
ag8
(g10
S'\x8c.\xba\xe8\xa2\x0bW@'
tRp801
ag8
(g10
S'\xe2\\\xe8\xf6\xab\xb9\xda>'
tRp802
ag8
(g10
S'\x00\xf86\xa3X`G?'
tRp803
aa(lp804
S'ENSG00000149534'
p805
ag8
(g10
S'\x8c.\xba\xe8\xa2\x0bW@'
tRp806
ag8
(g10
S'\xe2\\\xe8\xf6\xab\xb9\xda>'
tRp807
ag8
(g10
S'\x00\xf86\xa3X`G?'
tRp808
aasg24
g25
((lp809
S'ENSG00000009790'
p810
aS'ENSG00000172590'
p811
aS'ENSG00000197978'
p812
aS'ENSG00000095917'
p813
aS'ENSG00000181830'
p814
aS'ENSG00000140391'
p815
aS'ENSG00000150459'
p816
aS'ENSG00000129515'
p817
aS'ENSG00000140030'
p818
aS'ENSG00000185344'
p819
aS'ENSG00000011485'
p820
aS'ENSG00000188690'
p821
aS'ENSG00000007264'
p822
aS'ENSG00000198570'
p823
aS'ENSG00000132139'
p824
aS'ENSG00000137819'
p825
aS'ENSG00000012124'
p826
aS'ENSG00000011590'
p827
aS'ENSG00000168275'
p828
aS'ENSG00000009830'
p829
aS'ENSG00000141219'
p830
aS'ENSG00000138316'
p831
aS'ENSG00000165646'
p832
aS'ENSG00000126266'
p833
aS'ENSG00000172586'
p834
aS'ENSG00000215644'
p835
aS'ENSG00000139187'
p836
aS'ENSG00000084207'
p837
aS'ENSG00000134489'
p838
aS'ENSG00000255298'
p839
aS'ENSG00000135426'
p840
aS'ENSG00000183318'
p841
aS'ENSG00000135409'
p842
aS'ENSG00000148848'
p843
aS'ENSG00000105695'
p844
aS'ENSG00000254521'
p845
aS'ENSG00000186766'
p846
aS'ENSG00000166900'
p847
aS'ENSG00000149295'
p848
aS'ENSG00000143162'
p849
aS'ENSG00000186197'
p850
aS'ENSG00000122176'
p851
aS'ENSG00000183780'
p852
aS'ENSG00000092009'
p853
aS'ENSG00000149534'
p854
atRp855
ssS'darkgreen'
p856
(dp857
g24
g25
((lp858
S'ENSG00000256223'
p859
aS'ENSG00000172301'
p860
aS'ENSG00000107669'
p861
aS'ENSG00000177294'
p862
aS'ENSG00000110435'
p863
aS'ENSG00000109047'
p864
aS'ENSG00000052850'
p865
aS'ENSG00000189403'
p866
aS'ENSG00000180988'
p867
aS'ENSG00000185924'
p868
aS'ENSG00000188641'
p869
aS'ENSG00000103742'
p870
aS'ENSG00000205517'
p871
aS'ENSG00000132386'
p872
aS'ENSG00000186417'
p873
aS'ENSG00000179256'
p874
aS'ENSG00000154511'
p875
aS'ENSG00000183092'
p876
aS'ENSG00000166426'
p877
aS'ENSG00000180263'
p878
aS'ENSG00000240563'
p879
aS'ENSG00000028203'
p880
aS'ENSG00000116874'
p881
aS'ENSG00000154035'
p882
aS'ENSG00000150750'
p883
aS'ENSG00000085741'
p884
aS'ENSG00000175984'
p885
aS'ENSG00000105088'
p886
aS'ENSG00000172987'
p887
aS'ENSG00000122481'
p888
aS'ENSG00000105072'
p889
aS'ENSG00000177465'
p890
aS'ENSG00000116774'
p891
aS'ENSG00000161692'
p892
aS'ENSG00000198732'
p893
aS'ENSG00000105321'
p894
aS'ENSG00000120370'
p895
aS'ENSG00000166800'
p896
aS'ENSG00000105520'
p897
aS'ENSG00000076258'
p898
aS'ENSG00000183691'
p899
aS'ENSG00000089335'
p900
aS'ENSG00000258247'
p901
aS'ENSG00000150760'
p902
aS'ENSG00000064666'
p903
aS'ENSG00000162383'
p904
atRp905
ssS'darkviolet'
p906
(dp907
g24
g25
((lp908
S'ENSG00000011295'
p909
aS'ENSG00000126267'
p910
aS'ENSG00000160321'
p911
aS'ENSG00000133114'
p912
aS'ENSG00000170310'
p913
aS'ENSG00000111237'
p914
aS'ENSG00000104112'
p915
aS'ENSG00000196109'
p916
aS'ENSG00000174373'
p917
aS'ENSG00000102910'
p918
aS'ENSG00000128881'
p919
aS'ENSG00000166949'
p920
aS'ENSG00000157181'
p921
aS'ENSG00000196693'
p922
aS'ENSG00000108443'
p923
aS'ENSG00000162733'
p924
aS'ENSG00000162722'
p925
aS'ENSG00000197134'
p926
aS'ENSG00000197360'
p927
aS'ENSG00000139344'
p928
aS'ENSG00000171246'
p929
atRp930
ssS'darkmagenta'
p931
(dp932
g24
g25
((lp933
S'ENSG00000064726'
p934
aS'ENSG00000166228'
p935
aS'ENSG00000100523'
p936
aS'ENSG00000176472'
p937
aS'ENSG00000226180'
p938
aS'ENSG00000165443'
p939
aS'ENSG00000111052'
p940
aS'ENSG00000143376'
p941
aS'ENSG00000107518'
p942
aS'ENSG00000271605'
p943
aS'ENSG00000228300'
p944
aS'ENSG00000149489'
p945
aS'ENSG00000153944'
p946
aS'ENSG00000077463'
p947
aS'ENSG00000107882'
p948
aS'ENSG00000188368'
p949
aS'ENSG00000072958'
p950
aS'ENSG00000134285'
p951
aS'ENSG00000171603'
p952
aS'ENSG00000177697'
p953
aS'ENSG00000134905'
p954
aS'ENSG00000171862'
p955
aS'ENSG00000133243'
p956
aS'ENSG00000184640'
p957
aS'ENSG00000159720'
p958
aS'ENSG00000014919'
p959
aS'ENSG00000143437'
p960
aS'ENSG00000089486'
p961
aS'ENSG00000152936'
p962
aS'ENSG00000119599'
p963
aS'ENSG00000118971'
p964
aS'ENSG00000168904'
p965
aS'ENSG00000100697'
p966
aS'ENSG00000101752'
p967
aS'ENSG00000140545'
p968
aS'ENSG00000172466'
p969
aS'ENSG00000150076'
p970
atRp971
ssS'plum3'
p972
(dp973
g4
(lp974
(lp975
S'ENSG00000143520'
p976
aFinf
ag8
(g10
S'7vV\xee\x16\xa7B?'
tRp977
ag8
(g10
S'@Q\xe7\x07\xd1p\x9e?'
tRp978
aa(lp979
S'ENSG00000143631'
p980
aFinf
ag8
(g10
S'7vV\xee\x16\xa7B?'
tRp981
ag8
(g10
S'@Q\xe7\x07\xd1p\x9e?'
tRp982
aasg24
g25
((lp983
S'ENSG00000185482'
p984
aS'ENSG00000188508'
p985
aS'ENSG00000088808'
p986
aS'ENSG00000064195'
p987
aS'ENSG00000110786'
p988
aS'ENSG00000108244'
p989
aS'ENSG00000058600'
p990
aS'ENSG00000198739'
p991
aS'ENSG00000182676'
p992
aS'ENSG00000173728'
p993
aS'ENSG00000143631'
p994
aS'ENSG00000162631'
p995
aS'ENSG00000138347'
p996
aS'ENSG00000165409'
p997
aS'ENSG00000108515'
p998
aS'ENSG00000179057'
p999
aS'ENSG00000186207'
p1000
aS'ENSG00000134809'
p1001
aS'ENSG00000159455'
p1002
aS'ENSG00000005379'
p1003
aS'ENSG00000196218'
p1004
atRp1005
ssS'plum2'
p1006
(dp1007
g4
(lp1008
(lp1009
S'ENSG00000196972'
p1010
aFinf
ag8
(g10
S'C\x18\xc0\xa9J\xb2\x1c?'
tRp1011
ag8
(g10
S'\x00\xb5\xd1\xe6\x9e-h?'
tRp1012
aa(lp1013
S'ENSG00000204065'
p1014
aFinf
ag8
(g10
S'C\x18\xc0\xa9J\xb2\x1c?'
tRp1015
ag8
(g10
S'\x00\xb5\xd1\xe6\x9e-h?'
tRp1016
aa(lp1017
S'ENSG00000185046'
p1018
ag8
(g10
S'\x00\x00\x00\x00\x00 `@'
tRp1019
ag8
(g10
S'\xc3\xf3\xc9\xff\x8bME?'
tRp1020
ag8
(g10
S'\xc0\xca\xa5\x9d\x82\x83\x90?'
tRp1021
aa(lp1022
S'ENSG00000131409'
p1023
ag8
(g10
S'\x00\x00\x00\x00\x00 `@'
tRp1024
ag8
(g10
S'\xc3\xf3\xc9\xff\x8bME?'
tRp1025
ag8
(g10
S'\xc0\xca\xa5\x9d\x82\x83\x90?'
tRp1026
aa(lp1027
S'ENSG00000069535'
p1028
ag8
(g10
S'UUUUUuU@'
tRp1029
ag8
(g10
S'jO\n|^\xa9Q?'
tRp1030
ag8
(g10
S'`\xbf\xaf2\xfa\x16\x99?'
tRp1031
aa(lp1032
S'ENSG00000172987'
p1033
ag8
(g10
S'UUUUUuU@'
tRp1034
ag8
(g10
S'jO\n|^\xa9Q?'
tRp1035
ag8
(g10
S'`\xbf\xaf2\xfa\x16\x99?'
tRp1036
aa(lp1037
S'ENSG00000105737'
p1038
ag8
(g10
S'6\x94\xd7P^C:@'
tRp1039
ag8
(g10
S'd\x06\xc4\xc1\xdayS?'
tRp1040
ag8
(g10
S'\xe0\x18v=\xbaB\x99?'
tRp1041
aasg24
g25
((lp1042
S'ENSG00000175315'
p1043
aS'ENSG00000108523'
p1044
aS'ENSG00000185499'
p1045
aS'ENSG00000103502'
p1046
aS'ENSG00000123179'
p1047
aS'ENSG00000111450'
p1048
aS'ENSG00000182534'
p1049
aS'ENSG00000135677'
p1050
aS'ENSG00000149582'
p1051
aS'ENSG00000167815'
p1052
aS'ENSG00000005189'
p1053
aS'ENSG00000065621'
p1054
aS'ENSG00000103599'
p1055
aS'ENSG00000239697'
p1056
aS'ENSG00000141349'
p1057
aS'ENSG00000001460'
p1058
aS'ENSG00000167889'
p1059
aS'ENSG00000163462'
p1060
aS'ENSG00000152240'
p1061
aS'ENSG00000108556'
p1062
aS'ENSG00000100918'
p1063
aS'ENSG00000159335'
p1064
aS'ENSG00000182013'
p1065
aS'ENSG00000065243'
p1066
aS'ENSG00000008118'
p1067
aS'ENSG00000168000'
p1068
aS'ENSG00000003249'
p1069
aS'ENSG00000184009'
p1070
aS'ENSG00000134291'
p1071
aS'ENSG00000172757'
p1072
atRp1073
ssS'plum1'
p1074
(dp1075
g24
g25
((lp1076
S'ENSG00000108950'
p1077
aS'ENSG00000168528'
p1078
aS'ENSG00000184779'
p1079
aS'ENSG00000138326'
p1080
aS'ENSG00000122863'
p1081
aS'ENSG00000111678'
p1082
aS'ENSG00000108298'
p1083
aS'ENSG00000167747'
p1084
aS'ENSG00000115268'
p1085
aS'ENSG00000221983'
p1086
aS'ENSG00000100744'
p1087
aS'ENSG00000142534'
p1088
aS'ENSG00000198242'
p1089
aS'ENSG00000196405'
p1090
aS'ENSG00000118181'
p1091
aS'ENSG00000243678'
p1092
aS'ENSG00000159289'
p1093
aS'ENSG00000083845'
p1094
aS'ENSG00000127481'
p1095
aS'ENSG00000170209'
p1096
aS'ENSG00000141994'
p1097
aS'ENSG00000108107'
p1098
aS'ENSG00000142937'
p1099
aS'ENSG00000172809'
p1100
aS'ENSG00000170889'
p1101
aS'ENSG00000089157'
p1102
aS'ENSG00000089154'
p1103
aS'ENSG00000186532'
p1104
aS'ENSG00000182173'
p1105
aS'ENSG00000166716'
p1106
aS'ENSG00000130255'
p1107
aS'ENSG00000158109'
p1108
aS'ENSG00000176593'
p1109
aS'ENSG00000149273'
p1110
atRp1111
ssS'yellowgreen'
p1112
(dp1113
g4
(lp1114
(lp1115
S'ENSG00000037965'
p1116
aFinf
ag8
(g10
S'9\x12P\xff\xb7\x855?'
tRp1117
ag8
(g10
S'@}\x85v\xb8\xee\x97?'
tRp1118
aasg24
g25
((lp1119
S'ENSG00000198353'
p1120
aS'ENSG00000178691'
p1121
aS'ENSG00000010932'
p1122
aS'ENSG00000197757'
p1123
aS'ENSG00000158955'
p1124
aS'ENSG00000065000'
p1125
aS'ENSG00000165406'
p1126
aS'ENSG00000182208'
p1127
aS'ENSG00000108797'
p1128
aS'ENSG00000182022'
p1129
aS'ENSG00000197520'
p1130
aS'ENSG00000129007'
p1131
aS'ENSG00000133808'
p1132
aS'ENSG00000154478'
p1133
aS'ENSG00000135362'
p1134
aS'ENSG00000203705'
p1135
aS'ENSG00000167646'
p1136
aS'ENSG00000174672'
p1137
aS'ENSG00000132507'
p1138
aS'ENSG00000166183'
p1139
aS'ENSG00000162670'
p1140
aS'ENSG00000107771'
p1141
aS'ENSG00000037965'
p1142
aS'ENSG00000139278'
p1143
aS'ENSG00000175664'
p1144
aS'ENSG00000245888'
p1145
aS'ENSG00000186297'
p1146
aS'ENSG00000121898'
p1147
aS'ENSG00000133703'
p1148
aS'ENSG00000167711'
p1149
aS'ENSG00000165895'
p1150
aS'ENSG00000169062'
p1151
aS'ENSG00000137831'
p1152
aS'ENSG00000130517'
p1153
atRp1154
ssS'thistle'
p1155
(dp1156
g4
(lp1157
(lp1158
g604
ag8
(g10
S'\x00\x00\x00\x00\x000`@'
tRp1159
ag8
(g10
S'\x11\xa9\xd2\xfb\x9dw\x93?'
tRp1160
ag8
(g10
S'\xe0L\xde\xd0>H\xa3?'
tRp1161
aa(lp1162
g209
ag8
(g10
S'\x9a\x99\x99\x99\x99\x99I@'
tRp1163
ag8
(g10
S'\xe4\x94F\xa9iJ\xa5?'
tRp1164
ag8
(g10
S'\xe0\x94F\xa9iJ\xa5?'
tRp1165
aasg24
g25
((lp1166
S'ENSG00000188610'
p1167
aS'ENSG00000180481'
p1168
aS'ENSG00000131697'
p1169
aS'ENSG00000006611'
p1170
aS'ENSG00000198598'
p1171
aS'ENSG00000266714'
p1172
aS'ENSG00000107897'
p1173
aS'ENSG00000176236'
p1174
aS'ENSG00000134265'
p1175
aS'ENSG00000170175'
p1176
aS'ENSG00000142675'
p1177
aS'ENSG00000117625'
p1178
aS'ENSG00000254614'
p1179
aS'ENSG00000171160'
p1180
aS'ENSG00000111615'
p1181
aS'ENSG00000117748'
p1182
aS'ENSG00000168159'
p1183
aS'ENSG00000203668'
p1184
aS'ENSG00000162378'
p1185
aS'ENSG00000142684'
p1186
aS'ENSG00000139055'
p1187
atRp1188
ssS'violet'
p1189
(dp1190
g24
g25
((lp1191
S'ENSG00000151632'
p1192
aS'ENSG00000108448'
p1193
aS'ENSG00000072210'
p1194
aS'ENSG00000221926'
p1195
aS'ENSG00000140955'
p1196
aS'ENSG00000139190'
p1197
aS'ENSG00000149380'
p1198
aS'ENSG00000143575'
p1199
aS'ENSG00000142657'
p1200
aS'ENSG00000087448'
p1201
aS'ENSG00000187134'
p1202
aS'ENSG00000108239'
p1203
aS'ENSG00000181019'
p1204
aS'ENSG00000105281'
p1205
aS'ENSG00000166762'
p1206
aS'ENSG00000141404'
p1207
aS'ENSG00000232859'
p1208
aS'ENSG00000182704'
p1209
aS'ENSG00000184887'
p1210
aS'ENSG00000120860'
p1211
aS'ENSG00000102802'
p1212
aS'ENSG00000143622'
p1213
aS'ENSG00000196139'
p1214
aS'ENSG00000117450'
p1215
aS'ENSG00000188672'
p1216
aS'ENSG00000103168'
p1217
aS'ENSG00000141101'
p1218
aS'ENSG00000102781'
p1219
aS'ENSG00000211448'
p1220
aS'ENSG00000108576'
p1221
aS'ENSG00000008394'
p1222
aS'ENSG00000197555'
p1223
aS'ENSG00000116906'
p1224
aS'ENSG00000103429'
p1225
aS'ENSG00000186198'
p1226
aS'ENSG00000023909'
p1227
aS'ENSG00000242866'
p1228
atRp1229
ssS'blue'
p1230
(dp1231
g24
g25
((lp1232
S'ENSG00000175575'
p1233
aS'ENSG00000171295'
p1234
aS'ENSG00000167863'
p1235
aS'ENSG00000137700'
p1236
aS'ENSG00000180817'
p1237
aS'ENSG00000197937'
p1238
aS'ENSG00000198131'
p1239
aS'ENSG00000129493'
p1240
aS'ENSG00000047346'
p1241
aS'ENSG00000167380'
p1242
aS'ENSG00000171792'
p1243
aS'ENSG00000248905'
p1244
aS'ENSG00000118922'
p1245
aS'ENSG00000104960'
p1246
aS'ENSG00000117697'
p1247
aS'ENSG00000005156'
p1248
aS'ENSG00000203710'
p1249
aS'ENSG00000107798'
p1250
aS'ENSG00000077420'
p1251
aS'ENSG00000075856'
p1252
aS'ENSG00000177234'
p1253
aS'ENSG00000204920'
p1254
aS'ENSG00000103876'
p1255
aS'ENSG00000198040'
p1256
aS'ENSG00000105383'
p1257
aS'ENSG00000174886'
p1258
aS'ENSG00000239672'
p1259
aS'ENSG00000135124'
p1260
aS'ENSG00000155629'
p1261
aS'ENSG00000102763'
p1262
aS'ENSG00000134909'
p1263
aS'ENSG00000177951'
p1264
aS'ENSG00000103148'
p1265
aS'ENSG00000102805'
p1266
aS'ENSG00000197016'
p1267
aS'ENSG00000197054'
p1268
aS'ENSG00000126091'
p1269
aS'ENSG00000127054'
p1270
aS'ENSG00000130520'
p1271
aS'ENSG00000074855'
p1272
aS'ENSG00000108306'
p1273
aS'ENSG00000197312'
p1274
aS'ENSG00000090920'
p1275
aS'ENSG00000157916'
p1276
aS'ENSG00000105173'
p1277
aS'ENSG00000090863'
p1278
aS'ENSG00000122367'
p1279
aS'ENSG00000175489'
p1280
aS'ENSG00000196072'
p1281
aS'ENSG00000165626'
p1282
aS'ENSG00000006432'
p1283
aS'ENSG00000126698'
p1284
aS'ENSG00000116191'
p1285
aS'ENSG00000179029'
p1286
aS'ENSG00000188385'
p1287
aS'ENSG00000181007'
p1288
aS'ENSG00000156411'
p1289
aS'ENSG00000100473'
p1290
aS'ENSG00000108786'
p1291
aS'ENSG00000158869'
p1292
aS'ENSG00000057468'
p1293
aS'ENSG00000228146'
p1294
aS'ENSG00000104979'
p1295
aS'ENSG00000171806'
p1296
aS'ENSG00000054983'
p1297
aS'ENSG00000173480'
p1298
aS'ENSG00000132965'
p1299
aS'ENSG00000134463'
p1300
aS'ENSG00000132963'
p1301
aS'ENSG00000162836'
p1302
aS'ENSG00000101557'
p1303
aS'ENSG00000246705'
p1304
aS'ENSG00000184988'
p1305
aS'ENSG00000117528'
p1306
aS'ENSG00000135108'
p1307
aS'ENSG00000197599'
p1308
aS'ENSG00000171860'
p1309
aS'ENSG00000161640'
p1310
aS'ENSG00000119280'
p1311
aS'ENSG00000143036'
p1312
atRp1313
ssS'purple'
p1314
(dp1315
g4
(lp1316
(lp1317
S'ENSG00000130307'
p1318
ag8
(g10
S'\x8cAE\xb8\xa5f0@'
tRp1319
ag8
(g10
S'\x0f\xff\xfeCW\x80\xe0>'
tRp1320
ag8
(g10
S'\x00\x00\\Y\x85lF?'
tRp1321
aa(lp1322
S'ENSG00000101331'
p1323
ag8
(g10
S'\x8cAE\xb8\xa5f0@'
tRp1324
ag8
(g10
S'\x0f\xff\xfeCW\x80\xe0>'
tRp1325
ag8
(g10
S'\x00\x00\\Y\x85lF?'
tRp1326
aa(lp1327
S'ENSG00000198844'
p1328
ag8
(g10
S'\x8cAE\xb8\xa5f0@'
tRp1329
ag8
(g10
S'\x0f\xff\xfeCW\x80\xe0>'
tRp1330
ag8
(g10
S'\x00\x00\\Y\x85lF?'
tRp1331
aa(lp1332
S'ENSG00000147113'
p1333
ag8
(g10
S'\x8cAE\xb8\xa5f0@'
tRp1334
ag8
(g10
S'\x0f\xff\xfeCW\x80\xe0>'
tRp1335
ag8
(g10
S'\x00\x00\\Y\x85lF?'
tRp1336
aa(lp1337
S'ENSG00000156453'
p1338
ag8
(g10
S'\xe48\x8e\xe38\x0eL@'
tRp1339
ag8
(g10
S'\x87D\xe8\xf2\x90V\xf4>'
tRp1340
ag8
(g10
S'\x00\xe0\xbd\x12\xe6ZZ?'
tRp1341
aa(lp1342
S'ENSG00000066056'
p1343
ag8
(g10
S'\x90\xacs\xe5\x01\xc9(@'
tRp1344
ag8
(g10
S'}\xa6\x93\x05c\xa8\x02?'
tRp1345
ag8
(g10
S'\x00\x04C\x0b\xef\xdeg?'
tRp1346
aa(lp1347
S'ENSG00000179776'
p1348
ag8
(g10
S'\x90\xacs\xe5\x01\xc9(@'
tRp1349
ag8
(g10
S'}\xa6\x93\x05c\xa8\x02?'
tRp1350
ag8
(g10
S'\x00\x04C\x0b\xef\xdeg?'
tRp1351
aa(lp1352
S'ENSG00000152661'
p1353
ag8
(g10
S'\x00\x00\x00\x00\x00\x00E@'
tRp1354
ag8
(g10
S'\x9d\x14\x11 6\xf6\x03?'
tRp1355
ag8
(g10
S'\x00\xfb\x1c\xc5*\xeah?'
tRp1356
aa(lp1357
S'ENSG00000182809'
p1358
ag8
(g10
S"\xef\xbd\xf7\xde{\xef'@"
tRp1359
ag8
(g10
S'\xf7r\xc1w\xaf\x81\x06?'
tRp1360
ag8
(g10
S'\x00\xc5Q\xc4/\xbck?'
tRp1361
aa(lp1362
S'ENSG00000103710'
p1363
ag8
(g10
S"\xef\xbd\xf7\xde{\xef'@"
tRp1364
ag8
(g10
S'\xf7r\xc1w\xaf\x81\x06?'
tRp1365
ag8
(g10
S'\x00\xc5Q\xc4/\xbck?'
tRp1366
aa(lp1367
S'ENSG00000066629'
p1368
ag8
(g10
S"9\x8e\xe38\x8e#'@"
tRp1369
ag8
(g10
S'\x87\xcf\x92a\x0f\xfe\n?'
tRp1370
ag8
(g10
S'\x00\\\xcf\t\xb64p?'
tRp1371
aa(lp1372
S'ENSG00000185567'
p1373
ag8
(g10
S"9\x8e\xe38\x8e#'@"
tRp1374
ag8
(g10
S'\x87\xcf\x92a\x0f\xfe\n?'
tRp1375
ag8
(g10
S'\x00\\\xcf\t\xb64p?'
tRp1376
aa(lp1377
S'ENSG00000159713'
p1378
ag8
(g10
S"9\x8e\xe38\x8e#'@"
tRp1379
ag8
(g10
S'\x87\xcf\x92a\x0f\xfe\n?'
tRp1380
ag8
(g10
S'\x00\\\xcf\t\xb64p?'
tRp1381
aa(lp1382
S'ENSG00000018408'
p1383
ag8
(g10
S'DDDDD\xc4@@'
tRp1384
ag8
(g10
S'\xd0G&\x02\x02\xa2\x11?'
tRp1385
ag8
(g10
S'\x80\xefR1\x87Vt?'
tRp1386
aa(lp1387
S'ENSG00000091136'
p1388
ag8
(g10
S'9\x8e\xe38\x8e\xe3;@'
tRp1389
ag8
(g10
S'\xef\xeb\xf0\x01\xe5\xd7\x1c?'
tRp1390
ag8
(g10
S'@A\x84\x85}b\x80?'
tRp1391
aa(lp1392
S'ENSG00000095637'
p1393
ag8
(g10
S'&\xb4\x97\xd0^B!@'
tRp1394
ag8
(g10
S'\xf4$\x95\xbf\n\x060?'
tRp1395
ag8
(g10
S'\xa07M)\xf8\xde\x91?'
tRp1396
aa(lp1397
S'ENSG00000132840'
p1398
ag8
(g10
S'\xbd\x9d!1og @'
tRp1399
ag8
(g10
S'\x0bM\xcd+\xb2\xe64?'
tRp1400
ag8
(g10
S"\xc0\x02v\x05'\xee\x96?"
tRp1401
aa(lp1402
S'ENSG00000107186'
p1403
ag8
(g10
S'\xbd\x9d!1og @'
tRp1404
ag8
(g10
S'\x0bM\xcd+\xb2\xe64?'
tRp1405
ag8
(g10
S"\xc0\x02v\x05'\xee\x96?"
tRp1406
aa(lp1407
S'ENSG00000147027'
p1408
ag8
(g10
S'\xbf\ns\xa2C\x01 @'
tRp1409
ag8
(g10
S'\x9d\xf59pz\xc27?'
tRp1410
ag8
(g10
S'\xa0H\xd6G}M\x99?'
tRp1411
aa(lp1412
S'ENSG00000119280'
p1413
ag8
(g10
S'\xbf\ns\xa2C\x01 @'
tRp1414
ag8
(g10
S'\x9d\xf59pz\xc27?'
tRp1415
ag8
(g10
S'\xa0H\xd6G}M\x99?'
tRp1416
aasg24
g25
((lp1417
S'ENSG00000254852'
p1418
aS'ENSG00000167680'
p1419
aS'ENSG00000117461'
p1420
aS'ENSG00000183018'
p1421
aS'ENSG00000103769'
p1422
aS'ENSG00000140876'
p1423
aS'ENSG00000060688'
p1424
aS'ENSG00000196418'
p1425
aS'ENSG00000133687'
p1426
aS'ENSG00000104967'
p1427
aS'ENSG00000203392'
p1428
aS'ENSG00000236624'
p1429
aS'ENSG00000170545'
p1430
aS'ENSG00000103723'
p1431
aS'ENSG00000105127'
p1432
aS'ENSG00000105538'
p1433
aS'ENSG00000126746'
p1434
aS'ENSG00000141527'
p1435
aS'ENSG00000130202'
p1436
aS'ENSG00000198064'
p1437
aS'ENSG00000152760'
p1438
aS'ENSG00000198805'
p1439
aS'ENSG00000248540'
p1440
aS'ENSG00000148834'
p1441
aS'ENSG00000100722'
p1442
aS'ENSG00000188554'
p1443
aS'ENSG00000198417'
p1444
aS'ENSG00000169403'
p1445
aS'ENSG00000170954'
p1446
aS'ENSG00000167178'
p1447
aS'ENSG00000189120'
p1448
aS'ENSG00000100749'
p1449
aS'ENSG00000272636'
p1450
aS'ENSG00000077235'
p1451
aS'ENSG00000249087'
p1452
aS'ENSG00000090339'
p1453
aS'ENSG00000130201'
p1454
aS'ENSG00000188735'
p1455
aS'ENSG00000101639'
p1456
aS'ENSG00000104856'
p1457
aS'ENSG00000166579'
p1458
aS'ENSG00000158825'
p1459
aS'ENSG00000162692'
p1460
aS'ENSG00000224712'
p1461
aS'ENSG00000138111'
p1462
aS'ENSG00000198909'
p1463
aS'ENSG00000103966'
p1464
aS'ENSG00000129465'
p1465
aS'ENSG00000070495'
p1466
aS'ENSG00000232258'
p1467
aS'ENSG00000173338'
p1468
aS'ENSG00000204442'
p1469
aS'ENSG00000159314'
p1470
aS'ENSG00000172123'
p1471
aS'ENSG00000089558'
p1472
aS'ENSG00000176915'
p1473
aS'ENSG00000137960'
p1474
aS'ENSG00000118197'
p1475
aS'ENSG00000197245'
p1476
aS'ENSG00000007312'
p1477
atRp1478
ssS'palevioletred2'
p1479
(dp1480
g24
g25
((lp1481
S'ENSG00000151657'
p1482
aS'ENSG00000196605'
p1483
aS'ENSG00000254004'
p1484
aS'ENSG00000196357'
p1485
aS'ENSG00000165434'
p1486
aS'ENSG00000164008'
p1487
aS'ENSG00000174915'
p1488
aS'ENSG00000187815'
p1489
aS'ENSG00000131165'
p1490
aS'ENSG00000165637'
p1491
aS'ENSG00000143458'
p1492
aS'ENSG00000161888'
p1493
aS'ENSG00000197162'
p1494
aS'ENSG00000129270'
p1495
aS'ENSG00000133958'
p1496
aS'ENSG00000142794'
p1497
aS'ENSG00000116176'
p1498
aS'ENSG00000105447'
p1499
aS'ENSG00000117222'
p1500
aS'ENSG00000139146'
p1501
aS'ENSG00000197256'
p1502
atRp1503
ssS'palevioletred3'
p1504
(dp1505
g24
g25
((lp1506
S'ENSG00000215021'
p1507
aS'ENSG00000178980'
p1508
aS'ENSG00000135390'
p1509
aS'ENSG00000165714'
p1510
aS'ENSG00000214530'
p1511
aS'ENSG00000108296'
p1512
aS'ENSG00000123146'
p1513
aS'ENSG00000130159'
p1514
aS'ENSG00000175390'
p1515
aS'ENSG00000159322'
p1516
aS'ENSG00000205707'
p1517
aS'ENSG00000186184'
p1518
aS'ENSG00000137876'
p1519
aS'ENSG00000169710'
p1520
aS'ENSG00000057608'
p1521
aS'ENSG00000142864'
p1522
aS'ENSG00000155463'
p1523
aS'ENSG00000116221'
p1524
aS'ENSG00000104774'
p1525
aS'ENSG00000168092'
p1526
aS'ENSG00000072736'
p1527
aS'ENSG00000065150'
p1528
aS'ENSG00000063046'
p1529
aS'ENSG00000125651'
p1530
aS'ENSG00000107816'
p1531
aS'ENSG00000055950'
p1532
aS'ENSG00000125753'
p1533
aS'ENSG00000166435'
p1534
aS'ENSG00000185880'
p1535
atRp1536
ssS'indianred4'
p1537
(dp1538
g24
g25
((lp1539
S'ENSG00000151655'
p1540
aS'ENSG00000091583'
p1541
aS'ENSG00000166881'
p1542
aS'ENSG00000185024'
p1543
aS'ENSG00000234906'
p1544
aS'ENSG00000110169'
p1545
aS'ENSG00000141504'
p1546
aS'ENSG00000159459'
p1547
aS'ENSG00000117601'
p1548
aS'ENSG00000165934'
p1549
aS'ENSG00000157837'
p1550
aS'ENSG00000109072'
p1551
aS'ENSG00000143514'
p1552
aS'ENSG00000187048'
p1553
aS'ENSG00000186283'
p1554
aS'ENSG00000140992'
p1555
aS'ENSG00000107959'
p1556
aS'ENSG00000198754'
p1557
aS'ENSG00000158104'
p1558
aS'ENSG00000103932'
p1559
aS'ENSG00000151224'
p1560
aS'ENSG00000255974'
p1561
aS'ENSG00000123838'
p1562
atRp1563
ssS'coral2'
p1564
(dp1565
g24
g25
((lp1566
S'ENSG00000122359'
p1567
aS'ENSG00000203485'
p1568
aS'ENSG00000132718'
p1569
aS'ENSG00000105568'
p1570
aS'ENSG00000006712'
p1571
aS'ENSG00000085733'
p1572
aS'ENSG00000169826'
p1573
aS'ENSG00000162222'
p1574
aS'ENSG00000134245'
p1575
aS'ENSG00000155366'
p1576
aS'ENSG00000117594'
p1577
aS'ENSG00000167644'
p1578
aS'ENSG00000157734'
p1579
aS'ENSG00000137936'
p1580
aS'ENSG00000167193'
p1581
aS'ENSG00000007923'
p1582
aS'ENSG00000075188'
p1583
aS'ENSG00000131966'
p1584
aS'ENSG00000108262'
p1585
aS'ENSG00000143079'
p1586
aS'ENSG00000108187'
p1587
aS'ENSG00000171824'
p1588
aS'ENSG00000156206'
p1589
aS'ENSG00000149292'
p1590
aS'ENSG00000174282'
p1591
aS'ENSG00000168461'
p1592
atRp1593
ssS'coral1'
p1594
(dp1595
g24
g25
((lp1596
S'ENSG00000198336'
p1597
aS'ENSG00000073350'
p1598
aS'ENSG00000197616'
p1599
aS'ENSG00000159648'
p1600
aS'ENSG00000110436'
p1601
aS'ENSG00000123159'
p1602
aS'ENSG00000006114'
p1603
aS'ENSG00000134571'
p1604
aS'ENSG00000142102'
p1605
aS'ENSG00000154265'
p1606
aS'ENSG00000100726'
p1607
aS'ENSG00000170113'
p1608
aS'ENSG00000130529'
p1609
aS'ENSG00000110719'
p1610
aS'ENSG00000077009'
p1611
aS'ENSG00000107651'
p1612
aS'ENSG00000180998'
p1613
aS'ENSG00000180953'
p1614
aS'ENSG00000108264'
p1615
aS'ENSG00000119715'
p1616
aS'ENSG00000154080'
p1617
aS'ENSG00000179774'
p1618
aS'ENSG00000116786'
p1619
aS'ENSG00000171885'
p1620
aS'ENSG00000165899'
p1621
aS'ENSG00000136371'
p1622
atRp1623
ssS'red'
p1624
(dp1625
g24
g25
((lp1626
S'ENSG00000158714'
p1627
aS'ENSG00000118298'
p1628
aS'ENSG00000197324'
p1629
aS'ENSG00000064703'
p1630
aS'ENSG00000259511'
p1631
aS'ENSG00000256269'
p1632
aS'ENSG00000085415'
p1633
aS'ENSG00000162669'
p1634
aS'ENSG00000242252'
p1635
aS'ENSG00000086205'
p1636
aS'ENSG00000243452'
p1637
aS'ENSG00000125409'
p1638
aS'ENSG00000108883'
p1639
aS'ENSG00000117118'
p1640
aS'ENSG00000162729'
p1641
aS'ENSG00000111666'
p1642
aS'ENSG00000165752'
p1643
aS'ENSG00000162066'
p1644
aS'ENSG00000136048'
p1645
aS'ENSG00000104870'
p1646
aS'ENSG00000167914'
p1647
aS'ENSG00000102575'
p1648
aS'ENSG00000123843'
p1649
aS'ENSG00000019995'
p1650
aS'ENSG00000120586'
p1651
aS'ENSG00000032742'
p1652
aS'ENSG00000143443'
p1653
aS'ENSG00000152910'
p1654
aS'ENSG00000151176'
p1655
aS'ENSG00000162714'
p1656
aS'ENSG00000143198'
p1657
aS'ENSG00000116830'
p1658
aS'ENSG00000174652'
p1659
aS'ENSG00000102683'
p1660
aS'ENSG00000063854'
p1661
aS'ENSG00000204084'
p1662
aS'ENSG00000186567'
p1663
aS'ENSG00000177830'
p1664
aS'ENSG00000161281'
p1665
aS'ENSG00000178226'
p1666
aS'ENSG00000168653'
p1667
aS'ENSG00000136014'
p1668
aS'ENSG00000172458'
p1669
aS'ENSG00000110079'
p1670
aS'ENSG00000063127'
p1671
aS'ENSG00000137474'
p1672
aS'ENSG00000111670'
p1673
aS'ENSG00000085465'
p1674
aS'ENSG00000183722'
p1675
aS'ENSG00000179715'
p1676
aS'ENSG00000100600'
p1677
aS'ENSG00000172638'
p1678
aS'ENSG00000175175'
p1679
aS'ENSG00000179008'
p1680
aS'ENSG00000183675'
p1681
aS'ENSG00000163131'
p1682
aS'ENSG00000168802'
p1683
aS'ENSG00000187187'
p1684
aS'ENSG00000121933'
p1685
aS'ENSG00000185684'
p1686
aS'ENSG00000183571'
p1687
aS'ENSG00000204524'
p1688
aS'ENSG00000154134'
p1689
aS'ENSG00000135686'
p1690
aS'ENSG00000243789'
p1691
aS'ENSG00000069275'
p1692
aS'ENSG00000183748'
p1693
aS'ENSG00000150764'
p1694
aS'ENSG00000175183'
p1695
aS'ENSG00000140931'
p1696
atRp1697
ssS'skyblue1'
p1698
(dp1699
g4
(lp1700
(lp1701
S'ENSG00000137960'
p1702
ag8
(g10
S'\x00\x00\x00\x00\x00H\x80@'
tRp1703
ag8
(g10
S'\xc7\x80r\x9b\xbe<\x7f?'
tRp1704
ag8
(g10
S'\xc0\x1c\xd6v@\x1e\x8f?'
tRp1705
aa(lp1706
S'ENSG00000133048'
p1707
ag8
(g10
S'\x00\x00\x00\x00\x00H\x80@'
tRp1708
ag8
(g10
S'\xc7\x80r\x9b\xbe<\x7f?'
tRp1709
ag8
(g10
S'\xc0\x1c\xd6v@\x1e\x8f?'
tRp1710
aasg24
g25
((lp1711
S'ENSG00000122378'
p1712
aS'ENSG00000139508'
p1713
aS'ENSG00000081760'
p1714
aS'ENSG00000040487'
p1715
aS'ENSG00000176531'
p1716
aS'ENSG00000165501'
p1717
aS'ENSG00000087301'
p1718
aS'ENSG00000004487'
p1719
aS'ENSG00000204381'
p1720
aS'ENSG00000225830'
p1721
aS'ENSG00000170421'
p1722
aS'ENSG00000116133'
p1723
aS'ENSG00000225119'
p1724
aS'ENSG00000160117'
p1725
aS'ENSG00000134824'
p1726
aS'ENSG00000167508'
p1727
aS'ENSG00000105669'
p1728
aS'ENSG00000011021'
p1729
aS'ENSG00000182134'
p1730
aS'ENSG00000064115'
p1731
aS'ENSG00000119559'
p1732
aS'ENSG00000141452'
p1733
aS'ENSG00000172893'
p1734
aS'ENSG00000141458'
p1735
aS'ENSG00000102699'
p1736
atRp1737
ssS'skyblue3'
p1738
(dp1739
g24
g25
((lp1740
S'ENSG00000173641'
p1741
aS'ENSG00000174032'
p1742
aS'ENSG00000149925'
p1743
aS'ENSG00000004455'
p1744
aS'ENSG00000130177'
p1745
aS'ENSG00000162433'
p1746
aS'ENSG00000197930'
p1747
aS'ENSG00000149084'
p1748
aS'ENSG00000154920'
p1749
aS'ENSG00000196968'
p1750
aS'ENSG00000111596'
p1751
aS'ENSG00000155380'
p1752
aS'ENSG00000091542'
p1753
aS'ENSG00000162585'
p1754
aS'ENSG00000141562'
p1755
aS'ENSG00000167264'
p1756
aS'ENSG00000141580'
p1757
aS'ENSG00000169740'
p1758
aS'ENSG00000055070'
p1759
aS'ENSG00000102606'
p1760
aS'ENSG00000117000'
p1761
aS'ENSG00000167202'
p1762
aS'ENSG00000116883'
p1763
aS'ENSG00000175264'
p1764
aS'ENSG00000111581'
p1765
aS'ENSG00000109107'
p1766
aS'ENSG00000178802'
p1767
aS'ENSG00000100554'
p1768
aS'ENSG00000168807'
p1769
aS'ENSG00000134333'
p1770
aS'ENSG00000214193'
p1771
aS'ENSG00000176171'
p1772
aS'ENSG00000170949'
p1773
aS'ENSG00000125445'
p1774
atRp1775
ssS'skyblue2'
p1776
(dp1777
g24
g25
((lp1778
S'ENSG00000061936'
p1779
aS'ENSG00000103174'
p1780
aS'ENSG00000130312'
p1781
aS'ENSG00000092931'
p1782
aS'ENSG00000130299'
p1783
aS'ENSG00000165526'
p1784
aS'ENSG00000152464'
p1785
aS'ENSG00000117593'
p1786
aS'ENSG00000260259'
p1787
aS'ENSG00000184207'
p1788
aS'ENSG00000182149'
p1789
aS'ENSG00000126215'
p1790
aS'ENSG00000159579'
p1791
aS'ENSG00000197124'
p1792
aS'ENSG00000243708'
p1793
aS'ENSG00000183060'
p1794
aS'ENSG00000117682'
p1795
aS'ENSG00000131781'
p1796
aS'ENSG00000131944'
p1797
aS'ENSG00000166452'
p1798
aS'ENSG00000139537'
p1799
aS'ENSG00000182685'
p1800
aS'ENSG00000198546'
p1801
aS'ENSG00000135747'
p1802
aS'ENSG00000110888'
p1803
atRp1804
ssS'steelblue'
p1805
(dp1806
g24
g25
((lp1807
S'ENSG00000103404'
p1808
aS'ENSG00000074527'
p1809
aS'ENSG00000086619'
p1810
aS'ENSG00000125505'
p1811
aS'ENSG00000159202'
p1812
aS'ENSG00000166501'
p1813
aS'ENSG00000137500'
p1814
aS'ENSG00000173486'
p1815
aS'ENSG00000135842'
p1816
aS'ENSG00000090615'
p1817
aS'ENSG00000151748'
p1818
aS'ENSG00000149743'
p1819
aS'ENSG00000157637'
p1820
aS'ENSG00000179218'
p1821
aS'ENSG00000187676'
p1822
aS'ENSG00000107738'
p1823
aS'ENSG00000175198'
p1824
aS'ENSG00000134215'
p1825
aS'ENSG00000050165'
p1826
aS'ENSG00000102580'
p1827
aS'ENSG00000167468'
p1828
aS'ENSG00000244038'
p1829
aS'ENSG00000103353'
p1830
aS'ENSG00000149428'
p1831
aS'ENSG00000162298'
p1832
aS'ENSG00000149541'
p1833
aS'ENSG00000166167'
p1834
aS'ENSG00000251369'
p1835
aS'ENSG00000167842'
p1836
aS'ENSG00000103496'
p1837
aS'ENSG00000135506'
p1838
aS'ENSG00000148655'
p1839
aS'ENSG00000166598'
p1840
aS'ENSG00000139410'
p1841
aS'ENSG00000002016'
p1842
aS'ENSG00000140323'
p1843
aS'ENSG00000110917'
p1844
aS'ENSG00000110492'
p1845
aS'ENSG00000120805'
p1846
atRp1847
ssS'lavenderblush3'
p1848
(dp1849
g24
g25
((lp1850
S'ENSG00000122882'
p1851
aS'ENSG00000141076'
p1852
aS'ENSG00000165985'
p1853
aS'ENSG00000166321'
p1854
aS'ENSG00000173715'
p1855
aS'ENSG00000205609'
p1856
aS'ENSG00000185238'
p1857
aS'ENSG00000175866'
p1858
aS'ENSG00000156886'
p1859
aS'ENSG00000167311'
p1860
aS'ENSG00000178952'
p1861
aS'ENSG00000184110'
p1862
aS'ENSG00000197165'
p1863
aS'ENSG00000167377'
p1864
aS'ENSG00000197728'
p1865
aS'ENSG00000165801'
p1866
aS'ENSG00000107854'
p1867
aS'ENSG00000176293'
p1868
aS'ENSG00000213648'
p1869
aS'ENSG00000104953'
p1870
aS'ENSG00000168806'
p1871
aS'ENSG00000140459'
p1872
aS'ENSG00000167920'
p1873
aS'ENSG00000120675'
p1874
aS'ENSG00000198035'
p1875
aS'ENSG00000150403'
p1876
aS'ENSG00000140265'
p1877
aS'ENSG00000188375'
p1878
atRp1879
ssS'lavenderblush2'
p1880
(dp1881
g24
g25
((lp1882
S'ENSG00000125430'
p1883
aS'ENSG00000153976'
p1884
aS'ENSG00000186364'
p1885
aS'ENSG00000129480'
p1886
aS'ENSG00000197775'
p1887
aS'ENSG00000187630'
p1888
aS'ENSG00000197102'
p1889
aS'ENSG00000139675'
p1890
aS'ENSG00000137877'
p1891
aS'ENSG00000176014'
p1892
aS'ENSG00000141564'
p1893
aS'ENSG00000157326'
p1894
aS'ENSG00000184613'
p1895
aS'ENSG00000160229'
p1896
atRp1897
ssS'darkred'
p1898
(dp1899
g4
(lp1900
(lp1901
S'ENSG00000131711'
p1902
ag8
(g10
S'UUUUUue@'
tRp1903
ag8
(g10
S'\xc9\xac\xcd\xae\xff\xeeC?'
tRp1904
ag8
(g10
S'\xa0\xd3^\xab\x08\xe5\x9f?'
tRp1905
aasg24
g25
((lp1906
S'ENSG00000161981'
p1907
aS'ENSG00000161980'
p1908
aS'ENSG00000196792'
p1909
aS'ENSG00000162437'
p1910
aS'ENSG00000169738'
p1911
aS'ENSG00000181039'
p1912
aS'ENSG00000087299'
p1913
aS'ENSG00000108395'
p1914
aS'ENSG00000108465'
p1915
aS'ENSG00000137992'
p1916
aS'ENSG00000152404'
p1917
aS'ENSG00000128928'
p1918
aS'ENSG00000162227'
p1919
aS'ENSG00000132938'
p1920
aS'ENSG00000109991'
p1921
aS'ENSG00000156398'
p1922
aS'ENSG00000134001'
p1923
aS'ENSG00000101546'
p1924
aS'ENSG00000165912'
p1925
aS'ENSG00000105519'
p1926
aS'ENSG00000176894'
p1927
aS'ENSG00000116918'
p1928
aS'ENSG00000089220'
p1929
aS'ENSG00000117906'
p1930
aS'ENSG00000162391'
p1931
aS'ENSG00000122477'
p1932
aS'ENSG00000188659'
p1933
aS'ENSG00000105607'
p1934
aS'ENSG00000109919'
p1935
aS'ENSG00000160050'
p1936
aS'ENSG00000092094'
p1937
aS'ENSG00000173599'
p1938
aS'ENSG00000243725'
p1939
aS'ENSG00000205659'
p1940
aS'ENSG00000198892'
p1941
aS'ENSG00000108784'
p1942
aS'ENSG00000213516'
p1943
aS'ENSG00000184313'
p1944
aS'ENSG00000100714'
p1945
aS'ENSG00000175911'
p1946
aS'ENSG00000165322'
p1947
aS'ENSG00000137944'
p1948
aS'ENSG00000241935'
p1949
aS'ENSG00000065457'
p1950
aS'ENSG00000099840'
p1951
aS'ENSG00000177868'
p1952
aS'ENSG00000111716'
p1953
atRp1954
ssS'blue2'
p1955
(dp1956
g24
g25
((lp1957
S'ENSG00000134871'
p1958
aS'ENSG00000259649'
p1959
aS'ENSG00000136104'
p1960
aS'ENSG00000166341'
p1961
aS'ENSG00000111554'
p1962
aS'ENSG00000075336'
p1963
aS'ENSG00000123689'
p1964
aS'ENSG00000188004'
p1965
aS'ENSG00000256660'
p1966
aS'ENSG00000122417'
p1967
aS'ENSG00000154655'
p1968
aS'ENSG00000135111'
p1969
aS'ENSG00000092051'
p1970
aS'ENSG00000185483'
p1971
aS'ENSG00000007376'
p1972
aS'ENSG00000127580'
p1973
aS'ENSG00000137673'
p1974
aS'ENSG00000140675'
p1975
aS'ENSG00000213578'
p1976
aS'ENSG00000223510'
p1977
aS'ENSG00000182687'
p1978
aS'ENSG00000172322'
p1979
atRp1980
ssS'floralwhite'
p1981
(dp1982
g24
g25
((lp1983
S'ENSG00000116604'
p1984
aS'ENSG00000198794'
p1985
aS'ENSG00000254469'
p1986
aS'ENSG00000100814'
p1987
aS'ENSG00000065989'
p1988
aS'ENSG00000166682'
p1989
aS'ENSG00000121390'
p1990
aS'ENSG00000121900'
p1991
aS'ENSG00000015532'
p1992
aS'ENSG00000103855'
p1993
aS'ENSG00000079134'
p1994
aS'ENSG00000189180'
p1995
aS'ENSG00000128989'
p1996
aS'ENSG00000131778'
p1997
aS'ENSG00000167641'
p1998
aS'ENSG00000130522'
p1999
aS'ENSG00000110076'
p2000
aS'ENSG00000149547'
p2001
aS'ENSG00000160877'
p2002
aS'ENSG00000169914'
p2003
aS'ENSG00000198324'
p2004
aS'ENSG00000166793'
p2005
aS'ENSG00000182117'
p2006
aS'ENSG00000204653'
p2007
aS'ENSG00000149922'
p2008
aS'ENSG00000196365'
p2009
aS'ENSG00000107890'
p2010
aS'ENSG00000133059'
p2011
aS'ENSG00000148803'
p2012
aS'ENSG00000139433'
p2013
aS'ENSG00000181523'
p2014
aS'ENSG00000070761'
p2015
atRp2016
ssS'plum'
p2017
(dp2018
g24
g25
((lp2019
S'ENSG00000257218'
p2020
aS'ENSG00000152219'
p2021
aS'ENSG00000121310'
p2022
aS'ENSG00000104888'
p2023
aS'ENSG00000064687'
p2024
aS'ENSG00000142677'
p2025
aS'ENSG00000141639'
p2026
aS'ENSG00000185436'
p2027
aS'ENSG00000060138'
p2028
aS'ENSG00000143153'
p2029
aS'ENSG00000130810'
p2030
aS'ENSG00000099817'
p2031
aS'ENSG00000077522'
p2032
aS'ENSG00000188305'
p2033
aS'ENSG00000139914'
p2034
aS'ENSG00000182255'
p2035
aS'ENSG00000186020'
p2036
aS'ENSG00000172803'
p2037
aS'ENSG00000167969'
p2038
aS'ENSG00000186960'
p2039
aS'ENSG00000142661'
p2040
aS'ENSG00000140526'
p2041
aS'ENSG00000139269'
p2042
aS'ENSG00000066382'
p2043
aS'ENSG00000130511'
p2044
atRp2045
ssS'sienna3'
p2046
(dp2047
g24
g25
((lp2048
S'ENSG00000116212'
p2049
aS'ENSG00000128849'
p2050
aS'ENSG00000142949'
p2051
aS'ENSG00000149499'
p2052
aS'ENSG00000141012'
p2053
aS'ENSG00000075643'
p2054
aS'ENSG00000143545'
p2055
aS'ENSG00000110660'
p2056
aS'ENSG00000062370'
p2057
aS'ENSG00000116729'
p2058
aS'ENSG00000135862'
p2059
aS'ENSG00000134247'
p2060
aS'ENSG00000183726'
p2061
aS'ENSG00000107438'
p2062
aS'ENSG00000187634'
p2063
aS'ENSG00000139921'
p2064
aS'ENSG00000074219'
p2065
aS'ENSG00000107614'
p2066
aS'ENSG00000129355'
p2067
aS'ENSG00000161551'
p2068
aS'ENSG00000117643'
p2069
aS'ENSG00000116209'
p2070
aS'ENSG00000123268'
p2071
aS'ENSG00000134256'
p2072
aS'ENSG00000169992'
p2073
aS'ENSG00000127472'
p2074
aS'ENSG00000182919'
p2075
aS'ENSG00000139168'
p2076
aS'ENSG00000004777'
p2077
aS'ENSG00000152944'
p2078
aS'ENSG00000204179'
p2079
aS'ENSG00000162704'
p2080
aS'ENSG00000162601'
p2081
aS'ENSG00000122420'
p2082
aS'ENSG00000143753'
p2083
atRp2084
ssS'firebrick4'
p2085
(dp2086
g24
g25
((lp2087
S'ENSG00000206053'
p2088
aS'ENSG00000131242'
p2089
aS'ENSG00000122965'
p2090
aS'ENSG00000105146'
p2091
aS'ENSG00000123066'
p2092
aS'ENSG00000175356'
p2093
aS'ENSG00000197568'
p2094
aS'ENSG00000129204'
p2095
aS'ENSG00000143486'
p2096
aS'ENSG00000116151'
p2097
aS'ENSG00000010803'
p2098
aS'ENSG00000213889'
p2099
aS'ENSG00000167840'
p2100
aS'ENSG00000183207'
p2101
aS'ENSG00000012061'
p2102
aS'ENSG00000185420'
p2103
aS'ENSG00000167637'
p2104
aS'ENSG00000203326'
p2105
aS'ENSG00000108064'
p2106
aS'ENSG00000159210'
p2107
aS'ENSG00000116237'
p2108
aS'ENSG00000169515'
p2109
atRp2110
ssS'honeydew1'
p2111
(dp2112
g24
g25
((lp2113
S'ENSG00000166348'
p2114
aS'ENSG00000119950'
p2115
aS'ENSG00000183496'
p2116
aS'ENSG00000188613'
p2117
aS'ENSG00000161921'
p2118
aS'ENSG00000165678'
p2119
aS'ENSG00000136098'
p2120
aS'ENSG00000165355'
p2121
aS'ENSG00000151929'
p2122
aS'ENSG00000155252'
p2123
aS'ENSG00000168118'
p2124
aS'ENSG00000166974'
p2125
aS'ENSG00000198740'
p2126
aS'ENSG00000105576'
p2127
aS'ENSG00000018236'
p2128
aS'ENSG00000154229'
p2129
aS'ENSG00000151233'
p2130
aS'ENSG00000173145'
p2131
aS'ENSG00000151893'
p2132
aS'ENSG00000181350'
p2133
aS'ENSG00000154429'
p2134
aS'ENSG00000161671'
p2135
aS'ENSG00000127328'
p2136
aS'ENSG00000182853'
p2137
aS'ENSG00000204138'
p2138
aS'ENSG00000141497'
p2139
atRp2140
ssS'lightsteelblue'
p2141
(dp2142
g24
g25
((lp2143
S'ENSG00000174446'
p2144
aS'ENSG00000173818'
p2145
aS'ENSG00000162004'
p2146
aS'ENSG00000197774'
p2147
aS'ENSG00000103253'
p2148
aS'ENSG00000100461'
p2149
aS'ENSG00000140398'
p2150
aS'ENSG00000140400'
p2151
aS'ENSG00000258839'
p2152
aS'ENSG00000179889'
p2153
aS'ENSG00000166562'
p2154
aS'ENSG00000204149'
p2155
aS'ENSG00000040531'
p2156
aS'ENSG00000161328'
p2157
aS'ENSG00000162461'
p2158
aS'ENSG00000162572'
p2159
aS'ENSG00000206044'
p2160
aS'ENSG00000254986'
p2161
aS'ENSG00000162627'
p2162
aS'ENSG00000154025'
p2163
aS'ENSG00000019505'
p2164
aS'ENSG00000103245'
p2165
aS'ENSG00000196689'
p2166
aS'ENSG00000174405'
p2167
atRp2168
ssS'magenta4'
p2169
(dp2170
g24
g25
((lp2171
S'ENSG00000143776'
p2172
aS'ENSG00000166166'
p2173
aS'ENSG00000184990'
p2174
aS'ENSG00000253710'
p2175
aS'ENSG00000161677'
p2176
aS'ENSG00000139505'
p2177
aS'ENSG00000141577'
p2178
aS'ENSG00000079101'
p2179
aS'ENSG00000185100'
p2180
aS'ENSG00000169683'
p2181
aS'ENSG00000135823'
p2182
aS'ENSG00000188916'
p2183
aS'ENSG00000141258'
p2184
aS'ENSG00000005243'
p2185
aS'ENSG00000105369'
p2186
aS'ENSG00000176105'
p2187
aS'ENSG00000117151'
p2188
aS'ENSG00000108405'
p2189
aS'ENSG00000141682'
p2190
aS'ENSG00000185298'
p2191
atRp2192
ssS'greenyellow'
p2193
(dp2194
g24
g25
((lp2195
S'ENSG00000159640'
p2196
aS'ENSG00000197959'
p2197
aS'ENSG00000129460'
p2198
aS'ENSG00000066056'
p2199
aS'ENSG00000165630'
p2200
aS'ENSG00000048649'
p2201
aS'ENSG00000150977'
p2202
aS'ENSG00000135519'
p2203
aS'ENSG00000105699'
p2204
aS'ENSG00000091640'
p2205
aS'ENSG00000105122'
p2206
aS'ENSG00000173482'
p2207
aS'ENSG00000063176'
p2208
aS'ENSG00000162618'
p2209
aS'ENSG00000087884'
p2210
aS'ENSG00000140319'
p2211
aS'ENSG00000108219'
p2212
aS'ENSG00000174718'
p2213
aS'ENSG00000111275'
p2214
aS'ENSG00000141934'
p2215
aS'ENSG00000123684'
p2216
aS'ENSG00000126231'
p2217
aS'ENSG00000116833'
p2218
aS'ENSG00000162174'
p2219
aS'ENSG00000104998'
p2220
aS'ENSG00000141543'
p2221
aS'ENSG00000070047'
p2222
aS'ENSG00000187010'
p2223
aS'ENSG00000169504'
p2224
aS'ENSG00000140199'
p2225
aS'ENSG00000169641'
p2226
aS'ENSG00000187790'
p2227
aS'ENSG00000233927'
p2228
aS'ENSG00000109016'
p2229
aS'ENSG00000174514'
p2230
aS'ENSG00000196391'
p2231
aS'ENSG00000163565'
p2232
aS'ENSG00000139182'
p2233
aS'ENSG00000197943'
p2234
aS'ENSG00000128833'
p2235
aS'ENSG00000165995'
p2236
aS'ENSG00000181827'
p2237
aS'ENSG00000186862'
p2238
aS'ENSG00000180884'
p2239
aS'ENSG00000139899'
p2240
aS'ENSG00000177150'
p2241
aS'ENSG00000130300'
p2242
aS'ENSG00000139679'
p2243
aS'ENSG00000162817'
p2244
aS'ENSG00000152804'
p2245
aS'ENSG00000162852'
p2246
aS'ENSG00000011143'
p2247
aS'ENSG00000075826'
p2248
aS'ENSG00000150768'
p2249
aS'ENSG00000130413'
p2250
aS'ENSG00000085063'
p2251
aS'ENSG00000137845'
p2252
aS'ENSG00000196535'
p2253
aS'ENSG00000137962'
p2254
atRp2255
ssS'navajowhite1'
p2256
(dp2257
g24
g25
((lp2258
S'ENSG00000176974'
p2259
aS'ENSG00000063761'
p2260
aS'ENSG00000185829'
p2261
aS'ENSG00000115255'
p2262
aS'ENSG00000238083'
p2263
aS'ENSG00000143614'
p2264
aS'ENSG00000103269'
p2265
aS'ENSG00000237440'
p2266
aS'ENSG00000072954'
p2267
aS'ENSG00000005801'
p2268
aS'ENSG00000142669'
p2269
aS'ENSG00000120071'
p2270
aS'ENSG00000130270'
p2271
aS'ENSG00000120088'
p2272
aS'ENSG00000228696'
p2273
aS'ENSG00000119979'
p2274
aS'ENSG00000176681'
p2275
aS'ENSG00000176909'
p2276
aS'ENSG00000100505'
p2277
aS'ENSG00000181513'
p2278
atRp2279
ssS'navajowhite2'
p2280
(dp2281
g24
g25
((lp2282
S'ENSG00000186230'
p2283
aS'ENSG00000177425'
p2284
aS'ENSG00000143815'
p2285
aS'ENSG00000184635'
p2286
aS'ENSG00000139946'
p2287
aS'ENSG00000137996'
p2288
aS'ENSG00000136754'
p2289
aS'ENSG00000222009'
p2290
aS'ENSG00000153885'
p2291
aS'ENSG00000203691'
p2292
aS'ENSG00000143375'
p2293
aS'ENSG00000188176'
p2294
aS'ENSG00000099875'
p2295
aS'ENSG00000257103'
p2296
aS'ENSG00000130770'
p2297
aS'ENSG00000198346'
p2298
aS'ENSG00000128791'
p2299
aS'ENSG00000051825'
p2300
aS'ENSG00000183208'
p2301
aS'ENSG00000123374'
p2302
aS'ENSG00000092841'
p2303
aS'ENSG00000137824'
p2304
aS'ENSG00000100450'
p2305
aS'ENSG00000249459'
p2306
aS'ENSG00000103202'
p2307
aS'ENSG00000100592'
p2308
aS'ENSG00000023902'
p2309
aS'ENSG00000121067'
p2310
aS'ENSG00000126653'
p2311
atRp2312
ssS'lightcoral'
p2313
(dp2314
g24
g25
((lp2315
S'ENSG00000076344'
p2316
aS'ENSG00000066322'
p2317
aS'ENSG00000185615'
p2318
aS'ENSG00000117691'
p2319
aS'ENSG00000162687'
p2320
aS'ENSG00000163531'
p2321
aS'ENSG00000242173'
p2322
aS'ENSG00000136449'
p2323
aS'ENSG00000126217'
p2324
aS'ENSG00000157470'
p2325
aS'ENSG00000182218'
p2326
aS'ENSG00000235098'
p2327
aS'ENSG00000181781'
p2328
aS'ENSG00000128918'
p2329
aS'ENSG00000141433'
p2330
aS'ENSG00000183346'
p2331
aS'ENSG00000151778'
p2332
aS'ENSG00000116785'
p2333
aS'ENSG00000128482'
p2334
aS'ENSG00000089692'
p2335
aS'ENSG00000110931'
p2336
aS'ENSG00000214435'
p2337
aS'ENSG00000083290'
p2338
atRp2339
ssS'lightcyan'
p2340
(dp2341
g4
(lp2342
(lp2343
S'ENSG00000134463'
p2344
aFinf
ag8
(g10
S':\xab\xb76Lsw?'
tRp2345
ag8
(g10
S'@\xc3\xd9\xf1\x84V\xa1?'
tRp2346
aasg24
g25
((lp2347
S'ENSG00000163155'
p2348
aS'ENSG00000162642'
p2349
aS'ENSG00000050405'
p2350
aS'ENSG00000130764'
p2351
aS'ENSG00000103642'
p2352
aS'ENSG00000185591'
p2353
aS'ENSG00000175274'
p2354
aS'ENSG00000156232'
p2355
aS'ENSG00000177191'
p2356
aS'ENSG00000104901'
p2357
aS'ENSG00000086015'
p2358
aS'ENSG00000085491'
p2359
aS'ENSG00000170525'
p2360
aS'ENSG00000152137'
p2361
aS'ENSG00000159588'
p2362
aS'ENSG00000090432'
p2363
aS'ENSG00000132781'
p2364
aS'ENSG00000167699'
p2365
aS'ENSG00000150316'
p2366
aS'ENSG00000205937'
p2367
aS'ENSG00000149054'
p2368
aS'ENSG00000126216'
p2369
aS'ENSG00000162482'
p2370
aS'ENSG00000176903'
p2371
aS'ENSG00000165915'
p2372
aS'ENSG00000139910'
p2373
aS'ENSG00000188171'
p2374
aS'ENSG00000166839'
p2375
aS'ENSG00000169118'
p2376
aS'ENSG00000196544'
p2377
aS'ENSG00000188612'
p2378
aS'ENSG00000105499'
p2379
aS'ENSG00000175220'
p2380
aS'ENSG00000026025'
p2381
aS'ENSG00000167785'
p2382
aS'ENSG00000149201'
p2383
aS'ENSG00000136051'
p2384
aS'ENSG00000167397'
p2385
aS'ENSG00000090487'
p2386
aS'ENSG00000196850'
p2387
aS'ENSG00000166532'
p2388
aS'ENSG00000174080'
p2389
aS'ENSG00000123297'
p2390
aS'ENSG00000198920'
p2391
aS'ENSG00000163050'
p2392
aS'ENSG00000140382'
p2393
aS'ENSG00000127129'
p2394
aS'ENSG00000133704'
p2395
aS'ENSG00000198837'
p2396
aS'ENSG00000174177'
p2397
aS'ENSG00000148943'
p2398
aS'ENSG00000067141'
p2399
aS'ENSG00000163875'
p2400
aS'ENSG00000140577'
p2401
aS'ENSG00000151553'
p2402
aS'ENSG00000241839'
p2403
atRp2404
ssS'royalblue'
p2405
(dp2406
g24
g25
((lp2407
S'ENSG00000105185'
p2408
aS'ENSG00000214140'
p2409
aS'ENSG00000165816'
p2410
aS'ENSG00000000457'
p2411
aS'ENSG00000165832'
p2412
aS'ENSG00000170703'
p2413
aS'ENSG00000092871'
p2414
aS'ENSG00000105341'
p2415
aS'ENSG00000176473'
p2416
aS'ENSG00000111077'
p2417
aS'ENSG00000255374'
p2418
aS'ENSG00000166411'
p2419
aS'ENSG00000132749'
p2420
aS'ENSG00000187778'
p2421
aS'ENSG00000152749'
p2422
aS'ENSG00000161573'
p2423
aS'ENSG00000082805'
p2424
aS'ENSG00000102886'
p2425
aS'ENSG00000179583'
p2426
aS'ENSG00000163239'
p2427
aS'ENSG00000161653'
p2428
aS'ENSG00000187013'
p2429
aS'ENSG00000111647'
p2430
aS'ENSG00000140511'
p2431
aS'ENSG00000118308'
p2432
aS'ENSG00000120341'
p2433
aS'ENSG00000163568'
p2434
aS'ENSG00000116497'
p2435
aS'ENSG00000246922'
p2436
aS'ENSG00000167236'
p2437
aS'ENSG00000186260'
p2438
aS'ENSG00000120949'
p2439
aS'ENSG00000168661'
p2440
aS'ENSG00000186204'
p2441
aS'ENSG00000079337'
p2442
aS'ENSG00000183621'
p2443
aS'ENSG00000204403'
p2444
aS'ENSG00000168813'
p2445
aS'ENSG00000134444'
p2446
aS'ENSG00000168003'
p2447
aS'ENSG00000150687'
p2448
aS'ENSG00000167608'
p2449
aS'ENSG00000185567'
p2450
aS'ENSG00000061273'
p2451
aS'ENSG00000167523'
p2452
aS'ENSG00000108823'
p2453
aS'ENSG00000042088'
p2454
aS'ENSG00000141720'
p2455
atRp2456
ssS'white'
p2457
(dp2458
g24
g25
((lp2459
S'ENSG00000167693'
p2460
aS'ENSG00000111358'
p2461
aS'ENSG00000006042'
p2462
aS'ENSG00000102710'
p2463
aS'ENSG00000120539'
p2464
aS'ENSG00000169612'
p2465
aS'ENSG00000166130'
p2466
aS'ENSG00000180626'
p2467
aS'ENSG00000204604'
p2468
aS'ENSG00000167562'
p2469
aS'ENSG00000014138'
p2470
aS'ENSG00000179941'
p2471
aS'ENSG00000157895'
p2472
aS'ENSG00000180787'
p2473
aS'ENSG00000163125'
p2474
aS'ENSG00000198246'
p2475
aS'ENSG00000132763'
p2476
aS'ENSG00000163041'
p2477
aS'ENSG00000167447'
p2478
aS'ENSG00000111361'
p2479
aS'ENSG00000111364'
p2480
aS'ENSG00000162396'
p2481
aS'ENSG00000123700'
p2482
aS'ENSG00000110987'
p2483
aS'ENSG00000219481'
p2484
aS'ENSG00000108384'
p2485
aS'ENSG00000184602'
p2486
aS'ENSG00000255748'
p2487
aS'ENSG00000171469'
p2488
aS'ENSG00000183734'
p2489
aS'ENSG00000180730'
p2490
aS'ENSG00000169592'
p2491
aS'ENSG00000185442'
p2492
aS'ENSG00000058453'
p2493
aS'ENSG00000042429'
p2494
aS'ENSG00000005961'
p2495
aS'ENSG00000117174'
p2496
aS'ENSG00000108829'
p2497
aS'ENSG00000141971'
p2498
aS'ENSG00000204178'
p2499
aS'ENSG00000169169'
p2500
atRp2501
ssS'ivory'
p2502
(dp2503
g24
g25
((lp2504
S'ENSG00000165732'
p2505
aS'ENSG00000169715'
p2506
aS'ENSG00000125650'
p2507
aS'ENSG00000123892'
p2508
aS'ENSG00000130669'
p2509
aS'ENSG00000213077'
p2510
aS'ENSG00000110768'
p2511
aS'ENSG00000097046'
p2512
aS'ENSG00000127311'
p2513
aS'ENSG00000187193'
p2514
aS'ENSG00000134686'
p2515
aS'ENSG00000229644'
p2516
aS'ENSG00000086544'
p2517
aS'ENSG00000159556'
p2518
aS'ENSG00000123411'
p2519
aS'ENSG00000125144'
p2520
aS'ENSG00000136111'
p2521
aS'ENSG00000160712'
p2522
aS'ENSG00000156030'
p2523
aS'ENSG00000125945'
p2524
aS'ENSG00000182628'
p2525
aS'ENSG00000108604'
p2526
aS'ENSG00000235750'
p2527
aS'ENSG00000064932'
p2528
aS'ENSG00000153207'
p2529
aS'ENSG00000205362'
p2530
aS'ENSG00000153048'
p2531
aS'ENSG00000152779'
p2532
aS'ENSG00000117586'
p2533
aS'ENSG00000177000'
p2534
aS'ENSG00000135744'
p2535
aS'ENSG00000105355'
p2536
atRp2537
ssS'lightgreen'
p2538
(dp2539
g24
g25
((lp2540
S'ENSG00000169750'
p2541
aS'ENSG00000092203'
p2542
aS'ENSG00000107643'
p2543
aS'ENSG00000121486'
p2544
aS'ENSG00000166135'
p2545
aS'ENSG00000184967'
p2546
aS'ENSG00000204595'
p2547
aS'ENSG00000157823'
p2548
aS'ENSG00000166206'
p2549
aS'ENSG00000167766'
p2550
aS'ENSG00000166669'
p2551
aS'ENSG00000135828'
p2552
aS'ENSG00000073614'
p2553
aS'ENSG00000175518'
p2554
aS'ENSG00000139323'
p2555
aS'ENSG00000107929'
p2556
aS'ENSG00000253719'
p2557
aS'ENSG00000100603'
p2558
aS'ENSG00000104897'
p2559
aS'ENSG00000074319'
p2560
aS'ENSG00000188000'
p2561
aS'ENSG00000111696'
p2562
aS'ENSG00000232237'
p2563
aS'ENSG00000138587'
p2564
aS'ENSG00000161509'
p2565
aS'ENSG00000166233'
p2566
aS'ENSG00000051009'
p2567
aS'ENSG00000105287'
p2568
aS'ENSG00000129484'
p2569
aS'ENSG00000176834'
p2570
aS'ENSG00000105479'
p2571
aS'ENSG00000118900'
p2572
aS'ENSG00000166164'
p2573
aS'ENSG00000117305'
p2574
aS'ENSG00000175265'
p2575
aS'ENSG00000121281'
p2576
aS'ENSG00000177469'
p2577
aS'ENSG00000167967'
p2578
aS'ENSG00000181027'
p2579
aS'ENSG00000176273'
p2580
aS'ENSG00000174871'
p2581
aS'ENSG00000177105'
p2582
aS'ENSG00000122390'
p2583
aS'ENSG00000262621'
p2584
aS'ENSG00000127220'
p2585
aS'ENSG00000108852'
p2586
aS'ENSG00000117480'
p2587
aS'ENSG00000131899'
p2588
aS'ENSG00000163346'
p2589
aS'ENSG00000162144'
p2590
aS'ENSG00000186153'
p2591
atRp2592
ssS'lightpink3'
p2593
(dp2594
g4
(lp2595
(lp2596
S'ENSG00000177181'
p2597
ag8
(g10
S'\x00\x00\x00\x00\x00@\x90@'
tRp2598
ag8
(g10
S'[\x87FI%2\x11?'
tRp2599
ag8
(g10
S'\x00x\xd9;\x05,u?'
tRp2600
aa(lp2601
S'ENSG00000138829'
p2602
ag8
(g10
S'\x00\x00\x00\x00\x00@\x90@'
tRp2603
ag8
(g10
S'[\x87FI%2\x11?'
tRp2604
ag8
(g10
S'\x00x\xd9;\x05,u?'
tRp2605
aa(lp2606
S'ENSG00000168675'
p2607
ag8
(g10
S'\x00\x00\x00\x00\x00@\x90@'
tRp2608
ag8
(g10
S'[\x87FI%2\x11?'
tRp2609
ag8
(g10
S'\x00x\xd9;\x05,u?'
tRp2610
aa(lp2611
S'ENSG00000144712'
p2612
aFinf
ag8
(g10
S'\xbf\x9c\xe0\x1a%\x96\x1c?'
tRp2613
ag8
(g10
S'\x00\xc5\xe5pm\xe7\x80?'
tRp2614
aa(lp2615
S'ENSG00000136842'
p2616
ag8
(g10
S'\x00\x00\x00\x00\x008\x80@'
tRp2617
ag8
(g10
S'}i\xb3,\x84,!?'
tRp2618
ag8
(g10
S'\xc0\x16\xee\xf7D\x07\x84?'
tRp2619
aa(lp2620
S'ENSG00000168542'
p2621
ag8
(g10
S'UUUUU\x95u@'
tRp2622
ag8
(g10
S'\xc6\xa6\xe0\x1a%\x96,?'
tRp2623
ag8
(g10
S'\xe0$\x05oLe\x90?'
tRp2624
aa(lp2625
S'ENSG00000087245'
p2626
ag8
(g10
S'UUUUU\x95u@'
tRp2627
ag8
(g10
S'\xc6\xa6\xe0\x1a%\x96,?'
tRp2628
ag8
(g10
S'\xe0$\x05oLe\x90?'
tRp2629
aa(lp2630
S'ENSG00000163359'
p2631
ag8
(g10
S'UUUUU\x95u@'
tRp2632
ag8
(g10
S'\xc6\xa6\xe0\x1a%\x96,?'
tRp2633
ag8
(g10
S'\xe0$\x05oLe\x90?'
tRp2634
aa(lp2635
S'ENSG00000100027'
p2636
ag8
(g10
S'UUUUU\x95u@'
tRp2637
ag8
(g10
S'\xc6\xa6\xe0\x1a%\x96,?'
tRp2638
ag8
(g10
S'\xe0$\x05oLe\x90?'
tRp2639
aa(lp2640
S'ENSG00000150625'
p2641
ag8
(g10
S'UUUUU\x95u@'
tRp2642
ag8
(g10
S'\xc6\xa6\xe0\x1a%\x96,?'
tRp2643
ag8
(g10
S'\xe0$\x05oLe\x90?'
tRp2644
aa(lp2645
S'ENSG00000183230'
p2646
ag8
(g10
S'\xcd\xcc\xcc\xcc\xcc\xcci@'
tRp2647
ag8
(g10
S'd\xde5xY\xf0=?'
tRp2648
ag8
(g10
S'@z\xb5\xdc\x14\xc8\x9f?'
tRp2649
aa(lp2650
S'ENSG00000185477'
p2651
ag8
(g10
S'\xcd\xcc\xcc\xcc\xcc\xcci@'
tRp2652
ag8
(g10
S'd\xde5xY\xf0=?'
tRp2653
ag8
(g10
S'@z\xb5\xdc\x14\xc8\x9f?'
tRp2654
aa(lp2655
S'ENSG00000167972'
p2656
ag8
(g10
S'\xcd\xcc\xcc\xcc\xcc\xcci@'
tRp2657
ag8
(g10
S'd\xde5xY\xf0=?'
tRp2658
ag8
(g10
S'@z\xb5\xdc\x14\xc8\x9f?'
tRp2659
aa(lp2660
S'ENSG00000164294'
p2661
ag8
(g10
S'\xcd\xcc\xcc\xcc\xcc\xcci@'
tRp2662
ag8
(g10
S'd\xde5xY\xf0=?'
tRp2663
ag8
(g10
S'@z\xb5\xdc\x14\xc8\x9f?'
tRp2664
aa(lp2665
S'ENSG00000164692'
p2666
ag8
(g10
S'UUUUUue@'
tRp2667
ag8
(g10
S'\xc9\xac\xcd\xae\xff\xeeC?'
tRp2668
ag8
(g10
S'\xb0)G\xea\x1e\xdb\xa3?'
tRp2669
aa(lp2670
S'ENSG00000132386'
p2671
ag8
(g10
S'UUUUUue@'
tRp2672
ag8
(g10
S'\xc9\xac\xcd\xae\xff\xeeC?'
tRp2673
ag8
(g10
S'\xb0)G\xea\x1e\xdb\xa3?'
tRp2674
aa(lp2675
S'ENSG00000116774'
p2676
ag8
(g10
S'\xb7m\xdb\xb6m[b@'
tRp2677
ag8
(g10
S'C\x16\xbe\xec\x8d\x98I?'
tRp2678
ag8
(g10
S'0\xf1a\xban\x98\xa8?'
tRp2679
aa(lp2680
S'ENSG00000198626'
p2681
ag8
(g10
S'\xb7m\xdb\xb6m[b@'
tRp2682
ag8
(g10
S'C\x16\xbe\xec\x8d\x98I?'
tRp2683
ag8
(g10
S'0\xf1a\xban\x98\xa8?'
tRp2684
aa(lp2685
S'ENSG00000106078'
p2686
ag8
(g10
S'\xb7m\xdb\xb6m[b@'
tRp2687
ag8
(g10
S'C\x16\xbe\xec\x8d\x98I?'
tRp2688
ag8
(g10
S'0\xf1a\xban\x98\xa8?'
tRp2689
aasg24
g25
((lp2690
S'ENSG00000132849'
p2691
aS'ENSG00000248333'
p2692
aS'ENSG00000186399'
p2693
aS'ENSG00000196199'
p2694
aS'ENSG00000165948'
p2695
aS'ENSG00000175344'
p2696
aS'ENSG00000152778'
p2697
aS'ENSG00000173156'
p2698
aS'ENSG00000188322'
p2699
aS'ENSG00000116663'
p2700
aS'ENSG00000261794'
p2701
aS'ENSG00000206127'
p2702
aS'ENSG00000139737'
p2703
aS'ENSG00000166664'
p2704
aS'ENSG00000232653'
p2705
aS'ENSG00000127666'
p2706
aS'ENSG00000165495'
p2707
aS'ENSG00000105248'
p2708
atRp2709
ssS'darkgrey'
p2710
(dp2711
g24
g25
((lp2712
S'ENSG00000116213'
p2713
aS'ENSG00000085998'
p2714
aS'ENSG00000072042'
p2715
aS'ENSG00000132016'
p2716
aS'ENSG00000095066'
p2717
aS'ENSG00000185043'
p2718
aS'ENSG00000108176'
p2719
aS'ENSG00000074695'
p2720
aS'ENSG00000067221'
p2721
aS'ENSG00000067369'
p2722
aS'ENSG00000177885'
p2723
aS'ENSG00000089723'
p2724
aS'ENSG00000135502'
p2725
aS'ENSG00000173588'
p2726
aS'ENSG00000116288'
p2727
aS'ENSG00000111254'
p2728
aS'ENSG00000058673'
p2729
aS'ENSG00000250506'
p2730
aS'ENSG00000127463'
p2731
aS'ENSG00000141424'
p2732
aS'ENSG00000004700'
p2733
aS'ENSG00000178852'
p2734
aS'ENSG00000073670'
p2735
aS'ENSG00000162521'
p2736
aS'ENSG00000151376'
p2737
aS'ENSG00000172543'
p2738
aS'ENSG00000174437'
p2739
aS'ENSG00000133318'
p2740
aS'ENSG00000107779'
p2741
aS'ENSG00000134198'
p2742
aS'ENSG00000137513'
p2743
aS'ENSG00000140943'
p2744
aS'ENSG00000174851'
p2745
aS'ENSG00000121289'
p2746
aS'ENSG00000100478'
p2747
aS'ENSG00000126249'
p2748
aS'ENSG00000143093'
p2749
aS'ENSG00000257949'
p2750
aS'ENSG00000169231'
p2751
aS'ENSG00000137822'
p2752
aS'ENSG00000148824'
p2753
aS'ENSG00000153936'
p2754
aS'ENSG00000043514'
p2755
aS'ENSG00000088992'
p2756
aS'ENSG00000259207'
p2757
atRp2758
ssS'lightpink4'
p2759
(dp2760
g24
g25
((lp2761
S'ENSG00000159915'
p2762
aS'ENSG00000214941'
p2763
aS'ENSG00000117395'
p2764
aS'ENSG00000197619'
p2765
aS'ENSG00000176024'
p2766
aS'ENSG00000198093'
p2767
aS'ENSG00000156689'
p2768
aS'ENSG00000170425'
p2769
aS'ENSG00000204514'
p2770
aS'ENSG00000182512'
p2771
aS'ENSG00000121417'
p2772
aS'ENSG00000176222'
p2773
aS'ENSG00000182963'
p2774
aS'ENSG00000224877'
p2775
aS'ENSG00000179909'
p2776
aS'ENSG00000132275'
p2777
aS'ENSG00000083814'
p2778
aS'ENSG00000143748'
p2779
aS'ENSG00000197128'
p2780
aS'ENSG00000105136'
p2781
aS'ENSG00000125734'
p2782
aS'ENSG00000171649'
p2783
aS'ENSG00000079332'
p2784
aS'ENSG00000152433'
p2785
aS'ENSG00000101577'
p2786
aS'ENSG00000188785'
p2787
aS'ENSG00000198466'
p2788
aS'ENSG00000149308'
p2789
atRp2790
ssS'darkorange2'
p2791
(dp2792
g4
(lp2793
(lp2794
S'ENSG00000155926'
p2795
aFinf
ag8
(g10
S'y9J\x9eeD_?'
tRp2796
ag8
(g10
S'\xd0J%_\x141\xa3?'
tRp2797
aasg24
g25
((lp2798
S'ENSG00000074201'
p2799
aS'ENSG00000160007'
p2800
aS'ENSG00000166783'
p2801
aS'ENSG00000166326'
p2802
aS'ENSG00000172932'
p2803
aS'ENSG00000129473'
p2804
aS'ENSG00000108312'
p2805
aS'ENSG00000163393'
p2806
aS'ENSG00000151239'
p2807
aS'ENSG00000183688'
p2808
aS'ENSG00000137714'
p2809
aS'ENSG00000140829'
p2810
aS'ENSG00000131626'
p2811
aS'ENSG00000141068'
p2812
aS'ENSG00000166272'
p2813
aS'ENSG00000183576'
p2814
aS'ENSG00000172687'
p2815
aS'ENSG00000006007'
p2816
aS'ENSG00000104918'
p2817
aS'ENSG00000107957'
p2818
aS'ENSG00000179151'
p2819
aS'ENSG00000111269'
p2820
aS'ENSG00000010219'
p2821
aS'ENSG00000134278'
p2822
aS'ENSG00000153774'
p2823
aS'ENSG00000129250'
p2824
aS'ENSG00000135720'
p2825
aS'ENSG00000059122'
p2826
aS'ENSG00000160439'
p2827
aS'ENSG00000104980'
p2828
aS'ENSG00000140367'
p2829
aS'ENSG00000053254'
p2830
atRp2831
ssS'saddlebrown'
p2832
(dp2833
g24
g25
((lp2834
S'ENSG00000158711'
p2835
aS'ENSG00000006831'
p2836
aS'ENSG00000187166'
p2837
aS'ENSG00000140836'
p2838
aS'ENSG00000176046'
p2839
aS'ENSG00000175899'
p2840
aS'ENSG00000166260'
p2841
aS'ENSG00000110514'
p2842
aS'ENSG00000185278'
p2843
aS'ENSG00000099204'
p2844
aS'ENSG00000149089'
p2845
aS'ENSG00000120647'
p2846
aS'ENSG00000079739'
p2847
aS'ENSG00000248712'
p2848
aS'ENSG00000132970'
p2849
aS'ENSG00000220205'
p2850
aS'ENSG00000196705'
p2851
aS'ENSG00000100884'
p2852
aS'ENSG00000103995'
p2853
aS'ENSG00000143669'
p2854
aS'ENSG00000179902'
p2855
aS'ENSG00000171385'
p2856
aS'ENSG00000094916'
p2857
aS'ENSG00000196172'
p2858
aS'ENSG00000175322'
p2859
aS'ENSG00000026103'
p2860
aS'ENSG00000140682'
p2861
aS'ENSG00000198081'
p2862
aS'ENSG00000110395'
p2863
aS'ENSG00000103671'
p2864
aS'ENSG00000155592'
p2865
aS'ENSG00000068097'
p2866
aS'ENSG00000185245'
p2867
aS'ENSG00000206432'
p2868
aS'ENSG00000167716'
p2869
aS'ENSG00000213246'
p2870
aS'ENSG00000198633'
p2871
aS'ENSG00000189337'
p2872
aS'ENSG00000100599'
p2873
aS'ENSG00000119686'
p2874
aS'ENSG00000129158'
p2875
atRp2876
ssS'darkslateblue'
p2877
(dp2878
g24
g25
((lp2879
S'ENSG00000116791'
p2880
aS'ENSG00000138172'
p2881
aS'ENSG00000166482'
p2882
aS'ENSG00000175215'
p2883
aS'ENSG00000130038'
p2884
aS'ENSG00000166173'
p2885
aS'ENSG00000151148'
p2886
aS'ENSG00000141084'
p2887
aS'ENSG00000117834'
p2888
aS'ENSG00000110906'
p2889
aS'ENSG00000176890'
p2890
aS'ENSG00000269113'
p2891
aS'ENSG00000117143'
p2892
aS'ENSG00000100889'
p2893
aS'ENSG00000186160'
p2894
aS'ENSG00000132199'
p2895
aS'ENSG00000187097'
p2896
aS'ENSG00000023839'
p2897
aS'ENSG00000142973'
p2898
aS'ENSG00000269190'
p2899
aS'ENSG00000197580'
p2900
aS'ENSG00000215277'
p2901
aS'ENSG00000167861'
p2902
aS'ENSG00000186377'
p2903
aS'ENSG00000187848'
p2904
aS'ENSG00000162526'
p2905
aS'ENSG00000023608'
p2906
aS'ENSG00000254685'
p2907
aS'ENSG00000162623'
p2908
aS'ENSG00000167916'
p2909
aS'ENSG00000103227'
p2910
atRp2911
ssS'maroon'
p2912
(dp2913
g24
g25
((lp2914
S'ENSG00000184923'
p2915
aS'ENSG00000198797'
p2916
aS'ENSG00000196648'
p2917
aS'ENSG00000163554'
p2918
aS'ENSG00000242498'
p2919
aS'ENSG00000111707'
p2920
aS'ENSG00000205352'
p2921
aS'ENSG00000111215'
p2922
aS'ENSG00000197497'
p2923
aS'ENSG00000143442'
p2924
aS'ENSG00000139405'
p2925
aS'ENSG00000174903'
p2926
aS'ENSG00000185236'
p2927
aS'ENSG00000255837'
p2928
aS'ENSG00000134283'
p2929
aS'ENSG00000198538'
p2930
aS'ENSG00000131591'
p2931
aS'ENSG00000212124'
p2932
aS'ENSG00000212127'
p2933
aS'ENSG00000103275'
p2934
aS'ENSG00000160014'
p2935
aS'ENSG00000090020'
p2936
aS'ENSG00000167220'
p2937
aS'ENSG00000132004'
p2938
aS'ENSG00000143552'
p2939
aS'ENSG00000104835'
p2940
aS'ENSG00000143340'
p2941
aS'ENSG00000136141'
p2942
atRp2943
ssS'lightcyan1'
p2944
(dp2945
g24
g25
((lp2946
S'ENSG00000166226'
p2947
aS'ENSG00000214946'
p2948
aS'ENSG00000149554'
p2949
aS'ENSG00000142252'
p2950
aS'ENSG00000188906'
p2951
aS'ENSG00000129911'
p2952
aS'ENSG00000110172'
p2953
aS'ENSG00000108469'
p2954
aS'ENSG00000007384'
p2955
aS'ENSG00000214226'
p2956
aS'ENSG00000188342'
p2957
aS'ENSG00000073008'
p2958
aS'ENSG00000173614'
p2959
aS'ENSG00000167525'
p2960
aS'ENSG00000139620'
p2961
aS'ENSG00000188493'
p2962
aS'ENSG00000131351'
p2963
aS'ENSG00000103126'
p2964
aS'ENSG00000213918'
p2965
aS'ENSG00000162032'
p2966
aS'ENSG00000177084'
p2967
aS'ENSG00000165416'
p2968
aS'ENSG00000135750'
p2969
aS'ENSG00000163468'
p2970
aS'ENSG00000055483'
p2971
aS'ENSG00000148634'
p2972
aS'ENSG00000166436'
p2973
aS'ENSG00000089351'
p2974
aS'ENSG00000006327'
p2975
aS'ENSG00000143612'
p2976
aS'ENSG00000134815'
p2977
aS'ENSG00000172530'
p2978
aS'ENSG00000131634'
p2979
atRp2980
ssS'magenta'
p2981
(dp2982
g24
g25
((lp2983
S'ENSG00000110628'
p2984
aS'ENSG00000158636'
p2985
aS'ENSG00000102452'
p2986
aS'ENSG00000013583'
p2987
aS'ENSG00000166797'
p2988
aS'ENSG00000007341'
p2989
aS'ENSG00000141013'
p2990
aS'ENSG00000141556'
p2991
aS'ENSG00000089597'
p2992
aS'ENSG00000204842'
p2993
aS'ENSG00000177192'
p2994
aS'ENSG00000104783'
p2995
aS'ENSG00000129946'
p2996
aS'ENSG00000066557'
p2997
aS'ENSG00000072422'
p2998
aS'ENSG00000132383'
p2999
aS'ENSG00000136738'
p3000
aS'ENSG00000131462'
p3001
aS'ENSG00000140320'
p3002
aS'ENSG00000105364'
p3003
aS'ENSG00000123416'
p3004
aS'ENSG00000030582'
p3005
aS'ENSG00000076924'
p3006
aS'ENSG00000104805'
p3007
aS'ENSG00000178974'
p3008
aS'ENSG00000175470'
p3009
aS'ENSG00000164002'
p3010
aS'ENSG00000132958'
p3011
aS'ENSG00000140553'
p3012
aS'ENSG00000162738'
p3013
aS'ENSG00000148832'
p3014
aS'ENSG00000139644'
p3015
aS'ENSG00000099797'
p3016
aS'ENSG00000173456'
p3017
aS'ENSG00000162910'
p3018
aS'ENSG00000160075'
p3019
aS'ENSG00000130309'
p3020
aS'ENSG00000014914'
p3021
aS'ENSG00000104852'
p3022
aS'ENSG00000130640'
p3023
aS'ENSG00000171298'
p3024
aS'ENSG00000185896'
p3025
aS'ENSG00000090238'
p3026
aS'ENSG00000182544'
p3027
aS'ENSG00000165511'
p3028
aS'ENSG00000148798'
p3029
aS'ENSG00000138119'
p3030
aS'ENSG00000128463'
p3031
aS'ENSG00000100577'
p3032
aS'ENSG00000177169'
p3033
aS'ENSG00000179115'
p3034
aS'ENSG00000198715'
p3035
aS'ENSG00000167615'
p3036
aS'ENSG00000037042'
p3037
aS'ENSG00000139636'
p3038
aS'ENSG00000152439'
p3039
aS'ENSG00000157191'
p3040
aS'ENSG00000149328'
p3041
aS'ENSG00000134744'
p3042
aS'ENSG00000126456'
p3043
aS'ENSG00000158201'
p3044
aS'ENSG00000198691'
p3045
aS'ENSG00000105223'
p3046
aS'ENSG00000173113'
p3047
aS'ENSG00000021488'
p3048
atRp3049
ssS'tan'
p3050
(dp3051
g24
g25
((lp3052
S'ENSG00000117500'
p3053
aS'ENSG00000073417'
p3054
aS'ENSG00000117133'
p3055
aS'ENSG00000141027'
p3056
aS'ENSG00000072778'
p3057
aS'ENSG00000166987'
p3058
aS'ENSG00000041515'
p3059
aS'ENSG00000005882'
p3060
aS'ENSG00000133983'
p3061
aS'ENSG00000122483'
p3062
aS'ENSG00000100815'
p3063
aS'ENSG00000103740'
p3064
aS'ENSG00000100441'
p3065
aS'ENSG00000139220'
p3066
aS'ENSG00000155974'
p3067
aS'ENSG00000125703'
p3068
aS'ENSG00000188321'
p3069
aS'ENSG00000186814'
p3070
aS'ENSG00000104047'
p3071
aS'ENSG00000141401'
p3072
aS'ENSG00000121691'
p3073
aS'ENSG00000066926'
p3074
aS'ENSG00000127720'
p3075
aS'ENSG00000166582'
p3076
aS'ENSG00000107537'
p3077
aS'ENSG00000148950'
p3078
aS'ENSG00000172660'
p3079
aS'ENSG00000108960'
p3080
aS'ENSG00000116678'
p3081
aS'ENSG00000165494'
p3082
aS'ENSG00000121774'
p3083
aS'ENSG00000205978'
p3084
aS'ENSG00000258315'
p3085
aS'ENSG00000175985'
p3086
aS'ENSG00000188895'
p3087
aS'ENSG00000157613'
p3088
aS'ENSG00000173064'
p3089
aS'ENSG00000073050'
p3090
aS'ENSG00000111711'
p3091
aS'ENSG00000130856'
p3092
aS'ENSG00000140386'
p3093
aS'ENSG00000105379'
p3094
aS'ENSG00000140043'
p3095
aS'ENSG00000122971'
p3096
aS'ENSG00000166025'
p3097
aS'ENSG00000178734'
p3098
aS'ENSG00000170430'
p3099
aS'ENSG00000110318'
p3100
aS'ENSG00000119632'
p3101
aS'ENSG00000149716'
p3102
aS'ENSG00000198056'
p3103
aS'ENSG00000178188'
p3104
aS'ENSG00000110090'
p3105
aS'ENSG00000171840'
p3106
aS'ENSG00000108774'
p3107
aS'ENSG00000188015'
p3108
aS'ENSG00000156042'
p3109
aS'ENSG00000169418'
p3110
atRp3111
ssS'pink'
p3112
(dp3113
g24
g25
((lp3114
S'ENSG00000174243'
p3115
aS'ENSG00000110066'
p3116
aS'ENSG00000167515'
p3117
aS'ENSG00000160803'
p3118
aS'ENSG00000136100'
p3119
aS'ENSG00000203666'
p3120
aS'ENSG00000036672'
p3121
aS'ENSG00000136478'
p3122
aS'ENSG00000125952'
p3123
aS'ENSG00000029725'
p3124
aS'ENSG00000117054'
p3125
aS'ENSG00000158717'
p3126
aS'ENSG00000007080'
p3127
aS'ENSG00000100503'
p3128
aS'ENSG00000187486'
p3129
aS'ENSG00000154096'
p3130
aS'ENSG00000102908'
p3131
aS'ENSG00000214046'
p3132
aS'ENSG00000180881'
p3133
aS'ENSG00000120664'
p3134
aS'ENSG00000105518'
p3135
aS'ENSG00000129347'
p3136
aS'ENSG00000163431'
p3137
aS'ENSG00000161618'
p3138
aS'ENSG00000100764'
p3139
aS'ENSG00000099795'
p3140
aS'ENSG00000107611'
p3141
aS'ENSG00000072134'
p3142
aS'ENSG00000110075'
p3143
aS'ENSG00000101605'
p3144
aS'ENSG00000185627'
p3145
aS'ENSG00000181396'
p3146
aS'ENSG00000175229'
p3147
aS'ENSG00000162402'
p3148
aS'ENSG00000156110'
p3149
aS'ENSG00000163444'
p3150
aS'ENSG00000167881'
p3151
aS'ENSG00000126822'
p3152
aS'ENSG00000100519'
p3153
aS'ENSG00000135446'
p3154
aS'ENSG00000176390'
p3155
aS'ENSG00000176393'
p3156
aS'ENSG00000256061'
p3157
aS'ENSG00000099331'
p3158
aS'ENSG00000135870'
p3159
aS'ENSG00000171202'
p3160
aS'ENSG00000048471'
p3161
aS'ENSG00000148719'
p3162
aS'ENSG00000125743'
p3163
aS'ENSG00000166478'
p3164
aS'ENSG00000139163'
p3165
aS'ENSG00000140993'
p3166
aS'ENSG00000117122'
p3167
aS'ENSG00000140990'
p3168
aS'ENSG00000152061'
p3169
aS'ENSG00000169371'
p3170
aS'ENSG00000254505'
p3171
aS'ENSG00000100731'
p3172
aS'ENSG00000137766'
p3173
aS'ENSG00000159352'
p3174
aS'ENSG00000213658'
p3175
aS'ENSG00000136144'
p3176
aS'ENSG00000105755'
p3177
aS'ENSG00000095787'
p3178
aS'ENSG00000108826'
p3179
aS'ENSG00000103226'
p3180
aS'ENSG00000188257'
p3181
atRp3182
ssS'darkorange'
p3183
(dp3184
g24
g25
((lp3185
S'ENSG00000213928'
p3186
aS'ENSG00000108771'
p3187
aS'ENSG00000205863'
p3188
aS'ENSG00000165949'
p3189
aS'ENSG00000132950'
p3190
aS'ENSG00000111196'
p3191
aS'ENSG00000177098'
p3192
aS'ENSG00000240654'
p3193
aS'ENSG00000179051'
p3194
aS'ENSG00000126709'
p3195
aS'ENSG00000151575'
p3196
aS'ENSG00000142632'
p3197
aS'ENSG00000152402'
p3198
aS'ENSG00000131398'
p3199
aS'ENSG00000171729'
p3200
aS'ENSG00000133195'
p3201
aS'ENSG00000054282'
p3202
aS'ENSG00000133106'
p3203
aS'ENSG00000159618'
p3204
aS'ENSG00000162613'
p3205
aS'ENSG00000143028'
p3206
aS'ENSG00000131097'
p3207
aS'ENSG00000188157'
p3208
aS'ENSG00000165806'
p3209
aS'ENSG00000167461'
p3210
aS'ENSG00000111321'
p3211
aS'ENSG00000162373'
p3212
aS'ENSG00000117228'
p3213
aS'ENSG00000008517'
p3214
aS'ENSG00000117226'
p3215
aS'ENSG00000065183'
p3216
aS'ENSG00000177103'
p3217
aS'ENSG00000101574'
p3218
aS'ENSG00000141574'
p3219
aS'ENSG00000185885'
p3220
aS'ENSG00000187642'
p3221
aS'ENSG00000049449'
p3222
aS'ENSG00000134817'
p3223
aS'ENSG00000132530'
p3224
aS'ENSG00000183617'
p3225
aS'ENSG00000140853'
p3226
aS'ENSG00000123427'
p3227
atRp3228
ssS'midnightblue'
p3229
(dp3230
g4
(lp3231
(lp3232
S'ENSG00000142347'
p3233
ag8
(g10
S'fffff\xa68@'
tRp3234
ag8
(g10
S'\xaa\xbc\xa7\xec+\xd6\xac>'
tRp3235
ag8
(g10
S'\x00\xe0\xf6\x86Z\xe5\x10?'
tRp3236
aa(lp3237
S'ENSG00000015285'
p3238
ag8
(g10
S'\xb8\x1e\x85\xebQ\xb83@'
tRp3239
ag8
(g10
S'\xd2\x9c\x98\xb8RV\xe9>'
tRp3240
ag8
(g10
S'\x00\x98\xe89\x81HM?'
tRp3241
aasg24
g25
((lp3242
S'ENSG00000171777'
p3243
aS'ENSG00000215915'
p3244
aS'ENSG00000151650'
p3245
aS'ENSG00000111644'
p3246
aS'ENSG00000152315'
p3247
aS'ENSG00000021645'
p3248
aS'ENSG00000107742'
p3249
aS'ENSG00000012779'
p3250
aS'ENSG00000197136'
p3251
aS'ENSG00000165650'
p3252
aS'ENSG00000258289'
p3253
aS'ENSG00000122970'
p3254
aS'ENSG00000049089'
p3255
aS'ENSG00000074603'
p3256
aS'ENSG00000123329'
p3257
aS'ENSG00000166446'
p3258
aS'ENSG00000167850'
p3259
aS'ENSG00000242612'
p3260
aS'ENSG00000173327'
p3261
aS'ENSG00000167930'
p3262
aS'ENSG00000129534'
p3263
aS'ENSG00000185669'
p3264
aS'ENSG00000172175'
p3265
aS'ENSG00000168071'
p3266
aS'ENSG00000198931'
p3267
aS'ENSG00000119537'
p3268
aS'ENSG00000108591'
p3269
aS'ENSG00000136444'
p3270
aS'ENSG00000122223'
p3271
aS'ENSG00000078618'
p3272
aS'ENSG00000173124'
p3273
aS'ENSG00000138138'
p3274
aS'ENSG00000197147'
p3275
aS'ENSG00000105701'
p3276
aS'ENSG00000064547'
p3277
aS'ENSG00000197748'
p3278
aS'ENSG00000128815'
p3279
aS'ENSG00000152457'
p3280
aS'ENSG00000167394'
p3281
aS'ENSG00000111679'
p3282
aS'ENSG00000006194'
p3283
aS'ENSG00000139998'
p3284
aS'ENSG00000215749'
p3285
aS'ENSG00000186517'
p3286
aS'ENSG00000168925'
p3287
aS'ENSG00000110665'
p3288
aS'ENSG00000180016'
p3289
aS'ENSG00000062822'
p3290
aS'ENSG00000140368'
p3291
aS'ENSG00000117448'
p3292
aS'ENSG00000142347'
p3293
aS'ENSG00000081237'
p3294
aS'ENSG00000138592'
p3295
aS'ENSG00000110934'
p3296
aS'ENSG00000180332'
p3297
aS'ENSG00000137841'
p3298
atRp3299
ssS'paleturquoise'
p3300
(dp3301
g24
g25
((lp3302
S'ENSG00000160741'
p3303
aS'ENSG00000092529'
p3304
aS'ENSG00000185163'
p3305
aS'ENSG00000160161'
p3306
aS'ENSG00000023516'
p3307
aS'ENSG00000151413'
p3308
aS'ENSG00000255284'
p3309
aS'ENSG00000174194'
p3310
aS'ENSG00000130592'
p3311
aS'ENSG00000023191'
p3312
aS'ENSG00000177595'
p3313
aS'ENSG00000177600'
p3314
aS'ENSG00000085872'
p3315
aS'ENSG00000181074'
p3316
aS'ENSG00000155256'
p3317
aS'ENSG00000155363'
p3318
aS'ENSG00000143353'
p3319
aS'ENSG00000213398'
p3320
aS'ENSG00000092010'
p3321
aS'ENSG00000131238'
p3322
aS'ENSG00000132376'
p3323
aS'ENSG00000167280'
p3324
aS'ENSG00000143178'
p3325
aS'ENSG00000185088'
p3326
aS'ENSG00000132274'
p3327
aS'ENSG00000109113'
p3328
aS'ENSG00000263002'
p3329
aS'ENSG00000198160'
p3330
aS'ENSG00000116698'
p3331
aS'ENSG00000167196'
p3332
aS'ENSG00000089737'
p3333
aS'ENSG00000123243'
p3334
aS'ENSG00000175395'
p3335
aS'ENSG00000170855'
p3336
aS'ENSG00000215504'
p3337
aS'ENSG00000103249'
p3338
aS'ENSG00000172890'
p3339
aS'ENSG00000067533'
p3340
atRp3341
ssS'orangered3'
p3342
(dp3343
g24
g25
((lp3344
S'ENSG00000214940'
p3345
aS'ENSG00000104883'
p3346
aS'ENSG00000198270'
p3347
aS'ENSG00000233024'
p3348
aS'ENSG00000162641'
p3349
aS'ENSG00000167995'
p3350
aS'ENSG00000224474'
p3351
aS'ENSG00000140157'
p3352
aS'ENSG00000156515'
p3353
aS'ENSG00000126804'
p3354
aS'ENSG00000169136'
p3355
aS'ENSG00000157911'
p3356
aS'ENSG00000103248'
p3357
aS'ENSG00000100804'
p3358
aS'ENSG00000214655'
p3359
aS'ENSG00000135835'
p3360
aS'ENSG00000142856'
p3361
aS'ENSG00000084463'
p3362
aS'ENSG00000183426'
p3363
aS'ENSG00000126453'
p3364
aS'ENSG00000082482'
p3365
aS'ENSG00000116783'
p3366
aS'ENSG00000258365'
p3367
aS'ENSG00000183793'
p3368
atRp3369
ssS'orangered4'
p3370
(dp3371
g24
g25
((lp3372
S'ENSG00000103264'
p3373
aS'ENSG00000186118'
p3374
aS'ENSG00000214872'
p3375
aS'ENSG00000189046'
p3376
aS'ENSG00000133328'
p3377
aS'ENSG00000181222'
p3378
aS'ENSG00000165379'
p3379
aS'ENSG00000179094'
p3380
aS'ENSG00000116741'
p3381
aS'ENSG00000101751'
p3382
aS'ENSG00000132382'
p3383
aS'ENSG00000264364'
p3384
aS'ENSG00000143379'
p3385
aS'ENSG00000184056'
p3386
aS'ENSG00000117595'
p3387
aS'ENSG00000260456'
p3388
aS'ENSG00000150433'
p3389
aS'ENSG00000102743'
p3390
aS'ENSG00000179397'
p3391
aS'ENSG00000173825'
p3392
aS'ENSG00000177426'
p3393
aS'ENSG00000090104'
p3394
aS'ENSG00000052723'
p3395
aS'ENSG00000167780'
p3396
aS'ENSG00000105723'
p3397
aS'ENSG00000140941'
p3398
aS'ENSG00000129646'
p3399
aS'ENSG00000108947'
p3400
aS'ENSG00000037757'
p3401
aS'ENSG00000116922'
p3402
aS'ENSG00000143164'
p3403
aS'ENSG00000135093'
p3404
aS'ENSG00000143498'
p3405
aS'ENSG00000159111'
p3406
atRp3407
ssS'thistle3'
p3408
(dp3409
g4
(lp3410
(lp3411
S'ENSG00000184731'
p3412
aFinf
ag8
(g10
S':\xab\xb76Lsw?'
tRp3413
ag8
(g10
S'@\x84\xbc\xd9\x1cb\x87?'
tRp3414
aa(lp3415
S'ENSG00000170485'
p3416
ag8
(g10
S'\x00\x00\x00\x00\x00@p@'
tRp3417
ag8
(g10
S'!\xe0s\xb2\xd1g\x87?'
tRp3418
ag8
(g10
S'@\xe0s\xb2\xd1g\x87?'
tRp3419
aasg24
g25
((lp3420
S'ENSG00000103549'
p3421
aS'ENSG00000065526'
p3422
aS'ENSG00000166311'
p3423
aS'ENSG00000108439'
p3424
aS'ENSG00000110723'
p3425
aS'ENSG00000178202'
p3426
aS'ENSG00000180011'
p3427
aS'ENSG00000171492'
p3428
aS'ENSG00000128891'
p3429
aS'ENSG00000130695'
p3430
aS'ENSG00000179981'
p3431
aS'ENSG00000123415'
p3432
aS'ENSG00000151208'
p3433
aS'ENSG00000154305'
p3434
aS'ENSG00000196482'
p3435
aS'ENSG00000005187'
p3436
aS'ENSG00000167186'
p3437
aS'ENSG00000134748'
p3438
aS'ENSG00000173548'
p3439
aS'ENSG00000103528'
p3440
aS'ENSG00000118946'
p3441
atRp3442
ssS'thistle2'
p3443
(dp3444
g24
g25
((lp3445
S'ENSG00000187122'
p3446
aS'ENSG00000134490'
p3447
aS'ENSG00000134874'
p3448
aS'ENSG00000134873'
p3449
aS'ENSG00000110841'
p3450
aS'ENSG00000221923'
p3451
aS'ENSG00000198912'
p3452
aS'ENSG00000175352'
p3453
aS'ENSG00000162367'
p3454
aS'ENSG00000168447'
p3455
aS'ENSG00000165621'
p3456
aS'ENSG00000183186'
p3457
aS'ENSG00000100504'
p3458
aS'ENSG00000167100'
p3459
aS'ENSG00000178971'
p3460
aS'ENSG00000132359'
p3461
aS'ENSG00000162426'
p3462
aS'ENSG00000111796'
p3463
aS'ENSG00000105556'
p3464
aS'ENSG00000180979'
p3465
aS'ENSG00000182885'
p3466
aS'ENSG00000086506'
p3467
aS'ENSG00000159164'
p3468
aS'ENSG00000111341'
p3469
aS'ENSG00000188783'
p3470
aS'ENSG00000161298'
p3471
aS'ENSG00000212743'
p3472
aS'ENSG00000137806'
p3473
aS'ENSG00000141314'
p3474
aS'ENSG00000167535'
p3475
atRp3476
ssS'thistle1'
p3477
(dp3478
g24
g25
((lp3479
S'ENSG00000099282'
p3480
aS'ENSG00000148484'
p3481
aS'ENSG00000160049'
p3482
aS'ENSG00000137486'
p3483
aS'ENSG00000100711'
p3484
aS'ENSG00000160695'
p3485
aS'ENSG00000075073'
p3486
aS'ENSG00000104964'
p3487
aS'ENSG00000069966'
p3488
aS'ENSG00000176533'
p3489
aS'ENSG00000118096'
p3490
aS'ENSG00000077549'
p3491
aS'ENSG00000142208'
p3492
aS'ENSG00000134775'
p3493
aS'ENSG00000100605'
p3494
aS'ENSG00000069943'
p3495
aS'ENSG00000125450'
p3496
aS'ENSG00000158747'
p3497
aS'ENSG00000117477'
p3498
aS'ENSG00000084444'
p3499
aS'ENSG00000005100'
p3500
aS'ENSG00000104872'
p3501
aS'ENSG00000081913'
p3502
aS'ENSG00000105514'
p3503
aS'ENSG00000127554'
p3504
aS'ENSG00000185201'
p3505
aS'ENSG00000154217'
p3506
aS'ENSG00000099785'
p3507
aS'ENSG00000176490'
p3508
atRp3509
ssS'salmon'
p3510
(dp3511
g4
(lp3512
(lp3513
S'ENSG00000183019'
p3514
ag8
(g10
S'\x00\x00\x00\x00\x00\xc04@'
tRp3515
ag8
(g10
S'\x12K\xddVI|2?'
tRp3516
ag8
(g10
S'\xe0\xd3\xbe\x1d\xef\x00\x96?'
tRp3517
aa(lp3518
S'ENSG00000119535'
p3519
ag8
(g10
S'\x00\x00\x00\x00\x00\xc04@'
tRp3520
ag8
(g10
S'\x12K\xddVI|2?'
tRp3521
ag8
(g10
S'\xe0\xd3\xbe\x1d\xef\x00\x96?'
tRp3522
aa(lp3523
S'ENSG00000103313'
p3524
ag8
(g10
S'\x00\x00\x00\x00\x00\xc04@'
tRp3525
ag8
(g10
S'\x12K\xddVI|2?'
tRp3526
ag8
(g10
S'\xe0\xd3\xbe\x1d\xef\x00\x96?'
tRp3527
aa(lp3528
S'ENSG00000162747'
p3529
aFinf
ag8
(g10
S'9\x12P\xff\xb7\x855?'
tRp3530
ag8
(g10
S'\xc0\x82?\xfa\xd8\x96\x98?'
tRp3531
aa(lp3532
S'ENSG00000244482'
p3533
ag8
(g10
S'}}}}}}3@'
tRp3534
ag8
(g10
S'\x97\x9b\xdd\xbb\xbf\x9e6?'
tRp3535
ag8
(g10
S' \xe5\xd2\xdc\xaa{\x99?'
tRp3536
aa(lp3537
S'ENSG00000126217'
p3538
ag8
(g10
S'\xed%\xb4\x97\xd0^2@'
tRp3539
ag8
(g10
S'\xdaR@J\xe4b;?'
tRp3540
ag8
(g10
S'\xa0H\xd2Ma[\x9e?'
tRp3541
aa(lp3542
S'ENSG00000149564'
p3543
ag8
(g10
S'\xed%\xb4\x97\xd0^2@'
tRp3544
ag8
(g10
S'\xdaR@J\xe4b;?'
tRp3545
ag8
(g10
S'\xa0H\xd2Ma[\x9e?'
tRp3546
aa(lp3547
S'ENSG00000101187'
p3548
ag8
(g10
S'\xed%\xb4\x97\xd0^2@'
tRp3549
ag8
(g10
S'\xdaR@J\xe4b;?'
tRp3550
ag8
(g10
S'\xa0H\xd2Ma[\x9e?'
tRp3551
aa(lp3552
S'ENSG00000232803'
p3553
ag8
(g10
S'\xed%\xb4\x97\xd0^2@'
tRp3554
ag8
(g10
S'\xdaR@J\xe4b;?'
tRp3555
ag8
(g10
S'\xa0H\xd2Ma[\x9e?'
tRp3556
aa(lp3557
S'ENSG00000018280'
p3558
ag8
(g10
S'\xed%\xb4\x97\xd0^2@'
tRp3559
ag8
(g10
S'\xdaR@J\xe4b;?'
tRp3560
ag8
(g10
S'\xa0H\xd2Ma[\x9e?'
tRp3561
aa(lp3562
S'ENSG00000168995'
p3563
ag8
(g10
S'\xe55\x94\xd7P^1@'
tRp3564
ag8
(g10
S'\x06t\xa5\xbdfk@?'
tRp3565
ag8
(g10
S'pbwmt\xe8\xa0?'
tRp3566
aa(lp3567
S'ENSG00000129450'
p3568
ag8
(g10
S'\xe55\x94\xd7P^1@'
tRp3569
ag8
(g10
S'\x06t\xa5\xbdfk@?'
tRp3570
ag8
(g10
S'pbwmt\xe8\xa0?'
tRp3571
aa(lp3572
S'ENSG00000125810'
p3573
ag8
(g10
S'wwwwww0@'
tRp3574
ag8
(g10
S'\x88z\xb4\x02p\x84C?'
tRp3575
ag8
(g10
S'\xb0O\xa8i\xfcr\xa3?'
tRp3576
aasg24
g25
((lp3577
S'ENSG00000047056'
p3578
aS'ENSG00000026751'
p3579
aS'ENSG00000010292'
p3580
aS'ENSG00000267508'
p3581
aS'ENSG00000183397'
p3582
aS'ENSG00000161944'
p3583
aS'ENSG00000168404'
p3584
aS'ENSG00000120451'
p3585
aS'ENSG00000085831'
p3586
aS'ENSG00000152443'
p3587
aS'ENSG00000179855'
p3588
aS'ENSG00000171051'
p3589
aS'ENSG00000134200'
p3590
aS'ENSG00000135472'
p3591
aS'ENSG00000123342'
p3592
aS'ENSG00000161905'
p3593
aS'ENSG00000127337'
p3594
aS'ENSG00000256436'
p3595
aS'ENSG00000239306'
p3596
aS'ENSG00000183431'
p3597
aS'ENSG00000166912'
p3598
aS'ENSG00000148814'
p3599
aS'ENSG00000214688'
p3600
aS'ENSG00000084110'
p3601
aS'ENSG00000187980'
p3602
aS'ENSG00000116977'
p3603
aS'ENSG00000181754'
p3604
aS'ENSG00000167528'
p3605
aS'ENSG00000172613'
p3606
aS'ENSG00000132600'
p3607
aS'ENSG00000122490'
p3608
aS'ENSG00000127527'
p3609
aS'ENSG00000140379'
p3610
aS'ENSG00000161091'
p3611
aS'ENSG00000175137'
p3612
aS'ENSG00000168411'
p3613
aS'ENSG00000186431'
p3614
aS'ENSG00000110448'
p3615
aS'ENSG00000120868'
p3616
aS'ENSG00000177302'
p3617
aS'ENSG00000102524'
p3618
aS'ENSG00000196646'
p3619
aS'ENSG00000087365'
p3620
aS'ENSG00000170866'
p3621
aS'ENSG00000078246'
p3622
aS'ENSG00000196189'
p3623
aS'ENSG00000181240'
p3624
aS'ENSG00000178796'
p3625
aS'ENSG00000090661'
p3626
aS'ENSG00000178386'
p3627
aS'ENSG00000196684'
p3628
aS'ENSG00000168701'
p3629
aS'ENSG00000121350'
p3630
aS'ENSG00000090382'
p3631
aS'ENSG00000104983'
p3632
aS'ENSG00000254415'
p3633
aS'ENSG00000122025'
p3634
atRp3635
ssS'mediumpurple2'
p3636
(dp3637
g24
g25
((lp3638
S'ENSG00000123200'
p3639
aS'ENSG00000104093'
p3640
aS'ENSG00000117139'
p3641
aS'ENSG00000167555'
p3642
aS'ENSG00000206013'
p3643
aS'ENSG00000172938'
p3644
aS'ENSG00000060656'
p3645
aS'ENSG00000198933'
p3646
aS'ENSG00000176476'
p3647
aS'ENSG00000120645'
p3648
aS'ENSG00000134668'
p3649
aS'ENSG00000212719'
p3650
aS'ENSG00000175906'
p3651
aS'ENSG00000011132'
p3652
aS'ENSG00000152223'
p3653
aS'ENSG00000184227'
p3654
aS'ENSG00000080166'
p3655
aS'ENSG00000136628'
p3656
aS'ENSG00000177082'
p3657
aS'ENSG00000116198'
p3658
aS'ENSG00000119673'
p3659
aS'ENSG00000151364'
p3660
aS'ENSG00000172671'
p3661
aS'ENSG00000159445'
p3662
atRp3663
ssS'mediumpurple3'
p3664
(dp3665
g4
(lp3666
(lp3667
S'ENSG00000101057'
p3668
ag8
(g10
S'\x00\x00\x00\x00\x00\xd8\x83@'
tRp3669
ag8
(g10
S'b\xa4b\xd5\x92\xcb\xa7<'
tRp3670
ag8
(g10
S'\x00\x00\x00\x00\x00\x00\xed<'
tRp3671
aa(lp3672
S'ENSG00000171848'
p3673
ag8
(g10
S'33333\x93|@'
tRp3674
ag8
(g10
S'\x9c\xccdIR\xce\x0f='
tRp3675
ag8
(g10
S'\x00\x00\x00\x00\x00\xc8[='
tRp3676
aa(lp3677
S'ENSG00000148773'
p3678
aFinf
ag8
(g10
S'\xa9\xf4 \xc0\x12\x8c\xdd='
tRp3679
ag8
(g10
S'\x00\x00\x000/\xee(>'
tRp3680
aa(lp3681
S'ENSG00000237649'
p3682
ag8
(g10
S'9\x8e\xe38\x8e\xa3a@'
tRp3683
ag8
(g10
S'\x0c5\xc3\xcdI\xf8\x80>'
tRp3684
ag8
(g10
S'\x00\x00(\x13u\x93\xcb>'
tRp3685
aa(lp3686
S'ENSG00000137804'
p3687
ag8
(g10
S'33333si@'
tRp3688
ag8
(g10
S'pg\xc8\x8f\x8b\x9f\xba>'
tRp3689
ag8
(g10
S'\x00\x80r\x13\x8b\xcc\x04?'
tRp3690
aa(lp3691
S'ENSG00000157456'
p3692
ag8
(g10
S'33333si@'
tRp3693
ag8
(g10
S'pg\xc8\x8f\x8b\x9f\xba>'
tRp3694
ag8
(g10
S'\x00\x80r\x13\x8b\xcc\x04?'
tRp3695
aa(lp3696
S'ENSG00000135476'
p3697
ag8
(g10
S'ffffffY@'
tRp3698
ag8
(g10
S';i\xe2\x81\xf1\xa8\xd3>'
tRp3699
ag8
(g10
S'\x00\xe0\x8e\xac{B\x1c?'
tRp3700
aa(lp3701
S'ENSG00000117724'
p3702
ag8
(g10
S'ffffffY@'
tRp3703
ag8
(g10
S';i\xe2\x81\xf1\xa8\xd3>'
tRp3704
ag8
(g10
S'\x00\xe0\x8e\xac{B\x1c?'
tRp3705
aa(lp3706
S'ENSG00000112297'
p3707
ag8
(g10
S'\xe48\x8e\xe38\x8e%@'
tRp3708
ag8
(g10
S'\x0b\n\x7f\x9b\xc9\x01D?'
tRp3709
ag8
(g10
S'\x80%\xd9\xcbu\x19\x8a?'
tRp3710
aa(lp3711
S'ENSG00000134769'
p3712
ag8
(g10
S'\xe48\x8e\xe38\x8e%@'
tRp3713
ag8
(g10
S'\x0b\n\x7f\x9b\xc9\x01D?'
tRp3714
ag8
(g10
S'\x80%\xd9\xcbu\x19\x8a?'
tRp3715
aa(lp3716
S'ENSG00000185274'
p3717
ag8
(g10
S'\xf1\n\xaf\xf0\n\xaf$@'
tRp3718
ag8
(g10
S'\xcf\xf0\x8e\x88\xc5\x7fG?'
tRp3719
ag8
(g10
S'\x80\xc9\xdf\xf3\xce\xb9\x8b?'
tRp3720
aa(lp3721
S'ENSG00000158856'
p3722
ag8
(g10
S'\x08\x82 \x08\x82 #@'
tRp3723
ag8
(g10
S'\xe2\x85\xcfh\t\xdaO?'
tRp3724
ag8
(g10
S'@\x8e&\xf3\xf1\xc4\x91?'
tRp3725
aa(lp3726
S'ENSG00000156970'
p3727
ag8
(g10
S'UUUUU5U@'
tRp3728
ag8
(g10
S'\xeb\x9d\x82k+\x12`?'
tRp3729
ag8
(g10
S'\xd0\xee\xebq^\xcf\xa0?'
tRp3730
aa(lp3731
S'ENSG00000075218'
p3732
ag8
(g10
S'UUUUU5U@'
tRp3733
ag8
(g10
S'\xeb\x9d\x82k+\x12`?'
tRp3734
ag8
(g10
S'\xd0\xee\xebq^\xcf\xa0?'
tRp3735
aasg24
g25
((lp3736
S'ENSG00000136108'
p3737
aS'ENSG00000125648'
p3738
aS'ENSG00000129195'
p3739
aS'ENSG00000105486'
p3740
aS'ENSG00000047617'
p3741
aS'ENSG00000142945'
p3742
aS'ENSG00000126787'
p3743
aS'ENSG00000111665'
p3744
aS'ENSG00000111664'
p3745
aS'ENSG00000099866'
p3746
aS'ENSG00000166851'
p3747
aS'ENSG00000186652'
p3748
aS'ENSG00000131747'
p3749
aS'ENSG00000165490'
p3750
aS'ENSG00000158769'
p3751
aS'ENSG00000110074'
p3752
aS'ENSG00000215845'
p3753
aS'ENSG00000243709'
p3754
aS'ENSG00000146670'
p3755
aS'ENSG00000166105'
p3756
aS'ENSG00000183856'
p3757
aS'ENSG00000213024'
p3758
aS'ENSG00000099769'
p3759
aS'ENSG00000085840'
p3760
aS'ENSG00000187951'
p3761
aS'ENSG00000143476'
p3762
aS'ENSG00000130518'
p3763
aS'ENSG00000065328'
p3764
aS'ENSG00000166965'
p3765
aS'ENSG00000111247'
p3766
aS'ENSG00000179954'
p3767
aS'ENSG00000151151'
p3768
aS'ENSG00000118193'
p3769
atRp3770
ssS'darkolivegreen4'
p3771
(dp3772
g24
g25
((lp3773
S'ENSG00000205869'
p3774
aS'ENSG00000100445'
p3775
aS'ENSG00000177627'
p3776
aS'ENSG00000170426'
p3777
aS'ENSG00000120669'
p3778
aS'ENSG00000135437'
p3779
aS'ENSG00000177971'
p3780
aS'ENSG00000136011'
p3781
aS'ENSG00000184857'
p3782
aS'ENSG00000196655'
p3783
aS'ENSG00000160685'
p3784
aS'ENSG00000184601'
p3785
aS'ENSG00000188931'
p3786
aS'ENSG00000151838'
p3787
aS'ENSG00000242715'
p3788
aS'ENSG00000198890'
p3789
aS'ENSG00000198838'
p3790
aS'ENSG00000135424'
p3791
aS'ENSG00000129673'
p3792
aS'ENSG00000111266'
p3793
aS'ENSG00000120049'
p3794
aS'ENSG00000107521'
p3795
atRp3796
ssS'darkseagreen4'
p3797
(dp3798
g4
(lp3799
(lp3800
S'ENSG00000103034'
p3801
ag8
(g10
S'\x00\x00\x00\x00\x00\x08`@'
tRp3802
ag8
(g10
S"\x03\xf6I\xdbF'\x02?"
tRp3803
ag8
(g10
S'\x00F\xbeUTVj?'
tRp3804
aa(lp3805
S'ENSG00000099822'
p3806
ag8
(g10
S'\x00\x00\x00\x00\x00\x08`@'
tRp3807
ag8
(g10
S"\x03\xf6I\xdbF'\x02?"
tRp3808
ag8
(g10
S'\x00F\xbeUTVj?'
tRp3809
aa(lp3810
S'ENSG00000167971'
p3811
aFinf
ag8
(g10
S'D\xa8\xd9e\xc671?'
tRp3812
ag8
(g10
S' \xe8\x9e\x98\xc81\x98?'
tRp3813
aasg24
g25
((lp3814
S'ENSG00000105464'
p3815
aS'ENSG00000198133'
p3816
aS'ENSG00000110042'
p3817
aS'ENSG00000161682'
p3818
aS'ENSG00000177666'
p3819
aS'ENSG00000198915'
p3820
aS'ENSG00000167971'
p3821
aS'ENSG00000158792'
p3822
aS'ENSG00000139200'
p3823
aS'ENSG00000121690'
p3824
aS'ENSG00000099308'
p3825
aS'ENSG00000133048'
p3826
aS'ENSG00000182636'
p3827
aS'ENSG00000052749'
p3828
aS'ENSG00000170037'
p3829
aS'ENSG00000204991'
p3830
aS'ENSG00000139835'
p3831
aS'ENSG00000105642'
p3832
aS'ENSG00000179431'
p3833
aS'ENSG00000213023'
p3834
aS'ENSG00000167862'
p3835
aS'ENSG00000162493'
p3836
aS'ENSG00000099864'
p3837
aS'ENSG00000187741'
p3838
aS'ENSG00000170049'
p3839
aS'ENSG00000119285'
p3840
atRp3841
ssS'lightyellow'
p3842
(dp3843
g24
g25
((lp3844
S'ENSG00000241058'
p3845
aS'ENSG00000121236'
p3846
aS'ENSG00000261652'
p3847
aS'ENSG00000133275'
p3848
aS'ENSG00000167799'
p3849
aS'ENSG00000213853'
p3850
aS'ENSG00000067208'
p3851
aS'ENSG00000198863'
p3852
aS'ENSG00000110455'
p3853
aS'ENSG00000176155'
p3854
aS'ENSG00000119661'
p3855
aS'ENSG00000103351'
p3856
aS'ENSG00000186409'
p3857
aS'ENSG00000151849'
p3858
aS'ENSG00000143156'
p3859
aS'ENSG00000168778'
p3860
aS'ENSG00000102904'
p3861
aS'ENSG00000166971'
p3862
aS'ENSG00000100583'
p3863
aS'ENSG00000137817'
p3864
aS'ENSG00000161996'
p3865
aS'ENSG00000126464'
p3866
aS'ENSG00000103479'
p3867
aS'ENSG00000176485'
p3868
aS'ENSG00000023445'
p3869
aS'ENSG00000027001'
p3870
aS'ENSG00000188596'
p3871
aS'ENSG00000064309'
p3872
aS'ENSG00000166046'
p3873
aS'ENSG00000058085'
p3874
aS'ENSG00000196611'
p3875
aS'ENSG00000101489'
p3876
aS'ENSG00000000460'
p3877
aS'ENSG00000204852'
p3878
aS'ENSG00000008838'
p3879
aS'ENSG00000198208'
p3880
aS'ENSG00000116885'
p3881
aS'ENSG00000104973'
p3882
aS'ENSG00000007541'
p3883
aS'ENSG00000140104'
p3884
aS'ENSG00000172922'
p3885
aS'ENSG00000148908'
p3886
aS'ENSG00000141519'
p3887
aS'ENSG00000205084'
p3888
aS'ENSG00000141622'
p3889
aS'ENSG00000198198'
p3890
aS'ENSG00000171962'
p3891
aS'ENSG00000231274'
p3892
aS'ENSG00000137807'
p3893
aS'ENSG00000163879'
p3894
aS'ENSG00000243284'
p3895
atRp3896
ssS'salmon2'
p3897
(dp3898
g24
g25
((lp3899
S'ENSG00000169203'
p3900
aS'ENSG00000181045'
p3901
aS'ENSG00000182831'
p3902
aS'ENSG00000185864'
p3903
aS'ENSG00000167695'
p3904
aS'ENSG00000138303'
p3905
aS'ENSG00000136044'
p3906
aS'ENSG00000185128'
p3907
aS'ENSG00000234719'
p3908
aS'ENSG00000215252'
p3909
aS'ENSG00000203805'
p3910
aS'ENSG00000240038'
p3911
aS'ENSG00000197915'
p3912
aS'ENSG00000167740'
p3913
aS'ENSG00000066185'
p3914
aS'ENSG00000197563'
p3915
aS'ENSG00000255524'
p3916
aS'ENSG00000156171'
p3917
aS'ENSG00000133103'
p3918
aS'ENSG00000151474'
p3919
aS'ENSG00000213937'
p3920
atRp3921
ssS'salmon4'
p3922
(dp3923
g24
g25
((lp3924
S'ENSG00000215790'
p3925
aS'ENSG00000183291'
p3926
aS'ENSG00000128944'
p3927
aS'ENSG00000102738'
p3928
aS'ENSG00000183011'
p3929
aS'ENSG00000249115'
p3930
aS'ENSG00000135452'
p3931
aS'ENSG00000141698'
p3932
aS'ENSG00000160961'
p3933
aS'ENSG00000143466'
p3934
aS'ENSG00000166743'
p3935
aS'ENSG00000230510'
p3936
aS'ENSG00000156574'
p3937
aS'ENSG00000141756'
p3938
aS'ENSG00000180785'
p3939
aS'ENSG00000073584'
p3940
aS'ENSG00000182986'
p3941
aS'ENSG00000155957'
p3942
aS'ENSG00000169660'
p3943
aS'ENSG00000119943'
p3944
aS'ENSG00000170322'
p3945
aS'ENSG00000161594'
p3946
aS'ENSG00000160953'
p3947
aS'ENSG00000124422'
p3948
aS'ENSG00000151287'
p3949
aS'ENSG00000140650'
p3950
aS'ENSG00000143303'
p3951
aS'ENSG00000129317'
p3952
aS'ENSG00000189339'
p3953
atRp3954
ssS'green'
p3955
(dp3956
g4
(lp3957
(lp3958
S'ENSG00000143536'
p3959
ag8
(g10
S'\xbd\xe9Moz\xd3o@'
tRp3960
ag8
(g10
S'\xf1\x1b\x92\xca\x92\xb6\r='
tRp3961
ag8
(g10
S'\x00\x00\x00\x00\x80n\x81='
tRp3962
aa(lp3963
S'ENSG00000125780'
p3964
ag8
(g10
S'\xd9\x89\x9d\xd8\x89\x1de@'
tRp3965
ag8
(g10
S'\xb0m\x0b\x06\xca/\xd8='
tRp3966
ag8
(g10
S"\x00\x00\x00 \xa1'L>"
tRp3967
aa(lp3968
S'ENSG00000167759'
p3969
ag8
(g10
S'|\xef\xbd\xf7\xde{O@'
tRp3970
ag8
(g10
S'\xbd\xfc\x0fk\x9e\x0b\x15?'
tRp3971
ag8
(g10
S'\x80t[\xc2\xd10\x88?'
tRp3972
aa(lp3973
S'ENSG00000169509'
p3974
ag8
(g10
S'|\xef\xbd\xf7\xde{O@'
tRp3975
ag8
(g10
S'\xbd\xfc\x0fk\x9e\x0b\x15?'
tRp3976
ag8
(g10
S'\x80t[\xc2\xd10\x88?'
tRp3977
aa(lp3978
S'ENSG00000140519'
p3979
aFinf
ag8
(g10
S'\xa3\xb3\x87q\x81\xfd1?'
tRp3980
ag8
(g10
S'\xe0M\xb5\x96\xf8\x1d\xa4?'
tRp3981
aa(lp3982
S'ENSG00000052344'
p3983
aFinf
ag8
(g10
S'\xa3\xb3\x87q\x81\xfd1?'
tRp3984
ag8
(g10
S'\xe0M\xb5\x96\xf8\x1d\xa4?'
tRp3985
aa(lp3986
S'ENSG00000241794'
p3987
aFinf
ag8
(g10
S'\xa3\xb3\x87q\x81\xfd1?'
tRp3988
ag8
(g10
S'\xe0M\xb5\x96\xf8\x1d\xa4?'
tRp3989
aasg24
g25
((lp3990
S'ENSG00000134755'
p3991
aS'ENSG00000087076'
p3992
aS'ENSG00000065268'
p3993
aS'ENSG00000154803'
p3994
aS'ENSG00000171401'
p3995
aS'ENSG00000133985'
p3996
aS'ENSG00000076685'
p3997
aS'ENSG00000140832'
p3998
aS'ENSG00000137648'
p3999
aS'ENSG00000175793'
p4000
aS'ENSG00000105289'
p4001
aS'ENSG00000162069'
p4002
aS'ENSG00000108819'
p4003
aS'ENSG00000224051'
p4004
aS'ENSG00000152465'
p4005
aS'ENSG00000022556'
p4006
aS'ENSG00000170423'
p4007
aS'ENSG00000041988'
p4008
aS'ENSG00000197780'
p4009
aS'ENSG00000167759'
p4010
aS'ENSG00000108846'
p4011
aS'ENSG00000237289'
p4012
aS'ENSG00000178078'
p4013
aS'ENSG00000198807'
p4014
aS'ENSG00000165905'
p4015
aS'ENSG00000129451'
p4016
aS'ENSG00000076826'
p4017
aS'ENSG00000116675'
p4018
aS'ENSG00000089356'
p4019
aS'ENSG00000057149'
p4020
aS'ENSG00000184363'
p4021
aS'ENSG00000185187'
p4022
aS'ENSG00000167524'
p4023
aS'ENSG00000203785'
p4024
aS'ENSG00000133313'
p4025
aS'ENSG00000204147'
p4026
aS'ENSG00000197601'
p4027
aS'ENSG00000105618'
p4028
aS'ENSG00000102468'
p4029
aS'ENSG00000163141'
p4030
aS'ENSG00000186529'
p4031
aS'ENSG00000188100'
p4032
aS'ENSG00000159166'
p4033
aS'ENSG00000124466'
p4034
aS'ENSG00000006282'
p4035
aS'ENSG00000006283'
p4036
aS'ENSG00000105668'
p4037
aS'ENSG00000171345'
p4038
aS'ENSG00000088002'
p4039
aS'ENSG00000239704'
p4040
aS'ENSG00000143556'
p4041
aS'ENSG00000049283'
p4042
aS'ENSG00000163545'
p4043
aS'ENSG00000128422'
p4044
aS'ENSG00000167769'
p4045
aS'ENSG00000165474'
p4046
aS'ENSG00000196878'
p4047
aS'ENSG00000177106'
p4048
aS'ENSG00000177042'
p4049
aS'ENSG00000137699'
p4050
aS'ENSG00000173218'
p4051
aS'ENSG00000143363'
p4052
aS'ENSG00000137857'
p4053
aS'ENSG00000125731'
p4054
aS'ENSG00000179598'
p4055
aS'ENSG00000185736'
p4056
aS'ENSG00000158006'
p4057
aS'ENSG00000187555'
p4058
aS'ENSG00000189334'
p4059
aS'ENSG00000081277'
p4060
aS'ENSG00000136379'
p4061
aS'ENSG00000143149'
p4062
aS'ENSG00000170477'
p4063
aS'ENSG00000108582'
p4064
atRp4065
ssS'brown2'
p4066
(dp4067
g24
g25
((lp4068
S'ENSG00000105771'
p4069
aS'ENSG00000103365'
p4070
aS'ENSG00000099284'
p4071
aS'ENSG00000087152'
p4072
aS'ENSG00000135392'
p4073
aS'ENSG00000181031'
p4074
aS'ENSG00000166387'
p4075
aS'ENSG00000150593'
p4076
aS'ENSG00000184206'
p4077
aS'ENSG00000165338'
p4078
aS'ENSG00000189129'
p4079
aS'ENSG00000174574'
p4080
aS'ENSG00000121057'
p4081
aS'ENSG00000117280'
p4082
aS'ENSG00000198894'
p4083
aS'ENSG00000165417'
p4084
aS'ENSG00000103942'
p4085
aS'ENSG00000186510'
p4086
aS'ENSG00000164011'
p4087
aS'ENSG00000187688'
p4088
aS'ENSG00000170627'
p4089
aS'ENSG00000136143'
p4090
atRp4091
ssS'brown4'
p4092
(dp4093
g24
g25
((lp4094
S'ENSG00000196388'
p4095
aS'ENSG00000172716'
p4096
aS'ENSG00000054277'
p4097
aS'ENSG00000109046'
p4098
aS'ENSG00000189050'
p4099
aS'ENSG00000162341'
p4100
aS'ENSG00000143382'
p4101
aS'ENSG00000117335'
p4102
aS'ENSG00000196352'
p4103
aS'ENSG00000184517'
p4104
aS'ENSG00000120832'
p4105
aS'ENSG00000198182'
p4106
aS'ENSG00000140575'
p4107
aS'ENSG00000081692'
p4108
aS'ENSG00000166946'
p4109
aS'ENSG00000126214'
p4110
aS'ENSG00000154222'
p4111
aS'ENSG00000198105'
p4112
aS'ENSG00000186063'
p4113
aS'ENSG00000143740'
p4114
aS'ENSG00000141141'
p4115
aS'ENSG00000111328'
p4116
aS'ENSG00000132740'
p4117
aS'ENSG00000165512'
p4118
aS'ENSG00000154760'
p4119
aS'ENSG00000151135'
p4120
aS'ENSG00000130921'
p4121
aS'ENSG00000137760'
p4122
aS'ENSG00000108474'
p4123
aS'ENSG00000157227'
p4124
aS'ENSG00000134152'
p4125
atRp4126
ss.