(dp1
S'tan'
p2
(dp3
S'driver_genes'
p4
(lp5
(lp6
S'ENSG00000129450'
p7
acnumpy.core.multiarray
scalar
p8
(cnumpy
dtype
p9
(S'f8'
I0
I1
tRp10
(I3
S'<'
NNNI-1
I-1
I0
tbS'\x00\x00\x00\x00\x00\xf0a@'
tRp11
ag8
(g10
S'\xbd\xa6\r>\x12:\xdc='
tRp12
ag8
(g10
S'\x00\x00\x00\xe8\x16`7>'
tRp13
aa(lp14
S'ENSG00000155926'
p15
ag8
(g10
S'\x00\x00\x00\x00\x00\xf0a@'
tRp16
ag8
(g10
S'\xbd\xa6\r>\x12:\xdc='
tRp17
ag8
(g10
S'\x00\x00\x00\xe8\x16`7>'
tRp18
aa(lp19
S'ENSG00000159339'
p20
ag8
(g10
S'\xb7m\xdb\xb6m[Z@'
tRp21
ag8
(g10
S'\xf3\x08\x18\xdd\xa1S9>'
tRp22
ag8
(g10
S'\x00\x00\xa0\xcc\xa4.\x94>'
tRp23
aa(lp24
S'ENSG00000123405'
p25
ag8
(g10
S'\xb7m\xdb\xb6m[Z@'
tRp26
ag8
(g10
S'\xf3\x08\x18\xdd\xa1S9>'
tRp27
ag8
(g10
S'\x00\x00\xa0\xcc\xa4.\x94>'
tRp28
aa(lp29
S'ENSG00000160883'
p30
ag8
(g10
S'\xb7m\xdb\xb6m[Z@'
tRp31
ag8
(g10
S'\xf3\x08\x18\xdd\xa1S9>'
tRp32
ag8
(g10
S'\x00\x00\xa0\xcc\xa4.\x94>'
tRp33
aa(lp34
S'ENSG00000187116'
p35
ag8
(g10
S'\xb7m\xdb\xb6m[Z@'
tRp36
ag8
(g10
S'\xf3\x08\x18\xdd\xa1S9>'
tRp37
ag8
(g10
S'\x00\x00\xa0\xcc\xa4.\x94>'
tRp38
aa(lp39
S'ENSG00000119535'
p40
ag8
(g10
S'\xb7m\xdb\xb6m[Z@'
tRp41
ag8
(g10
S'\xf3\x08\x18\xdd\xa1S9>'
tRp42
ag8
(g10
S'\x00\x00\xa0\xcc\xa4.\x94>'
tRp43
aa(lp44
S'ENSG00000163220'
p45
ag8
(g10
S'fffff\x86R@'
tRp46
ag8
(g10
S'\x7fq\xc8\xa9\xe24\x14?'
tRp47
ag8
(g10
S'\x00\x87T\x05$\xffl?'
tRp48
aa(lp49
S'ENSG00000158869'
p50
ag8
(g10
S'fffff\x86R@'
tRp51
ag8
(g10
S'\x7fq\xc8\xa9\xe24\x14?'
tRp52
ag8
(g10
S'\x00\x87T\x05$\xffl?'
tRp53
aa(lp54
S'ENSG00000167613'
p55
ag8
(g10
S'\x00\x00\x00\x00\x00\xc0K@'
tRp56
ag8
(g10
S'r\xc8\x01.3\x81!?'
tRp57
ag8
(g10
S'\x80WN\xa5\xfd\xffw?'
tRp58
aa(lp59
S'ENSG00000103569'
p60
aFinf
ag8
(g10
S'\xc45\xd2\x0eE\xdd1?'
tRp61
ag8
(g10
S'\x80\x00\xc1\xadH\xde\x87?'
tRp62
aa(lp63
S'ENSG00000171051'
p64
aFinf
ag8
(g10
S'\xc45\xd2\x0eE\xdd1?'
tRp65
ag8
(g10
S'\x80\x00\xc1\xadH\xde\x87?'
tRp66
aa(lp67
S'ENSG00000171236'
p68
aFinf
ag8
(g10
S'\xc45\xd2\x0eE\xdd1?'
tRp69
ag8
(g10
S'\x80\x00\xc1\xadH\xde\x87?'
tRp70
aa(lp71
S'ENSG00000169282'
p72
aFinf
ag8
(g10
S'\xc45\xd2\x0eE\xdd1?'
tRp73
ag8
(g10
S'\x80\x00\xc1\xadH\xde\x87?'
tRp74
aa(lp75
S'ENSG00000186431'
p76
aFinf
ag8
(g10
S'\xc45\xd2\x0eE\xdd1?'
tRp77
ag8
(g10
S'\x80\x00\xc1\xadH\xde\x87?'
tRp78
aa(lp79
S'ENSG00000182885'
p80
aFinf
ag8
(g10
S'\xc45\xd2\x0eE\xdd1?'
tRp81
ag8
(g10
S'\x80\x00\xc1\xadH\xde\x87?'
tRp82
aa(lp83
S'ENSG00000011600'
p84
ag8
(g10
S'_\xf1\x15_\xf1\x95?@'
tRp85
ag8
(g10
S'uj!\xed\xa8\x1e=?'
tRp86
ag8
(g10
S'\x00<\xd8#o\xb3\x90?'
tRp87
aa(lp88
S'ENSG00000110077'
p89
ag8
(g10
S'\x00\x00\x00\x00\x00\x808@'
tRp90
ag8
(g10
S'\xac$ z\xc9)J?'
tRp91
ag8
(g10
S'\x00\x81\xc11\xac\x06\x9d?'
tRp92
aa(lp93
S'ENSG00000185046'
p94
ag8
(g10
S'\xa3\x8b.\xba\xe8\xe2`@'
tRp95
ag8
(g10
S'Y\x86\x013F\x89J?'
tRp96
ag8
(g10
S'\x00\x81\xc11\xac\x06\x9d?'
tRp97
aa(lp98
S'ENSG00000131042'
p99
ag8
(g10
S'\xa3\x8b.\xba\xe8\xe2`@'
tRp100
ag8
(g10
S'Y\x86\x013F\x89J?'
tRp101
ag8
(g10
S'\x00\x81\xc11\xac\x06\x9d?'
tRp102
aa(lp103
S'ENSG00000135502'
p104
ag8
(g10
S'\xa3\x8b.\xba\xe8\xe2`@'
tRp105
ag8
(g10
S'Y\x86\x013F\x89J?'
tRp106
ag8
(g10
S'\x00\x81\xc11\xac\x06\x9d?'
tRp107
aasS'module_genes'
p108
c__builtin__
set
p109
((lp110
S'ENSG00000117115'
p111
aS'ENSG00000169826'
p112
aS'ENSG00000023191'
p113
aS'ENSG00000064547'
p114
aS'ENSG00000171357'
p115
aS'ENSG00000137709'
p116
aS'ENSG00000139220'
p117
aS'ENSG00000258289'
p118
aS'ENSG00000108405'
p119
aS'ENSG00000175414'
p120
aS'ENSG00000160883'
p121
aS'ENSG00000163993'
p122
aS'ENSG00000118777'
p123
aS'ENSG00000185897'
p124
aS'ENSG00000039650'
p125
aS'ENSG00000103313'
p126
aS'ENSG00000112299'
p127
aS'ENSG00000146094'
p128
aS'ENSG00000185585'
p129
aS'ENSG00000144031'
p130
aS'ENSG00000089639'
p131
aS'ENSG00000000938'
p132
aS'ENSG00000157578'
p133
aS'ENSG00000151287'
p134
aS'ENSG00000118520'
p135
aS'ENSG00000076662'
p136
aS'ENSG00000132965'
p137
aS'ENSG00000159339'
p138
aS'ENSG00000244482'
p139
aS'ENSG00000134058'
p140
aS'ENSG00000115607'
p141
aS'ENSG00000117676'
p142
aS'ENSG00000174137'
p143
aS'ENSG00000163220'
p144
atRp145
ssS'mistyrose'
p146
(dp147
g108
g109
((lp148
S'ENSG00000164924'
p149
aS'ENSG00000149577'
p150
aS'ENSG00000168556'
p151
aS'ENSG00000117505'
p152
aS'ENSG00000131795'
p153
aS'ENSG00000170291'
p154
aS'ENSG00000121417'
p155
aS'ENSG00000151327'
p156
aS'ENSG00000197563'
p157
aS'ENSG00000105136'
p158
aS'ENSG00000113615'
p159
aS'ENSG00000155975'
p160
aS'ENSG00000181885'
p161
aS'ENSG00000106952'
p162
aS'ENSG00000125375'
p163
aS'ENSG00000174851'
p164
aS'ENSG00000093010'
p165
aS'ENSG00000123427'
p166
atRp167
ssS'orange4'
p168
(dp169
g4
(lp170
(lp171
S'ENSG00000138735'
p172
ag8
(g10
S'\x00\x00\x00\x00\x00\x88w@'
tRp173
ag8
(g10
S'\x1f]_\xbe\x056\x80?'
tRp174
ag8
(g10
S'\xc0Z\xd7\xe7\x01\x05\xa0?'
tRp175
aasg108
g109
((lp176
S'ENSG00000103852'
p177
aS'ENSG00000122547'
p178
aS'ENSG00000170873'
p179
aS'ENSG00000130703'
p180
aS'ENSG00000058668'
p181
aS'ENSG00000023516'
p182
aS'ENSG00000163703'
p183
aS'ENSG00000135074'
p184
aS'ENSG00000137463'
p185
aS'ENSG00000106823'
p186
aS'ENSG00000176595'
p187
aS'ENSG00000183527'
p188
aS'ENSG00000173210'
p189
aS'ENSG00000161204'
p190
aS'ENSG00000128039'
p191
atRp192
ssS'firebrick'
p193
(dp194
g108
g109
((lp195
S'ENSG00000197746'
p196
aS'ENSG00000129562'
p197
aS'ENSG00000214160'
p198
aS'ENSG00000205307'
p199
aS'ENSG00000166435'
p200
aS'ENSG00000113597'
p201
aS'ENSG00000008282'
p202
aS'ENSG00000130695'
p203
aS'ENSG00000221990'
p204
aS'ENSG00000090487'
p205
aS'ENSG00000107816'
p206
aS'ENSG00000068697'
p207
aS'ENSG00000165119'
p208
aS'ENSG00000163453'
p209
aS'ENSG00000136156'
p210
atRp211
ssS'indianred'
p212
(dp213
g108
g109
((lp214
S'ENSG00000113456'
p215
aS'ENSG00000131044'
p216
aS'ENSG00000100987'
p217
aS'ENSG00000241258'
p218
aS'ENSG00000112599'
p219
aS'ENSG00000048544'
p220
aS'ENSG00000189366'
p221
aS'ENSG00000136448'
p222
aS'ENSG00000171160'
p223
aS'ENSG00000181195'
p224
aS'ENSG00000158483'
p225
aS'ENSG00000177697'
p226
aS'ENSG00000108468'
p227
aS'ENSG00000116771'
p228
atRp229
ssS'orange3'
p230
(dp231
g108
g109
((lp232
S'ENSG00000169750'
p233
aS'ENSG00000196235'
p234
aS'ENSG00000179943'
p235
aS'ENSG00000006125'
p236
aS'ENSG00000182685'
p237
aS'ENSG00000175137'
p238
aS'ENSG00000104936'
p239
aS'ENSG00000178796'
p240
aS'ENSG00000099940'
p241
aS'ENSG00000169857'
p242
aS'ENSG00000156011'
p243
aS'ENSG00000074319'
p244
aS'ENSG00000100605'
p245
aS'ENSG00000130035'
p246
atRp247
ssS'orange2'
p248
(dp249
g108
g109
((lp250
S'ENSG00000156414'
p251
aS'ENSG00000099984'
p252
aS'ENSG00000108846'
p253
aS'ENSG00000163814'
p254
aS'ENSG00000170464'
p255
aS'ENSG00000198046'
p256
aS'ENSG00000136881'
p257
aS'ENSG00000099974'
p258
aS'ENSG00000170469'
p259
aS'ENSG00000133433'
p260
aS'ENSG00000170866'
p261
aS'ENSG00000124275'
p262
atRp263
ssS'darkolivegreen'
p264
(dp265
g108
g109
((lp266
S'ENSG00000112685'
p267
aS'ENSG00000162763'
p268
aS'ENSG00000179163'
p269
aS'ENSG00000136710'
p270
aS'ENSG00000137275'
p271
aS'ENSG00000221866'
p272
aS'ENSG00000187815'
p273
aS'ENSG00000070269'
p274
aS'ENSG00000143258'
p275
aS'ENSG00000005810'
p276
aS'ENSG00000115361'
p277
aS'ENSG00000156096'
p278
aS'ENSG00000153291'
p279
aS'ENSG00000143194'
p280
aS'ENSG00000160294'
p281
aS'ENSG00000196502'
p282
aS'ENSG00000055130'
p283
aS'ENSG00000177733'
p284
aS'ENSG00000111321'
p285
aS'ENSG00000215041'
p286
aS'ENSG00000198053'
p287
aS'ENSG00000115317'
p288
aS'ENSG00000162836'
p289
aS'ENSG00000241973'
p290
aS'ENSG00000100201'
p291
aS'ENSG00000033178'
p292
aS'ENSG00000163870'
p293
atRp294
ssS'grey60'
p295
(dp296
g108
g109
((lp297
S'ENSG00000163156'
p298
aS'ENSG00000158717'
p299
aS'ENSG00000158711'
p300
aS'ENSG00000239789'
p301
aS'ENSG00000123094'
p302
aS'ENSG00000159592'
p303
aS'ENSG00000125875'
p304
aS'ENSG00000106603'
p305
aS'ENSG00000099957'
p306
aS'ENSG00000005955'
p307
aS'ENSG00000140350'
p308
aS'ENSG00000169018'
p309
aS'ENSG00000243667'
p310
aS'ENSG00000116205'
p311
aS'ENSG00000136059'
p312
aS'ENSG00000146674'
p313
aS'ENSG00000243317'
p314
aS'ENSG00000145194'
p315
aS'ENSG00000130348'
p316
aS'ENSG00000177465'
p317
aS'ENSG00000153002'
p318
aS'ENSG00000124422'
p319
aS'ENSG00000130347'
p320
aS'ENSG00000168803'
p321
aS'ENSG00000121897'
p322
aS'ENSG00000205309'
p323
aS'ENSG00000178386'
p324
aS'ENSG00000113971'
p325
aS'ENSG00000104343'
p326
aS'ENSG00000102870'
p327
aS'ENSG00000141644'
p328
atRp329
ssS'darkseagreen'
p330
(dp331
g108
g109
((lp332
S'ENSG00000131203'
p333
aS'ENSG00000079385'
p334
aS'ENSG00000159884'
p335
aS'ENSG00000256530'
p336
aS'ENSG00000196263'
p337
aS'ENSG00000065613'
p338
aS'ENSG00000117528'
p339
aS'ENSG00000272514'
p340
aS'ENSG00000114107'
p341
aS'ENSG00000175538'
p342
aS'ENSG00000101363'
p343
aS'ENSG00000108556'
p344
aS'ENSG00000100106'
p345
aS'ENSG00000107099'
p346
atRp347
ssS'mediumorchid4'
p348
(dp349
g108
g109
((lp350
S'ENSG00000233927'
p351
aS'ENSG00000168807'
p352
aS'ENSG00000100347'
p353
aS'ENSG00000181396'
p354
aS'ENSG00000008382'
p355
aS'ENSG00000052841'
p356
aS'ENSG00000140986'
p357
aS'ENSG00000214113'
p358
aS'ENSG00000196196'
p359
aS'ENSG00000070785'
p360
aS'ENSG00000149262'
p361
aS'ENSG00000134201'
p362
aS'ENSG00000179284'
p363
aS'ENSG00000140265'
p364
aS'ENSG00000239665'
p365
atRp366
ssS'pink2'
p367
(dp368
g108
g109
((lp369
S'ENSG00000141428'
p370
aS'ENSG00000166454'
p371
aS'ENSG00000196476'
p372
aS'ENSG00000173531'
p373
aS'ENSG00000165060'
p374
aS'ENSG00000103653'
p375
aS'ENSG00000111077'
p376
aS'ENSG00000160209'
p377
aS'ENSG00000184731'
p378
aS'ENSG00000108666'
p379
aS'ENSG00000205476'
p380
aS'ENSG00000107611'
p381
aS'ENSG00000140398'
p382
aS'ENSG00000157933'
p383
aS'ENSG00000065457'
p384
atRp385
ssS'green4'
p386
(dp387
g4
(lp388
(lp389
S'ENSG00000203797'
p390
ag8
(g10
S'\x00\x00\x00\x00\x00XW@'
tRp391
ag8
(g10
S'c`\xc6\x0eJgI?'
tRp392
ag8
(g10
S'\xa0\x11wy\xeb\xbc\x9d?'
tRp393
aasg108
g109
((lp394
S'ENSG00000130770'
p395
aS'ENSG00000080345'
p396
aS'ENSG00000122477'
p397
aS'ENSG00000100014'
p398
aS'ENSG00000187778'
p399
aS'ENSG00000113303'
p400
aS'ENSG00000120798'
p401
aS'ENSG00000171865'
p402
aS'ENSG00000118242'
p403
aS'ENSG00000055950'
p404
aS'ENSG00000186765'
p405
aS'ENSG00000184076'
p406
aS'ENSG00000189157'
p407
aS'ENSG00000160213'
p408
aS'ENSG00000101210'
p409
aS'ENSG00000101204'
p410
aS'ENSG00000128272'
p411
aS'ENSG00000197415'
p412
atRp413
ssS'green1'
p414
(dp415
g108
g109
((lp416
S'ENSG00000197580'
p417
aS'ENSG00000155380'
p418
aS'ENSG00000107554'
p419
aS'ENSG00000074935'
p420
aS'ENSG00000139192'
p421
aS'ENSG00000221968'
p422
aS'ENSG00000179598'
p423
aS'ENSG00000186132'
p424
aS'ENSG00000196611'
p425
aS'ENSG00000213853'
p426
aS'ENSG00000172209'
p427
aS'ENSG00000169247'
p428
aS'ENSG00000196878'
p429
atRp430
ssS'green3'
p431
(dp432
g108
g109
((lp433
S'ENSG00000144488'
p434
aS'ENSG00000120669'
p435
aS'ENSG00000115677'
p436
aS'ENSG00000205209'
p437
aS'ENSG00000117411'
p438
aS'ENSG00000164066'
p439
aS'ENSG00000180509'
p440
aS'ENSG00000108064'
p441
aS'ENSG00000174775'
p442
aS'ENSG00000129925'
p443
aS'ENSG00000130669'
p444
aS'ENSG00000103202'
p445
aS'ENSG00000242715'
p446
aS'ENSG00000172500'
p447
aS'ENSG00000118514'
p448
aS'ENSG00000114670'
p449
atRp450
ssS'green2'
p451
(dp452
g108
g109
((lp453
S'ENSG00000179988'
p454
aS'ENSG00000075975'
p455
aS'ENSG00000183431'
p456
aS'ENSG00000100243'
p457
aS'ENSG00000122490'
p458
aS'ENSG00000164323'
p459
aS'ENSG00000225526'
p460
aS'ENSG00000168883'
p461
aS'ENSG00000133884'
p462
aS'ENSG00000205138'
p463
aS'ENSG00000137074'
p464
aS'ENSG00000159479'
p465
aS'ENSG00000224877'
p466
aS'ENSG00000066230'
p467
atRp468
ssS'darkgoldenrod4'
p469
(dp470
g4
(lp471
(lp472
S'ENSG00000170006'
p473
aFinf
ag8
(g10
S'b\xd4j4\xb1\xa4e?'
tRp474
ag8
(g10
S'\x80VRx_\x9du?'
tRp475
aa(lp476
S'ENSG00000158560'
p477
aFinf
ag8
(g10
S'S\x9bY\xbb\xbe\x1c\x9f?'
tRp478
ag8
(g10
S'`\x9bY\xbb\xbe\x1c\x9f?'
tRp479
aasg108
g109
((lp480
S'ENSG00000173511'
p481
aS'ENSG00000214087'
p482
aS'ENSG00000141391'
p483
aS'ENSG00000256812'
p484
aS'ENSG00000159082'
p485
aS'ENSG00000107929'
p486
aS'ENSG00000197858'
p487
aS'ENSG00000172270'
p488
aS'ENSG00000118307'
p489
aS'ENSG00000104964'
p490
aS'ENSG00000104904'
p491
aS'ENSG00000197362'
p492
aS'ENSG00000075035'
p493
aS'ENSG00000173272'
p494
aS'ENSG00000211456'
p495
atRp496
ssS'magenta4'
p497
(dp498
g4
(lp499
(lp500
S'ENSG00000174171'
p501
ag8
(g10
S'\x00\x00\x00\x00\x00@o@'
tRp502
ag8
(g10
S'vD\x1a\x9a\x8fV+?'
tRp503
ag8
(g10
S'\x00\xf4l\xe4F\xc9\x91?'
tRp504
aa(lp505
S'ENSG00000140403'
p506
ag8
(g10
S'\x00\x00\x00\x00\x00@o@'
tRp507
ag8
(g10
S'vD\x1a\x9a\x8fV+?'
tRp508
ag8
(g10
S'\x00\xf4l\xe4F\xc9\x91?'
tRp509
aa(lp510
S'ENSG00000139998'
p511
ag8
(g10
S'\x00\x00\x00\x00\x00@o@'
tRp512
ag8
(g10
S'vD\x1a\x9a\x8fV+?'
tRp513
ag8
(g10
S'\x00\xf4l\xe4F\xc9\x91?'
tRp514
aa(lp515
S'ENSG00000135636'
p516
ag8
(g10
S'\x00\x00\x00\x00\x00@o@'
tRp517
ag8
(g10
S'vD\x1a\x9a\x8fV+?'
tRp518
ag8
(g10
S'\x00\xf4l\xe4F\xc9\x91?'
tRp519
aa(lp520
S'ENSG00000125810'
p521
ag8
(g10
S'\x00\x00\x00\x00\x00hg@'
tRp522
ag8
(g10
S'\xd2Z\xfd+\xa1w4?'
tRp523
ag8
(g10
S'\x00v\x85\xb4dE\x99?'
tRp524
aa(lp525
S'ENSG00000010327'
p526
ag8
(g10
S'\x00\x00\x00\x00\x00hg@'
tRp527
ag8
(g10
S'\xd2Z\xfd+\xa1w4?'
tRp528
ag8
(g10
S'\x00v\x85\xb4dE\x99?'
tRp529
aa(lp530
S'ENSG00000070182'
p531
ag8
(g10
S'\x00\x00\x00\x00\x00hg@'
tRp532
ag8
(g10
S'\xd2Z\xfd+\xa1w4?'
tRp533
ag8
(g10
S'\x00v\x85\xb4dE\x99?'
tRp534
aa(lp535
S'ENSG00000094963'
p536
ag8
(g10
S'\x00\x00\x00\x00\x00hg@'
tRp537
ag8
(g10
S'\xd2Z\xfd+\xa1w4?'
tRp538
ag8
(g10
S'\x00v\x85\xb4dE\x99?'
tRp539
aa(lp540
S'ENSG00000112294'
p541
ag8
(g10
S'xxxxx\xb8O@'
tRp542
ag8
(g10
S'\xa8\xef\x08A\xefS;?'
tRp543
ag8
(g10
S'\xa0EV\x1a\x17\xf3\x9f?'
tRp544
aa(lp545
S'ENSG00000130201'
p546
ag8
(g10
S'33333\xb3b@'
tRp547
ag8
(g10
S';N\x0b\x9f|\x9a<?'
tRp548
ag8
(g10
S'\xb0\xe4\xb4\x83\xf6}\xa0?'
tRp549
aa(lp550
S'ENSG00000138622'
p551
ag8
(g10
S'33333\xb3b@'
tRp552
ag8
(g10
S';N\x0b\x9f|\x9a<?'
tRp553
ag8
(g10
S'\xb0\xe4\xb4\x83\xf6}\xa0?'
tRp554
aa(lp555
S'ENSG00000198844'
p556
ag8
(g10
S'33333\xb3b@'
tRp557
ag8
(g10
S';N\x0b\x9f|\x9a<?'
tRp558
ag8
(g10
S'\xb0\xe4\xb4\x83\xf6}\xa0?'
tRp559
aa(lp560
S'ENSG00000249751'
p561
ag8
(g10
S'33333\xb3b@'
tRp562
ag8
(g10
S';N\x0b\x9f|\x9a<?'
tRp563
ag8
(g10
S'\xb0\xe4\xb4\x83\xf6}\xa0?'
tRp564
aa(lp565
S'ENSG00000188582'
p566
ag8
(g10
S'33333\xb3b@'
tRp567
ag8
(g10
S';N\x0b\x9f|\x9a<?'
tRp568
ag8
(g10
S'\xb0\xe4\xb4\x83\xf6}\xa0?'
tRp569
aa(lp570
S'ENSG00000160180'
p571
ag8
(g10
S'33333\xb3b@'
tRp572
ag8
(g10
S';N\x0b\x9f|\x9a<?'
tRp573
ag8
(g10
S'\xb0\xe4\xb4\x83\xf6}\xa0?'
tRp574
aa(lp575
S'ENSG00000137077'
p576
ag8
(g10
S'\x00\x00\x00\x00\x00 _@'
tRp577
ag8
(g10
S's\x0c\xfd\xe1\x00\tC?'
tRp578
ag8
(g10
S'\x90y\xb3kF\x1f\xa4?'
tRp579
aa(lp580
S'ENSG00000138722'
p581
ag8
(g10
S'\x00\x00\x00\x00\x00 _@'
tRp582
ag8
(g10
S's\x0c\xfd\xe1\x00\tC?'
tRp583
ag8
(g10
S'\x90y\xb3kF\x1f\xa4?'
tRp584
aa(lp585
S'ENSG00000154258'
p586
ag8
(g10
S'\x00\x00\x00\x00\x00 _@'
tRp587
ag8
(g10
S's\x0c\xfd\xe1\x00\tC?'
tRp588
ag8
(g10
S'\x90y\xb3kF\x1f\xa4?'
tRp589
aa(lp590
S'ENSG00000129465'
p591
ag8
(g10
S'\x00\x00\x00\x00\x00 _@'
tRp592
ag8
(g10
S's\x0c\xfd\xe1\x00\tC?'
tRp593
ag8
(g10
S'\x90y\xb3kF\x1f\xa4?'
tRp594
aa(lp595
S'ENSG00000154262'
p596
ag8
(g10
S'I\x92$I\x92\xa4Z@'
tRp597
ag8
(g10
S'\xe9\n\xc6\x95,nH?'
tRp598
ag8
(g10
S'\x00\x8a\xb7\xef\xb2:\xa8?'
tRp599
aa(lp600
S'ENSG00000205885'
p601
ag8
(g10
S'I\x92$I\x92\xa4Z@'
tRp602
ag8
(g10
S'\xe9\n\xc6\x95,nH?'
tRp603
ag8
(g10
S'\x00\x8a\xb7\xef\xb2:\xa8?'
tRp604
aa(lp605
S'ENSG00000055118'
p606
ag8
(g10
S'I\x92$I\x92\xa4Z@'
tRp607
ag8
(g10
S'\xe9\n\xc6\x95,nH?'
tRp608
ag8
(g10
S'\x00\x8a\xb7\xef\xb2:\xa8?'
tRp609
aa(lp610
S'ENSG00000164920'
p611
ag8
(g10
S'I\x92$I\x92\xa4Z@'
tRp612
ag8
(g10
S'\xe9\n\xc6\x95,nH?'
tRp613
ag8
(g10
S'\x00\x8a\xb7\xef\xb2:\xa8?'
tRp614
aasg108
g109
((lp615
S'ENSG00000153130'
p616
aS'ENSG00000129744'
p617
aS'ENSG00000151148'
p618
aS'ENSG00000119383'
p619
aS'ENSG00000142252'
p620
aS'ENSG00000030110'
p621
aS'ENSG00000006282'
p622
aS'ENSG00000129749'
p623
aS'ENSG00000232859'
p624
aS'ENSG00000249087'
p625
aS'ENSG00000171703'
p626
aS'ENSG00000164096'
p627
aS'ENSG00000117305'
p628
aS'ENSG00000137834'
p629
aS'ENSG00000137764'
p630
aS'ENSG00000144228'
p631
aS'ENSG00000149596'
p632
aS'ENSG00000171217'
p633
aS'ENSG00000121577'
p634
aS'ENSG00000166153'
p635
aS'ENSG00000106608'
p636
atRp637
ssS'magenta3'
p638
(dp639
g108
g109
((lp640
S'ENSG00000241058'
p641
aS'ENSG00000105185'
p642
aS'ENSG00000065000'
p643
aS'ENSG00000162009'
p644
aS'ENSG00000178295'
p645
aS'ENSG00000164008'
p646
aS'ENSG00000122085'
p647
aS'ENSG00000256229'
p648
aS'ENSG00000083097'
p649
aS'ENSG00000198707'
p650
aS'ENSG00000014164'
p651
aS'ENSG00000198626'
p652
aS'ENSG00000197818'
p653
aS'ENSG00000162086'
p654
aS'ENSG00000155657'
p655
aS'ENSG00000151914'
p656
aS'ENSG00000122696'
p657
aS'ENSG00000110925'
p658
atRp659
ssS'darkgoldenrod1'
p660
(dp661
g108
g109
((lp662
S'ENSG00000155508'
p663
aS'ENSG00000185518'
p664
aS'ENSG00000128596'
p665
aS'ENSG00000189320'
p666
aS'ENSG00000167881'
p667
aS'ENSG00000243710'
p668
aS'ENSG00000159588'
p669
aS'ENSG00000164707'
p670
aS'ENSG00000141576'
p671
aS'ENSG00000134215'
p672
aS'ENSG00000216895'
p673
atRp674
ssS'magenta1'
p675
(dp676
g4
(lp677
(lp678
S'ENSG00000003989'
p679
aFinf
ag8
(g10
S'T\xd0j4\xb1\xa4e?'
tRp680
ag8
(g10
S'\x80\xbc\x0c\xf0\xb8\x9d\xa2?'
tRp681
aa(lp682
S'ENSG00000136383'
p683
aFinf
ag8
(g10
S'T\xd0j4\xb1\xa4e?'
tRp684
ag8
(g10
S'\x80\xbc\x0c\xf0\xb8\x9d\xa2?'
tRp685
aasg108
g109
((lp686
S'ENSG00000183426'
p687
aS'ENSG00000109118'
p688
aS'ENSG00000161326'
p689
aS'ENSG00000183889'
p690
aS'ENSG00000103512'
p691
aS'ENSG00000170577'
p692
aS'ENSG00000157045'
p693
aS'ENSG00000122026'
p694
aS'ENSG00000263053'
p695
aS'ENSG00000103226'
p696
aS'ENSG00000183605'
p697
aS'ENSG00000089225'
p698
aS'ENSG00000204147'
p699
aS'ENSG00000183793'
p700
atRp701
ssS'darkgoldenrod3'
p702
(dp703
g108
g109
((lp704
S'ENSG00000198336'
p705
aS'ENSG00000244607'
p706
aS'ENSG00000204540'
p707
aS'ENSG00000197841'
p708
aS'ENSG00000149557'
p709
aS'ENSG00000204538'
p710
aS'ENSG00000141696'
p711
aS'ENSG00000155265'
p712
aS'ENSG00000141562'
p713
aS'ENSG00000004897'
p714
aS'ENSG00000135750'
p715
aS'ENSG00000101144'
p716
aS'ENSG00000171724'
p717
aS'ENSG00000172508'
p718
atRp719
ssS'skyblue3'
p720
(dp721
g108
g109
((lp722
S'ENSG00000186231'
p723
aS'ENSG00000115750'
p724
aS'ENSG00000157782'
p725
aS'ENSG00000108094'
p726
aS'ENSG00000106125'
p727
aS'ENSG00000240038'
p728
aS'ENSG00000005075'
p729
aS'ENSG00000163697'
p730
aS'ENSG00000205336'
p731
aS'ENSG00000167094'
p732
aS'ENSG00000189129'
p733
aS'ENSG00000133103'
p734
aS'ENSG00000136986'
p735
aS'ENSG00000100299'
p736
aS'ENSG00000123607'
p737
aS'ENSG00000151422'
p738
aS'ENSG00000158825'
p739
aS'ENSG00000007312'
p740
aS'ENSG00000235098'
p741
aS'ENSG00000131941'
p742
aS'ENSG00000136560'
p743
aS'ENSG00000136856'
p744
aS'ENSG00000135541'
p745
aS'ENSG00000157150'
p746
aS'ENSG00000172469'
p747
aS'ENSG00000105755'
p748
atRp749
ssS'black'
p750
(dp751
g4
(lp752
(lp753
g576
ag8
(g10
S'\x9a\x99\x99\x99\x99\xc9K@'
tRp754
ag8
(g10
S'\xee\xb5E\xb1\x94( ?'
tRp755
ag8
(g10
S'\x00\r$\xc1^T\x8d?'
tRp756
aa(lp757
g581
ag8
(g10
S'\x9a\x99\x99\x99\x99\xc9K@'
tRp758
ag8
(g10
S'\xee\xb5E\xb1\x94( ?'
tRp759
ag8
(g10
S'\x00\r$\xc1^T\x8d?'
tRp760
aa(lp761
g591
ag8
(g10
S'\x9a\x99\x99\x99\x99\xc9K@'
tRp762
ag8
(g10
S'\xee\xb5E\xb1\x94( ?'
tRp763
ag8
(g10
S'\x00\r$\xc1^T\x8d?'
tRp764
aa(lp765
g601
ag8
(g10
S'\x00\x00\x00\x00\x00 G@'
tRp766
ag8
(g10
S'\x86j\x1b\xe5]\x0b(?'
tRp767
ag8
(g10
S'\xa0\x84\xfe\xd0\xb01\x95?'
tRp768
aa(lp769
S'ENSG00000077942'
p770
ag8
(g10
S'\x19\x19\x19\x19\x19\x19&@'
tRp771
ag8
(g10
S'\x04E\x03\x1f\xa7D,?'
tRp772
ag8
(g10
S'\xa0",\xba\x0f\xa8\x98?'
tRp773
aa(lp774
S'ENSG00000174348'
p775
ag8
(g10
S'\x19\x19\x19\x19\x19\x19&@'
tRp776
ag8
(g10
S'\x04E\x03\x1f\xa7D,?'
tRp777
ag8
(g10
S'\xa0",\xba\x0f\xa8\x98?'
tRp778
aa(lp779
S'ENSG00000125735'
p780
ag8
(g10
S'\xef\r(\x13W\xba3@'
tRp781
ag8
(g10
S'\xcf\xb0\x95\x04P51?'
tRp782
ag8
(g10
S'\x00\xd6\x13\xec*k\x9d?'
tRp783
aa(lp784
S'ENSG00000079385'
p785
ag8
(g10
S'\xef\r(\x13W\xba3@'
tRp786
ag8
(g10
S'\xcf\xb0\x95\x04P51?'
tRp787
ag8
(g10
S'\x00\xd6\x13\xec*k\x9d?'
tRp788
aa(lp789
S'ENSG00000134470'
p790
ag8
(g10
S'\xef\r(\x13W\xba3@'
tRp791
ag8
(g10
S'\xcf\xb0\x95\x04P51?'
tRp792
ag8
(g10
S'\x00\xd6\x13\xec*k\x9d?'
tRp793
aa(lp794
S'ENSG00000173559'
p795
ag8
(g10
S'\x858+?!\xce2@'
tRp796
ag8
(g10
S'\xfeE\xe0\xaf\xe9.4?'
tRp797
ag8
(g10
S'\xe05J\x03\x87\xc0\xa0?'
tRp798
aa(lp799
S'ENSG00000182866'
p800
ag8
(g10
S'\x0c\xc30\x0c\xc301@'
tRp801
ag8
(g10
S'\xb3\xb8\x81\x01\xb19;?'
tRp802
ag8
(g10
S'@I\xf9\xcf\xcaC\xa6?'
tRp803
aa(lp804
S'ENSG00000162777'
p805
ag8
(g10
S'\x0c\xc30\x0c\xc301@'
tRp806
ag8
(g10
S'\xb3\xb8\x81\x01\xb19;?'
tRp807
ag8
(g10
S'@I\xf9\xcf\xcaC\xa6?'
tRp808
aa(lp809
S'ENSG00000115085'
p810
ag8
(g10
S'\x0c\xc30\x0c\xc301@'
tRp811
ag8
(g10
S'\xb3\xb8\x81\x01\xb19;?'
tRp812
ag8
(g10
S'@I\xf9\xcf\xcaC\xa6?'
tRp813
aa(lp814
S'ENSG00000087245'
p815
ag8
(g10
S'u\x16\xd3YLg#@'
tRp816
ag8
(g10
S'>2\x80\xd0L\x1a<?'
tRp817
ag8
(g10
S'\xf0a\xd5_$V\xa6?'
tRp818
aa(lp819
S'ENSG00000100453'
p820
ag8
(g10
S'{\x14\xaeG\xe1z0@'
tRp821
ag8
(g10
S"'~\x897\x91W??"
tRp822
ag8
(g10
S'\x800\xa1\x90~\x9d\xa8?'
tRp823
aa(lp824
S'ENSG00000163694'
p825
ag8
(g10
S'{\x14\xaeG\xe1z0@'
tRp826
ag8
(g10
S"'~\x897\x91W??"
tRp827
ag8
(g10
S'\x800\xa1\x90~\x9d\xa8?'
tRp828
aasg108
g109
((lp829
S'ENSG00000108950'
p830
aS'ENSG00000108679'
p831
aS'ENSG00000188312'
p832
aS'ENSG00000109625'
p833
aS'ENSG00000121989'
p834
aS'ENSG00000136267'
p835
aS'ENSG00000206560'
p836
aS'ENSG00000178462'
p837
aS'ENSG00000121903'
p838
aS'ENSG00000139117'
p839
aS'ENSG00000173327'
p840
aS'ENSG00000164841'
p841
aS'ENSG00000141753'
p842
aS'ENSG00000186446'
p843
aS'ENSG00000164867'
p844
aS'ENSG00000184500'
p845
aS'ENSG00000107614'
p846
aS'ENSG00000012124'
p847
aS'ENSG00000089327'
p848
aS'ENSG00000160447'
p849
aS'ENSG00000186994'
p850
aS'ENSG00000118308'
p851
aS'ENSG00000196653'
p852
aS'ENSG00000105556'
p853
aS'ENSG00000135914'
p854
aS'ENSG00000130300'
p855
aS'ENSG00000168309'
p856
aS'ENSG00000188283'
p857
aS'ENSG00000172554'
p858
aS'ENSG00000129055'
p859
aS'ENSG00000160180'
p860
aS'ENSG00000188716'
p861
aS'ENSG00000205678'
p862
aS'ENSG00000183186'
p863
aS'ENSG00000106066'
p864
aS'ENSG00000161896'
p865
aS'ENSG00000135480'
p866
aS'ENSG00000100599'
p867
aS'ENSG00000258365'
p868
atRp869
ssS'yellow2'
p870
(dp871
g108
g109
((lp872
S'ENSG00000163938'
p873
aS'ENSG00000169359'
p874
aS'ENSG00000010072'
p875
aS'ENSG00000115073'
p876
aS'ENSG00000143158'
p877
aS'ENSG00000180398'
p878
aS'ENSG00000153898'
p879
aS'ENSG00000168374'
p880
aS'ENSG00000163882'
p881
aS'ENSG00000099899'
p882
aS'ENSG00000095713'
p883
aS'ENSG00000139767'
p884
aS'ENSG00000125458'
p885
aS'ENSG00000181523'
p886
aS'ENSG00000181852'
p887
aS'ENSG00000120805'
p888
aS'ENSG00000171928'
p889
aS'ENSG00000106080'
p890
atRp891
ssS'orange'
p892
(dp893
g108
g109
((lp894
S'ENSG00000103264'
p895
aS'ENSG00000177294'
p896
aS'ENSG00000149218'
p897
aS'ENSG00000105483'
p898
aS'ENSG00000129595'
p899
aS'ENSG00000113319'
p900
aS'ENSG00000096080'
p901
aS'ENSG00000091409'
p902
aS'ENSG00000141956'
p903
aS'ENSG00000107798'
p904
aS'ENSG00000182389'
p905
aS'ENSG00000127863'
p906
aS'ENSG00000036448'
p907
aS'ENSG00000076067'
p908
aS'ENSG00000126217'
p909
aS'ENSG00000133460'
p910
aS'ENSG00000198682'
p911
aS'ENSG00000112308'
p912
aS'ENSG00000043462'
p913
aS'ENSG00000168653'
p914
aS'ENSG00000103044'
p915
aS'ENSG00000162402'
p916
aS'ENSG00000133116'
p917
aS'ENSG00000139044'
p918
aS'ENSG00000179776'
p919
aS'ENSG00000111261'
p920
aS'ENSG00000129353'
p921
aS'ENSG00000154217'
p922
aS'ENSG00000117151'
p923
atRp924
ssS'mediumorchid2'
p925
(dp926
g4
(lp927
(lp928
S'ENSG00000125731'
p929
aFinf
ag8
(g10
S'T\xd0j4\xb1\xa4e?'
tRp930
ag8
(g10
S'\x00\xd0j4\xb1\xa4e?'
tRp931
aasg108
g109
((lp932
S'ENSG00000123689'
p933
aS'ENSG00000128311'
p934
aS'ENSG00000069020'
p935
aS'ENSG00000130653'
p936
aS'ENSG00000124019'
p937
aS'ENSG00000211445'
p938
aS'ENSG00000137968'
p939
aS'ENSG00000174080'
p940
aS'ENSG00000120051'
p941
aS'ENSG00000006453'
p942
aS'ENSG00000213171'
p943
aS'ENSG00000138448'
p944
atRp945
ssS'brown'
p946
(dp947
g108
g109
((lp948
S'ENSG00000203867'
p949
aS'ENSG00000132016'
p950
aS'ENSG00000173175'
p951
aS'ENSG00000133983'
p952
aS'ENSG00000115935'
p953
aS'ENSG00000138459'
p954
aS'ENSG00000138363'
p955
aS'ENSG00000111666'
p956
aS'ENSG00000154813'
p957
aS'ENSG00000132819'
p958
aS'ENSG00000101019'
p959
aS'ENSG00000178996'
p960
aS'ENSG00000255394'
p961
aS'ENSG00000184117'
p962
aS'ENSG00000174652'
p963
aS'ENSG00000151067'
p964
aS'ENSG00000128274'
p965
aS'ENSG00000169131'
p966
aS'ENSG00000196466'
p967
aS'ENSG00000161647'
p968
aS'ENSG00000115902'
p969
aS'ENSG00000153827'
p970
aS'ENSG00000086504'
p971
aS'ENSG00000206044'
p972
aS'ENSG00000007372'
p973
aS'ENSG00000146535'
p974
aS'ENSG00000006625'
p975
aS'ENSG00000198160'
p976
aS'ENSG00000240849'
p977
aS'ENSG00000135521'
p978
aS'ENSG00000101181'
p979
aS'ENSG00000242247'
p980
aS'ENSG00000144230'
p981
aS'ENSG00000115194'
p982
aS'ENSG00000204673'
p983
aS'ENSG00000136932'
p984
aS'ENSG00000111224'
p985
aS'ENSG00000131100'
p986
aS'ENSG00000141744'
p987
aS'ENSG00000167904'
p988
aS'ENSG00000129116'
p989
aS'ENSG00000189334'
p990
aS'ENSG00000116871'
p991
aS'ENSG00000050767'
p992
aS'ENSG00000136144'
p993
aS'ENSG00000174527'
p994
aS'ENSG00000105792'
p995
atRp996
ssS'turquoise'
p997
(dp998
g108
g109
((lp999
S'ENSG00000129696'
p1000
aS'ENSG00000174684'
p1001
aS'ENSG00000066185'
p1002
aS'ENSG00000184451'
p1003
aS'ENSG00000182263'
p1004
aS'ENSG00000175040'
p1005
aS'ENSG00000205643'
p1006
aS'ENSG00000135698'
p1007
aS'ENSG00000164465'
p1008
aS'ENSG00000167671'
p1009
aS'ENSG00000157103'
p1010
aS'ENSG00000188803'
p1011
aS'ENSG00000118946'
p1012
aS'ENSG00000167608'
p1013
aS'ENSG00000154096'
p1014
aS'ENSG00000143257'
p1015
aS'ENSG00000129515'
p1016
aS'ENSG00000140153'
p1017
aS'ENSG00000131055'
p1018
aS'ENSG00000168818'
p1019
aS'ENSG00000135439'
p1020
aS'ENSG00000129244'
p1021
aS'ENSG00000180785'
p1022
aS'ENSG00000166526'
p1023
aS'ENSG00000258405'
p1024
aS'ENSG00000167528'
p1025
aS'ENSG00000007944'
p1026
aS'ENSG00000142794'
p1027
aS'ENSG00000162882'
p1028
aS'ENSG00000166233'
p1029
aS'ENSG00000088298'
p1030
aS'ENSG00000109472'
p1031
aS'ENSG00000196155'
p1032
aS'ENSG00000102606'
p1033
aS'ENSG00000106560'
p1034
aS'ENSG00000122512'
p1035
aS'ENSG00000107815'
p1036
aS'ENSG00000187498'
p1037
aS'ENSG00000133997'
p1038
aS'ENSG00000105131'
p1039
aS'ENSG00000198721'
p1040
aS'ENSG00000154781'
p1041
aS'ENSG00000132406'
p1042
aS'ENSG00000180616'
p1043
aS'ENSG00000024422'
p1044
aS'ENSG00000152492'
p1045
aS'ENSG00000101000'
p1046
aS'ENSG00000042429'
p1047
aS'ENSG00000118680'
p1048
aS'ENSG00000174938'
p1049
aS'ENSG00000205106'
p1050
aS'ENSG00000072832'
p1051
aS'ENSG00000164258'
p1052
aS'ENSG00000186448'
p1053
aS'ENSG00000110888'
p1054
aS'ENSG00000141314'
p1055
atRp1056
ssS'wheat3'
p1057
(dp1058
g4
(lp1059
(lp1060
S'ENSG00000189410'
p1061
aFinf
ag8
(g10
S'o\x84\x85\x81\xdd\r{?'
tRp1062
ag8
(g10
S'\xc0\xfc\xb8\x15\xfe\xf6\x8a?'
tRp1063
aasg108
g109
((lp1064
S'ENSG00000182752'
p1065
aS'ENSG00000144455'
p1066
aS'ENSG00000197775'
p1067
aS'ENSG00000187630'
p1068
aS'ENSG00000166130'
p1069
aS'ENSG00000177181'
p1070
aS'ENSG00000206503'
p1071
aS'ENSG00000091136'
p1072
aS'ENSG00000186638'
p1073
aS'ENSG00000157326'
p1074
aS'ENSG00000003436'
p1075
aS'ENSG00000204644'
p1076
aS'ENSG00000204525'
p1077
aS'ENSG00000122986'
p1078
atRp1079
ssS'antiquewhite3'
p1080
(dp1081
g4
(lp1082
(lp1083
S'ENSG00000246090'
p1084
aFinf
ag8
(g10
S'H\xd0j4\xb1\xa4U?'
tRp1085
ag8
(g10
S'\x80\x99\xa78\x086p?'
tRp1086
aa(lp1087
S'ENSG00000163359'
p1088
aFinf
ag8
(g10
S' \x19P\xe7\x84;p?'
tRp1089
ag8
(g10
S'\x00\x8c\xb4\xf3H3\x80?'
tRp1090
aasg108
g109
((lp1091
S'ENSG00000007341'
p1092
aS'ENSG00000135587'
p1093
aS'ENSG00000109576'
p1094
aS'ENSG00000144847'
p1095
aS'ENSG00000090581'
p1096
aS'ENSG00000177192'
p1097
aS'ENSG00000165392'
p1098
aS'ENSG00000167302'
p1099
aS'ENSG00000145002'
p1100
aS'ENSG00000108264'
p1101
aS'ENSG00000088992'
p1102
aS'ENSG00000119599'
p1103
aS'ENSG00000006114'
p1104
atRp1105
ssS'antiquewhite2'
p1106
(dp1107
g4
(lp1108
(lp1109
S'ENSG00000099954'
p1110
ag8
(g10
S'\xcd\xcc\xcc\xcc\xcc\xccH@'
tRp1111
ag8
(g10
S'\xcd\x90\xed\xa4fd`?'
tRp1112
ag8
(g10
S'\xe0N\x92\xec\x84N\x94?'
tRp1113
aasg108
g109
((lp1114
S'ENSG00000099995'
p1115
aS'ENSG00000104213'
p1116
aS'ENSG00000004487'
p1117
aS'ENSG00000143387'
p1118
aS'ENSG00000174348'
p1119
aS'ENSG00000161381'
p1120
aS'ENSG00000141756'
p1121
aS'ENSG00000105894'
p1122
aS'ENSG00000120820'
p1123
aS'ENSG00000174194'
p1124
aS'ENSG00000197980'
p1125
aS'ENSG00000087245'
p1126
aS'ENSG00000227345'
p1127
aS'ENSG00000035862'
p1128
aS'ENSG00000175356'
p1129
aS'ENSG00000116774'
p1130
aS'ENSG00000113805'
p1131
aS'ENSG00000135318'
p1132
aS'ENSG00000135828'
p1133
aS'ENSG00000106333'
p1134
atRp1135
ssS'antiquewhite1'
p1136
(dp1137
g108
g109
((lp1138
S'ENSG00000267260'
p1139
aS'ENSG00000100351'
p1140
aS'ENSG00000174032'
p1141
aS'ENSG00000154803'
p1142
aS'ENSG00000130312'
p1143
aS'ENSG00000203791'
p1144
aS'ENSG00000152315'
p1145
aS'ENSG00000197498'
p1146
aS'ENSG00000055732'
p1147
aS'ENSG00000135218'
p1148
aS'ENSG00000165406'
p1149
aS'ENSG00000124406'
p1150
aS'ENSG00000156239'
p1151
aS'ENSG00000105447'
p1152
aS'ENSG00000049860'
p1153
aS'ENSG00000126773'
p1154
aS'ENSG00000143994'
p1155
aS'ENSG00000173457'
p1156
atRp1157
ssS'antiquewhite4'
p1158
(dp1159
g108
g109
((lp1160
S'ENSG00000117114'
p1161
aS'ENSG00000196648'
p1162
aS'ENSG00000164080'
p1163
aS'ENSG00000158856'
p1164
aS'ENSG00000084072'
p1165
aS'ENSG00000088053'
p1166
aS'ENSG00000204764'
p1167
aS'ENSG00000144118'
p1168
aS'ENSG00000197467'
p1169
aS'ENSG00000010810'
p1170
aS'ENSG00000140534'
p1171
aS'ENSG00000114541'
p1172
aS'ENSG00000174125'
p1173
aS'ENSG00000147324'
p1174
aS'ENSG00000112769'
p1175
aS'ENSG00000132821'
p1176
aS'ENSG00000065320'
p1177
aS'ENSG00000174669'
p1178
aS'ENSG00000150687'
p1179
aS'ENSG00000132792'
p1180
aS'ENSG00000227921'
p1181
aS'ENSG00000116120'
p1182
aS'ENSG00000100154'
p1183
aS'ENSG00000132423'
p1184
atRp1185
ssS'indianred4'
p1186
(dp1187
g108
g109
((lp1188
S'ENSG00000115526'
p1189
aS'ENSG00000182327'
p1190
aS'ENSG00000026297'
p1191
aS'ENSG00000173714'
p1192
aS'ENSG00000151092'
p1193
aS'ENSG00000165650'
p1194
aS'ENSG00000136869'
p1195
aS'ENSG00000152291'
p1196
aS'ENSG00000087884'
p1197
aS'ENSG00000179889'
p1198
aS'ENSG00000204323'
p1199
aS'ENSG00000196267'
p1200
aS'ENSG00000196655'
p1201
aS'ENSG00000165646'
p1202
aS'ENSG00000105497'
p1203
aS'ENSG00000106018'
p1204
aS'ENSG00000168397'
p1205
aS'ENSG00000119147'
p1206
aS'ENSG00000141252'
p1207
aS'ENSG00000198466'
p1208
aS'ENSG00000254685'
p1209
aS'ENSG00000112280'
p1210
aS'ENSG00000223510'
p1211
atRp1212
ssS'yellow'
p1213
(dp1214
g108
g109
((lp1215
S'ENSG00000158716'
p1216
aS'ENSG00000136048'
p1217
aS'ENSG00000151576'
p1218
aS'ENSG00000114631'
p1219
aS'ENSG00000174373'
p1220
aS'ENSG00000226479'
p1221
aS'ENSG00000168404'
p1222
aS'ENSG00000177414'
p1223
aS'ENSG00000048649'
p1224
aS'ENSG00000113916'
p1225
aS'ENSG00000167895'
p1226
aS'ENSG00000047457'
p1227
aS'ENSG00000203797'
p1228
aS'ENSG00000063660'
p1229
aS'ENSG00000067182'
p1230
aS'ENSG00000099991'
p1231
aS'ENSG00000141384'
p1232
aS'ENSG00000104381'
p1233
aS'ENSG00000150594'
p1234
aS'ENSG00000146112'
p1235
aS'ENSG00000144229'
p1236
aS'ENSG00000197859'
p1237
aS'ENSG00000147813'
p1238
aS'ENSG00000204084'
p1239
aS'ENSG00000196542'
p1240
aS'ENSG00000139910'
p1241
aS'ENSG00000065609'
p1242
aS'ENSG00000163040'
p1243
aS'ENSG00000174514'
p1244
aS'ENSG00000163565'
p1245
aS'ENSG00000186020'
p1246
aS'ENSG00000010539'
p1247
aS'ENSG00000197905'
p1248
aS'ENSG00000138246'
p1249
aS'ENSG00000198909'
p1250
aS'ENSG00000100197'
p1251
aS'ENSG00000178927'
p1252
aS'ENSG00000129465'
p1253
aS'ENSG00000019991'
p1254
aS'ENSG00000185201'
p1255
aS'ENSG00000028528'
p1256
aS'ENSG00000124249'
p1257
aS'ENSG00000143185'
p1258
aS'ENSG00000136451'
p1259
atRp1260
ssS'lightsteelblue'
p1261
(dp1262
g108
g109
((lp1263
S'ENSG00000172301'
p1264
aS'ENSG00000196923'
p1265
aS'ENSG00000065802'
p1266
aS'ENSG00000020577'
p1267
aS'ENSG00000164181'
p1268
aS'ENSG00000122786'
p1269
aS'ENSG00000150938'
p1270
aS'ENSG00000163431'
p1271
aS'ENSG00000271605'
p1272
aS'ENSG00000157617'
p1273
aS'ENSG00000072110'
p1274
aS'ENSG00000139874'
p1275
aS'ENSG00000140511'
p1276
aS'ENSG00000148200'
p1277
aS'ENSG00000103657'
p1278
aS'ENSG00000112214'
p1279
aS'ENSG00000163702'
p1280
aS'ENSG00000134198'
p1281
aS'ENSG00000152382'
p1282
aS'ENSG00000117174'
p1283
aS'ENSG00000106772'
p1284
aS'ENSG00000132275'
p1285
aS'ENSG00000076258'
p1286
atRp1287
ssS'bisque4'
p1288
(dp1289
g4
(lp1290
(lp1291
S'ENSG00000137804'
p1292
ag8
(g10
S'UUUUU)\x8b@'
tRp1293
ag8
(g10
S'\x86\x94\xad\xcf{\xf6E='
tRp1294
ag8
(g10
S'\x00\x00\x00\x00\xe0\xd1\xa0='
tRp1295
aa(lp1296
S'ENSG00000148773'
p1297
ag8
(g10
S'\x00\x00\x00\x00\x00v\x81@'
tRp1298
ag8
(g10
S'\xad\x19\x11\xe3\xa6\x00\xb9='
tRp1299
ag8
(g10
S'\x00\x00\x00\x00~\xc0\x12>'
tRp1300
aa(lp1301
S'ENSG00000131747'
p1302
ag8
(g10
S'UUUUU\x15\x7f@'
tRp1303
ag8
(g10
S'M\x1f\x00\xaf\x9e\xa1t>'
tRp1304
ag8
(g10
S'\x00\x00X\x8e]M\xce>'
tRp1305
aa(lp1306
S'ENSG00000170312'
p1307
ag8
(g10
S'\x00\x00\x00\x00\x00Pg@'
tRp1308
ag8
(g10
S'O\x05\x9cf\\\xb3>?'
tRp1309
ag8
(g10
S'\xa03\xaa(\xc8\xd5\x95?'
tRp1310
aasg108
g109
((lp1311
S'ENSG00000117650'
p1312
aS'ENSG00000142731'
p1313
aS'ENSG00000204991'
p1314
aS'ENSG00000107902'
p1315
aS'ENSG00000024526'
p1316
aS'ENSG00000106853'
p1317
aS'ENSG00000101447'
p1318
aS'ENSG00000100162'
p1319
aS'ENSG00000108947'
p1320
aS'ENSG00000013810'
p1321
aS'ENSG00000131153'
p1322
aS'ENSG00000127423'
p1323
aS'ENSG00000120159'
p1324
aS'ENSG00000171102'
p1325
aS'ENSG00000117640'
p1326
aS'ENSG00000178999'
p1327
aS'ENSG00000123219'
p1328
aS'ENSG00000105011'
p1329
aS'ENSG00000196584'
p1330
aS'ENSG00000143575'
p1331
aS'ENSG00000148773'
p1332
aS'ENSG00000187741'
p1333
aS'ENSG00000152253'
p1334
aS'ENSG00000125445'
p1335
atRp1336
ssS'cyan'
p1337
(dp1338
g108
g109
((lp1339
S'ENSG00000151632'
p1340
aS'ENSG00000185163'
p1341
aS'ENSG00000269302'
p1342
aS'ENSG00000071894'
p1343
aS'ENSG00000155085'
p1344
aS'ENSG00000164344'
p1345
aS'ENSG00000116560'
p1346
aS'ENSG00000244165'
p1347
aS'ENSG00000168917'
p1348
aS'ENSG00000145476'
p1349
aS'ENSG00000100038'
p1350
aS'ENSG00000174928'
p1351
aS'ENSG00000171811'
p1352
aS'ENSG00000178078'
p1353
aS'ENSG00000183250'
p1354
aS'ENSG00000118200'
p1355
aS'ENSG00000196247'
p1356
aS'ENSG00000136518'
p1357
aS'ENSG00000250317'
p1358
aS'ENSG00000187134'
p1359
aS'ENSG00000109794'
p1360
aS'ENSG00000189067'
p1361
aS'ENSG00000106443'
p1362
aS'ENSG00000085465'
p1363
aS'ENSG00000125821'
p1364
aS'ENSG00000124787'
p1365
aS'ENSG00000250571'
p1366
aS'ENSG00000160305'
p1367
aS'ENSG00000174606'
p1368
aS'ENSG00000103326'
p1369
aS'ENSG00000050426'
p1370
aS'ENSG00000181074'
p1371
atRp1372
ssS'navajowhite3'
p1373
(dp1374
g108
g109
((lp1375
S'ENSG00000164118'
p1376
aS'ENSG00000144674'
p1377
aS'ENSG00000102189'
p1378
aS'ENSG00000126602'
p1379
aS'ENSG00000146414'
p1380
aS'ENSG00000161180'
p1381
aS'ENSG00000171853'
p1382
aS'ENSG00000197102'
p1383
aS'ENSG00000107959'
p1384
aS'ENSG00000123384'
p1385
aS'ENSG00000172869'
p1386
aS'ENSG00000130856'
p1387
aS'ENSG00000197181'
p1388
aS'ENSG00000106460'
p1389
aS'ENSG00000064933'
p1390
aS'ENSG00000136371'
p1391
atRp1392
ssS'yellow3'
p1393
(dp1394
g4
(lp1395
(lp1396
S'ENSG00000106258'
p1397
aFinf
ag8
(g10
S'L\x1cP\xe7\x84;p?'
tRp1398
ag8
(g10
S'\x80\x8f\xb4\xf3H3\x80?'
tRp1399
aa(lp1400
S'ENSG00000161281'
p1401
ag8
(g10
S'\x00\x00\x00\x00\x00\x80g@'
tRp1402
ag8
(g10
S'\x00\xc0F\xbd\xcbH\x88?'
tRp1403
ag8
(g10
S'\x00\xc0F\xbd\xcbH\x88?'
tRp1404
aasg108
g109
((lp1405
S'ENSG00000132141'
p1406
aS'ENSG00000138795'
p1407
aS'ENSG00000177963'
p1408
aS'ENSG00000143882'
p1409
aS'ENSG00000126432'
p1410
aS'ENSG00000173218'
p1411
aS'ENSG00000168268'
p1412
aS'ENSG00000142082'
p1413
aS'ENSG00000137409'
p1414
aS'ENSG00000155729'
p1415
aS'ENSG00000071967'
p1416
aS'ENSG00000185909'
p1417
aS'ENSG00000143303'
p1418
aS'ENSG00000134744'
p1419
aS'ENSG00000203667'
p1420
aS'ENSG00000120215'
p1421
aS'ENSG00000178585'
p1422
aS'ENSG00000052749'
p1423
aS'ENSG00000159239'
p1424
aS'ENSG00000173113'
p1425
atRp1426
ssS'mediumorchid3'
p1427
(dp1428
g108
g109
((lp1429
S'ENSG00000197124'
p1430
aS'ENSG00000168813'
p1431
aS'ENSG00000213462'
p1432
aS'ENSG00000128185'
p1433
aS'ENSG00000188690'
p1434
aS'ENSG00000150316'
p1435
aS'ENSG00000115685'
p1436
aS'ENSG00000152926'
p1437
aS'ENSG00000125534'
p1438
aS'ENSG00000104679'
p1439
aS'ENSG00000196683'
p1440
aS'ENSG00000241553'
p1441
aS'ENSG00000165502'
p1442
aS'ENSG00000146540'
p1443
atRp1444
ssS'bisque3'
p1445
(dp1446
g4
(lp1447
(lp1448
S'ENSG00000164330'
p1449
aFinf
ag8
(g10
S'T\xd0j4\xb1\xa4e?'
tRp1450
ag8
(g10
S'\xa0\xe7\xf4\xb5/\x84\xa6?'
tRp1451
aa(lp1452
S'ENSG00000180447'
p1453
aFinf
ag8
(g10
S'T\xd0j4\xb1\xa4e?'
tRp1454
ag8
(g10
S'\xa0\xe7\xf4\xb5/\x84\xa6?'
tRp1455
aasg108
g109
((lp1456
S'ENSG00000180773'
p1457
aS'ENSG00000007129'
p1458
aS'ENSG00000167770'
p1459
aS'ENSG00000145781'
p1460
aS'ENSG00000169914'
p1461
aS'ENSG00000182362'
p1462
aS'ENSG00000218537'
p1463
aS'ENSG00000156869'
p1464
aS'ENSG00000099977'
p1465
aS'ENSG00000129167'
p1466
aS'ENSG00000184674'
p1467
atRp1468
ssS'skyblue'
p1469
(dp1470
g108
g109
((lp1471
S'ENSG00000163491'
p1472
aS'ENSG00000166788'
p1473
aS'ENSG00000011638'
p1474
aS'ENSG00000143545'
p1475
aS'ENSG00000235863'
p1476
aS'ENSG00000138382'
p1477
aS'ENSG00000076924'
p1478
aS'ENSG00000136197'
p1479
aS'ENSG00000164122'
p1480
aS'ENSG00000104756'
p1481
aS'ENSG00000170954'
p1482
aS'ENSG00000196526'
p1483
aS'ENSG00000085231'
p1484
aS'ENSG00000116574'
p1485
aS'ENSG00000169609'
p1486
aS'ENSG00000180953'
p1487
aS'ENSG00000175262'
p1488
aS'ENSG00000206127'
p1489
aS'ENSG00000067334'
p1490
aS'ENSG00000108786'
p1491
aS'ENSG00000198912'
p1492
aS'ENSG00000142156'
p1493
aS'ENSG00000183570'
p1494
aS'ENSG00000198633'
p1495
aS'ENSG00000130943'
p1496
aS'ENSG00000158486'
p1497
aS'ENSG00000122033'
p1498
aS'ENSG00000066855'
p1499
aS'ENSG00000182993'
p1500
atRp1501
ssS'darkturquoise'
p1502
(dp1503
g108
g109
((lp1504
S'ENSG00000080815'
p1505
aS'ENSG00000171502'
p1506
aS'ENSG00000002587'
p1507
aS'ENSG00000149474'
p1508
aS'ENSG00000196628'
p1509
aS'ENSG00000138386'
p1510
aS'ENSG00000170899'
p1511
aS'ENSG00000139343'
p1512
aS'ENSG00000169583'
p1513
aS'ENSG00000197785'
p1514
aS'ENSG00000152818'
p1515
aS'ENSG00000197872'
p1516
aS'ENSG00000106070'
p1517
aS'ENSG00000163239'
p1518
aS'ENSG00000132507'
p1519
aS'ENSG00000185088'
p1520
aS'ENSG00000206418'
p1521
aS'ENSG00000072736'
p1522
aS'ENSG00000144681'
p1523
aS'ENSG00000176834'
p1524
aS'ENSG00000115816'
p1525
aS'ENSG00000181827'
p1526
aS'ENSG00000132394'
p1527
aS'ENSG00000108001'
p1528
aS'ENSG00000137672'
p1529
aS'ENSG00000172009'
p1530
aS'ENSG00000068078'
p1531
aS'ENSG00000141577'
p1532
aS'ENSG00000136237'
p1533
aS'ENSG00000197170'
p1534
atRp1535
ssS'cyan1'
p1536
(dp1537
g4
(lp1538
(lp1539
S'ENSG00000226083'
p1540
aFinf
ag8
(g10
S'H\xd0j4\xb1\xa4U?'
tRp1541
ag8
(g10
S'\x00\x91^V\x08\xa1e?'
tRp1542
aa(lp1543
S'ENSG00000271860'
p1544
aFinf
ag8
(g10
S'b\xd4j4\xb1\xa4e?'
tRp1545
ag8
(g10
S'\x00\xd4j4\xb1\xa4e?'
tRp1546
aasg108
g109
((lp1547
S'ENSG00000167693'
p1548
aS'ENSG00000140006'
p1549
aS'ENSG00000167780'
p1550
aS'ENSG00000144741'
p1551
aS'ENSG00000100075'
p1552
aS'ENSG00000163959'
p1553
aS'ENSG00000157379'
p1554
aS'ENSG00000139624'
p1555
atRp1556
ssS'darkgreen'
p1557
(dp1558
g108
g109
((lp1559
S'ENSG00000128789'
p1560
aS'ENSG00000112110'
p1561
aS'ENSG00000198276'
p1562
aS'ENSG00000163328'
p1563
aS'ENSG00000218739'
p1564
aS'ENSG00000151413'
p1565
aS'ENSG00000085733'
p1566
aS'ENSG00000145681'
p1567
aS'ENSG00000075336'
p1568
aS'ENSG00000144306'
p1569
aS'ENSG00000123124'
p1570
aS'ENSG00000157540'
p1571
aS'ENSG00000081791'
p1572
aS'ENSG00000151806'
p1573
aS'ENSG00000179604'
p1574
aS'ENSG00000172115'
p1575
aS'ENSG00000077463'
p1576
aS'ENSG00000119689'
p1577
aS'ENSG00000160352'
p1578
aS'ENSG00000168306'
p1579
aS'ENSG00000175820'
p1580
aS'ENSG00000156172'
p1581
aS'ENSG00000155463'
p1582
aS'ENSG00000025770'
p1583
aS'ENSG00000164346'
p1584
aS'ENSG00000087470'
p1585
aS'ENSG00000169136'
p1586
aS'ENSG00000169592'
p1587
aS'ENSG00000204370'
p1588
aS'ENSG00000119638'
p1589
atRp1590
ssS'rosybrown4'
p1591
(dp1592
g4
(lp1593
(lp1594
S'ENSG00000131711'
p1595
aFinf
ag8
(g10
S'_\xd0j4\xb1\xa4u?'
tRp1596
ag8
(g10
S'\xe0(\xeaX\xeex\x95?'
tRp1597
aasg108
g109
((lp1598
S'ENSG00000188610'
p1599
aS'ENSG00000008517'
p1600
aS'ENSG00000185437'
p1601
aS'ENSG00000141750'
p1602
aS'ENSG00000187624'
p1603
aS'ENSG00000129451'
p1604
aS'ENSG00000107890'
p1605
aS'ENSG00000166558'
p1606
aS'ENSG00000103248'
p1607
aS'ENSG00000100483'
p1608
aS'ENSG00000164308'
p1609
aS'ENSG00000188710'
p1610
aS'ENSG00000103154'
p1611
atRp1612
ssS'darkviolet'
p1613
(dp1614
g4
(lp1615
(lp1616
S'ENSG00000147113'
p1617
ag8
(g10
S'UUUUUUo@'
tRp1618
ag8
(g10
S'\x8d1\x89\xe2\xb2\x99\x85?'
tRp1619
ag8
(g10
S'P<\x18C\xd4B\xa5?'
tRp1620
aasg108
g109
((lp1621
S'ENSG00000080293'
p1622
aS'ENSG00000196511'
p1623
aS'ENSG00000135930'
p1624
aS'ENSG00000147576'
p1625
aS'ENSG00000088833'
p1626
aS'ENSG00000152465'
p1627
aS'ENSG00000148468'
p1628
aS'ENSG00000108379'
p1629
aS'ENSG00000143786'
p1630
aS'ENSG00000167644'
p1631
aS'ENSG00000184363'
p1632
aS'ENSG00000257242'
p1633
aS'ENSG00000254415'
p1634
aS'ENSG00000124164'
p1635
aS'ENSG00000127955'
p1636
aS'ENSG00000198087'
p1637
aS'ENSG00000163762'
p1638
aS'ENSG00000168026'
p1639
aS'ENSG00000123977'
p1640
aS'ENSG00000049449'
p1641
aS'ENSG00000189337'
p1642
aS'ENSG00000131435'
p1643
atRp1644
ssS'slateblue3'
p1645
(dp1646
g4
(lp1647
(lp1648
S'ENSG00000261437'
p1649
ag8
(g10
S'\x00\x00\x00\x00\x00@o@'
tRp1650
ag8
(g10
S'\xcaU\x1a\x9a\x8fV+?'
tRp1651
ag8
(g10
S'\xc0\xe2G\xc2\xe7P\x8a?'
tRp1652
aasg108
g109
((lp1653
S'ENSG00000230567'
p1654
aS'ENSG00000136699'
p1655
aS'ENSG00000103197'
p1656
aS'ENSG00000197978'
p1657
aS'ENSG00000096088'
p1658
aS'ENSG00000198033'
p1659
aS'ENSG00000069011'
p1660
aS'ENSG00000215375'
p1661
aS'ENSG00000185869'
p1662
aS'ENSG00000104826'
p1663
aS'ENSG00000165474'
p1664
aS'ENSG00000114204'
p1665
aS'ENSG00000229183'
p1666
atRp1667
ssS'slateblue2'
p1668
(dp1669
g108
g109
((lp1670
S'ENSG00000120688'
p1671
aS'ENSG00000197217'
p1672
aS'ENSG00000203485'
p1673
aS'ENSG00000198089'
p1674
aS'ENSG00000163291'
p1675
aS'ENSG00000151967'
p1676
aS'ENSG00000137944'
p1677
aS'ENSG00000150401'
p1678
aS'ENSG00000214706'
p1679
aS'ENSG00000144021'
p1680
aS'ENSG00000119138'
p1681
aS'ENSG00000204536'
p1682
aS'ENSG00000186063'
p1683
aS'ENSG00000137266'
p1684
atRp1685
ssS'slateblue1'
p1686
(dp1687
g108
g109
((lp1688
S'ENSG00000172247'
p1689
aS'ENSG00000115464'
p1690
aS'ENSG00000116151'
p1691
aS'ENSG00000214941'
p1692
aS'ENSG00000140650'
p1693
aS'ENSG00000198182'
p1694
aS'ENSG00000237440'
p1695
aS'ENSG00000124102'
p1696
aS'ENSG00000238083'
p1697
aS'ENSG00000079150'
p1698
aS'ENSG00000180185'
p1699
aS'ENSG00000119979'
p1700
aS'ENSG00000176681'
p1701
aS'ENSG00000105329'
p1702
aS'ENSG00000185829'
p1703
atRp1704
ssS'indianred1'
p1705
(dp1706
g108
g109
((lp1707
S'ENSG00000180884'
p1708
aS'ENSG00000123179'
p1709
aS'ENSG00000108946'
p1710
aS'ENSG00000145685'
p1711
aS'ENSG00000131558'
p1712
aS'ENSG00000107566'
p1713
aS'ENSG00000129521'
p1714
aS'ENSG00000188038'
p1715
aS'ENSG00000152256'
p1716
aS'ENSG00000135124'
p1717
aS'ENSG00000138757'
p1718
aS'ENSG00000135605'
p1719
aS'ENSG00000125731'
p1720
aS'ENSG00000196968'
p1721
aS'ENSG00000204851'
p1722
atRp1723
ssS'lightpink'
p1724
(dp1725
g4
(lp1726
(lp1727
S'ENSG00000150768'
p1728
ag8
(g10
S'\x00\x00\x00\x00\x00\x18G@'
tRp1729
ag8
(g10
S'\x8b]\xb2w\xb0\xc0\xa6?'
tRp1730
ag8
(g10
S'\x90]\xb2w\xb0\xc0\xa6?'
tRp1731
aasg108
g109
((lp1732
S'ENSG00000182903'
p1733
aS'ENSG00000182512'
p1734
aS'ENSG00000164494'
p1735
aS'ENSG00000180008'
p1736
aS'ENSG00000160401'
p1737
aS'ENSG00000169220'
p1738
aS'ENSG00000132763'
p1739
aS'ENSG00000173065'
p1740
aS'ENSG00000261247'
p1741
aS'ENSG00000261794'
p1742
aS'ENSG00000256771'
p1743
aS'ENSG00000166664'
p1744
aS'ENSG00000116874'
p1745
aS'ENSG00000164631'
p1746
atRp1747
ssS'red'
p1748
(dp1749
g108
g109
((lp1750
S'ENSG00000182087'
p1751
aS'ENSG00000113318'
p1752
aS'ENSG00000103502'
p1753
aS'ENSG00000091262'
p1754
aS'ENSG00000185274'
p1755
aS'ENSG00000103723'
p1756
aS'ENSG00000100991'
p1757
aS'ENSG00000109445'
p1758
aS'ENSG00000125871'
p1759
aS'ENSG00000037474'
p1760
aS'ENSG00000140406'
p1761
aS'ENSG00000214026'
p1762
aS'ENSG00000162585'
p1763
aS'ENSG00000171044'
p1764
aS'ENSG00000188342'
p1765
aS'ENSG00000011132'
p1766
aS'ENSG00000165915'
p1767
aS'ENSG00000161202'
p1768
aS'ENSG00000170955'
p1769
aS'ENSG00000167526'
p1770
aS'ENSG00000076003'
p1771
aS'ENSG00000103254'
p1772
aS'ENSG00000136111'
p1773
aS'ENSG00000167543'
p1774
aS'ENSG00000090238'
p1775
aS'ENSG00000161203'
p1776
aS'ENSG00000135686'
p1777
aS'ENSG00000165355'
p1778
aS'ENSG00000161179'
p1779
aS'ENSG00000127325'
p1780
aS'ENSG00000105698'
p1781
aS'ENSG00000198816'
p1782
aS'ENSG00000133661'
p1783
aS'ENSG00000153774'
p1784
aS'ENSG00000214022'
p1785
aS'ENSG00000148730'
p1786
aS'ENSG00000074755'
p1787
aS'ENSG00000198467'
p1788
aS'ENSG00000130511'
p1789
aS'ENSG00000218891'
p1790
atRp1791
ssS'limegreen'
p1792
(dp1793
g108
g109
((lp1794
S'ENSG00000144445'
p1795
aS'ENSG00000130699'
p1796
aS'ENSG00000146282'
p1797
aS'ENSG00000172159'
p1798
aS'ENSG00000166938'
p1799
aS'ENSG00000133895'
p1800
aS'ENSG00000103671'
p1801
aS'ENSG00000212127'
p1802
aS'ENSG00000137135'
p1803
aS'ENSG00000111215'
p1804
atRp1805
ssS'darkmagenta'
p1806
(dp1807
g108
g109
((lp1808
S'ENSG00000186230'
p1809
aS'ENSG00000138675'
p1810
aS'ENSG00000115290'
p1811
aS'ENSG00000184925'
p1812
aS'ENSG00000122218'
p1813
aS'ENSG00000129933'
p1814
aS'ENSG00000188641'
p1815
aS'ENSG00000102452'
p1816
aS'ENSG00000115808'
p1817
aS'ENSG00000128989'
p1818
aS'ENSG00000114850'
p1819
aS'ENSG00000214046'
p1820
aS'ENSG00000188000'
p1821
aS'ENSG00000138600'
p1822
aS'ENSG00000162409'
p1823
aS'ENSG00000162572'
p1824
aS'ENSG00000137204'
p1825
aS'ENSG00000119718'
p1826
aS'ENSG00000161692'
p1827
aS'ENSG00000091651'
p1828
aS'ENSG00000138119'
p1829
aS'ENSG00000134253'
p1830
aS'ENSG00000119227'
p1831
aS'ENSG00000146215'
p1832
aS'ENSG00000164972'
p1833
aS'ENSG00000092439'
p1834
atRp1835
ssS'indianred3'
p1836
(dp1837
g108
g109
((lp1838
S'ENSG00000154263'
p1839
aS'ENSG00000164124'
p1840
aS'ENSG00000150756'
p1841
aS'ENSG00000100336'
p1842
aS'ENSG00000198848'
p1843
aS'ENSG00000110777'
p1844
aS'ENSG00000110042'
p1845
aS'ENSG00000120332'
p1846
aS'ENSG00000183255'
p1847
aS'ENSG00000196167'
p1848
aS'ENSG00000141338'
p1849
aS'ENSG00000135677'
p1850
aS'ENSG00000165929'
p1851
aS'ENSG00000214290'
p1852
aS'ENSG00000069702'
p1853
aS'ENSG00000168237'
p1854
aS'ENSG00000235750'
p1855
aS'ENSG00000064886'
p1856
aS'ENSG00000182985'
p1857
atRp1858
ssS'plum3'
p1859
(dp1860
g108
g109
((lp1861
S'ENSG00000075239'
p1862
aS'ENSG00000132024'
p1863
aS'ENSG00000160862'
p1864
aS'ENSG00000171219'
p1865
aS'ENSG00000140575'
p1866
aS'ENSG00000111275'
p1867
aS'ENSG00000186716'
p1868
aS'ENSG00000164904'
p1869
aS'ENSG00000092036'
p1870
aS'ENSG00000197885'
p1871
aS'ENSG00000158828'
p1872
aS'ENSG00000104325'
p1873
aS'ENSG00000188130'
p1874
aS'ENSG00000125775'
p1875
aS'ENSG00000101224'
p1876
aS'ENSG00000240764'
p1877
aS'ENSG00000214253'
p1878
aS'ENSG00000182054'
p1879
aS'ENSG00000106049'
p1880
aS'ENSG00000112357'
p1881
aS'ENSG00000129158'
p1882
aS'ENSG00000138777'
p1883
atRp1884
ssS'plum2'
p1885
(dp1886
g4
(lp1887
(lp1888
S'ENSG00000224347'
p1889
aFinf
ag8
(g10
S'L\x1cP\xe7\x84;p?'
tRp1890
ag8
(g10
S'\x80\x8f\xb4\xf3H3\x80?'
tRp1891
aa(lp1892
S'ENSG00000049283'
p1893
ag8
(g10
S'\x00\x00\x00\x00\x00\x88w@'
tRp1894
ag8
(g10
S'\x1f]_\xbe\x056\x80?'
tRp1895
ag8
(g10
S'\x00]_\xbe\x056\x80?'
tRp1896
aasg108
g109
((lp1897
S'ENSG00000107669'
p1898
aS'ENSG00000131504'
p1899
aS'ENSG00000122481'
p1900
aS'ENSG00000006652'
p1901
aS'ENSG00000186792'
p1902
aS'ENSG00000086015'
p1903
aS'ENSG00000138381'
p1904
aS'ENSG00000108797'
p1905
aS'ENSG00000119812'
p1906
aS'ENSG00000064225'
p1907
aS'ENSG00000179588'
p1908
aS'ENSG00000075790'
p1909
aS'ENSG00000170915'
p1910
aS'ENSG00000176920'
p1911
aS'ENSG00000130529'
p1912
aS'ENSG00000090020'
p1913
aS'ENSG00000187239'
p1914
aS'ENSG00000134882'
p1915
aS'ENSG00000114378'
p1916
aS'ENSG00000136383'
p1917
aS'ENSG00000125733'
p1918
aS'ENSG00000100983'
p1919
aS'ENSG00000150776'
p1920
aS'ENSG00000161055'
p1921
atRp1922
ssS'plum1'
p1923
(dp1924
g108
g109
((lp1925
S'ENSG00000113558'
p1926
aS'ENSG00000137274'
p1927
aS'ENSG00000117298'
p1928
aS'ENSG00000041357'
p1929
aS'ENSG00000171792'
p1930
aS'ENSG00000128805'
p1931
aS'ENSG00000161904'
p1932
aS'ENSG00000178175'
p1933
aS'ENSG00000117593'
p1934
aS'ENSG00000092871'
p1935
aS'ENSG00000109501'
p1936
aS'ENSG00000167720'
p1937
aS'ENSG00000137073'
p1938
aS'ENSG00000163848'
p1939
aS'ENSG00000166896'
p1940
aS'ENSG00000036530'
p1941
aS'ENSG00000112977'
p1942
aS'ENSG00000137413'
p1943
aS'ENSG00000100196'
p1944
aS'ENSG00000164171'
p1945
aS'ENSG00000152284'
p1946
aS'ENSG00000139537'
p1947
aS'ENSG00000180376'
p1948
aS'ENSG00000175832'
p1949
aS'ENSG00000122642'
p1950
aS'ENSG00000173548'
p1951
atRp1952
ssS'saddlebrown'
p1953
(dp1954
g4
(lp1955
(lp1956
S'ENSG00000159189'
p1957
ag8
(g10
S'6\x94\xd7P^CC@'
tRp1958
ag8
(g10
S'\xc7\xff$\x01zx:?'
tRp1959
ag8
(g10
S'\x00\x97\x9cIk\xad}?'
tRp1960
aasg108
g109
((lp1961
S'ENSG00000158714'
p1962
aS'ENSG00000176974'
p1963
aS'ENSG00000183748'
p1964
aS'ENSG00000115956'
p1965
aS'ENSG00000139547'
p1966
aS'ENSG00000120586'
p1967
aS'ENSG00000134575'
p1968
aS'ENSG00000167914'
p1969
aS'ENSG00000216490'
p1970
aS'ENSG00000128604'
p1971
aS'ENSG00000019169'
p1972
aS'ENSG00000164989'
p1973
aS'ENSG00000011600'
p1974
aS'ENSG00000115380'
p1975
aS'ENSG00000142185'
p1976
aS'ENSG00000104870'
p1977
aS'ENSG00000158869'
p1978
aS'ENSG00000112936'
p1979
aS'ENSG00000166927'
p1980
aS'ENSG00000166928'
p1981
aS'ENSG00000153208'
p1982
aS'ENSG00000224689'
p1983
aS'ENSG00000256043'
p1984
aS'ENSG00000163131'
p1985
aS'ENSG00000135108'
p1986
aS'ENSG00000196730'
p1987
aS'ENSG00000100979'
p1988
aS'ENSG00000173214'
p1989
atRp1990
ssS'lightgoldenrodyellow'
p1991
(dp1992
g108
g109
((lp1993
S'ENSG00000090263'
p1994
aS'ENSG00000142039'
p1995
aS'ENSG00000241106'
p1996
aS'ENSG00000112667'
p1997
aS'ENSG00000082212'
p1998
aS'ENSG00000101670'
p1999
aS'ENSG00000185808'
p2000
aS'ENSG00000126698'
p2001
aS'ENSG00000166263'
p2002
aS'ENSG00000196700'
p2003
aS'ENSG00000075340'
p2004
aS'ENSG00000164896'
p2005
aS'ENSG00000178752'
p2006
atRp2007
ssS'lavender'
p2008
(dp2009
g108
g109
((lp2010
S'ENSG00000153157'
p2011
aS'ENSG00000166436'
p2012
aS'ENSG00000167434'
p2013
aS'ENSG00000204659'
p2014
aS'ENSG00000170209'
p2015
aS'ENSG00000169442'
p2016
aS'ENSG00000135363'
p2017
aS'ENSG00000105793'
p2018
aS'ENSG00000100065'
p2019
aS'ENSG00000111615'
p2020
aS'ENSG00000158683'
p2021
aS'ENSG00000135624'
p2022
aS'ENSG00000158604'
p2023
aS'ENSG00000111145'
p2024
atRp2025
ssS'lightgoldenrod4'
p2026
(dp2027
g108
g109
((lp2028
S'ENSG00000174788'
p2029
aS'ENSG00000111361'
p2030
aS'ENSG00000167363'
p2031
aS'ENSG00000162817'
p2032
aS'ENSG00000117791'
p2033
aS'ENSG00000166582'
p2034
aS'ENSG00000186205'
p2035
aS'ENSG00000130489'
p2036
aS'ENSG00000141542'
p2037
aS'ENSG00000116521'
p2038
atRp2039
ssS'yellowgreen'
p2040
(dp2041
g4
(lp2042
(lp2043
S'ENSG00000135218'
p2044
aFinf
ag8
(g10
S'T\xd0j4\xb1\xa4e?'
tRp2045
ag8
(g10
S'\xe0\xc9\xa0\xc1>8\xa5?'
tRp2046
aa(lp2047
S'ENSG00000115648'
p2048
aFinf
ag8
(g10
S'T\xd0j4\xb1\xa4e?'
tRp2049
ag8
(g10
S'\xe0\xc9\xa0\xc1>8\xa5?'
tRp2050
aasg108
g109
((lp2051
S'ENSG00000148484'
p2052
aS'ENSG00000079974'
p2053
aS'ENSG00000196284'
p2054
aS'ENSG00000124733'
p2055
aS'ENSG00000197111'
p2056
aS'ENSG00000130590'
p2057
aS'ENSG00000148110'
p2058
aS'ENSG00000145715'
p2059
aS'ENSG00000169203'
p2060
aS'ENSG00000166411'
p2061
aS'ENSG00000134308'
p2062
aS'ENSG00000048828'
p2063
aS'ENSG00000117602'
p2064
aS'ENSG00000204348'
p2065
aS'ENSG00000176732'
p2066
aS'ENSG00000156795'
p2067
aS'ENSG00000141524'
p2068
aS'ENSG00000132005'
p2069
aS'ENSG00000196151'
p2070
aS'ENSG00000011198'
p2071
aS'ENSG00000013306'
p2072
aS'ENSG00000075142'
p2073
aS'ENSG00000203727'
p2074
aS'ENSG00000111775'
p2075
aS'ENSG00000090054'
p2076
aS'ENSG00000140262'
p2077
atRp2078
ssS'orangered1'
p2079
(dp2080
g4
(lp2081
(lp2082
S'ENSG00000137198'
p2083
aFinf
ag8
(g10
S'T\xd0j4\xb1\xa4e?'
tRp2084
ag8
(g10
S'\xe0\xa8\xf3\x19+ \x90?'
tRp2085
aa(lp2086
S'ENSG00000101605'
p2087
aFinf
ag8
(g10
S'T\xd0j4\xb1\xa4e?'
tRp2088
ag8
(g10
S'\xe0\xa8\xf3\x19+ \x90?'
tRp2089
aa(lp2090
S'ENSG00000169783'
p2091
ag8
(g10
S'\x00\x00\x00\x00\x00\x88w@'
tRp2092
ag8
(g10
S'\xfbV_\xbe\x056\x80?'
tRp2093
ag8
(g10
S'\xe0T\xd7\xe7\x01\x05\xa0?'
tRp2094
aa(lp2095
S'ENSG00000163380'
p2096
ag8
(g10
S'\x00\x00\x00\x00\x00\x88w@'
tRp2097
ag8
(g10
S'\xfbV_\xbe\x056\x80?'
tRp2098
ag8
(g10
S'\xe0T\xd7\xe7\x01\x05\xa0?'
tRp2099
aa(lp2100
S'ENSG00000126878'
p2101
ag8
(g10
S'\x00\x00\x00\x00\x00\x88w@'
tRp2102
ag8
(g10
S'\xfbV_\xbe\x056\x80?'
tRp2103
ag8
(g10
S'\xe0T\xd7\xe7\x01\x05\xa0?'
tRp2104
aasg108
g109
((lp2105
S'ENSG00000138085'
p2106
aS'ENSG00000160007'
p2107
aS'ENSG00000104884'
p2108
aS'ENSG00000109436'
p2109
aS'ENSG00000133816'
p2110
aS'ENSG00000133985'
p2111
aS'ENSG00000104067'
p2112
aS'ENSG00000140443'
p2113
aS'ENSG00000061273'
p2114
aS'ENSG00000166971'
p2115
aS'ENSG00000139292'
p2116
aS'ENSG00000250565'
p2117
aS'ENSG00000119715'
p2118
aS'ENSG00000163879'
p2119
aS'ENSG00000070778'
p2120
aS'ENSG00000112530'
p2121
aS'ENSG00000119862'
p2122
aS'ENSG00000136141'
p2123
aS'ENSG00000116857'
p2124
aS'ENSG00000167272'
p2125
atRp2126
ssS'royalblue3'
p2127
(dp2128
g108
g109
((lp2129
S'ENSG00000184908'
p2130
aS'ENSG00000110628'
p2131
aS'ENSG00000181264'
p2132
aS'ENSG00000153531'
p2133
aS'ENSG00000087077'
p2134
aS'ENSG00000144648'
p2135
aS'ENSG00000171109'
p2136
aS'ENSG00000051825'
p2137
aS'ENSG00000184544'
p2138
aS'ENSG00000151778'
p2139
aS'ENSG00000183049'
p2140
aS'ENSG00000145335'
p2141
aS'ENSG00000188191'
p2142
aS'ENSG00000198915'
p2143
aS'ENSG00000188295'
p2144
aS'ENSG00000172922'
p2145
atRp2146
ssS'royalblue2'
p2147
(dp2148
g4
(lp2149
(lp2150
S'ENSG00000177363'
p2151
aFinf
ag8
(g10
S'D\x1cP\xe7\x84;\x80?'
tRp2152
ag8
(g10
S'`\xc6y\x07\xb5\xf8\xa3?'
tRp2153
aasg108
g109
((lp2154
S'ENSG00000171812'
p2155
aS'ENSG00000197479'
p2156
aS'ENSG00000120322'
p2157
aS'ENSG00000169629'
p2158
aS'ENSG00000120327'
p2159
aS'ENSG00000113211'
p2160
aS'ENSG00000163710'
p2161
aS'ENSG00000131374'
p2162
aS'ENSG00000100364'
p2163
aS'ENSG00000120328'
p2164
aS'ENSG00000262209'
p2165
aS'ENSG00000253485'
p2166
aS'ENSG00000187372'
p2167
aS'ENSG00000172992'
p2168
aS'ENSG00000253731'
p2169
atRp2170
ssS'darkorchid4'
p2171
(dp2172
g108
g109
((lp2173
S'ENSG00000109180'
p2174
aS'ENSG00000215187'
p2175
aS'ENSG00000204257'
p2176
aS'ENSG00000223865'
p2177
aS'ENSG00000133302'
p2178
aS'ENSG00000267710'
p2179
aS'ENSG00000232653'
p2180
aS'ENSG00000231389'
p2181
aS'ENSG00000166091'
p2182
atRp2183
ssS'blue'
p2184
(dp2185
g108
g109
((lp2186
S'ENSG00000188580'
p2187
aS'ENSG00000121236'
p2188
aS'ENSG00000100288'
p2189
aS'ENSG00000010932'
p2190
aS'ENSG00000117010'
p2191
aS'ENSG00000146425'
p2192
aS'ENSG00000111816'
p2193
aS'ENSG00000130332'
p2194
aS'ENSG00000166669'
p2195
aS'ENSG00000260300'
p2196
aS'ENSG00000164754'
p2197
aS'ENSG00000181035'
p2198
aS'ENSG00000144959'
p2199
aS'ENSG00000143502'
p2200
aS'ENSG00000121691'
p2201
aS'ENSG00000136878'
p2202
aS'ENSG00000071539'
p2203
aS'ENSG00000151726'
p2204
aS'ENSG00000169682'
p2205
aS'ENSG00000241945'
p2206
aS'ENSG00000132256'
p2207
aS'ENSG00000167723'
p2208
aS'ENSG00000117748'
p2209
aS'ENSG00000100330'
p2210
aS'ENSG00000089063'
p2211
aS'ENSG00000197375'
p2212
aS'ENSG00000104774'
p2213
aS'ENSG00000152990'
p2214
aS'ENSG00000162461'
p2215
aS'ENSG00000165806'
p2216
aS'ENSG00000117289'
p2217
aS'ENSG00000108381'
p2218
aS'ENSG00000015676'
p2219
aS'ENSG00000074964'
p2220
aS'ENSG00000105135'
p2221
aS'ENSG00000085721'
p2222
aS'ENSG00000099330'
p2223
aS'ENSG00000110218'
p2224
aS'ENSG00000099968'
p2225
aS'ENSG00000165269'
p2226
aS'ENSG00000187550'
p2227
aS'ENSG00000134463'
p2228
aS'ENSG00000241644'
p2229
aS'ENSG00000174177'
p2230
aS'ENSG00000148943'
p2231
aS'ENSG00000164674'
p2232
aS'ENSG00000163138'
p2233
aS'ENSG00000103245'
p2234
atRp2235
ssS'honeydew'
p2236
(dp2237
g108
g109
((lp2238
S'ENSG00000167107'
p2239
aS'ENSG00000182912'
p2240
aS'ENSG00000175894'
p2241
aS'ENSG00000132681'
p2242
aS'ENSG00000188211'
p2243
aS'ENSG00000122378'
p2244
aS'ENSG00000095787'
p2245
aS'ENSG00000171103'
p2246
aS'ENSG00000156110'
p2247
aS'ENSG00000136457'
p2248
aS'ENSG00000234465'
p2249
aS'ENSG00000196678'
p2250
aS'ENSG00000157734'
p2251
aS'ENSG00000143624'
p2252
aS'ENSG00000165449'
p2253
aS'ENSG00000262003'
p2254
aS'ENSG00000167525'
p2255
aS'ENSG00000172493'
p2256
aS'ENSG00000135773'
p2257
aS'ENSG00000148290'
p2258
aS'ENSG00000188659'
p2259
atRp2260
ssS'cornflowerblue'
p2261
(dp2262
g4
(lp2263
(lp2264
S'ENSG00000183044'
p2265
ag8
(g10
S'\xc7q\x1c\xc7q\x9cT@'
tRp2266
ag8
(g10
S'\xd9\xaf\xedrJ.\x0f?'
tRp2267
ag8
(g10
S'\x80X\xa1\xa9C\xc6p?'
tRp2268
aa(lp2269
S'ENSG00000119711'
p2270
ag8
(g10
S'\xab\xaa\xaa\xaa\xaa\xcaN@'
tRp2271
ag8
(g10
S'N\x12\xa4&\x1a\xf4\x1f?'
tRp2272
ag8
(g10
S'\xc0BoF\xfb\xe7\x80?'
tRp2273
aa(lp2274
S'ENSG00000248668'
p2275
ag8
(g10
S"'vb'vbL@"
tRp2276
ag8
(g10
S'jL\xb4\x1c\xbb\x9a#?'
tRp2277
ag8
(g10
S'\x00h"\x97"l\x84?'
tRp2278
aa(lp2279
S'ENSG00000100065'
p2280
ag8
(g10
S'\x00\x00\x00\x00\x00pw@'
tRp2281
ag8
(g10
S',\xfa);6\x8a$?'
tRp2282
ag8
(g10
S'@=(\x99\x01\x13\x85?'
tRp2283
aa(lp2284
g1728
ag8
(g10
S'%I\x92$IRJ@'
tRp2285
ag8
(g10
S"\x1eS\xa0F\xc8\xbb'?"
tRp2286
ag8
(g10
S'\x80\x7fg\xcf\x18\xf7\x87?'
tRp2287
aa(lp2288
S'ENSG00000142627'
p2289
ag8
(g10
S'\x00\x00\x00\x00\x00hg@'
tRp2290
ag8
(g10
S'\x98o\xfd+\xa1w4?'
tRp2291
ag8
(g10
S'@\xec\xa5AjD\x94?'
tRp2292
aa(lp2293
S'ENSG00000164078'
p2294
ag8
(g10
S'\x00\x00\x00\x00\x00hg@'
tRp2295
ag8
(g10
S'\x98o\xfd+\xa1w4?'
tRp2296
ag8
(g10
S'@\xec\xa5AjD\x94?'
tRp2297
aa(lp2298
S'ENSG00000230148'
p2299
ag8
(g10
S'\xab\xaa\xaa\xaa\xaa*_@'
tRp2300
ag8
(g10
S'\xc9\xa8RD\xeb\xfe@?'
tRp2301
ag8
(g10
S' \xf6\x00\x07\xf64\xa0?'
tRp2302
aa(lp2303
S'ENSG00000173917'
p2304
ag8
(g10
S'\xab\xaa\xaa\xaa\xaa*_@'
tRp2305
ag8
(g10
S'\xc9\xa8RD\xeb\xfe@?'
tRp2306
ag8
(g10
S' \xf6\x00\x07\xf64\xa0?'
tRp2307
aa(lp2308
S'ENSG00000144063'
p2309
ag8
(g10
S'\xab\xaa\xaa\xaa\xaa*_@'
tRp2310
ag8
(g10
S'\xc9\xa8RD\xeb\xfe@?'
tRp2311
ag8
(g10
S' \xf6\x00\x07\xf64\xa0?'
tRp2312
aa(lp2313
S'ENSG00000249106'
p2314
ag8
(g10
S'\xab\xaa\xaa\xaa\xaa*_@'
tRp2315
ag8
(g10
S'\xc9\xa8RD\xeb\xfe@?'
tRp2316
ag8
(g10
S' \xf6\x00\x07\xf64\xa0?'
tRp2317
aasg108
g109
((lp2318
S'ENSG00000187581'
p2319
aS'ENSG00000187824'
p2320
aS'ENSG00000062370'
p2321
aS'ENSG00000162139'
p2322
aS'ENSG00000196187'
p2323
aS'ENSG00000105737'
p2324
aS'ENSG00000175229'
p2325
aS'ENSG00000187118'
p2326
aS'ENSG00000222033'
p2327
aS'ENSG00000172215'
p2328
aS'ENSG00000179270'
p2329
aS'ENSG00000204335'
p2330
aS'ENSG00000151465'
p2331
aS'ENSG00000132000'
p2332
aS'ENSG00000137642'
p2333
aS'ENSG00000126218'
p2334
atRp2335
ssS'khaki3'
p2336
(dp2337
g108
g109
((lp2338
S'ENSG00000182836'
p2339
aS'ENSG00000181072'
p2340
aS'ENSG00000048052'
p2341
aS'ENSG00000146243'
p2342
aS'ENSG00000046604'
p2343
aS'ENSG00000154415'
p2344
aS'ENSG00000157216'
p2345
aS'ENSG00000124641'
p2346
aS'ENSG00000166478'
p2347
aS'ENSG00000134769'
p2348
atRp2349
ssS'purple'
p2350
(dp2351
g108
g109
((lp2352
S'ENSG00000107175'
p2353
aS'ENSG00000173391'
p2354
aS'ENSG00000248713'
p2355
aS'ENSG00000006071'
p2356
aS'ENSG00000123999'
p2357
aS'ENSG00000075702'
p2358
aS'ENSG00000225614'
p2359
aS'ENSG00000023572'
p2360
aS'ENSG00000105281'
p2361
aS'ENSG00000164089'
p2362
aS'ENSG00000186815'
p2363
aS'ENSG00000101460'
p2364
aS'ENSG00000186184'
p2365
aS'ENSG00000100033'
p2366
aS'ENSG00000099817'
p2367
aS'ENSG00000154222'
p2368
aS'ENSG00000138463'
p2369
aS'ENSG00000146205'
p2370
aS'ENSG00000072954'
p2371
aS'ENSG00000071794'
p2372
aS'ENSG00000186088'
p2373
aS'ENSG00000162390'
p2374
aS'ENSG00000214097'
p2375
aS'ENSG00000079841'
p2376
aS'ENSG00000147697'
p2377
aS'ENSG00000107854'
p2378
aS'ENSG00000171307'
p2379
aS'ENSG00000163468'
p2380
aS'ENSG00000145016'
p2381
aS'ENSG00000180525'
p2382
aS'ENSG00000005471'
p2383
aS'ENSG00000073331'
p2384
aS'ENSG00000139436'
p2385
aS'ENSG00000164694'
p2386
aS'ENSG00000140497'
p2387
aS'ENSG00000143036'
p2388
atRp2389
ssS'wheat1'
p2390
(dp2391
g108
g109
((lp2392
S'ENSG00000087206'
p2393
aS'ENSG00000221838'
p2394
aS'ENSG00000197562'
p2395
aS'ENSG00000136819'
p2396
aS'ENSG00000090661'
p2397
aS'ENSG00000246705'
p2398
aS'ENSG00000138398'
p2399
aS'ENSG00000164941'
p2400
aS'ENSG00000146469'
p2401
aS'ENSG00000137815'
p2402
aS'ENSG00000214435'
p2403
aS'ENSG00000152404'
p2404
aS'ENSG00000144559'
p2405
atRp2406
ssS'palevioletred1'
p2407
(dp2408
g108
g109
((lp2409
S'ENSG00000196990'
p2410
aS'ENSG00000167244'
p2411
aS'ENSG00000179673'
p2412
aS'ENSG00000120616'
p2413
aS'ENSG00000183309'
p2414
aS'ENSG00000111981'
p2415
aS'ENSG00000187837'
p2416
aS'ENSG00000138472'
p2417
aS'ENSG00000081386'
p2418
aS'ENSG00000137825'
p2419
aS'ENSG00000168274'
p2420
aS'ENSG00000198518'
p2421
aS'ENSG00000203814'
p2422
aS'ENSG00000196562'
p2423
aS'ENSG00000197846'
p2424
aS'ENSG00000186868'
p2425
aS'ENSG00000165495'
p2426
aS'ENSG00000180992'
p2427
atRp2428
ssS'palevioletred2'
p2429
(dp2430
g108
g109
((lp2431
S'ENSG00000198130'
p2432
aS'ENSG00000165629'
p2433
aS'ENSG00000105963'
p2434
aS'ENSG00000142632'
p2435
aS'ENSG00000070413'
p2436
aS'ENSG00000161618'
p2437
aS'ENSG00000137441'
p2438
aS'ENSG00000273045'
p2439
aS'ENSG00000143126'
p2440
aS'ENSG00000129596'
p2441
aS'ENSG00000172379'
p2442
aS'ENSG00000117480'
p2443
aS'ENSG00000142669'
p2444
aS'ENSG00000165887'
p2445
aS'ENSG00000164111'
p2446
aS'ENSG00000131899'
p2447
aS'ENSG00000249992'
p2448
aS'ENSG00000115652'
p2449
aS'ENSG00000215252'
p2450
aS'ENSG00000145879'
p2451
aS'ENSG00000165487'
p2452
atRp2453
ssS'palevioletred3'
p2454
(dp2455
g4
(lp2456
(lp2457
S'ENSG00000064393'
p2458
aFinf
ag8
(g10
S'b\xd4j4\xb1\xa4e?'
tRp2459
ag8
(g10
S'`\x9e\x16\xe1"O\xa1?'
tRp2460
aasg108
g109
((lp2461
S'ENSG00000173137'
p2462
aS'ENSG00000128944'
p2463
aS'ENSG00000113272'
p2464
aS'ENSG00000217702'
p2465
aS'ENSG00000129282'
p2466
aS'ENSG00000213015'
p2467
aS'ENSG00000225830'
p2468
aS'ENSG00000169683'
p2469
aS'ENSG00000135205'
p2470
aS'ENSG00000196693'
p2471
aS'ENSG00000103335'
p2472
aS'ENSG00000169660'
p2473
aS'ENSG00000185958'
p2474
aS'ENSG00000123643'
p2475
aS'ENSG00000120948'
p2476
aS'ENSG00000152683'
p2477
aS'ENSG00000068885'
p2478
aS'ENSG00000057468'
p2479
aS'ENSG00000143458'
p2480
aS'ENSG00000053900'
p2481
aS'ENSG00000125247'
p2482
aS'ENSG00000114735'
p2483
aS'ENSG00000170482'
p2484
aS'ENSG00000004534'
p2485
atRp2486
ssS'coral3'
p2487
(dp2488
g108
g109
((lp2489
S'ENSG00000120137'
p2490
aS'ENSG00000214871'
p2491
aS'ENSG00000175768'
p2492
aS'ENSG00000069943'
p2493
aS'ENSG00000183628'
p2494
aS'ENSG00000107742'
p2495
aS'ENSG00000182264'
p2496
aS'ENSG00000171174'
p2497
aS'ENSG00000164078'
p2498
aS'ENSG00000094963'
p2499
aS'ENSG00000182851'
p2500
aS'ENSG00000165233'
p2501
aS'ENSG00000080007'
p2502
aS'ENSG00000100997'
p2503
aS'ENSG00000168903'
p2504
aS'ENSG00000100865'
p2505
aS'ENSG00000165810'
p2506
aS'ENSG00000151470'
p2507
aS'ENSG00000146386'
p2508
aS'ENSG00000242616'
p2509
atRp2510
ssS'coral2'
p2511
(dp2512
g4
(lp2513
(lp2514
S'ENSG00000157782'
p2515
ag8
(g10
S'\x00\x00\x00\x00\x00\x90\x87@'
tRp2516
ag8
(g10
S'\x07\xd5\x1f\x19\x07\xa1u?'
tRp2517
ag8
(g10
S'\xe04\xc2\x05\xd2\xa0\xa2?'
tRp2518
aa(lp2519
S'ENSG00000104833'
p2520
ag8
(g10
S'\x00\x00\x00\x00\x00\x90\x87@'
tRp2521
ag8
(g10
S'\x07\xd5\x1f\x19\x07\xa1u?'
tRp2522
ag8
(g10
S'\xe04\xc2\x05\xd2\xa0\xa2?'
tRp2523
aasg108
g109
((lp2524
S'ENSG00000108448'
p2525
aS'ENSG00000166529'
p2526
aS'ENSG00000221926'
p2527
aS'ENSG00000169612'
p2528
aS'ENSG00000164081'
p2529
aS'ENSG00000104687'
p2530
aS'ENSG00000249915'
p2531
aS'ENSG00000198431'
p2532
aS'ENSG00000176222'
p2533
aS'ENSG00000150433'
p2534
aS'ENSG00000120370'
p2535
aS'ENSG00000139835'
p2536
aS'ENSG00000271303'
p2537
aS'ENSG00000109854'
p2538
aS'ENSG00000206559'
p2539
aS'ENSG00000184575'
p2540
aS'ENSG00000132692'
p2541
aS'ENSG00000133937'
p2542
aS'ENSG00000163931'
p2543
aS'ENSG00000170390'
p2544
aS'ENSG00000204520'
p2545
aS'ENSG00000107443'
p2546
aS'ENSG00000159228'
p2547
aS'ENSG00000023909'
p2548
atRp2549
ssS'coral1'
p2550
(dp2551
g108
g109
((lp2552
S'ENSG00000136653'
p2553
aS'ENSG00000108296'
p2554
aS'ENSG00000108395'
p2555
aS'ENSG00000198917'
p2556
aS'ENSG00000120647'
p2557
aS'ENSG00000156398'
p2558
aS'ENSG00000162976'
p2559
aS'ENSG00000248835'
p2560
aS'ENSG00000122779'
p2561
aS'ENSG00000159658'
p2562
aS'ENSG00000163644'
p2563
aS'ENSG00000069956'
p2564
aS'ENSG00000205659'
p2565
aS'ENSG00000152240'
p2566
aS'ENSG00000031691'
p2567
aS'ENSG00000168395'
p2568
aS'ENSG00000055483'
p2569
aS'ENSG00000198429'
p2570
aS'ENSG00000100304'
p2571
aS'ENSG00000100027'
p2572
aS'ENSG00000169062'
p2573
aS'ENSG00000125885'
p2574
aS'ENSG00000088899'
p2575
aS'ENSG00000176953'
p2576
atRp2577
ssS'deepskyblue4'
p2578
(dp2579
g108
g109
((lp2580
S'ENSG00000174953'
p2581
aS'ENSG00000137700'
p2582
aS'ENSG00000092201'
p2583
aS'ENSG00000132740'
p2584
aS'ENSG00000213077'
p2585
aS'ENSG00000176531'
p2586
aS'ENSG00000146833'
p2587
aS'ENSG00000073050'
p2588
aS'ENSG00000176909'
p2589
aS'ENSG00000073614'
p2590
aS'ENSG00000167325'
p2591
atRp2592
ssS'rosybrown3'
p2593
(dp2594
g108
g109
((lp2595
S'ENSG00000239704'
p2596
aS'ENSG00000118690'
p2597
aS'ENSG00000250506'
p2598
aS'ENSG00000257949'
p2599
aS'ENSG00000184465'
p2600
aS'ENSG00000080298'
p2601
aS'ENSG00000182013'
p2602
aS'ENSG00000149418'
p2603
aS'ENSG00000167196'
p2604
aS'ENSG00000173566'
p2605
aS'ENSG00000188428'
p2606
atRp2607
ssS'cornsilk'
p2608
(dp2609
g108
g109
((lp2610
S'ENSG00000159322'
p2611
aS'ENSG00000198270'
p2612
aS'ENSG00000072609'
p2613
aS'ENSG00000140400'
p2614
aS'ENSG00000101638'
p2615
aS'ENSG00000090863'
p2616
aS'ENSG00000198722'
p2617
aS'ENSG00000137462'
p2618
aS'ENSG00000128815'
p2619
aS'ENSG00000151348'
p2620
aS'ENSG00000124574'
p2621
aS'ENSG00000203993'
p2622
aS'ENSG00000104951'
p2623
aS'ENSG00000205334'
p2624
atRp2625
ssS'indianred2'
p2626
(dp2627
g108
g109
((lp2628
S'ENSG00000151692'
p2629
aS'ENSG00000103855'
p2630
aS'ENSG00000153786'
p2631
aS'ENSG00000197586'
p2632
aS'ENSG00000100577'
p2633
aS'ENSG00000114988'
p2634
aS'ENSG00000188517'
p2635
aS'ENSG00000198121'
p2636
aS'ENSG00000114127'
p2637
aS'ENSG00000070614'
p2638
aS'ENSG00000011105'
p2639
aS'ENSG00000205045'
p2640
aS'ENSG00000177453'
p2641
aS'ENSG00000109819'
p2642
aS'ENSG00000149531'
p2643
aS'ENSG00000065060'
p2644
aS'ENSG00000185739'
p2645
atRp2646
ssS'coral4'
p2647
(dp2648
g108
g109
((lp2649
S'ENSG00000057704'
p2650
aS'ENSG00000148337'
p2651
aS'ENSG00000123143'
p2652
aS'ENSG00000105193'
p2653
aS'ENSG00000022976'
p2654
aS'ENSG00000257093'
p2655
aS'ENSG00000188647'
p2656
aS'ENSG00000225697'
p2657
aS'ENSG00000187145'
p2658
aS'ENSG00000159210'
p2659
aS'ENSG00000129219'
p2660
aS'ENSG00000160194'
p2661
aS'ENSG00000106605'
p2662
aS'ENSG00000114648'
p2663
aS'ENSG00000198933'
p2664
aS'ENSG00000144026'
p2665
aS'ENSG00000025039'
p2666
aS'ENSG00000184752'
p2667
atRp2668
ssS'lightblue2'
p2669
(dp2670
g108
g109
((lp2671
S'ENSG00000167680'
p2672
aS'ENSG00000144746'
p2673
aS'ENSG00000105662'
p2674
aS'ENSG00000164715'
p2675
aS'ENSG00000148296'
p2676
aS'ENSG00000152601'
p2677
aS'ENSG00000174808'
p2678
aS'ENSG00000157214'
p2679
aS'ENSG00000067365'
p2680
aS'ENSG00000163794'
p2681
aS'ENSG00000008130'
p2682
aS'ENSG00000118407'
p2683
aS'ENSG00000163875'
p2684
aS'ENSG00000154309'
p2685
aS'ENSG00000138685'
p2686
atRp2687
ssS'lightblue3'
p2688
(dp2689
g108
g109
((lp2690
S'ENSG00000177106'
p2691
aS'ENSG00000177042'
p2692
aS'ENSG00000185619'
p2693
aS'ENSG00000136003'
p2694
aS'ENSG00000168993'
p2695
aS'ENSG00000266714'
p2696
aS'ENSG00000129467'
p2697
aS'ENSG00000110435'
p2698
aS'ENSG00000166200'
p2699
aS'ENSG00000106113'
p2700
aS'ENSG00000145214'
p2701
aS'ENSG00000112304'
p2702
aS'ENSG00000107281'
p2703
aS'ENSG00000148341'
p2704
aS'ENSG00000090372'
p2705
aS'ENSG00000139625'
p2706
aS'ENSG00000196458'
p2707
atRp2708
ssS'lightblue1'
p2709
(dp2710
g108
g109
((lp2711
S'ENSG00000106723'
p2712
aS'ENSG00000141076'
p2713
aS'ENSG00000203705'
p2714
aS'ENSG00000172728'
p2715
aS'ENSG00000174206'
p2716
aS'ENSG00000063046'
p2717
aS'ENSG00000111012'
p2718
aS'ENSG00000148459'
p2719
aS'ENSG00000197013'
p2720
aS'ENSG00000188573'
p2721
aS'ENSG00000172339'
p2722
aS'ENSG00000085788'
p2723
aS'ENSG00000162885'
p2724
aS'ENSG00000171055'
p2725
atRp2726
ssS'lightslateblue'
p2727
(dp2728
g4
(lp2729
(lp2730
S'ENSG00000124507'
p2731
aFinf
ag8
(g10
S'e\xd1\x96\xfa\xcf\x95\x91?'
tRp2732
ag8
(g10
S'`\xd1\x96\xfa\xcf\x95\x91?'
tRp2733
aasg108
g109
((lp2734
S'ENSG00000149480'
p2735
aS'ENSG00000198502'
p2736
aS'ENSG00000196743'
p2737
aS'ENSG00000148655'
p2738
aS'ENSG00000166333'
p2739
aS'ENSG00000196126'
p2740
aS'ENSG00000128891'
p2741
aS'ENSG00000182149'
p2742
aS'ENSG00000168612'
p2743
aS'ENSG00000167034'
p2744
aS'ENSG00000096092'
p2745
aS'ENSG00000133958'
p2746
aS'ENSG00000179344'
p2747
aS'ENSG00000170486'
p2748
aS'ENSG00000170627'
p2749
aS'ENSG00000125450'
p2750
aS'ENSG00000196735'
p2751
aS'ENSG00000180902'
p2752
aS'ENSG00000180053'
p2753
atRp2754
ssS'lightblue4'
p2755
(dp2756
g108
g109
((lp2757
S'ENSG00000166847'
p2758
aS'ENSG00000103021'
p2759
aS'ENSG00000180817'
p2760
aS'ENSG00000196605'
p2761
aS'ENSG00000198039'
p2762
aS'ENSG00000184887'
p2763
aS'ENSG00000154065'
p2764
aS'ENSG00000164576'
p2765
aS'ENSG00000117090'
p2766
aS'ENSG00000176490'
p2767
aS'ENSG00000129028'
p2768
aS'ENSG00000103942'
p2769
aS'ENSG00000166979'
p2770
aS'ENSG00000139880'
p2771
aS'ENSG00000110536'
p2772
aS'ENSG00000186141'
p2773
aS'ENSG00000053747'
p2774
aS'ENSG00000111850'
p2775
aS'ENSG00000213047'
p2776
atRp2777
ssS'lightsteelblue1'
p2778
(dp2779
g108
g109
((lp2780
S'ENSG00000125648'
p2781
aS'ENSG00000178150'
p2782
aS'ENSG00000162437'
p2783
aS'ENSG00000103489'
p2784
aS'ENSG00000100994'
p2785
aS'ENSG00000142102'
p2786
aS'ENSG00000204682'
p2787
aS'ENSG00000095397'
p2788
aS'ENSG00000198729'
p2789
aS'ENSG00000186204'
p2790
aS'ENSG00000204305'
p2791
aS'ENSG00000182253'
p2792
aS'ENSG00000106404'
p2793
aS'ENSG00000171574'
p2794
aS'ENSG00000088002'
p2795
aS'ENSG00000182606'
p2796
aS'ENSG00000141568'
p2797
aS'ENSG00000170759'
p2798
aS'ENSG00000134014'
p2799
aS'ENSG00000132881'
p2800
aS'ENSG00000149927'
p2801
aS'ENSG00000127328'
p2802
aS'ENSG00000121440'
p2803
aS'ENSG00000159111'
p2804
aS'ENSG00000092199'
p2805
atRp2806
ssS'skyblue4'
p2807
(dp2808
g108
g109
((lp2809
S'ENSG00000189046'
p2810
aS'ENSG00000165272'
p2811
aS'ENSG00000124593'
p2812
aS'ENSG00000008838'
p2813
aS'ENSG00000110786'
p2814
aS'ENSG00000176401'
p2815
aS'ENSG00000197226'
p2816
aS'ENSG00000215114'
p2817
aS'ENSG00000168297'
p2818
aS'ENSG00000204839'
p2819
aS'ENSG00000137947'
p2820
aS'ENSG00000166825'
p2821
aS'ENSG00000101343'
p2822
aS'ENSG00000104177'
p2823
aS'ENSG00000129946'
p2824
aS'ENSG00000137819'
p2825
aS'ENSG00000070159'
p2826
aS'ENSG00000165861'
p2827
aS'ENSG00000111907'
p2828
aS'ENSG00000136999'
p2829
atRp2830
ssS'deepskyblue'
p2831
(dp2832
g108
g109
((lp2833
S'ENSG00000137731'
p2834
aS'ENSG00000184640'
p2835
aS'ENSG00000187860'
p2836
aS'ENSG00000243335'
p2837
aS'ENSG00000186283'
p2838
aS'ENSG00000160285'
p2839
aS'ENSG00000104267'
p2840
aS'ENSG00000183684'
p2841
aS'ENSG00000136378'
p2842
aS'ENSG00000099999'
p2843
aS'ENSG00000131791'
p2844
aS'ENSG00000140263'
p2845
aS'ENSG00000085491'
p2846
aS'ENSG00000235878'
p2847
atRp2848
ssS'skyblue1'
p2849
(dp2850
g108
g109
((lp2851
S'ENSG00000259511'
p2852
aS'ENSG00000160049'
p2853
aS'ENSG00000121743'
p2854
aS'ENSG00000184206'
p2855
aS'ENSG00000064687'
p2856
aS'ENSG00000135454'
p2857
aS'ENSG00000164142'
p2858
aS'ENSG00000144362'
p2859
aS'ENSG00000047579'
p2860
aS'ENSG00000144635'
p2861
aS'ENSG00000120833'
p2862
aS'ENSG00000164045'
p2863
aS'ENSG00000164048'
p2864
aS'ENSG00000135269'
p2865
aS'ENSG00000139174'
p2866
aS'ENSG00000187676'
p2867
aS'ENSG00000243056'
p2868
aS'ENSG00000148334'
p2869
aS'ENSG00000176407'
p2870
aS'ENSG00000164074'
p2871
aS'ENSG00000196182'
p2872
aS'ENSG00000154277'
p2873
aS'ENSG00000081059'
p2874
atRp2875
ssS'darkred'
p2876
(dp2877
g4
(lp2878
(lp2879
S'ENSG00000142273'
p2880
aFinf
ag8
(g10
S'_\xd0j4\xb1\xa4u?'
tRp2881
ag8
(g10
S'\xd0\xe2\x011\xed\xa3\xa2?'
tRp2882
aa(lp2883
S'ENSG00000050327'
p2884
aFinf
ag8
(g10
S'_\xd0j4\xb1\xa4u?'
tRp2885
ag8
(g10
S'\xd0\xe2\x011\xed\xa3\xa2?'
tRp2886
aa(lp2887
S'ENSG00000169071'
p2888
aFinf
ag8
(g10
S'_\xd0j4\xb1\xa4u?'
tRp2889
ag8
(g10
S'\xd0\xe2\x011\xed\xa3\xa2?'
tRp2890
aa(lp2891
S'ENSG00000173239'
p2892
aFinf
ag8
(g10
S'_\xd0j4\xb1\xa4u?'
tRp2893
ag8
(g10
S'\xd0\xe2\x011\xed\xa3\xa2?'
tRp2894
aa(lp2895
S'ENSG00000189334'
p2896
aFinf
ag8
(g10
S'_\xd0j4\xb1\xa4u?'
tRp2897
ag8
(g10
S'\xd0\xe2\x011\xed\xa3\xa2?'
tRp2898
aasg108
g109
((lp2899
S'ENSG00000075213'
p2900
aS'ENSG00000087053'
p2901
aS'ENSG00000139197'
p2902
aS'ENSG00000075643'
p2903
aS'ENSG00000170074'
p2904
aS'ENSG00000179627'
p2905
aS'ENSG00000250673'
p2906
aS'ENSG00000135847'
p2907
aS'ENSG00000175711'
p2908
aS'ENSG00000172113'
p2909
aS'ENSG00000112659'
p2910
aS'ENSG00000161551'
p2911
aS'ENSG00000133477'
p2912
aS'ENSG00000168434'
p2913
aS'ENSG00000204595'
p2914
aS'ENSG00000249109'
p2915
aS'ENSG00000178301'
p2916
aS'ENSG00000267795'
p2917
aS'ENSG00000122873'
p2918
aS'ENSG00000182230'
p2919
aS'ENSG00000163521'
p2920
aS'ENSG00000166140'
p2921
aS'ENSG00000204677'
p2922
aS'ENSG00000183571'
p2923
aS'ENSG00000157315'
p2924
aS'ENSG00000163933'
p2925
aS'ENSG00000180011'
p2926
aS'ENSG00000005801'
p2927
aS'ENSG00000176915'
p2928
aS'ENSG00000164855'
p2929
atRp2930
ssS'skyblue2'
p2931
(dp2932
g108
g109
((lp2933
S'ENSG00000122359'
p2934
aS'ENSG00000120262'
p2935
aS'ENSG00000188649'
p2936
aS'ENSG00000151883'
p2937
aS'ENSG00000154134'
p2938
aS'ENSG00000160539'
p2939
aS'ENSG00000164615'
p2940
aS'ENSG00000187987'
p2941
aS'ENSG00000145384'
p2942
aS'ENSG00000152689'
p2943
aS'ENSG00000196337'
p2944
aS'ENSG00000180245'
p2945
aS'ENSG00000156171'
p2946
aS'ENSG00000106367'
p2947
aS'ENSG00000157978'
p2948
aS'ENSG00000103275'
p2949
aS'ENSG00000124357'
p2950
aS'ENSG00000148335'
p2951
aS'ENSG00000113387'
p2952
aS'ENSG00000139531'
p2953
aS'ENSG00000168101'
p2954
aS'ENSG00000105697'
p2955
aS'ENSG00000118137'
p2956
aS'ENSG00000054967'
p2957
atRp2958
ssS'lavenderblush1'
p2959
(dp2960
g108
g109
((lp2961
S'ENSG00000106477'
p2962
aS'ENSG00000182247'
p2963
aS'ENSG00000114450'
p2964
aS'ENSG00000140319'
p2965
aS'ENSG00000070718'
p2966
aS'ENSG00000163376'
p2967
aS'ENSG00000136933'
p2968
aS'ENSG00000177570'
p2969
aS'ENSG00000178809'
p2970
aS'ENSG00000035141'
p2971
aS'ENSG00000226124'
p2972
aS'ENSG00000119402'
p2973
aS'ENSG00000184014'
p2974
aS'ENSG00000163466'
p2975
aS'ENSG00000122574'
p2976
aS'ENSG00000135926'
p2977
aS'ENSG00000034971'
p2978
aS'ENSG00000158882'
p2979
atRp2980
ssS'lavenderblush3'
p2981
(dp2982
g108
g109
((lp2983
S'ENSG00000182240'
p2984
aS'ENSG00000086730'
p2985
aS'ENSG00000148488'
p2986
aS'ENSG00000169490'
p2987
aS'ENSG00000158815'
p2988
aS'ENSG00000082126'
p2989
aS'ENSG00000111886'
p2990
aS'ENSG00000177076'
p2991
aS'ENSG00000240654'
p2992
aS'ENSG00000225362'
p2993
aS'ENSG00000007062'
p2994
aS'ENSG00000166762'
p2995
aS'ENSG00000152760'
p2996
aS'ENSG00000155749'
p2997
aS'ENSG00000070366'
p2998
aS'ENSG00000152952'
p2999
aS'ENSG00000141994'
p3000
aS'ENSG00000184937'
p3001
aS'ENSG00000102805'
p3002
aS'ENSG00000047617'
p3003
aS'ENSG00000116918'
p3004
aS'ENSG00000104953'
p3005
aS'ENSG00000074416'
p3006
aS'ENSG00000173376'
p3007
atRp3008
ssS'lavenderblush2'
p3009
(dp3010
g108
g109
((lp3011
S'ENSG00000169180'
p3012
aS'ENSG00000196597'
p3013
aS'ENSG00000126351'
p3014
aS'ENSG00000177370'
p3015
aS'ENSG00000133027'
p3016
aS'ENSG00000158560'
p3017
aS'ENSG00000255837'
p3018
aS'ENSG00000156599'
p3019
aS'ENSG00000130731'
p3020
aS'ENSG00000006837'
p3021
aS'ENSG00000254521'
p3022
aS'ENSG00000130518'
p3023
aS'ENSG00000089177'
p3024
aS'ENSG00000075785'
p3025
aS'ENSG00000115993'
p3026
aS'ENSG00000131591'
p3027
aS'ENSG00000197860'
p3028
aS'ENSG00000187566'
p3029
aS'ENSG00000104974'
p3030
aS'ENSG00000239998'
p3031
aS'ENSG00000168385'
p3032
atRp3033
ssS'aliceblue'
p3034
(dp3035
g108
g109
((lp3036
S'ENSG00000101417'
p3037
aS'ENSG00000171476'
p3038
aS'ENSG00000132664'
p3039
aS'ENSG00000120915'
p3040
aS'ENSG00000130528'
p3041
aS'ENSG00000106397'
p3042
aS'ENSG00000111671'
p3043
aS'ENSG00000114054'
p3044
aS'ENSG00000204228'
p3045
aS'ENSG00000109072'
p3046
aS'ENSG00000268798'
p3047
aS'ENSG00000266964'
p3048
aS'ENSG00000116353'
p3049
aS'ENSG00000104805'
p3050
aS'ENSG00000010626'
p3051
aS'ENSG00000160293'
p3052
atRp3053
ssS'lightskyblue2'
p3054
(dp3055
g108
g109
((lp3056
S'ENSG00000085871'
p3057
aS'ENSG00000122735'
p3058
aS'ENSG00000103932'
p3059
aS'ENSG00000170271'
p3060
aS'ENSG00000258839'
p3061
aS'ENSG00000140854'
p3062
aS'ENSG00000168028'
p3063
aS'ENSG00000115163'
p3064
aS'ENSG00000143198'
p3065
aS'ENSG00000137806'
p3066
aS'ENSG00000137168'
p3067
aS'ENSG00000081019'
p3068
aS'ENSG00000175390'
p3069
aS'ENSG00000149273'
p3070
atRp3071
ssS'lightskyblue3'
p3072
(dp3073
g4
(lp3074
(lp3075
S'ENSG00000260230'
p3076
ag8
(g10
S'UUUUUUo@'
tRp3077
ag8
(g10
S'\x8d1\x89\xe2\xb2\x99\x85?'
tRp3078
ag8
(g10
S'\x801\x89\xe2\xb2\x99\x85?'
tRp3079
aasg108
g109
((lp3080
S'ENSG00000164418'
p3081
aS'ENSG00000053328'
p3082
aS'ENSG00000103365'
p3083
aS'ENSG00000161929'
p3084
aS'ENSG00000130193'
p3085
aS'ENSG00000100625'
p3086
aS'ENSG00000135525'
p3087
aS'ENSG00000131238'
p3088
aS'ENSG00000138111'
p3089
aS'ENSG00000069966'
p3090
aS'ENSG00000183762'
p3091
aS'ENSG00000163864'
p3092
aS'ENSG00000100564'
p3093
aS'ENSG00000164211'
p3094
aS'ENSG00000138696'
p3095
atRp3096
ssS'blue1'
p3097
(dp3098
g108
g109
((lp3099
S'ENSG00000149503'
p3100
aS'ENSG00000138078'
p3101
aS'ENSG00000179071'
p3102
aS'ENSG00000070190'
p3103
aS'ENSG00000157637'
p3104
aS'ENSG00000105835'
p3105
aS'ENSG00000151006'
p3106
aS'ENSG00000166887'
p3107
aS'ENSG00000188095'
p3108
aS'ENSG00000126215'
p3109
aS'ENSG00000213639'
p3110
aS'ENSG00000161996'
p3111
aS'ENSG00000132600'
p3112
aS'ENSG00000030066'
p3113
aS'ENSG00000060491'
p3114
atRp3115
ssS'blue3'
p3116
(dp3117
g108
g109
((lp3118
S'ENSG00000182827'
p3119
aS'ENSG00000080644'
p3120
aS'ENSG00000184857'
p3121
aS'ENSG00000143374'
p3122
aS'ENSG00000100804'
p3123
aS'ENSG00000169684'
p3124
aS'ENSG00000198554'
p3125
aS'ENSG00000182446'
p3126
aS'ENSG00000167670'
p3127
aS'ENSG00000234719'
p3128
aS'ENSG00000140386'
p3129
aS'ENSG00000196365'
p3130
aS'ENSG00000126804'
p3131
aS'ENSG00000196152'
p3132
aS'ENSG00000175170'
p3133
aS'ENSG00000189403'
p3134
aS'ENSG00000175105'
p3135
atRp3136
ssS'blue2'
p3137
(dp3138
g108
g109
((lp3139
S'ENSG00000072310'
p3140
aS'ENSG00000197045'
p3141
aS'ENSG00000073008'
p3142
aS'ENSG00000163536'
p3143
aS'ENSG00000244476'
p3144
aS'ENSG00000105499'
p3145
aS'ENSG00000213420'
p3146
aS'ENSG00000164144'
p3147
aS'ENSG00000185272'
p3148
aS'ENSG00000197445'
p3149
aS'ENSG00000128573'
p3150
aS'ENSG00000149485'
p3151
aS'ENSG00000109991'
p3152
aS'ENSG00000165868'
p3153
aS'ENSG00000186567'
p3154
aS'ENSG00000214944'
p3155
aS'ENSG00000134824'
p3156
aS'ENSG00000004468'
p3157
aS'ENSG00000198874'
p3158
aS'ENSG00000140025'
p3159
aS'ENSG00000125449'
p3160
aS'ENSG00000135333'
p3161
atRp3162
ssS'blue4'
p3163
(dp3164
g108
g109
((lp3165
S'ENSG00000164880'
p3166
aS'ENSG00000150722'
p3167
aS'ENSG00000099949'
p3168
aS'ENSG00000166295'
p3169
aS'ENSG00000163528'
p3170
aS'ENSG00000166347'
p3171
aS'ENSG00000164983'
p3172
aS'ENSG00000069345'
p3173
aS'ENSG00000169016'
p3174
aS'ENSG00000142235'
p3175
aS'ENSG00000142197'
p3176
aS'ENSG00000134775'
p3177
aS'ENSG00000013016'
p3178
aS'ENSG00000162923'
p3179
aS'ENSG00000105520'
p3180
aS'ENSG00000198931'
p3181
aS'ENSG00000151552'
p3182
aS'ENSG00000184374'
p3183
aS'ENSG00000170430'
p3184
atRp3185
ssS'lightskyblue4'
p3186
(dp3187
g108
g109
((lp3188
S'ENSG00000167635'
p3189
aS'ENSG00000183828'
p3190
aS'ENSG00000122550'
p3191
aS'ENSG00000155561'
p3192
aS'ENSG00000186479'
p3193
aS'ENSG00000124380'
p3194
aS'ENSG00000176236'
p3195
aS'ENSG00000203740'
p3196
aS'ENSG00000119888'
p3197
aS'ENSG00000166913'
p3198
aS'ENSG00000146223'
p3199
aS'ENSG00000272268'
p3200
aS'ENSG00000167971'
p3201
aS'ENSG00000139131'
p3202
aS'ENSG00000136243'
p3203
aS'ENSG00000136235'
p3204
aS'ENSG00000156162'
p3205
atRp3206
ssS'plum4'
p3207
(dp3208
g4
(lp3209
(lp3210
S'ENSG00000204397'
p3211
ag8
(g10
S'GX\xeei\x84\xe5H@'
tRp3212
ag8
(g10
S'\x87\xc9^\x13\xc3D\x06?'
tRp3213
ag8
(g10
S'\x80Q\x96\x1bP\xd7p?'
tRp3214
aa(lp3215
S'ENSG00000196954'
p3216
ag8
(g10
S'GX\xeei\x84\xe5H@'
tRp3217
ag8
(g10
S'\x87\xc9^\x13\xc3D\x06?'
tRp3218
ag8
(g10
S'\x80Q\x96\x1bP\xd7p?'
tRp3219
aa(lp3220
S'ENSG00000104689'
p3221
ag8
(g10
S'GX\xeei\x84\xe5H@'
tRp3222
ag8
(g10
S'\x87\xc9^\x13\xc3D\x06?'
tRp3223
ag8
(g10
S'\x80Q\x96\x1bP\xd7p?'
tRp3224
aa(lp3225
S'ENSG00000137801'
p3226
ag8
(g10
S'\x00\x00\x00\x00\x008W@'
tRp3227
ag8
(g10
S'\x00O\xa1\xcd\xc2t\x07?'
tRp3228
ag8
(g10
S'\x80\xfe\x8b\xc4\x950q?'
tRp3229
aa(lp3230
S'ENSG00000081041'
p3231
aFinf
ag8
(g10
S'\x93\x17W\xb4\xcc{\x0b?'
tRp3232
ag8
(g10
S'\x00\xa0\x8b\x19\xa4\xebs?'
tRp3233
aa(lp3234
S'ENSG00000128016'
p3235
aFinf
ag8
(g10
S'\x93\x17W\xb4\xcc{\x0b?'
tRp3236
ag8
(g10
S'\x00\xa0\x8b\x19\xa4\xebs?'
tRp3237
aa(lp3238
S'ENSG00000136244'
p3239
aFinf
ag8
(g10
S'\x93\x17W\xb4\xcc{\x0b?'
tRp3240
ag8
(g10
S'\x00\xa0\x8b\x19\xa4\xebs?'
tRp3241
aa(lp3242
S'ENSG00000163734'
p3243
aFinf
ag8
(g10
S'\x93\x17W\xb4\xcc{\x0b?'
tRp3244
ag8
(g10
S'\x00\xa0\x8b\x19\xa4\xebs?'
tRp3245
aa(lp3246
S'ENSG00000117228'
p3247
ag8
(g10
S'\xd1E\x17]t\x11@@'
tRp3248
ag8
(g10
S'\xb0\xe9\x1d\x991\x9c)?'
tRp3249
ag8
(g10
S'\xa0\xf2g3\xa2\xa7\x91?'
tRp3250
aa(lp3251
S'ENSG00000118495'
p3252
ag8
(g10
S'z\xd3\x9b\xde\xf4\xa6>@'
tRp3253
ag8
(g10
S'\xc3\xc0.\\?-.?'
tRp3254
ag8
(g10
S' \x1a\xfd"D\x8a\x94?'
tRp3255
aa(lp3256
S'ENSG00000127328'
p3257
ag8
(g10
S'x6\xea;\x1b\xf5=@'
tRp3258
ag8
(g10
S'*\x1cQ\xee\x03V0?'
tRp3259
ag8
(g10
S'\xe0^S\xdbk\xf8\x95?'
tRp3260
aa(lp3261
S'ENSG00000136997'
p3262
ag8
(g10
S'\x00\x00\x00\x00\x00hg@'
tRp3263
ag8
(g10
S'\x98o\xfd+\xa1w4?'
tRp3264
ag8
(g10
S'\xe0\x1dN\xb6\x1c$\x9b?'
tRp3265
aa(lp3266
S'ENSG00000137752'
p3267
ag8
(g10
S"'vb'v\xe2:@"
tRp3268
ag8
(g10
S'\xeb]\x1c,\x18\xbe7?'
tRp3269
ag8
(g10
S'`\xa5\xa0\x8e\xdc\x0e\x9f?'
tRp3270
aa(lp3271
S'ENSG00000069399'
p3272
ag8
(g10
S'6\x94\xd7P^CC@'
tRp3273
ag8
(g10
S'\xc7\xff$\x01zx:?'
tRp3274
ag8
(g10
S'\x00\x80\xd1\x16V\x15\xa1?'
tRp3275
aa(lp3276
S'ENSG00000184557'
p3277
ag8
(g10
S'6\x94\xd7P^CC@'
tRp3278
ag8
(g10
S'\xc7\xff$\x01zx:?'
tRp3279
ag8
(g10
S'\x00\x80\xd1\x16V\x15\xa1?'
tRp3280
aa(lp3281
S'ENSG00000132702'
p3282
ag8
(g10
S'\t\xed%\xb4\x97\xd09@'
tRp3283
ag8
(g10
S'\xda\xdb \xc8\x8bM;?'
tRp3284
ag8
(g10
S'\x10?\x0f\xc0\xf52\xa1?'
tRp3285
aa(lp3286
S'ENSG00000154917'
p3287
ag8
(g10
S'O\t\xf2\x94 O9@'
tRp3288
ag8
(g10
S'\xcc\xae\xeca\x059=?'
tRp3289
ag8
(g10
S'p\xef\xf3\xf4\xa0*\xa2?'
tRp3290
aa(lp3291
S'ENSG00000180354'
p3292
ag8
(g10
S'O\t\xf2\x94 O9@'
tRp3293
ag8
(g10
S'\xcc\xae\xeca\x059=?'
tRp3294
ag8
(g10
S'p\xef\xf3\xf4\xa0*\xa2?'
tRp3295
aa(lp3296
S'ENSG00000077150'
p3297
ag8
(g10
S'O\t\xf2\x94 O9@'
tRp3298
ag8
(g10
S'\xcc\xae\xeca\x059=?'
tRp3299
ag8
(g10
S'p\xef\xf3\xf4\xa0*\xa2?'
tRp3300
aa(lp3301
S'ENSG00000184363'
p3302
ag8
(g10
S'GX\xeei\x84\xe57@'
tRp3303
ag8
(g10
S'\x15\xf3\x91\x8b\xcd\xc9A?'
tRp3304
ag8
(g10
S'\xb0r\xc6e\x88;\xa5?'
tRp3305
aa(lp3306
S'ENSG00000157152'
p3307
ag8
(g10
S'\x89\x88\x88\x88\x88\x087@'
tRp3308
ag8
(g10
S'9\xdc\x03GL+D?'
tRp3309
ag8
(g10
S'\xf0\x0f\xe5\xd6\xf0\t\xa7?'
tRp3310
aa(lp3311
g780
ag8
(g10
S'\xd1E\x17]t\x91@@'
tRp3312
ag8
(g10
S'\x99\xa2f<g\x96C?'
tRp3313
ag8
(g10
S'\xf0\x0f\xe5\xd6\xf0\t\xa7?'
tRp3314
aa(lp3315
S'ENSG00000139329'
p3316
ag8
(g10
S'\x89\x88\x88\x88\x88\x087@'
tRp3317
ag8
(g10
S'9\xdc\x03GL+D?'
tRp3318
ag8
(g10
S'\xf0\x0f\xe5\xd6\xf0\t\xa7?'
tRp3319
aa(lp3320
g785
ag8
(g10
S'\xd1E\x17]t\x91@@'
tRp3321
ag8
(g10
S'\x99\xa2f<g\x96C?'
tRp3322
ag8
(g10
S'\xf0\x0f\xe5\xd6\xf0\t\xa7?'
tRp3323
aa(lp3324
g790
ag8
(g10
S'\xd1E\x17]t\x91@@'
tRp3325
ag8
(g10
S'\x99\xa2f<g\x96C?'
tRp3326
ag8
(g10
S'\xf0\x0f\xe5\xd6\xf0\t\xa7?'
tRp3327
aa(lp3328
g795
ag8
(g10
S'z\xd3\x9b\xde\xf4\xa6?@'
tRp3329
ag8
(g10
S'\xdfH\xf2(7\x13F?'
tRp3330
ag8
(g10
S'P6x\x1b\xef?\xa8?'
tRp3331
aa(lp3332
S'ENSG00000064932'
p3333
ag8
(g10
S':\xe7\x9cs\xce96@'
tRp3334
ag8
(g10
S'\xe6\xf4\xfc\xddX\xc6F?'
tRp3335
ag8
(g10
S'\xa0uJU/\xa9\xa8?'
tRp3336
aa(lp3337
S'ENSG00000104856'
p3338
ag8
(g10
S':\xe7\x9cs\xce96@'
tRp3339
ag8
(g10
S'\xe6\xf4\xfc\xddX\xc6F?'
tRp3340
ag8
(g10
S'\xa0uJU/\xa9\xa8?'
tRp3341
aasg108
g109
((lp3342
S'ENSG00000161981'
p3343
aS'ENSG00000242384'
p3344
aS'ENSG00000167081'
p3345
aS'ENSG00000136824'
p3346
aS'ENSG00000169429'
p3347
aS'ENSG00000170542'
p3348
aS'ENSG00000147912'
p3349
aS'ENSG00000204516'
p3350
aS'ENSG00000177380'
p3351
aS'ENSG00000240344'
p3352
aS'ENSG00000126603'
p3353
aS'ENSG00000125618'
p3354
aS'ENSG00000112149'
p3355
aS'ENSG00000160999'
p3356
aS'ENSG00000007908'
p3357
aS'ENSG00000128268'
p3358
aS'ENSG00000108342'
p3359
aS'ENSG00000108590'
p3360
aS'ENSG00000006468'
p3361
atRp3362
ssS'floralwhite'
p3363
(dp3364
g108
g109
((lp3365
S'ENSG00000219545'
p3366
aS'ENSG00000054219'
p3367
aS'ENSG00000122861'
p3368
aS'ENSG00000125812'
p3369
aS'ENSG00000111602'
p3370
aS'ENSG00000146263'
p3371
aS'ENSG00000131845'
p3372
aS'ENSG00000143622'
p3373
aS'ENSG00000155545'
p3374
aS'ENSG00000102924'
p3375
aS'ENSG00000169507'
p3376
aS'ENSG00000136982'
p3377
aS'ENSG00000163161'
p3378
aS'ENSG00000174574'
p3379
aS'ENSG00000146457'
p3380
aS'ENSG00000014919'
p3381
aS'ENSG00000167565'
p3382
aS'ENSG00000143578'
p3383
aS'ENSG00000138376'
p3384
aS'ENSG00000168906'
p3385
aS'ENSG00000185112'
p3386
aS'ENSG00000141741'
p3387
aS'ENSG00000158480'
p3388
aS'ENSG00000103037'
p3389
aS'ENSG00000162878'
p3390
atRp3391
ssS'coral'
p3392
(dp3393
g108
g109
((lp3394
S'ENSG00000099377'
p3395
aS'ENSG00000108924'
p3396
aS'ENSG00000007516'
p3397
aS'ENSG00000182533'
p3398
aS'ENSG00000162981'
p3399
aS'ENSG00000112164'
p3400
aS'ENSG00000196154'
p3401
aS'ENSG00000184838'
p3402
aS'ENSG00000212719'
p3403
aS'ENSG00000160282'
p3404
aS'ENSG00000155366'
p3405
aS'ENSG00000197956'
p3406
aS'ENSG00000160284'
p3407
aS'ENSG00000143156'
p3408
aS'ENSG00000112167'
p3409
aS'ENSG00000160606'
p3410
aS'ENSG00000138030'
p3411
aS'ENSG00000180917'
p3412
aS'ENSG00000160111'
p3413
aS'ENSG00000108433'
p3414
atRp3415
ssS'whitesmoke'
p3416
(dp3417
g108
g109
((lp3418
S'ENSG00000198792'
p3419
aS'ENSG00000180855'
p3420
aS'ENSG00000188786'
p3421
aS'ENSG00000189266'
p3422
aS'ENSG00000129932'
p3423
aS'ENSG00000099821'
p3424
aS'ENSG00000160679'
p3425
aS'ENSG00000170807'
p3426
aS'ENSG00000184545'
p3427
aS'ENSG00000182568'
p3428
aS'ENSG00000197299'
p3429
aS'ENSG00000135631'
p3430
aS'ENSG00000172785'
p3431
aS'ENSG00000177383'
p3432
aS'ENSG00000068971'
p3433
atRp3434
ssS'paleturquoise4'
p3435
(dp3436
g108
g109
((lp3437
S'ENSG00000136108'
p3438
aS'ENSG00000183549'
p3439
aS'ENSG00000087502'
p3440
aS'ENSG00000198093'
p3441
aS'ENSG00000164002'
p3442
aS'ENSG00000172006'
p3443
aS'ENSG00000122729'
p3444
aS'ENSG00000139719'
p3445
aS'ENSG00000139291'
p3446
aS'ENSG00000171681'
p3447
aS'ENSG00000155530'
p3448
aS'ENSG00000181004'
p3449
aS'ENSG00000122687'
p3450
aS'ENSG00000186468'
p3451
aS'ENSG00000094916'
p3452
atRp3453
ssS'firebrick3'
p3454
(dp3455
g108
g109
((lp3456
S'ENSG00000175155'
p3457
aS'ENSG00000164104'
p3458
aS'ENSG00000085514'
p3459
aS'ENSG00000223496'
p3460
aS'ENSG00000121716'
p3461
aS'ENSG00000166925'
p3462
aS'ENSG00000125657'
p3463
aS'ENSG00000223547'
p3464
aS'ENSG00000181274'
p3465
aS'ENSG00000145365'
p3466
aS'ENSG00000119280'
p3467
aS'ENSG00000125945'
p3468
aS'ENSG00000157322'
p3469
aS'ENSG00000163755'
p3470
aS'ENSG00000163545'
p3471
aS'ENSG00000185262'
p3472
aS'ENSG00000103811'
p3473
aS'ENSG00000259207'
p3474
aS'ENSG00000189339'
p3475
atRp3476
ssS'firebrick2'
p3477
(dp3478
g108
g109
((lp3479
S'ENSG00000213676'
p3480
aS'ENSG00000113209'
p3481
aS'ENSG00000204304'
p3482
aS'ENSG00000108523'
p3483
aS'ENSG00000088247'
p3484
aS'ENSG00000196963'
p3485
aS'ENSG00000185880'
p3486
aS'ENSG00000126746'
p3487
aS'ENSG00000175826'
p3488
aS'ENSG00000081818'
p3489
aS'ENSG00000140545'
p3490
aS'ENSG00000204310'
p3491
aS'ENSG00000116198'
p3492
aS'ENSG00000114854'
p3493
aS'ENSG00000016391'
p3494
aS'ENSG00000205929'
p3495
aS'ENSG00000112852'
p3496
atRp3497
ssS'darksalmon'
p3498
(dp3499
g108
g109
((lp3500
S'ENSG00000101457'
p3501
aS'ENSG00000136098'
p3502
aS'ENSG00000178053'
p3503
aS'ENSG00000141447'
p3504
aS'ENSG00000115687'
p3505
aS'ENSG00000132429'
p3506
aS'ENSG00000136104'
p3507
aS'ENSG00000187664'
p3508
aS'ENSG00000188343'
p3509
aS'ENSG00000143436'
p3510
aS'ENSG00000114405'
p3511
aS'ENSG00000079257'
p3512
aS'ENSG00000159110'
p3513
atRp3514
ssS'steelblue4'
p3515
(dp3516
g4
(lp3517
(lp3518
S'ENSG00000078018'
p3519
aFinf
ag8
(g10
S'H\xd0j4\xb1\xa4U?'
tRp3520
ag8
(g10
S'@\xa2\xe3\x87u\x80\xa6?'
tRp3521
aa(lp3522
S'ENSG00000156103'
p3523
aFinf
ag8
(g10
S'H\xd0j4\xb1\xa4U?'
tRp3524
ag8
(g10
S'@\xa2\xe3\x87u\x80\xa6?'
tRp3525
aa(lp3526
S'ENSG00000182916'
p3527
aFinf
ag8
(g10
S'H\xd0j4\xb1\xa4U?'
tRp3528
ag8
(g10
S'@\xa2\xe3\x87u\x80\xa6?'
tRp3529
aasg108
g109
((lp3530
S'ENSG00000173421'
p3531
aS'ENSG00000108370'
p3532
aS'ENSG00000096654'
p3533
aS'ENSG00000155034'
p3534
aS'ENSG00000117834'
p3535
aS'ENSG00000157764'
p3536
aS'ENSG00000129351'
p3537
aS'ENSG00000064652'
p3538
aS'ENSG00000127903'
p3539
aS'ENSG00000225399'
p3540
aS'ENSG00000118961'
p3541
atRp3542
ssS'sienna3'
p3543
(dp3544
g4
(lp3545
(lp3546
S'ENSG00000181092'
p3547
aFinf
ag8
(g10
S'\xc2\xc3\tK\x0f=\x13?'
tRp3548
ag8
(g10
S'\x00\x14\x98\x95\x8e7`?'
tRp3549
aasg108
g109
((lp3550
S'ENSG00000143353'
p3551
aS'ENSG00000176720'
p3552
aS'ENSG00000082146'
p3553
aS'ENSG00000141971'
p3554
aS'ENSG00000147316'
p3555
aS'ENSG00000005249'
p3556
aS'ENSG00000009950'
p3557
aS'ENSG00000228716'
p3558
aS'ENSG00000204149'
p3559
aS'ENSG00000132139'
p3560
aS'ENSG00000101158'
p3561
aS'ENSG00000070061'
p3562
aS'ENSG00000162444'
p3563
aS'ENSG00000119685'
p3564
aS'ENSG00000132170'
p3565
aS'ENSG00000176194'
p3566
aS'ENSG00000133317'
p3567
aS'ENSG00000170323'
p3568
aS'ENSG00000172901'
p3569
aS'ENSG00000156876'
p3570
aS'ENSG00000108244'
p3571
aS'ENSG00000134545'
p3572
aS'ENSG00000182950'
p3573
aS'ENSG00000166262'
p3574
aS'ENSG00000158042'
p3575
aS'ENSG00000213221'
p3576
atRp3577
ssS'firebrick4'
p3578
(dp3579
g108
g109
((lp3580
S'ENSG00000110060'
p3581
aS'ENSG00000029725'
p3582
aS'ENSG00000162669'
p3583
aS'ENSG00000154122'
p3584
aS'ENSG00000198919'
p3585
aS'ENSG00000101311'
p3586
aS'ENSG00000185024'
p3587
aS'ENSG00000167487'
p3588
aS'ENSG00000171497'
p3589
aS'ENSG00000174595'
p3590
aS'ENSG00000107882'
p3591
aS'ENSG00000165506'
p3592
aS'ENSG00000113522'
p3593
aS'ENSG00000158411'
p3594
aS'ENSG00000119906'
p3595
aS'ENSG00000268182'
p3596
aS'ENSG00000016402'
p3597
aS'ENSG00000123975'
p3598
aS'ENSG00000160360'
p3599
aS'ENSG00000160207'
p3600
aS'ENSG00000146066'
p3601
aS'ENSG00000117153'
p3602
aS'ENSG00000177868'
p3603
atRp3604
ssS'honeydew1'
p3605
(dp3606
g108
g109
((lp3607
S'ENSG00000257218'
p3608
aS'ENSG00000163072'
p3609
aS'ENSG00000198218'
p3610
aS'ENSG00000187715'
p3611
aS'ENSG00000136732'
p3612
aS'ENSG00000162367'
p3613
aS'ENSG00000186235'
p3614
aS'ENSG00000100353'
p3615
aS'ENSG00000123685'
p3616
aS'ENSG00000198478'
p3617
aS'ENSG00000136158'
p3618
aS'ENSG00000118496'
p3619
aS'ENSG00000166033'
p3620
aS'ENSG00000159433'
p3621
aS'ENSG00000204301'
p3622
aS'ENSG00000100596'
p3623
aS'ENSG00000114547'
p3624
aS'ENSG00000150636'
p3625
aS'ENSG00000136521'
p3626
aS'ENSG00000125551'
p3627
aS'ENSG00000160326'
p3628
aS'ENSG00000164039'
p3629
aS'ENSG00000127511'
p3630
aS'ENSG00000134072'
p3631
atRp3632
ssS'dodgerblue3'
p3633
(dp3634
g108
g109
((lp3635
S'ENSG00000215883'
p3636
aS'ENSG00000001460'
p3637
aS'ENSG00000128699'
p3638
aS'ENSG00000150867'
p3639
aS'ENSG00000157895'
p3640
aS'ENSG00000198171'
p3641
aS'ENSG00000169371'
p3642
aS'ENSG00000168958'
p3643
aS'ENSG00000104361'
p3644
aS'ENSG00000139725'
p3645
aS'ENSG00000102743'
p3646
aS'ENSG00000145545'
p3647
atRp3648
ssS'dodgerblue4'
p3649
(dp3650
g108
g109
((lp3651
S'ENSG00000205060'
p3652
aS'ENSG00000168143'
p3653
aS'ENSG00000204740'
p3654
aS'ENSG00000120937'
p3655
aS'ENSG00000124613'
p3656
aS'ENSG00000100376'
p3657
aS'ENSG00000124116'
p3658
aS'ENSG00000101751'
p3659
aS'ENSG00000117899'
p3660
aS'ENSG00000134200'
p3661
aS'ENSG00000006555'
p3662
aS'ENSG00000001629'
p3663
aS'ENSG00000114904'
p3664
aS'ENSG00000106686'
p3665
atRp3666
ssS'lightskyblue1'
p3667
(dp3668
g108
g109
((lp3669
S'ENSG00000171130'
p3670
aS'ENSG00000072364'
p3671
aS'ENSG00000185803'
p3672
aS'ENSG00000182325'
p3673
aS'ENSG00000159899'
p3674
aS'ENSG00000243789'
p3675
aS'ENSG00000234284'
p3676
aS'ENSG00000213281'
p3677
aS'ENSG00000138767'
p3678
aS'ENSG00000153246'
p3679
aS'ENSG00000102531'
p3680
aS'ENSG00000103227'
p3681
atRp3682
ssS'tomato4'
p3683
(dp3684
g108
g109
((lp3685
S'ENSG00000104863'
p3686
aS'ENSG00000173145'
p3687
aS'ENSG00000249437'
p3688
aS'ENSG00000205571'
p3689
aS'ENSG00000071575'
p3690
aS'ENSG00000185666'
p3691
aS'ENSG00000138658'
p3692
aS'ENSG00000122034'
p3693
aS'ENSG00000138483'
p3694
aS'ENSG00000197822'
p3695
aS'ENSG00000183474'
p3696
aS'ENSG00000145736'
p3697
aS'ENSG00000172058'
p3698
atRp3699
ssS'yellow4'
p3700
(dp3701
g108
g109
((lp3702
S'ENSG00000174446'
p3703
aS'ENSG00000157823'
p3704
aS'ENSG00000091157'
p3705
aS'ENSG00000136718'
p3706
aS'ENSG00000126464'
p3707
aS'ENSG00000129103'
p3708
aS'ENSG00000123416'
p3709
aS'ENSG00000064995'
p3710
aS'ENSG00000037042'
p3711
aS'ENSG00000105254'
p3712
aS'ENSG00000171282'
p3713
aS'ENSG00000100478'
p3714
aS'ENSG00000105376'
p3715
aS'ENSG00000128463'
p3716
aS'ENSG00000127241'
p3717
aS'ENSG00000197696'
p3718
aS'ENSG00000155792'
p3719
aS'ENSG00000116127'
p3720
aS'ENSG00000103249'
p3721
aS'ENSG00000172748'
p3722
aS'ENSG00000127824'
p3723
aS'ENSG00000118197'
p3724
aS'ENSG00000162894'
p3725
atRp3726
ssS'greenyellow'
p3727
(dp3728
g108
g109
((lp3729
S'ENSG00000179833'
p3730
aS'ENSG00000177685'
p3731
aS'ENSG00000138303'
p3732
aS'ENSG00000219607'
p3733
aS'ENSG00000171469'
p3734
aS'ENSG00000119950'
p3735
aS'ENSG00000268885'
p3736
aS'ENSG00000079263'
p3737
aS'ENSG00000005156'
p3738
aS'ENSG00000068781'
p3739
aS'ENSG00000022556'
p3740
aS'ENSG00000185324'
p3741
aS'ENSG00000019995'
p3742
aS'ENSG00000197016'
p3743
aS'ENSG00000198105'
p3744
aS'ENSG00000042493'
p3745
aS'ENSG00000232070'
p3746
aS'ENSG00000131196'
p3747
aS'ENSG00000104341'
p3748
aS'ENSG00000166206'
p3749
aS'ENSG00000163406'
p3750
aS'ENSG00000115598'
p3751
aS'ENSG00000103034'
p3752
aS'ENSG00000242441'
p3753
aS'ENSG00000120963'
p3754
aS'ENSG00000122390'
p3755
aS'ENSG00000147894'
p3756
aS'ENSG00000262621'
p3757
aS'ENSG00000152822'
p3758
aS'ENSG00000188529'
p3759
aS'ENSG00000101004'
p3760
aS'ENSG00000163110'
p3761
aS'ENSG00000186073'
p3762
aS'ENSG00000157927'
p3763
aS'ENSG00000164691'
p3764
atRp3765
ssS'tomato2'
p3766
(dp3767
g108
g109
((lp3768
S'ENSG00000121210'
p3769
aS'ENSG00000104731'
p3770
aS'ENSG00000185561'
p3771
aS'ENSG00000121940'
p3772
aS'ENSG00000145217'
p3773
aS'ENSG00000168661'
p3774
aS'ENSG00000156030'
p3775
aS'ENSG00000170677'
p3776
aS'ENSG00000103740'
p3777
aS'ENSG00000152380'
p3778
aS'ENSG00000100104'
p3779
aS'ENSG00000180611'
p3780
aS'ENSG00000181031'
p3781
aS'ENSG00000146426'
p3782
aS'ENSG00000183508'
p3783
atRp3784
ssS'navajowhite4'
p3785
(dp3786
g108
g109
((lp3787
S'ENSG00000102967'
p3788
aS'ENSG00000122557'
p3789
aS'ENSG00000103351'
p3790
aS'ENSG00000183617'
p3791
aS'ENSG00000088280'
p3792
aS'ENSG00000124226'
p3793
aS'ENSG00000221986'
p3794
aS'ENSG00000169902'
p3795
aS'ENSG00000125652'
p3796
aS'ENSG00000244187'
p3797
aS'ENSG00000068654'
p3798
aS'ENSG00000011478'
p3799
aS'ENSG00000174197'
p3800
aS'ENSG00000072864'
p3801
atRp3802
ssS'mediumorchid'
p3803
(dp3804
g4
(lp3805
(lp3806
S'ENSG00000198785'
p3807
aFinf
ag8
(g10
S'T\xd0j4\xb1\xa4e?'
tRp3808
ag8
(g10
S'\x00}\x12\xe5\xc5\x8e\x85?'
tRp3809
aa(lp3810
S'ENSG00000205364'
p3811
ag8
(g10
S'\x00\x00\x00\x00\x00\xc0b@'
tRp3812
ag8
(g10
S'b\x18\xf6\x00\xc7-\x90?'
tRp3813
ag8
(g10
S'\xe0\x1fR\xa0\xe3\x1f\x98?'
tRp3814
aa(lp3815
S'ENSG00000115604'
p3816
ag8
(g10
S'UUUUUUo@'
tRp3817
ag8
(g10
S'\xad5\x89\xe2\xb2\x99\x85?'
tRp3818
ag8
(g10
S'\xe0\x1fR\xa0\xe3\x1f\x98?'
tRp3819
aa(lp3820
S'ENSG00000115602'
p3821
ag8
(g10
S'\x00\x00\x00\x00\x00\x88w@'
tRp3822
ag8
(g10
S'\xfbV_\xbe\x056\x80?'
tRp3823
ag8
(g10
S'\xe0\x1fR\xa0\xe3\x1f\x98?'
tRp3824
aasg108
g109
((lp3825
S'ENSG00000164916'
p3826
aS'ENSG00000242252'
p3827
aS'ENSG00000168522'
p3828
aS'ENSG00000177191'
p3829
aS'ENSG00000185043'
p3830
aS'ENSG00000110514'
p3831
aS'ENSG00000119640'
p3832
aS'ENSG00000212743'
p3833
aS'ENSG00000141404'
p3834
aS'ENSG00000133739'
p3835
aS'ENSG00000101546'
p3836
aS'ENSG00000146733'
p3837
aS'ENSG00000134809'
p3838
aS'ENSG00000174106'
p3839
aS'ENSG00000135913'
p3840
aS'ENSG00000127952'
p3841
aS'ENSG00000182400'
p3842
aS'ENSG00000100024'
p3843
aS'ENSG00000196739'
p3844
aS'ENSG00000188010'
p3845
aS'ENSG00000135314'
p3846
aS'ENSG00000198408'
p3847
aS'ENSG00000135968'
p3848
aS'ENSG00000106069'
p3849
atRp3850
ssS'navajowhite1'
p3851
(dp3852
g108
g109
((lp3853
S'ENSG00000116288'
p3854
aS'ENSG00000173915'
p3855
aS'ENSG00000126267'
p3856
aS'ENSG00000127129'
p3857
aS'ENSG00000189043'
p3858
aS'ENSG00000164405'
p3859
aS'ENSG00000110328'
p3860
aS'ENSG00000154723'
p3861
aS'ENSG00000004779'
p3862
aS'ENSG00000130684'
p3863
aS'ENSG00000232112'
p3864
aS'ENSG00000124207'
p3865
aS'ENSG00000138495'
p3866
aS'ENSG00000170917'
p3867
aS'ENSG00000168275'
p3868
aS'ENSG00000154016'
p3869
aS'ENSG00000074800'
p3870
aS'ENSG00000178741'
p3871
aS'ENSG00000123453'
p3872
aS'ENSG00000198250'
p3873
aS'ENSG00000170906'
p3874
atRp3875
ssS'navajowhite2'
p3876
(dp3877
g108
g109
((lp3878
S'ENSG00000184840'
p3879
aS'ENSG00000132970'
p3880
aS'ENSG00000236624'
p3881
aS'ENSG00000173486'
p3882
aS'ENSG00000244038'
p3883
aS'ENSG00000120725'
p3884
aS'ENSG00000087191'
p3885
aS'ENSG00000179218'
p3886
aS'ENSG00000163902'
p3887
aS'ENSG00000168497'
p3888
aS'ENSG00000164828'
p3889
aS'ENSG00000105576'
p3890
aS'ENSG00000108592'
p3891
aS'ENSG00000074603'
p3892
aS'ENSG00000185627'
p3893
aS'ENSG00000116209'
p3894
aS'ENSG00000142188'
p3895
aS'ENSG00000143761'
p3896
aS'ENSG00000084207'
p3897
aS'ENSG00000145050'
p3898
aS'ENSG00000158161'
p3899
aS'ENSG00000055211'
p3900
aS'ENSG00000118705'
p3901
aS'ENSG00000051108'
p3902
atRp3903
ssS'magenta2'
p3904
(dp3905
g108
g109
((lp3906
S'ENSG00000099282'
p3907
aS'ENSG00000106178'
p3908
aS'ENSG00000154080'
p3909
aS'ENSG00000107679'
p3910
aS'ENSG00000196428'
p3911
aS'ENSG00000165071'
p3912
aS'ENSG00000176022'
p3913
aS'ENSG00000132535'
p3914
aS'ENSG00000100077'
p3915
aS'ENSG00000169299'
p3916
aS'ENSG00000155760'
p3917
aS'ENSG00000104320'
p3918
aS'ENSG00000129295'
p3919
aS'ENSG00000136026'
p3920
aS'ENSG00000170417'
p3921
aS'ENSG00000163104'
p3922
atRp3923
ssS'sienna'
p3924
(dp3925
g108
g109
((lp3926
S'ENSG00000205078'
p3927
aS'ENSG00000178233'
p3928
aS'ENSG00000256269'
p3929
aS'ENSG00000162714'
p3930
aS'ENSG00000189190'
p3931
aS'ENSG00000141295'
p3932
aS'ENSG00000160695'
p3933
aS'ENSG00000157181'
p3934
aS'ENSG00000120756'
p3935
aS'ENSG00000170892'
p3936
aS'ENSG00000067369'
p3937
aS'ENSG00000188234'
p3938
aS'ENSG00000183735'
p3939
aS'ENSG00000197548'
p3940
atRp3941
ssS'mediumpurple'
p3942
(dp3943
g4
(lp3944
(lp3945
S'ENSG00000116824'
p3946
ag8
(g10
S'\xab\xaa\xaa\xaa\xaaJ\x7f@'
tRp3947
ag8
(g10
S'/\xbd?h)i\x1b?'
tRp3948
ag8
(g10
S'\x00\xd81>\x17\xfaG?'
tRp3949
aa(lp3950
S'ENSG00000198851'
p3951
ag8
(g10
S'I\x92$I\x92dC@'
tRp3952
ag8
(g10
S'\xd5~\xf9\x02\x99TC?'
tRp3953
ag8
(g10
S'\x00:\x818\xf5\xf3l?'
tRp3954
aasg108
g109
((lp3955
S'ENSG00000172543'
p3956
aS'ENSG00000119185'
p3957
aS'ENSG00000213402'
p3958
aS'ENSG00000185811'
p3959
aS'ENSG00000145649'
p3960
aS'ENSG00000115523'
p3961
aS'ENSG00000127666'
p3962
aS'ENSG00000175634'
p3963
aS'ENSG00000080166'
p3964
aS'ENSG00000170473'
p3965
aS'ENSG00000101282'
p3966
aS'ENSG00000110448'
p3967
aS'ENSG00000137575'
p3968
aS'ENSG00000104899'
p3969
aS'ENSG00000162676'
p3970
aS'ENSG00000116824'
p3971
aS'ENSG00000171903'
p3972
atRp3973
ssS'lightcoral'
p3974
(dp3975
g108
g109
((lp3976
S'ENSG00000065518'
p3977
aS'ENSG00000171421'
p3978
aS'ENSG00000230055'
p3979
aS'ENSG00000198185'
p3980
aS'ENSG00000088543'
p3981
aS'ENSG00000058085'
p3982
aS'ENSG00000109689'
p3983
aS'ENSG00000100722'
p3984
aS'ENSG00000112294'
p3985
aS'ENSG00000138835'
p3986
aS'ENSG00000196814'
p3987
aS'ENSG00000198203'
p3988
aS'ENSG00000173166'
p3989
aS'ENSG00000197763'
p3990
aS'ENSG00000005100'
p3991
aS'ENSG00000205464'
p3992
aS'ENSG00000164031'
p3993
aS'ENSG00000182150'
p3994
aS'ENSG00000133704'
p3995
aS'ENSG00000117481'
p3996
aS'ENSG00000219626'
p3997
aS'ENSG00000163170'
p3998
aS'ENSG00000072840'
p3999
atRp4000
ssS'orangered'
p4001
(dp4002
g108
g109
((lp4003
S'ENSG00000186160'
p4004
aS'ENSG00000155511'
p4005
aS'ENSG00000007171'
p4006
aS'ENSG00000185361'
p4007
aS'ENSG00000106688'
p4008
aS'ENSG00000162426'
p4009
aS'ENSG00000242110'
p4010
aS'ENSG00000172594'
p4011
aS'ENSG00000142973'
p4012
aS'ENSG00000140323'
p4013
aS'ENSG00000102575'
p4014
aS'ENSG00000176393'
p4015
aS'ENSG00000182117'
p4016
aS'ENSG00000196456'
p4017
aS'ENSG00000117122'
p4018
aS'ENSG00000108344'
p4019
aS'ENSG00000119326'
p4020
atRp4021
ssS'navajowhite'
p4022
(dp4023
g108
g109
((lp4024
S'ENSG00000172575'
p4025
aS'ENSG00000116157'
p4026
aS'ENSG00000185684'
p4027
aS'ENSG00000094975'
p4028
aS'ENSG00000099953'
p4029
aS'ENSG00000115944'
p4030
aS'ENSG00000099956'
p4031
aS'ENSG00000187773'
p4032
aS'ENSG00000180999'
p4033
aS'ENSG00000095203'
p4034
aS'ENSG00000171953'
p4035
aS'ENSG00000073584'
p4036
aS'ENSG00000089876'
p4037
aS'ENSG00000162623'
p4038
aS'ENSG00000113356'
p4039
aS'ENSG00000079335'
p4040
aS'ENSG00000049239'
p4041
aS'ENSG00000044459'
p4042
atRp4043
ssS'pink3'
p4044
(dp4045
g108
g109
((lp4046
S'ENSG00000087157'
p4047
aS'ENSG00000168502'
p4048
aS'ENSG00000185442'
p4049
aS'ENSG00000197769'
p4050
aS'ENSG00000235478'
p4051
aS'ENSG00000140955'
p4052
aS'ENSG00000103168'
p4053
aS'ENSG00000183826'
p4054
aS'ENSG00000113300'
p4055
aS'ENSG00000242372'
p4056
aS'ENSG00000173926'
p4057
aS'ENSG00000189306'
p4058
aS'ENSG00000121350'
p4059
aS'ENSG00000062524'
p4060
aS'ENSG00000260259'
p4061
aS'ENSG00000106100'
p4062
aS'ENSG00000079691'
p4063
atRp4064
ssS'mediumpurple3'
p4065
(dp4066
g108
g109
((lp4067
S'ENSG00000121769'
p4068
aS'ENSG00000171503'
p4069
aS'ENSG00000131732'
p4070
aS'ENSG00000172831'
p4071
aS'ENSG00000176046'
p4072
aS'ENSG00000177666'
p4073
aS'ENSG00000198954'
p4074
aS'ENSG00000224982'
p4075
aS'ENSG00000060971'
p4076
aS'ENSG00000101255'
p4077
aS'ENSG00000134240'
p4078
aS'ENSG00000165795'
p4079
aS'ENSG00000078043'
p4080
aS'ENSG00000253320'
p4081
aS'ENSG00000100726'
p4082
aS'ENSG00000171723'
p4083
aS'ENSG00000175567'
p4084
aS'ENSG00000185838'
p4085
aS'ENSG00000147853'
p4086
aS'ENSG00000119673'
p4087
aS'ENSG00000133835'
p4088
aS'ENSG00000205560'
p4089
aS'ENSG00000166902'
p4090
aS'ENSG00000070669'
p4091
aS'ENSG00000155313'
p4092
atRp4093
ssS'burlywood'
p4094
(dp4095
g108
g109
((lp4096
S'ENSG00000185950'
p4097
aS'ENSG00000121957'
p4098
aS'ENSG00000047188'
p4099
aS'ENSG00000198846'
p4100
aS'ENSG00000117479'
p4101
aS'ENSG00000139182'
p4102
aS'ENSG00000145824'
p4103
aS'ENSG00000145780'
p4104
aS'ENSG00000164733'
p4105
aS'ENSG00000008128'
p4106
aS'ENSG00000113742'
p4107
aS'ENSG00000144214'
p4108
aS'ENSG00000189120'
p4109
aS'ENSG00000173456'
p4110
atRp4111
ssS'royalblue'
p4112
(dp4113
g4
(lp4114
(lp4115
S'ENSG00000266010'
p4116
ag8
(g10
S'UUUUUUo@'
tRp4117
ag8
(g10
S'\x8d1\x89\xe2\xb2\x99\x85?'
tRp4118
ag8
(g10
S'\xe0\x8c\x81\xa8\x89|\x95?'
tRp4119
aa(lp4120
S'ENSG00000132938'
p4121
ag8
(g10
S'UUUUU\xd5T@'
tRp4122
ag8
(g10
S'/q\x8b&\xc5\x83\x95?'
tRp4123
ag8
(g10
S' q\x8b&\xc5\x83\x95?'
tRp4124
aasg108
g109
((lp4125
S'ENSG00000110721'
p4126
aS'ENSG00000169570'
p4127
aS'ENSG00000206549'
p4128
aS'ENSG00000160124'
p4129
aS'ENSG00000091640'
p4130
aS'ENSG00000184313'
p4131
aS'ENSG00000244731'
p4132
aS'ENSG00000162975'
p4133
aS'ENSG00000178055'
p4134
aS'ENSG00000179761'
p4135
aS'ENSG00000121101'
p4136
aS'ENSG00000162889'
p4137
aS'ENSG00000162650'
p4138
aS'ENSG00000196781'
p4139
aS'ENSG00000188086'
p4140
aS'ENSG00000261603'
p4141
aS'ENSG00000110427'
p4142
aS'ENSG00000243725'
p4143
aS'ENSG00000089847'
p4144
aS'ENSG00000112414'
p4145
aS'ENSG00000134371'
p4146
aS'ENSG00000132906'
p4147
aS'ENSG00000169085'
p4148
aS'ENSG00000118564'
p4149
aS'ENSG00000101574'
p4150
aS'ENSG00000151694'
p4151
aS'ENSG00000184517'
p4152
aS'ENSG00000059122'
p4153
aS'ENSG00000102858'
p4154
aS'ENSG00000112406'
p4155
atRp4156
ssS'blanchedalmond'
p4157
(dp4158
g108
g109
((lp4159
S'ENSG00000021762'
p4160
aS'ENSG00000065268'
p4161
aS'ENSG00000144791'
p4162
aS'ENSG00000185559'
p4163
aS'ENSG00000182704'
p4164
aS'ENSG00000140836'
p4165
aS'ENSG00000066926'
p4166
aS'ENSG00000151208'
p4167
aS'ENSG00000235631'
p4168
aS'ENSG00000161021'
p4169
aS'ENSG00000165115'
p4170
aS'ENSG00000120860'
p4171
aS'ENSG00000158473'
p4172
aS'ENSG00000106628'
p4173
atRp4174
ssS'peru'
p4175
(dp4176
g108
g109
((lp4177
S'ENSG00000160233'
p4178
aS'ENSG00000179958'
p4179
aS'ENSG00000145147'
p4180
aS'ENSG00000137824'
p4181
aS'ENSG00000132793'
p4182
aS'ENSG00000134532'
p4183
aS'ENSG00000065989'
p4184
aS'ENSG00000184983'
p4185
aS'ENSG00000167186'
p4186
aS'ENSG00000108669'
p4187
aS'ENSG00000110492'
p4188
aS'ENSG00000146830'
p4189
aS'ENSG00000164967'
p4190
atRp4191
ssS'aquamarine'
p4192
(dp4193
g108
g109
((lp4194
S'ENSG00000105738'
p4195
aS'ENSG00000085662'
p4196
aS'ENSG00000138134'
p4197
aS'ENSG00000109861'
p4198
aS'ENSG00000100292'
p4199
aS'ENSG00000114166'
p4200
aS'ENSG00000115998'
p4201
aS'ENSG00000179456'
p4202
aS'ENSG00000154639'
p4203
atRp4204
ssS'white'
p4205
(dp4206
g108
g109
((lp4207
S'ENSG00000102595'
p4208
aS'ENSG00000177706'
p4209
aS'ENSG00000183172'
p4210
aS'ENSG00000130177'
p4211
aS'ENSG00000140950'
p4212
aS'ENSG00000100568'
p4213
aS'ENSG00000139132'
p4214
aS'ENSG00000169689'
p4215
aS'ENSG00000198805'
p4216
aS'ENSG00000150455'
p4217
aS'ENSG00000178852'
p4218
aS'ENSG00000124587'
p4219
aS'ENSG00000178209'
p4220
aS'ENSG00000101247'
p4221
aS'ENSG00000054793'
p4222
aS'ENSG00000155755'
p4223
aS'ENSG00000155754'
p4224
aS'ENSG00000185033'
p4225
aS'ENSG00000101577'
p4226
aS'ENSG00000128563'
p4227
aS'ENSG00000178381'
p4228
aS'ENSG00000163281'
p4229
aS'ENSG00000175581'
p4230
aS'ENSG00000185989'
p4231
aS'ENSG00000054148'
p4232
aS'ENSG00000197345'
p4233
aS'ENSG00000111906'
p4234
aS'ENSG00000141458'
p4235
aS'ENSG00000163655'
p4236
atRp4237
ssS'tan4'
p4238
(dp4239
g108
g109
((lp4240
S'ENSG00000228146'
p4241
aS'ENSG00000106565'
p4242
aS'ENSG00000168116'
p4243
aS'ENSG00000105767'
p4244
aS'ENSG00000249931'
p4245
aS'ENSG00000144671'
p4246
aS'ENSG00000038210'
p4247
aS'ENSG00000185689'
p4248
aS'ENSG00000002726'
p4249
aS'ENSG00000164543'
p4250
aS'ENSG00000213965'
p4251
aS'ENSG00000132436'
p4252
aS'ENSG00000012232'
p4253
aS'ENSG00000165752'
p4254
aS'ENSG00000067066'
p4255
aS'ENSG00000173442'
p4256
aS'ENSG00000170113'
p4257
aS'ENSG00000002933'
p4258
atRp4259
ssS'tan3'
p4260
(dp4261
g4
(lp4262
(lp4263
S'ENSG00000120937'
p4264
aFinf
ag8
(g10
S' \x19P\xe7\x84;p?'
tRp4265
ag8
(g10
S'\x00\x19P\xe7\x84;p?'
tRp4266
aasg108
g109
((lp4267
S'ENSG00000172197'
p4268
aS'ENSG00000137720'
p4269
aS'ENSG00000170632'
p4270
aS'ENSG00000243927'
p4271
aS'ENSG00000213626'
p4272
aS'ENSG00000151893'
p4273
aS'ENSG00000148158'
p4274
aS'ENSG00000155368'
p4275
aS'ENSG00000134779'
p4276
aS'ENSG00000143933'
p4277
aS'ENSG00000181915'
p4278
aS'ENSG00000125868'
p4279
aS'ENSG00000143951'
p4280
aS'ENSG00000206561'
p4281
aS'ENSG00000142279'
p4282
aS'ENSG00000168904'
p4283
atRp4284
ssS'tan2'
p4285
(dp4286
g108
g109
((lp4287
S'ENSG00000197043'
p4288
aS'ENSG00000086619'
p4289
aS'ENSG00000108465'
p4290
aS'ENSG00000139269'
p4291
aS'ENSG00000198624'
p4292
aS'ENSG00000248540'
p4293
aS'ENSG00000137411'
p4294
aS'ENSG00000204351'
p4295
aS'ENSG00000179639'
p4296
aS'ENSG00000111665'
p4297
aS'ENSG00000111664'
p4298
aS'ENSG00000149679'
p4299
aS'ENSG00000141480'
p4300
aS'ENSG00000146476'
p4301
aS'ENSG00000127054'
p4302
atRp4303
ssS'tan1'
p4304
(dp4305
g4
(lp4306
(lp4307
S'ENSG00000124743'
p4308
ag8
(g10
S'UUUUUUo@'
tRp4309
ag8
(g10
S'\xad5\x89\xe2\xb2\x99\x85?'
tRp4310
ag8
(g10
S'\xc0\xdd\x17\xb1\xaf\x07\xa0?'
tRp4311
aa(lp4312
S'ENSG00000107165'
p4313
ag8
(g10
S'UUUUUUo@'
tRp4314
ag8
(g10
S'\xad5\x89\xe2\xb2\x99\x85?'
tRp4315
ag8
(g10
S'\xc0\xdd\x17\xb1\xaf\x07\xa0?'
tRp4316
aa(lp4317
S'ENSG00000163827'
p4318
ag8
(g10
S'\x00\x00\x00\x00\x00xg@'
tRp4319
ag8
(g10
S'\xf3w\r\xf9\x8a\xfb\x8a?'
tRp4320
ag8
(g10
S'\xc0\xdd\x17\xb1\xaf\x07\xa0?'
tRp4321
aasg108
g109
((lp4322
S'ENSG00000144730'
p4323
aS'ENSG00000066583'
p4324
aS'ENSG00000148700'
p4325
aS'ENSG00000159166'
p4326
aS'ENSG00000162341'
p4327
aS'ENSG00000140474'
p4328
aS'ENSG00000214106'
p4329
aS'ENSG00000168038'
p4330
aS'ENSG00000138829'
p4331
aS'ENSG00000116005'
p4332
aS'ENSG00000113396'
p4333
aS'ENSG00000197599'
p4334
aS'ENSG00000106631'
p4335
atRp4336
ssS'tomato'
p4337
(dp4338
g108
g109
((lp4339
S'ENSG00000128617'
p4340
aS'ENSG00000071246'
p4341
aS'ENSG00000025156'
p4342
aS'ENSG00000164088'
p4343
aS'ENSG00000149016'
p4344
aS'ENSG00000172986'
p4345
aS'ENSG00000197608'
p4346
aS'ENSG00000172716'
p4347
aS'ENSG00000187554'
p4348
aS'ENSG00000142046'
p4349
aS'ENSG00000182472'
p4350
aS'ENSG00000132432'
p4351
aS'ENSG00000160961'
p4352
aS'ENSG00000136731'
p4353
aS'ENSG00000099331'
p4354
aS'ENSG00000090615'
p4355
atRp4356
ssS'ivory'
p4357
(dp4358
g108
g109
((lp4359
S'ENSG00000131711'
p4360
aS'ENSG00000138101'
p4361
aS'ENSG00000182185'
p4362
aS'ENSG00000117425'
p4363
aS'ENSG00000175161'
p4364
aS'ENSG00000061676'
p4365
aS'ENSG00000164303'
p4366
aS'ENSG00000205352'
p4367
aS'ENSG00000136807'
p4368
aS'ENSG00000152767'
p4369
aS'ENSG00000035115'
p4370
aS'ENSG00000143155'
p4371
aS'ENSG00000188004'
p4372
aS'ENSG00000137285'
p4373
aS'ENSG00000105270'
p4374
aS'ENSG00000026652'
p4375
aS'ENSG00000135596'
p4376
aS'ENSG00000140682'
p4377
aS'ENSG00000134996'
p4378
aS'ENSG00000107819'
p4379
aS'ENSG00000136870'
p4380
aS'ENSG00000113812'
p4381
aS'ENSG00000179933'
p4382
aS'ENSG00000182952'
p4383
aS'ENSG00000140937'
p4384
atRp4385
ssS'lightyellow'
p4386
(dp4387
g108
g109
((lp4388
S'ENSG00000107984'
p4389
aS'ENSG00000165633'
p4390
aS'ENSG00000055955'
p4391
aS'ENSG00000124191'
p4392
aS'ENSG00000181790'
p4393
aS'ENSG00000020922'
p4394
aS'ENSG00000095627'
p4395
aS'ENSG00000097046'
p4396
aS'ENSG00000148660'
p4397
aS'ENSG00000168386'
p4398
aS'ENSG00000120071'
p4399
aS'ENSG00000169783'
p4400
aS'ENSG00000151468'
p4401
aS'ENSG00000111696'
p4402
aS'ENSG00000228696'
p4403
aS'ENSG00000146477'
p4404
aS'ENSG00000125337'
p4405
aS'ENSG00000196290'
p4406
aS'ENSG00000173705'
p4407
aS'ENSG00000085982'
p4408
aS'ENSG00000152348'
p4409
aS'ENSG00000172687'
p4410
aS'ENSG00000170881'
p4411
aS'ENSG00000174672'
p4412
aS'ENSG00000144182'
p4413
aS'ENSG00000006740'
p4414
aS'ENSG00000203668'
p4415
aS'ENSG00000169282'
p4416
aS'ENSG00000100191'
p4417
aS'ENSG00000204219'
p4418
aS'ENSG00000153714'
p4419
atRp4420
ssS'chocolate'
p4421
(dp4422
g4
(lp4423
(lp4424
S'ENSG00000159166'
p4425
aFinf
ag8
(g10
S' \x19P\xe7\x84;p?'
tRp4426
ag8
(g10
S'\x00\x8c\xb4\xf3H3\x80?'
tRp4427
aa(lp4428
S'ENSG00000118640'
p4429
aFinf
ag8
(g10
S'<\xcfj4\xb1\xa4\xa5?'
tRp4430
ag8
(g10
S'@\xcfj4\xb1\xa4\xa5?'
tRp4431
aasg108
g109
((lp4432
S'ENSG00000188677'
p4433
aS'ENSG00000124839'
p4434
aS'ENSG00000171757'
p4435
aS'ENSG00000197363'
p4436
aS'ENSG00000095066'
p4437
aS'ENSG00000161888'
p4438
aS'ENSG00000138346'
p4439
aS'ENSG00000197020'
p4440
aS'ENSG00000197256'
p4441
atRp4442
ssS'lightpink2'
p4443
(dp4444
g108
g109
((lp4445
S'ENSG00000078618'
p4446
aS'ENSG00000068097'
p4447
aS'ENSG00000106263'
p4448
aS'ENSG00000005436'
p4449
aS'ENSG00000137492'
p4450
aS'ENSG00000215305'
p4451
aS'ENSG00000082516'
p4452
aS'ENSG00000018699'
p4453
aS'ENSG00000004766'
p4454
aS'ENSG00000133706'
p4455
aS'ENSG00000100580'
p4456
aS'ENSG00000006744'
p4457
aS'ENSG00000196715'
p4458
aS'ENSG00000102699'
p4459
aS'ENSG00000125912'
p4460
aS'ENSG00000132382'
p4461
aS'ENSG00000181408'
p4462
aS'ENSG00000077348'
p4463
atRp4464
ssS'lightpink3'
p4465
(dp4466
g108
g109
((lp4467
S'ENSG00000175643'
p4468
aS'ENSG00000110074'
p4469
aS'ENSG00000161091'
p4470
aS'ENSG00000090989'
p4471
aS'ENSG00000127561'
p4472
aS'ENSG00000183287'
p4473
aS'ENSG00000023734'
p4474
aS'ENSG00000206150'
p4475
aS'ENSG00000175322'
p4476
aS'ENSG00000132313'
p4477
aS'ENSG00000162769'
p4478
aS'ENSG00000105479'
p4479
aS'ENSG00000159314'
p4480
aS'ENSG00000198754'
p4481
aS'ENSG00000011485'
p4482
aS'ENSG00000145241'
p4483
aS'ENSG00000151725'
p4484
aS'ENSG00000167323'
p4485
aS'ENSG00000165171'
p4486
aS'ENSG00000129422'
p4487
aS'ENSG00000139899'
p4488
atRp4489
ssS'lightpink1'
p4490
(dp4491
g108
g109
((lp4492
S'ENSG00000081913'
p4493
aS'ENSG00000092200'
p4494
aS'ENSG00000138964'
p4495
aS'ENSG00000127578'
p4496
aS'ENSG00000042753'
p4497
aS'ENSG00000168071'
p4498
aS'ENSG00000161640'
p4499
aS'ENSG00000140368'
p4500
aS'ENSG00000204604'
p4501
aS'ENSG00000135213'
p4502
aS'ENSG00000100092'
p4503
aS'ENSG00000108509'
p4504
aS'ENSG00000111790'
p4505
aS'ENSG00000133069'
p4506
aS'ENSG00000136816'
p4507
aS'ENSG00000137841'
p4508
atRp4509
ssS'darkgrey'
p4510
(dp4511
g4
(lp4512
(lp4513
S'ENSG00000026103'
p4514
ag8
(g10
S'\x00\x00\x00\x00\x00\x90\x87@'
tRp4515
ag8
(g10
S'\x07\xd5\x1f\x19\x07\xa1u?'
tRp4516
ag8
(g10
S'\x00\xd5\x1f\x19\x07\xa1u?'
tRp4517
aasg108
g109
((lp4518
S'ENSG00000183291'
p4519
aS'ENSG00000131473'
p4520
aS'ENSG00000117118'
p4521
aS'ENSG00000119723'
p4522
aS'ENSG00000073578'
p4523
aS'ENSG00000087076'
p4524
aS'ENSG00000149089'
p4525
aS'ENSG00000102908'
p4526
aS'ENSG00000139684'
p4527
aS'ENSG00000100350'
p4528
aS'ENSG00000156253'
p4529
aS'ENSG00000178038'
p4530
aS'ENSG00000173200'
p4531
aS'ENSG00000141349'
p4532
aS'ENSG00000110851'
p4533
aS'ENSG00000165792'
p4534
aS'ENSG00000125166'
p4535
aS'ENSG00000254614'
p4536
aS'ENSG00000170322'
p4537
aS'ENSG00000141127'
p4538
aS'ENSG00000267534'
p4539
aS'ENSG00000086232'
p4540
aS'ENSG00000168291'
p4541
aS'ENSG00000204463'
p4542
aS'ENSG00000124713'
p4543
aS'ENSG00000036054'
p4544
aS'ENSG00000130414'
p4545
aS'ENSG00000148824'
p4546
aS'ENSG00000102978'
p4547
aS'ENSG00000102977'
p4548
atRp4549
ssS'lightpink4'
p4550
(dp4551
g4
(lp4552
(lp4553
S'ENSG00000197106'
p4554
aFinf
ag8
(g10
S'H\xd0j4\xb1\xa4U?'
tRp4555
ag8
(g10
S'\x80\x99\xa78\x086p?'
tRp4556
aa(lp4557
S'ENSG00000141639'
p4558
aFinf
ag8
(g10
S' \x19P\xe7\x84;p?'
tRp4559
ag8
(g10
S'\x00\x8c\xb4\xf3H3\x80?'
tRp4560
aasg108
g109
((lp4561
S'ENSG00000214940'
p4562
aS'ENSG00000112031'
p4563
aS'ENSG00000180592'
p4564
aS'ENSG00000164404'
p4565
aS'ENSG00000073969'
p4566
aS'ENSG00000111554'
p4567
aS'ENSG00000038002'
p4568
aS'ENSG00000109332'
p4569
aS'ENSG00000196352'
p4570
aS'ENSG00000118473'
p4571
aS'ENSG00000121361'
p4572
aS'ENSG00000095261'
p4573
aS'ENSG00000256073'
p4574
aS'ENSG00000184588'
p4575
aS'ENSG00000013573'
p4576
aS'ENSG00000112619'
p4577
aS'ENSG00000125734'
p4578
aS'ENSG00000198890'
p4579
aS'ENSG00000124782'
p4580
aS'ENSG00000113448'
p4581
aS'ENSG00000178776'
p4582
aS'ENSG00000047932'
p4583
aS'ENSG00000163389'
p4584
aS'ENSG00000169122'
p4585
atRp4586
ssS'darkseagreen3'
p4587
(dp4588
g108
g109
((lp4589
S'ENSG00000174502'
p4590
aS'ENSG00000155506'
p4591
aS'ENSG00000188613'
p4592
aS'ENSG00000132953'
p4593
aS'ENSG00000120837'
p4594
aS'ENSG00000163576'
p4595
aS'ENSG00000146856'
p4596
aS'ENSG00000154328'
p4597
aS'ENSG00000166557'
p4598
aS'ENSG00000183833'
p4599
aS'ENSG00000120008'
p4600
aS'ENSG00000166111'
p4601
aS'ENSG00000109775'
p4602
aS'ENSG00000166682'
p4603
aS'ENSG00000129636'
p4604
aS'ENSG00000167642'
p4605
aS'ENSG00000135093'
p4606
aS'ENSG00000111879'
p4607
aS'ENSG00000148677'
p4608
aS'ENSG00000179178'
p4609
atRp4610
ssS'antiquewhite'
p4611
(dp4612
g4
(lp4613
(lp4614
S'ENSG00000157193'
p4615
aFinf
ag8
(g10
S'L\x1cP\xe7\x84;p?'
tRp4616
ag8
(g10
S'\x903H\x8b1\xd3\xa7?'
tRp4617
aasg108
g109
((lp4618
S'ENSG00000105464'
p4619
aS'ENSG00000174226'
p4620
aS'ENSG00000162994'
p4621
aS'ENSG00000186867'
p4622
aS'ENSG00000075234'
p4623
aS'ENSG00000101306'
p4624
aS'ENSG00000081665'
p4625
aS'ENSG00000183386'
p4626
aS'ENSG00000157593'
p4627
aS'ENSG00000183134'
p4628
aS'ENSG00000075826'
p4629
aS'ENSG00000148357'
p4630
aS'ENSG00000129315'
p4631
aS'ENSG00000183520'
p4632
atRp4633
ssS'darkorange2'
p4634
(dp4635
g108
g109
((lp4636
S'ENSG00000172613'
p4637
aS'ENSG00000143919'
p4638
aS'ENSG00000144792'
p4639
aS'ENSG00000130311'
p4640
aS'ENSG00000092068'
p4641
aS'ENSG00000114857'
p4642
aS'ENSG00000135502'
p4643
aS'ENSG00000197965'
p4644
aS'ENSG00000172399'
p4645
aS'ENSG00000117477'
p4646
aS'ENSG00000145779'
p4647
aS'ENSG00000145439'
p4648
aS'ENSG00000162062'
p4649
aS'ENSG00000136738'
p4650
aS'ENSG00000067798'
p4651
aS'ENSG00000150551'
p4652
aS'ENSG00000083857'
p4653
aS'ENSG00000165996'
p4654
aS'ENSG00000171649'
p4655
aS'ENSG00000160299'
p4656
aS'ENSG00000213024'
p4657
aS'ENSG00000144580'
p4658
aS'ENSG00000135547'
p4659
aS'ENSG00000169372'
p4660
aS'ENSG00000158104'
p4661
atRp4662
ssS'cornsilk2'
p4663
(dp4664
g108
g109
((lp4665
S'ENSG00000178234'
p4666
aS'ENSG00000107859'
p4667
aS'ENSG00000160145'
p4668
aS'ENSG00000028839'
p4669
aS'ENSG00000172349'
p4670
aS'ENSG00000173226'
p4671
aS'ENSG00000155256'
p4672
aS'ENSG00000185924'
p4673
aS'ENSG00000129534'
p4674
aS'ENSG00000185250'
p4675
aS'ENSG00000159842'
p4676
aS'ENSG00000150403'
p4677
aS'ENSG00000213995'
p4678
atRp4679
ssS'paleturquoise1'
p4680
(dp4681
g108
g109
((lp4682
S'ENSG00000139350'
p4683
aS'ENSG00000141527'
p4684
aS'ENSG00000184635'
p4685
aS'ENSG00000196172'
p4686
aS'ENSG00000160949'
p4687
aS'ENSG00000116704'
p4688
aS'ENSG00000133703'
p4689
aS'ENSG00000126821'
p4690
aS'ENSG00000203666'
p4691
aS'ENSG00000136717'
p4692
aS'ENSG00000171530'
p4693
atRp4694
ssS'moccasin'
p4695
(dp4696
g108
g109
((lp4697
S'ENSG00000163596'
p4698
aS'ENSG00000101307'
p4699
aS'ENSG00000196935'
p4700
aS'ENSG00000174749'
p4701
aS'ENSG00000164978'
p4702
aS'ENSG00000154721'
p4703
aS'ENSG00000100029'
p4704
aS'ENSG00000087365'
p4705
aS'ENSG00000138744'
p4706
aS'ENSG00000018189'
p4707
aS'ENSG00000077782'
p4708
aS'ENSG00000101361'
p4709
aS'ENSG00000147573'
p4710
aS'ENSG00000085265'
p4711
aS'ENSG00000154229'
p4712
aS'ENSG00000145949'
p4713
atRp4714
ssS'chocolate1'
p4715
(dp4716
g4
(lp4717
(lp4718
S'ENSG00000132026'
p4719
aFinf
ag8
(g10
S'T\xd0j4\xb1\xa4e?'
tRp4720
ag8
(g10
S'0\x9b\x16\xe1"O\xa1?'
tRp4721
aasg108
g109
((lp4722
S'ENSG00000146707'
p4723
aS'ENSG00000112033'
p4724
aS'ENSG00000188986'
p4725
aS'ENSG00000113594'
p4726
aS'ENSG00000169976'
p4727
aS'ENSG00000116016'
p4728
aS'ENSG00000130270'
p4729
aS'ENSG00000115350'
p4730
aS'ENSG00000188372'
p4731
aS'ENSG00000204176'
p4732
aS'ENSG00000105784'
p4733
aS'ENSG00000142684'
p4734
aS'ENSG00000167535'
p4735
atRp4736
ssS'chocolate2'
p4737
(dp4738
g108
g109
((lp4739
S'ENSG00000034152'
p4740
aS'ENSG00000151611'
p4741
aS'ENSG00000152527'
p4742
aS'ENSG00000060642'
p4743
aS'ENSG00000133805'
p4744
aS'ENSG00000134709'
p4745
aS'ENSG00000183060'
p4746
aS'ENSG00000178971'
p4747
aS'ENSG00000156103'
p4748
aS'ENSG00000108469'
p4749
aS'ENSG00000166002'
p4750
aS'ENSG00000128524'
p4751
aS'ENSG00000088538'
p4752
aS'ENSG00000117226'
p4753
atRp4754
ssS'chocolate3'
p4755
(dp4756
g4
(lp4757
(lp4758
S'ENSG00000165072'
p4759
aFinf
ag8
(g10
S'b\xd4j4\xb1\xa4e?'
tRp4760
ag8
(g10
S'@\xa57\x8d]\xe9\x8a?'
tRp4761
aa(lp4762
S'ENSG00000149596'
p4763
aFinf
ag8
(g10
S'#n\x85\x81\xdd\r{?'
tRp4764
ag8
(g10
S'\x80n\x1dw\x8c\xc9\x9a?'
tRp4765
aa(lp4766
S'ENSG00000077009'
p4767
aFinf
ag8
(g10
S'\x05}\xdd\r\x1b\xf0\x82?'
tRp4768
ag8
(g10
S'\x00\x83\xa0\xb4\x1e%\x9c?'
tRp4769
aa(lp4770
S'ENSG00000175084'
p4771
aFinf
ag8
(g10
S'\x05}\xdd\r\x1b\xf0\x82?'
tRp4772
ag8
(g10
S'\x00\x83\xa0\xb4\x1e%\x9c?'
tRp4773
aa(lp4774
S'ENSG00000172399'
p4775
aFinf
ag8
(g10
S'\t#$!fJ\x94?'
tRp4776
ag8
(g10
S'\x00\x83\xa0\xb4\x1e%\x9c?'
tRp4777
aasg108
g109
((lp4778
S'ENSG00000173406'
p4779
aS'ENSG00000120899'
p4780
aS'ENSG00000171806'
p4781
aS'ENSG00000123213'
p4782
aS'ENSG00000103876'
p4783
aS'ENSG00000144909'
p4784
aS'ENSG00000166965'
p4785
aS'ENSG00000059691'
p4786
aS'ENSG00000140598'
p4787
aS'ENSG00000116194'
p4788
aS'ENSG00000116698'
p4789
aS'ENSG00000136783'
p4790
aS'ENSG00000183891'
p4791
aS'ENSG00000162600'
p4792
aS'ENSG00000102781'
p4793
aS'ENSG00000121289'
p4794
atRp4795
ssS'chocolate4'
p4796
(dp4797
g108
g109
((lp4798
S'ENSG00000141519'
p4799
aS'ENSG00000107623'
p4800
aS'ENSG00000162814'
p4801
aS'ENSG00000070182'
p4802
aS'ENSG00000170364'
p4803
aS'ENSG00000198948'
p4804
aS'ENSG00000205581'
p4805
aS'ENSG00000106211'
p4806
aS'ENSG00000167711'
p4807
aS'ENSG00000116883'
p4808
aS'ENSG00000186399'
p4809
aS'ENSG00000100028'
p4810
aS'ENSG00000102683'
p4811
aS'ENSG00000163827'
p4812
aS'ENSG00000173209'
p4813
aS'ENSG00000184949'
p4814
aS'ENSG00000176485'
p4815
aS'ENSG00000178115'
p4816
atRp4817
ssS'darkslateblue'
p4818
(dp4819
g4
(lp4820
(lp4821
S'ENSG00000155659'
p4822
aFinf
ag8
(g10
S'\x92\xd8j4\xb1\xa4u?'
tRp4823
ag8
(g10
S'\x80b\xa4\x99\x99%\x90?'
tRp4824
aa(lp4825
S'ENSG00000173369'
p4826
aFinf
ag8
(g10
S'\x92\xd8j4\xb1\xa4u?'
tRp4827
ag8
(g10
S'\x80b\xa4\x99\x99%\x90?'
tRp4828
aa(lp4829
g1957
aFinf
ag8
(g10
S'\xc4\xe6\x12\xa8s\xc2\x9d?'
tRp4830
ag8
(g10
S'\xc0\xe6\x12\xa8s\xc2\x9d?'
tRp4831
aasg108
g109
((lp4832
S'ENSG00000197958'
p4833
aS'ENSG00000110700'
p4834
aS'ENSG00000138326'
p4835
aS'ENSG00000255284'
p4836
aS'ENSG00000119977'
p4837
aS'ENSG00000162244'
p4838
aS'ENSG00000177600'
p4839
aS'ENSG00000164587'
p4840
aS'ENSG00000142676'
p4841
aS'ENSG00000254087'
p4842
aS'ENSG00000184524'
p4843
aS'ENSG00000146070'
p4844
aS'ENSG00000221983'
p4845
aS'ENSG00000177954'
p4846
aS'ENSG00000135617'
p4847
aS'ENSG00000111832'
p4848
aS'ENSG00000177427'
p4849
aS'ENSG00000008988'
p4850
aS'ENSG00000131469'
p4851
aS'ENSG00000114942'
p4852
aS'ENSG00000170889'
p4853
aS'ENSG00000143947'
p4854
aS'ENSG00000198755'
p4855
aS'ENSG00000130255'
p4856
atRp4857
ssS'salmon1'
p4858
(dp4859
g108
g109
((lp4860
S'ENSG00000134851'
p4861
aS'ENSG00000222040'
p4862
aS'ENSG00000164220'
p4863
aS'ENSG00000186281'
p4864
aS'ENSG00000079689'
p4865
aS'ENSG00000187266'
p4866
aS'ENSG00000164251'
p4867
aS'ENSG00000129038'
p4868
aS'ENSG00000164815'
p4869
aS'ENSG00000143125'
p4870
aS'ENSG00000205517'
p4871
aS'ENSG00000137942'
p4872
aS'ENSG00000099998'
p4873
aS'ENSG00000104415'
p4874
aS'ENSG00000099994'
p4875
aS'ENSG00000181104'
p4876
aS'ENSG00000142920'
p4877
aS'ENSG00000171617'
p4878
atRp4879
ssS'deeppink'
p4880
(dp4881
g4
(lp4882
(lp4883
S'ENSG00000087258'
p4884
aFinf
ag8
(g10
S' \x19P\xe7\x84;p?'
tRp4885
ag8
(g10
S'\xc0\x91\xba\xda\x9b@\x88?'
tRp4886
aa(lp4887
S'ENSG00000080493'
p4888
aFinf
ag8
(g10
S' \x19P\xe7\x84;p?'
tRp4889
ag8
(g10
S'\xc0\x91\xba\xda\x9b@\x88?'
tRp4890
aasg108
g109
((lp4891
S'ENSG00000160392'
p4892
aS'ENSG00000204396'
p4893
aS'ENSG00000112319'
p4894
aS'ENSG00000105617'
p4895
aS'ENSG00000124575'
p4896
aS'ENSG00000034533'
p4897
aS'ENSG00000131368'
p4898
aS'ENSG00000133612'
p4899
aS'ENSG00000136068'
p4900
aS'ENSG00000151917'
p4901
aS'ENSG00000177463'
p4902
aS'ENSG00000197937'
p4903
aS'ENSG00000167414'
p4904
aS'ENSG00000011523'
p4905
aS'ENSG00000239672'
p4906
aS'ENSG00000070087'
p4907
aS'ENSG00000113068'
p4908
aS'ENSG00000176593'
p4909
aS'ENSG00000198937'
p4910
atRp4911
ssS'plum'
p4912
(dp4913
g4
(lp4914
(lp4915
S'ENSG00000136574'
p4916
aFinf
ag8
(g10
S'#n\x85\x81\xdd\r{?'
tRp4917
ag8
(g10
S'\xe0R\xddU*(\x94?'
tRp4918
aa(lp4919
S'ENSG00000241388'
p4920
aFinf
ag8
(g10
S'\xad\xdcj4\xb1\xa4\x85?'
tRp4921
ag8
(g10
S'\xe0R\xddU*(\x94?'
tRp4922
aa(lp4923
S'ENSG00000205678'
p4924
aFinf
ag8
(g10
S'#n\x85\x81\xdd\r{?'
tRp4925
ag8
(g10
S'\xe0R\xddU*(\x94?'
tRp4926
aasg108
g109
((lp4927
S'ENSG00000165730'
p4928
aS'ENSG00000164010'
p4929
aS'ENSG00000185305'
p4930
aS'ENSG00000170425'
p4931
aS'ENSG00000145248'
p4932
aS'ENSG00000095002'
p4933
aS'ENSG00000135747'
p4934
aS'ENSG00000118369'
p4935
aS'ENSG00000165895'
p4936
aS'ENSG00000064651'
p4937
aS'ENSG00000182963'
p4938
aS'ENSG00000130222'
p4939
aS'ENSG00000188779'
p4940
aS'ENSG00000162545'
p4941
aS'ENSG00000165959'
p4942
aS'ENSG00000165533'
p4943
aS'ENSG00000213240'
p4944
aS'ENSG00000151779'
p4945
aS'ENSG00000069275'
p4946
aS'ENSG00000186575'
p4947
aS'ENSG00000162877'
p4948
aS'ENSG00000151491'
p4949
aS'ENSG00000163795'
p4950
atRp4951
ssS'goldenrod4'
p4952
(dp4953
g108
g109
((lp4954
S'ENSG00000132840'
p4955
aS'ENSG00000167555'
p4956
aS'ENSG00000204531'
p4957
aS'ENSG00000066382'
p4958
aS'ENSG00000132837'
p4959
aS'ENSG00000119446'
p4960
aS'ENSG00000015475'
p4961
aS'ENSG00000100079'
p4962
aS'ENSG00000197165'
p4963
atRp4964
ssS'thistle'
p4965
(dp4966
g4
(lp4967
(lp4968
S'ENSG00000186081'
p4969
ag8
(g10
S'\x00\x00\x00\x00\x00\x88q@'
tRp4970
ag8
(g10
S'\xc1e\xc4(%9\xd4>'
tRp4971
ag8
(g10
S'\x00 N\x1d\xc28$?'
tRp4972
aasg108
g109
((lp4973
S'ENSG00000175315'
p4974
aS'ENSG00000113851'
p4975
aS'ENSG00000155393'
p4976
aS'ENSG00000107020'
p4977
aS'ENSG00000178934'
p4978
aS'ENSG00000143520'
p4979
aS'ENSG00000149231'
p4980
aS'ENSG00000130656'
p4981
aS'ENSG00000158079'
p4982
aS'ENSG00000157837'
p4983
aS'ENSG00000157765'
p4984
aS'ENSG00000176209'
p4985
aS'ENSG00000086967'
p4986
aS'ENSG00000143631'
p4987
aS'ENSG00000138399'
p4988
aS'ENSG00000129347'
p4989
aS'ENSG00000111676'
p4990
aS'ENSG00000163913'
p4991
aS'ENSG00000197360'
p4992
aS'ENSG00000043514'
p4993
aS'ENSG00000137699'
p4994
atRp4995
ssS'violet'
p4996
(dp4997
g4
(lp4998
(lp4999
S'ENSG00000171560'
p5000
aFinf
ag8
(g10
S'\xa6\xaf\xb7\x0e\xbf\xa6\x19?'
tRp5001
ag8
(g10
S'\x00pQ_\x18dt?'
tRp5002
aa(lp5003
S'ENSG00000155629'
p5004
aFinf
ag8
(g10
S'\xa6\xaf\xb7\x0e\xbf\xa6\x19?'
tRp5005
ag8
(g10
S'\x00pQ_\x18dt?'
tRp5006
aa(lp5007
S'ENSG00000170835'
p5008
aFinf
ag8
(g10
S'\xa6\xaf\xb7\x0e\xbf\xa6\x19?'
tRp5009
ag8
(g10
S'\x00pQ_\x18dt?'
tRp5010
aa(lp5011
S'ENSG00000165168'
p5012
ag8
(g10
S'\xab\xaa\xaa\xaa\xaa*o@'
tRp5013
ag8
(g10
S'\xcd:\x1cz\xf7"3?'
tRp5014
ag8
(g10
S'\x80\x0c\x98\xf4?\x82\x8c?'
tRp5015
aa(lp5016
S'ENSG00000204472'
p5017
ag8
(g10
S'\xab\xaa\xaa\xaa\xaa*o@'
tRp5018
ag8
(g10
S'\xcd:\x1cz\xf7"3?'
tRp5019
ag8
(g10
S'\x80\x0c\x98\xf4?\x82\x8c?'
tRp5020
aasg108
g109
((lp5021
S'ENSG00000130649'
p5022
aS'ENSG00000233041'
p5023
aS'ENSG00000165985'
p5024
aS'ENSG00000145321'
p5025
aS'ENSG00000171195'
p5026
aS'ENSG00000147676'
p5027
aS'ENSG00000181617'
p5028
aS'ENSG00000110169'
p5029
aS'ENSG00000171962'
p5030
aS'ENSG00000153391'
p5031
aS'ENSG00000117601'
p5032
aS'ENSG00000161048'
p5033
aS'ENSG00000156136'
p5034
aS'ENSG00000163586'
p5035
aS'ENSG00000138311'
p5036
aS'ENSG00000261701'
p5037
aS'ENSG00000084444'
p5038
aS'ENSG00000170571'
p5039
aS'ENSG00000143543'
p5040
aS'ENSG00000242612'
p5041
aS'ENSG00000228278'
p5042
aS'ENSG00000136872'
p5043
aS'ENSG00000106927'
p5044
aS'ENSG00000257017'
p5045
aS'ENSG00000197249'
p5046
aS'ENSG00000140521'
p5047
aS'ENSG00000268941'
p5048
atRp5049
ssS'red1'
p5050
(dp5051
g4
(lp5052
(lp5053
S'ENSG00000155980'
p5054
ag8
(g10
S'\x00\x00\x00\x00\x00\x88w@'
tRp5055
ag8
(g10
S'\xfbV_\xbe\x056\x80?'
tRp5056
ag8
(g10
S'@\xd1{\xfc\x98%\x90?'
tRp5057
aa(lp5058
S'ENSG00000231963'
p5059
ag8
(g10
S'n\xdb\xb6m\xdb\xb6Z@'
tRp5060
ag8
(g10
S'bB\\u\n\x8b\x95?'
tRp5061
ag8
(g10
S'`B\\u\n\x8b\x95?'
tRp5062
aasg108
g109
((lp5063
S'ENSG00000164253'
p5064
aS'ENSG00000182141'
p5065
aS'ENSG00000147421'
p5066
aS'ENSG00000131626'
p5067
aS'ENSG00000164393'
p5068
aS'ENSG00000093072'
p5069
aS'ENSG00000198542'
p5070
aS'ENSG00000124818'
p5071
aS'ENSG00000103184'
p5072
aS'ENSG00000186862'
p5073
aS'ENSG00000153294'
p5074
aS'ENSG00000135778'
p5075
aS'ENSG00000176472'
p5076
atRp5077
ssS'maroon'
p5078
(dp5079
g108
g109
((lp5080
S'ENSG00000256223'
p5081
aS'ENSG00000063322'
p5082
aS'ENSG00000139190'
p5083
aS'ENSG00000087274'
p5084
aS'ENSG00000110665'
p5085
aS'ENSG00000149084'
p5086
aS'ENSG00000112584'
p5087
aS'ENSG00000057757'
p5088
aS'ENSG00000141560'
p5089
aS'ENSG00000115221'
p5090
aS'ENSG00000116957'
p5091
aS'ENSG00000134905'
p5092
aS'ENSG00000110075'
p5093
aS'ENSG00000166311'
p5094
aS'ENSG00000155097'
p5095
aS'ENSG00000183654'
p5096
aS'ENSG00000113119'
p5097
aS'ENSG00000205085'
p5098
aS'ENSG00000171385'
p5099
aS'ENSG00000054983'
p5100
aS'ENSG00000143479'
p5101
aS'ENSG00000115339'
p5102
aS'ENSG00000168255'
p5103
aS'ENSG00000169692'
p5104
atRp5105
ssS'lightcyan1'
p5106
(dp5107
g108
g109
((lp5108
S'ENSG00000028310'
p5109
aS'ENSG00000152193'
p5110
aS'ENSG00000171791'
p5111
aS'ENSG00000118922'
p5112
aS'ENSG00000165271'
p5113
aS'ENSG00000145416'
p5114
aS'ENSG00000160214'
p5115
aS'ENSG00000102904'
p5116
aS'ENSG00000225119'
p5117
aS'ENSG00000111834'
p5118
aS'ENSG00000160818'
p5119
aS'ENSG00000123892'
p5120
aS'ENSG00000061987'
p5121
aS'ENSG00000167965'
p5122
aS'ENSG00000198839'
p5123
aS'ENSG00000135540'
p5124
aS'ENSG00000178026'
p5125
aS'ENSG00000121542'
p5126
aS'ENSG00000105953'
p5127
aS'ENSG00000161395'
p5128
aS'ENSG00000167291'
p5129
aS'ENSG00000108823'
p5130
aS'ENSG00000147654'
p5131
aS'ENSG00000114554'
p5132
aS'ENSG00000134780'
p5133
atRp5134
ssS'burlywood1'
p5135
(dp5136
g108
g109
((lp5137
S'ENSG00000165097'
p5138
aS'ENSG00000254986'
p5139
aS'ENSG00000113790'
p5140
aS'ENSG00000162434'
p5141
aS'ENSG00000103091'
p5142
aS'ENSG00000133119'
p5143
aS'ENSG00000187010'
p5144
aS'ENSG00000205238'
p5145
aS'ENSG00000124795'
p5146
aS'ENSG00000156990'
p5147
aS'ENSG00000186522'
p5148
atRp5149
ssS'turquoise2'
p5150
(dp5151
g108
g109
((lp5152
S'ENSG00000183323'
p5153
aS'ENSG00000167216'
p5154
aS'ENSG00000166963'
p5155
aS'ENSG00000112902'
p5156
aS'ENSG00000154710'
p5157
aS'ENSG00000001084'
p5158
aS'ENSG00000166199'
p5159
aS'ENSG00000183580'
p5160
aS'ENSG00000143771'
p5161
aS'ENSG00000174989'
p5162
aS'ENSG00000134184'
p5163
atRp5164
ssS'magenta'
p5165
(dp5166
g108
g109
((lp5167
S'ENSG00000134873'
p5168
aS'ENSG00000131730'
p5169
aS'ENSG00000174780'
p5170
aS'ENSG00000136169'
p5171
aS'ENSG00000137992'
p5172
aS'ENSG00000172340'
p5173
aS'ENSG00000117054'
p5174
aS'ENSG00000244005'
p5175
aS'ENSG00000100442'
p5176
aS'ENSG00000144827'
p5177
aS'ENSG00000128928'
p5178
aS'ENSG00000165678'
p5179
aS'ENSG00000145020'
p5180
aS'ENSG00000106526'
p5181
aS'ENSG00000032742'
p5182
aS'ENSG00000177398'
p5183
aS'ENSG00000184261'
p5184
aS'ENSG00000004139'
p5185
aS'ENSG00000136425'
p5186
aS'ENSG00000110871'
p5187
aS'ENSG00000171533'
p5188
aS'ENSG00000184385'
p5189
aS'ENSG00000011376'
p5190
aS'ENSG00000103356'
p5191
aS'ENSG00000116459'
p5192
aS'ENSG00000158987'
p5193
aS'ENSG00000125124'
p5194
aS'ENSG00000165417'
p5195
aS'ENSG00000097096'
p5196
aS'ENSG00000162378'
p5197
aS'ENSG00000162813'
p5198
aS'ENSG00000198736'
p5199
aS'ENSG00000078070'
p5200
aS'ENSG00000136143'
p5201
aS'ENSG00000127399'
p5202
aS'ENSG00000050748'
p5203
aS'ENSG00000083290'
p5204
atRp5205
ssS'mistyrose2'
p5206
(dp5207
g4
(lp5208
(lp5209
S'ENSG00000120053'
p5210
aFinf
ag8
(g10
S'b\xd4j4\xb1\xa4e?'
tRp5211
ag8
(g10
S'\xe0\xc0\x0e&\xd9\xc9\x92?'
tRp5212
aa(lp5213
S'ENSG00000080709'
p5214
aFinf
ag8
(g10
S'b\xd4j4\xb1\xa4e?'
tRp5215
ag8
(g10
S'\xe0\xc0\x0e&\xd9\xc9\x92?'
tRp5216
aa(lp5217
S'ENSG00000114279'
p5218
aFinf
ag8
(g10
S' \x19P\xe7\x84;p?'
tRp5219
ag8
(g10
S'\xe0\xe6\xd7\x0ed!\x94?'
tRp5220
aa(lp5221
g606
aFinf
ag8
(g10
S'(!\xf8ZGY\x88?'
tRp5222
ag8
(g10
S'\xd0\xab]\xe4\xfe\xea\xa7?'
tRp5223
aasg108
g109
((lp5224
S'ENSG00000005421'
p5225
aS'ENSG00000006194'
p5226
aS'ENSG00000171763'
p5227
aS'ENSG00000165948'
p5228
aS'ENSG00000196355'
p5229
aS'ENSG00000105486'
p5230
aS'ENSG00000146063'
p5231
aS'ENSG00000188629'
p5232
aS'ENSG00000184445'
p5233
aS'ENSG00000125633'
p5234
aS'ENSG00000106399'
p5235
atRp5236
ssS'mistyrose3'
p5237
(dp5238
g108
g109
((lp5239
S'ENSG00000164695'
p5240
aS'ENSG00000197063'
p5241
aS'ENSG00000087088'
p5242
aS'ENSG00000169567'
p5243
aS'ENSG00000179979'
p5244
aS'ENSG00000163320'
p5245
aS'ENSG00000010270'
p5246
aS'ENSG00000054654'
p5247
aS'ENSG00000163918'
p5248
aS'ENSG00000163945'
p5249
aS'ENSG00000116221'
p5250
aS'ENSG00000156170'
p5251
aS'ENSG00000142686'
p5252
atRp5253
ssS'seashell4'
p5254
(dp5255
g108
g109
((lp5256
S'ENSG00000075886'
p5257
aS'ENSG00000173253'
p5258
aS'ENSG00000076650'
p5259
aS'ENSG00000152086'
p5260
aS'ENSG00000099917'
p5261
aS'ENSG00000163082'
p5262
aS'ENSG00000197927'
p5263
aS'ENSG00000178202'
p5264
aS'ENSG00000177700'
p5265
aS'ENSG00000232196'
p5266
aS'ENSG00000125827'
p5267
aS'ENSG00000196967'
p5268
aS'ENSG00000147408'
p5269
atRp5270
ssS'pink'
p5271
(dp5272
g108
g109
((lp5273
S'ENSG00000175575'
p5274
aS'ENSG00000188488'
p5275
aS'ENSG00000198794'
p5276
aS'ENSG00000188747'
p5277
aS'ENSG00000168785'
p5278
aS'ENSG00000169862'
p5279
aS'ENSG00000118579'
p5280
aS'ENSG00000141698'
p5281
aS'ENSG00000128829'
p5282
aS'ENSG00000110768'
p5283
aS'ENSG00000139323'
p5284
aS'ENSG00000148688'
p5285
aS'ENSG00000070610'
p5286
aS'ENSG00000008283'
p5287
aS'ENSG00000146859'
p5288
aS'ENSG00000107518'
p5289
aS'ENSG00000260230'
p5290
aS'ENSG00000114115'
p5291
aS'ENSG00000165215'
p5292
aS'ENSG00000174307'
p5293
aS'ENSG00000090530'
p5294
aS'ENSG00000183963'
p5295
aS'ENSG00000232013'
p5296
aS'ENSG00000126216'
p5297
aS'ENSG00000198663'
p5298
aS'ENSG00000171121'
p5299
aS'ENSG00000163162'
p5300
aS'ENSG00000106789'
p5301
aS'ENSG00000203722'
p5302
aS'ENSG00000178184'
p5303
aS'ENSG00000116885'
p5304
aS'ENSG00000166145'
p5305
aS'ENSG00000181350'
p5306
aS'ENSG00000133641'
p5307
aS'ENSG00000182050'
p5308
aS'ENSG00000101160'
p5309
aS'ENSG00000140506'
p5310
aS'ENSG00000168546'
p5311
aS'ENSG00000180071'
p5312
atRp5313
ssS'lightblue'
p5314
(dp5315
g108
g109
((lp5316
S'ENSG00000139826'
p5317
aS'ENSG00000100554'
p5318
aS'ENSG00000181061'
p5319
aS'ENSG00000167930'
p5320
aS'ENSG00000128791'
p5321
aS'ENSG00000186350'
p5322
aS'ENSG00000176715'
p5323
aS'ENSG00000113722'
p5324
aS'ENSG00000154930'
p5325
aS'ENSG00000144451'
p5326
aS'ENSG00000143149'
p5327
aS'ENSG00000162670'
p5328
atRp5329
ssS'palevioletred'
p5330
(dp5331
g108
g109
((lp5332
S'ENSG00000160886'
p5333
aS'ENSG00000099290'
p5334
aS'ENSG00000105825'
p5335
aS'ENSG00000163293'
p5336
aS'ENSG00000026103'
p5337
aS'ENSG00000040487'
p5338
aS'ENSG00000166716'
p5339
aS'ENSG00000041988'
p5340
aS'ENSG00000185313'
p5341
aS'ENSG00000167978'
p5342
aS'ENSG00000198515'
p5343
aS'ENSG00000103550'
p5344
aS'ENSG00000125611'
p5345
aS'ENSG00000197372'
p5346
aS'ENSG00000197701'
p5347
aS'ENSG00000006607'
p5348
atRp5349
ssS'slateblue'
p5350
(dp5351
g4
(lp5352
(lp5353
S'ENSG00000077522'
p5354
aFinf
ag8
(g10
S'b\xd4j4\xb1\xa4e?'
tRp5355
ag8
(g10
S'\xc0\xab\xf3\x19+ \x90?'
tRp5356
aa(lp5357
S'ENSG00000133454'
p5358
aFinf
ag8
(g10
S'b\xd4j4\xb1\xa4e?'
tRp5359
ag8
(g10
S'\xc0\xab\xf3\x19+ \x90?'
tRp5360
aa(lp5361
S'ENSG00000130528'
p5362
aFinf
ag8
(g10
S'R\x8e\x85\x81\xdd\r\x8b?'
tRp5363
ag8
(g10
S'\xa0\xbc\xfbazM\xa5?'
tRp5364
aa(lp5365
S'ENSG00000156885'
p5366
aFinf
ag8
(g10
S'\xad\xdcj4\xb1\xa4\x85?'
tRp5367
ag8
(g10
S'\xa0\xbc\xfbazM\xa5?'
tRp5368
aa(lp5369
g4775
aFinf
ag8
(g10
S'\t#$!fJ\x94?'
tRp5370
ag8
(g10
S'\xa0\xbc\xfbazM\xa5?'
tRp5371
aa(lp5372
S'ENSG00000164309'
p5373
aFinf
ag8
(g10
S'R\x8e\x85\x81\xdd\r\x8b?'
tRp5374
ag8
(g10
S'\xa0\xbc\xfbazM\xa5?'
tRp5375
aasg108
g109
((lp5376
S'ENSG00000174943'
p5377
aS'ENSG00000197279'
p5378
aS'ENSG00000138435'
p5379
aS'ENSG00000196724'
p5380
aS'ENSG00000104549'
p5381
aS'ENSG00000174233'
p5382
aS'ENSG00000166446'
p5383
aS'ENSG00000056558'
p5384
aS'ENSG00000100744'
p5385
aS'ENSG00000135976'
p5386
aS'ENSG00000109929'
p5387
aS'ENSG00000116670'
p5388
aS'ENSG00000186197'
p5389
aS'ENSG00000138801'
p5390
aS'ENSG00000074657'
p5391
aS'ENSG00000119703'
p5392
aS'ENSG00000109084'
p5393
aS'ENSG00000139613'
p5394
atRp5395
ssS'sienna4'
p5396
(dp5397
g108
g109
((lp5398
S'ENSG00000011258'
p5399
aS'ENSG00000180767'
p5400
aS'ENSG00000167103'
p5401
aS'ENSG00000088205'
p5402
aS'ENSG00000073060'
p5403
aS'ENSG00000189269'
p5404
aS'ENSG00000196381'
p5405
aS'ENSG00000174915'
p5406
aS'ENSG00000185917'
p5407
aS'ENSG00000243566'
p5408
aS'ENSG00000100023'
p5409
aS'ENSG00000101290'
p5410
aS'ENSG00000165661'
p5411
aS'ENSG00000204632'
p5412
aS'ENSG00000018510'
p5413
aS'ENSG00000101191'
p5414
aS'ENSG00000134265'
p5415
aS'ENSG00000161905'
p5416
aS'ENSG00000100101'
p5417
aS'ENSG00000176871'
p5418
atRp5419
ssS'darkorange'
p5420
(dp5421
g4
(lp5422
(lp5423
S'ENSG00000174600'
p5424
aFinf
ag8
(g10
S'T\xd0j4\xb1\xa4e?'
tRp5425
ag8
(g10
S'\x80RRx_\x9du?'
tRp5426
aa(lp5427
S'ENSG00000181104'
p5428
aFinf
ag8
(g10
S'T\xd0j4\xb1\xa4e?'
tRp5429
ag8
(g10
S'\x80RRx_\x9du?'
tRp5430
aasg108
g109
((lp5431
S'ENSG00000145220'
p5432
aS'ENSG00000132142'
p5433
aS'ENSG00000166321'
p5434
aS'ENSG00000120539'
p5435
aS'ENSG00000081760'
p5436
aS'ENSG00000197134'
p5437
aS'ENSG00000180104'
p5438
aS'ENSG00000176148'
p5439
aS'ENSG00000111254'
p5440
aS'ENSG00000133710'
p5441
aS'ENSG00000134020'
p5442
aS'ENSG00000196407'
p5443
aS'ENSG00000112062'
p5444
aS'ENSG00000122435'
p5445
aS'ENSG00000123600'
p5446
aS'ENSG00000150672'
p5447
aS'ENSG00000197969'
p5448
aS'ENSG00000105705'
p5449
aS'ENSG00000143412'
p5450
aS'ENSG00000160321'
p5451
aS'ENSG00000214078'
p5452
aS'ENSG00000152104'
p5453
aS'ENSG00000185019'
p5454
aS'ENSG00000102910'
p5455
aS'ENSG00000196326'
p5456
aS'ENSG00000114999'
p5457
aS'ENSG00000168234'
p5458
aS'ENSG00000141497'
p5459
aS'ENSG00000174405'
p5460
atRp5461
ssS'powderblue'
p5462
(dp5463
g108
g109
((lp5464
S'ENSG00000051620'
p5465
aS'ENSG00000148225'
p5466
aS'ENSG00000119431'
p5467
aS'ENSG00000221923'
p5468
aS'ENSG00000173517'
p5469
aS'ENSG00000119411'
p5470
aS'ENSG00000100296'
p5471
aS'ENSG00000152359'
p5472
aS'ENSG00000040199'
p5473
aS'ENSG00000095539'
p5474
aS'ENSG00000086589'
p5475
aS'ENSG00000117691'
p5476
aS'ENSG00000102547'
p5477
aS'ENSG00000148218'
p5478
aS'ENSG00000267106'
p5479
aS'ENSG00000178665'
p5480
atRp5481
ssS'red4'
p5482
(dp5483
g108
g109
((lp5484
S'ENSG00000109667'
p5485
aS'ENSG00000225683'
p5486
aS'ENSG00000174611'
p5487
aS'ENSG00000128045'
p5488
aS'ENSG00000116675'
p5489
aS'ENSG00000177096'
p5490
aS'ENSG00000213927'
p5491
aS'ENSG00000176903'
p5492
aS'ENSG00000161664'
p5493
aS'ENSG00000167182'
p5494
aS'ENSG00000144366'
p5495
atRp5496
ssS'mistyrose4'
p5497
(dp5498
g108
g109
((lp5499
S'ENSG00000027847'
p5500
aS'ENSG00000151773'
p5501
aS'ENSG00000198168'
p5502
aS'ENSG00000010704'
p5503
aS'ENSG00000185519'
p5504
aS'ENSG00000120658'
p5505
aS'ENSG00000051128'
p5506
aS'ENSG00000154978'
p5507
aS'ENSG00000115840'
p5508
aS'ENSG00000101266'
p5509
aS'ENSG00000179630'
p5510
aS'ENSG00000171320'
p5511
aS'ENSG00000070371'
p5512
aS'ENSG00000198951'
p5513
atRp5514
ssS'lightcyan'
p5515
(dp5516
g4
(lp5517
(lp5518
S'ENSG00000171223'
p5519
ag8
(g10
S'\x00\x00\x00\x00\x00|a@'
tRp5520
ag8
(g10
S'\xa7NP_\xf4\x8d\xf1>'
tRp5521
ag8
(g10
S'\x00L\xad\xab\xf3{F?'
tRp5522
aa(lp5523
S'ENSG00000120738'
p5524
ag8
(g10
S'\x9a\x99\x99\x99\x99\xb9r@'
tRp5525
ag8
(g10
S'\xe8\xcee+\xf9\xba,?'
tRp5526
ag8
(g10
S'\x00\x91I\xaeC\xe1\x81?'
tRp5527
aasg108
g109
((lp5528
S'ENSG00000138166'
p5529
aS'ENSG00000112245'
p5530
aS'ENSG00000196418'
p5531
aS'ENSG00000120129'
p5532
aS'ENSG00000109063'
p5533
aS'ENSG00000116741'
p5534
aS'ENSG00000153214'
p5535
aS'ENSG00000198435'
p5536
aS'ENSG00000120910'
p5537
aS'ENSG00000032219'
p5538
aS'ENSG00000175471'
p5539
aS'ENSG00000129204'
p5540
aS'ENSG00000110906'
p5541
aS'ENSG00000122674'
p5542
aS'ENSG00000170345'
p5543
aS'ENSG00000196652'
p5544
aS'ENSG00000104524'
p5545
aS'ENSG00000163312'
p5546
aS'ENSG00000114315'
p5547
aS'ENSG00000066379'
p5548
aS'ENSG00000077585'
p5549
aS'ENSG00000197921'
p5550
aS'ENSG00000005108'
p5551
aS'ENSG00000069482'
p5552
aS'ENSG00000167840'
p5553
aS'ENSG00000239887'
p5554
aS'ENSG00000100439'
p5555
aS'ENSG00000184009'
p5556
aS'ENSG00000105501'
p5557
aS'ENSG00000143878'
p5558
aS'ENSG00000179388'
p5559
atRp5560
ssS'sienna1'
p5561
(dp5562
g108
g109
((lp5563
S'ENSG00000166548'
p5564
aS'ENSG00000077420'
p5565
aS'ENSG00000164949'
p5566
aS'ENSG00000188672'
p5567
aS'ENSG00000163611'
p5568
aS'ENSG00000177239'
p5569
aS'ENSG00000258987'
p5570
aS'ENSG00000181322'
p5571
aS'ENSG00000177335'
p5572
aS'ENSG00000127804'
p5573
aS'ENSG00000197361'
p5574
aS'ENSG00000255062'
p5575
aS'ENSG00000091137'
p5576
aS'ENSG00000137331'
p5577
aS'ENSG00000146904'
p5578
atRp5579
ssS'midnightblue'
p5580
(dp5581
g108
g109
((lp5582
S'ENSG00000122884'
p5583
aS'ENSG00000159733'
p5584
aS'ENSG00000115275'
p5585
aS'ENSG00000163554'
p5586
aS'ENSG00000110108'
p5587
aS'ENSG00000067221'
p5588
aS'ENSG00000126870'
p5589
aS'ENSG00000165507'
p5590
aS'ENSG00000134247'
p5591
aS'ENSG00000144320'
p5592
aS'ENSG00000121413'
p5593
aS'ENSG00000143157'
p5594
aS'ENSG00000120913'
p5595
aS'ENSG00000177694'
p5596
aS'ENSG00000138760'
p5597
aS'ENSG00000197050'
p5598
aS'ENSG00000104660'
p5599
aS'ENSG00000113328'
p5600
aS'ENSG00000182257'
p5601
aS'ENSG00000167397'
p5602
aS'ENSG00000147852'
p5603
aS'ENSG00000145014'
p5604
aS'ENSG00000175175'
p5605
aS'ENSG00000177483'
p5606
aS'ENSG00000134256'
p5607
aS'ENSG00000103199'
p5608
aS'ENSG00000070019'
p5609
aS'ENSG00000164011'
p5610
aS'ENSG00000131778'
p5611
aS'ENSG00000106392'
p5612
aS'ENSG00000151553'
p5613
aS'ENSG00000172322'
p5614
atRp5615
ssS'paleturquoise'
p5616
(dp5617
g108
g109
((lp5618
S'ENSG00000141150'
p5619
aS'ENSG00000164112'
p5620
aS'ENSG00000114268'
p5621
aS'ENSG00000198797'
p5622
aS'ENSG00000177646'
p5623
aS'ENSG00000100815'
p5624
aS'ENSG00000075073'
p5625
aS'ENSG00000166260'
p5626
aS'ENSG00000103485'
p5627
aS'ENSG00000148384'
p5628
aS'ENSG00000182534'
p5629
aS'ENSG00000213672'
p5630
aS'ENSG00000220201'
p5631
aS'ENSG00000181240'
p5632
aS'ENSG00000156515'
p5633
aS'ENSG00000135736'
p5634
aS'ENSG00000166183'
p5635
aS'ENSG00000179299'
p5636
aS'ENSG00000243709'
p5637
aS'ENSG00000145979'
p5638
aS'ENSG00000172803'
p5639
aS'ENSG00000175265'
p5640
aS'ENSG00000109536'
p5641
aS'ENSG00000189091'
p5642
aS'ENSG00000178922'
p5643
aS'ENSG00000115310'
p5644
aS'ENSG00000221819'
p5645
aS'ENSG00000121966'
p5646
atRp5647
ssS'purple2'
p5648
(dp5649
g108
g109
((lp5650
S'ENSG00000138041'
p5651
aS'ENSG00000064545'
p5652
aS'ENSG00000198150'
p5653
aS'ENSG00000139405'
p5654
aS'ENSG00000070018'
p5655
aS'ENSG00000120451'
p5656
aS'ENSG00000151617'
p5657
aS'ENSG00000132563'
p5658
aS'ENSG00000139083'
p5659
aS'ENSG00000070476'
p5660
aS'ENSG00000185532'
p5661
aS'ENSG00000158457'
p5662
aS'ENSG00000105619'
p5663
aS'ENSG00000186153'
p5664
aS'ENSG00000100068'
p5665
atRp5666
ssS'orangered3'
p5667
(dp5668
g4
(lp5669
(lp5670
S'ENSG00000171130'
p5671
aFinf
ag8
(g10
S'_\xd0j4\xb1\xa4u?'
tRp5672
ag8
(g10
S'\x80\xd0j4\xb1\xa4u?'
tRp5673
aasg108
g109
((lp5674
S'ENSG00000127947'
p5675
aS'ENSG00000136161'
p5676
aS'ENSG00000104093'
p5677
aS'ENSG00000003249'
p5678
aS'ENSG00000184779'
p5679
aS'ENSG00000153560'
p5680
aS'ENSG00000177663'
p5681
aS'ENSG00000013503'
p5682
aS'ENSG00000120645'
p5683
aS'ENSG00000033122'
p5684
aS'ENSG00000159086'
p5685
aS'ENSG00000106153'
p5686
aS'ENSG00000134108'
p5687
aS'ENSG00000187758'
p5688
aS'ENSG00000164825'
p5689
aS'ENSG00000114544'
p5690
aS'ENSG00000111731'
p5691
aS'ENSG00000140941'
p5692
aS'ENSG00000139187'
p5693
aS'ENSG00000132434'
p5694
aS'ENSG00000058453'
p5695
aS'ENSG00000169026'
p5696
aS'ENSG00000213347'
p5697
atRp5698
ssS'deeppink2'
p5699
(dp5700
g108
g109
((lp5701
S'ENSG00000116981'
p5702
aS'ENSG00000017797'
p5703
aS'ENSG00000183576'
p5704
aS'ENSG00000104131'
p5705
aS'ENSG00000140876'
p5706
aS'ENSG00000168096'
p5707
aS'ENSG00000106701'
p5708
aS'ENSG00000079950'
p5709
aS'ENSG00000104413'
p5710
aS'ENSG00000137760'
p5711
aS'ENSG00000182551'
p5712
aS'ENSG00000075131'
p5713
aS'ENSG00000173621'
p5714
aS'ENSG00000162520'
p5715
aS'ENSG00000176692'
p5716
atRp5717
ssS'deeppink1'
p5718
(dp5719
g108
g109
((lp5720
S'ENSG00000051596'
p5721
aS'ENSG00000119682'
p5722
aS'ENSG00000186510'
p5723
aS'ENSG00000163812'
p5724
aS'ENSG00000184584'
p5725
aS'ENSG00000181754'
p5726
aS'ENSG00000143819'
p5727
aS'ENSG00000168778'
p5728
aS'ENSG00000116793'
p5729
aS'ENSG00000162627'
p5730
aS'ENSG00000182372'
p5731
aS'ENSG00000111450'
p5732
aS'ENSG00000095485'
p5733
aS'ENSG00000084710'
p5734
aS'ENSG00000117335'
p5735
aS'ENSG00000137673'
p5736
aS'ENSG00000143753'
p5737
atRp5738
ssS'orangered4'
p5739
(dp5740
g108
g109
((lp5741
S'ENSG00000161542'
p5742
aS'ENSG00000168528'
p5743
aS'ENSG00000141013'
p5744
aS'ENSG00000103253'
p5745
aS'ENSG00000156127'
p5746
aS'ENSG00000176108'
p5747
aS'ENSG00000224051'
p5748
aS'ENSG00000090432'
p5749
aS'ENSG00000141522'
p5750
aS'ENSG00000072958'
p5751
aS'ENSG00000105928'
p5752
aS'ENSG00000157911'
p5753
aS'ENSG00000176945'
p5754
aS'ENSG00000104472'
p5755
aS'ENSG00000080603'
p5756
aS'ENSG00000087338'
p5757
aS'ENSG00000090316'
p5758
aS'ENSG00000179240'
p5759
aS'ENSG00000079277'
p5760
aS'ENSG00000203685'
p5761
aS'ENSG00000061455'
p5762
aS'ENSG00000149922'
p5763
aS'ENSG00000131067'
p5764
aS'ENSG00000083828'
p5765
aS'ENSG00000139438'
p5766
aS'ENSG00000178252'
p5767
atRp5768
ssS'thistle3'
p5769
(dp5770
g108
g109
((lp5771
S'ENSG00000205609'
p5772
aS'ENSG00000183092'
p5773
aS'ENSG00000181045'
p5774
aS'ENSG00000076344'
p5775
aS'ENSG00000243156'
p5776
aS'ENSG00000111875'
p5777
aS'ENSG00000213523'
p5778
aS'ENSG00000197798'
p5779
aS'ENSG00000185615'
p5780
aS'ENSG00000084674'
p5781
aS'ENSG00000120885'
p5782
aS'ENSG00000184110'
p5783
aS'ENSG00000232629'
p5784
aS'ENSG00000183281'
p5785
aS'ENSG00000141456'
p5786
aS'ENSG00000242173'
p5787
aS'ENSG00000146574'
p5788
aS'ENSG00000180730'
p5789
aS'ENSG00000178297'
p5790
aS'ENSG00000196275'
p5791
aS'ENSG00000163041'
p5792
atRp5793
ssS'thistle2'
p5794
(dp5795
g108
g109
((lp5796
S'ENSG00000120265'
p5797
aS'ENSG00000064726'
p5798
aS'ENSG00000232774'
p5799
aS'ENSG00000128512'
p5800
aS'ENSG00000145730'
p5801
aS'ENSG00000170549'
p5802
aS'ENSG00000162688'
p5803
aS'ENSG00000139505'
p5804
aS'ENSG00000152078'
p5805
aS'ENSG00000134001'
p5806
aS'ENSG00000124767'
p5807
aS'ENSG00000174007'
p5808
aS'ENSG00000197142'
p5809
aS'ENSG00000188042'
p5810
aS'ENSG00000214954'
p5811
aS'ENSG00000078674'
p5812
aS'ENSG00000138468'
p5813
aS'ENSG00000168827'
p5814
aS'ENSG00000138095'
p5815
aS'ENSG00000167775'
p5816
aS'ENSG00000150768'
p5817
aS'ENSG00000085063'
p5818
aS'ENSG00000104763'
p5819
aS'ENSG00000067533'
p5820
atRp5821
ssS'thistle1'
p5822
(dp5823
g4
(lp5824
(lp5825
S'ENSG00000230746'
p5826
aFinf
ag8
(g10
S'b\xd4j4\xb1\xa4e?'
tRp5827
ag8
(g10
S'\xe0\xbf\x0c\xf0\xb8\x9d\xa2?'
tRp5828
aa(lp5829
S'ENSG00000205413'
p5830
aFinf
ag8
(g10
S'b\xd4j4\xb1\xa4e?'
tRp5831
ag8
(g10
S'\xe0\xbf\x0c\xf0\xb8\x9d\xa2?'
tRp5832
aa(lp5833
S'ENSG00000183486'
p5834
aFinf
ag8
(g10
S' \x19P\xe7\x84;p?'
tRp5835
ag8
(g10
S'\x80.H\x8b1\xd3\xa7?'
tRp5836
aasg108
g109
((lp5837
S'ENSG00000198131'
p5838
aS'ENSG00000215012'
p5839
aS'ENSG00000184903'
p5840
aS'ENSG00000184470'
p5841
aS'ENSG00000136827'
p5842
aS'ENSG00000203546'
p5843
aS'ENSG00000124299'
p5844
aS'ENSG00000135637'
p5845
aS'ENSG00000114491'
p5846
aS'ENSG00000146555'
p5847
aS'ENSG00000138629'
p5848
aS'ENSG00000179698'
p5849
aS'ENSG00000163606'
p5850
aS'ENSG00000189283'
p5851
aS'ENSG00000213930'
p5852
aS'ENSG00000119943'
p5853
aS'ENSG00000134352'
p5854
aS'ENSG00000167969'
p5855
aS'ENSG00000177990'
p5856
aS'ENSG00000099624'
p5857
aS'ENSG00000159199'
p5858
aS'ENSG00000137106'
p5859
aS'ENSG00000135940'
p5860
aS'ENSG00000121064'
p5861
atRp5862
ssS'sienna2'
p5863
(dp5864
g108
g109
((lp5865
S'ENSG00000141959'
p5866
aS'ENSG00000185158'
p5867
aS'ENSG00000168952'
p5868
aS'ENSG00000174370'
p5869
aS'ENSG00000175879'
p5870
aS'ENSG00000140945'
p5871
aS'ENSG00000086205'
p5872
aS'ENSG00000245017'
p5873
aS'ENSG00000116132'
p5874
aS'ENSG00000128645'
p5875
aS'ENSG00000161682'
p5876
aS'ENSG00000101280'
p5877
aS'ENSG00000204169'
p5878
aS'ENSG00000152784'
p5879
aS'ENSG00000128652'
p5880
aS'ENSG00000170522'
p5881
aS'ENSG00000131697'
p5882
atRp5883
ssS'salmon'
p5884
(dp5885
g4
(lp5886
(lp5887
S'ENSG00000125462'
p5888
aFinf
ag8
(g10
S'\xc8>\xf5;{\xd74?'
tRp5889
ag8
(g10
S'\xe0*qZ\xd8e\x92?'
tRp5890
aa(lp5891
S'ENSG00000132639'
p5892
aFinf
ag8
(g10
S'\xc8>\xf5;{\xd74?'
tRp5893
ag8
(g10
S'\xe0*qZ\xd8e\x92?'
tRp5894
aasg108
g109
((lp5895
S'ENSG00000006128'
p5896
aS'ENSG00000066248'
p5897
aS'ENSG00000150625'
p5898
aS'ENSG00000110436'
p5899
aS'ENSG00000164082'
p5900
aS'ENSG00000121905'
p5901
aS'ENSG00000095380'
p5902
aS'ENSG00000115364'
p5903
aS'ENSG00000127463'
p5904
aS'ENSG00000198513'
p5905
aS'ENSG00000104435'
p5906
aS'ENSG00000103148'
p5907
aS'ENSG00000122733'
p5908
aS'ENSG00000175220'
p5909
aS'ENSG00000059915'
p5910
aS'ENSG00000103510'
p5911
aS'ENSG00000170091'
p5912
aS'ENSG00000104497'
p5913
aS'ENSG00000185056'
p5914
aS'ENSG00000091129'
p5915
aS'ENSG00000123297'
p5916
aS'ENSG00000131771'
p5917
aS'ENSG00000147592'
p5918
aS'ENSG00000180113'
p5919
aS'ENSG00000104112'
p5920
aS'ENSG00000162819'
p5921
aS'ENSG00000105696'
p5922
aS'ENSG00000105695'
p5923
aS'ENSG00000108309'
p5924
aS'ENSG00000174721'
p5925
aS'ENSG00000172671'
p5926
aS'ENSG00000104388'
p5927
atRp5928
ssS'thistle4'
p5929
(dp5930
g4
(lp5931
(lp5932
S'ENSG00000110852'
p5933
aFinf
ag8
(g10
S'T\xd0j4\xb1\xa4e?'
tRp5934
ag8
(g10
S'\x80\xa07\x8d]\xe9\x8a?'
tRp5935
aa(lp5936
S'ENSG00000109339'
p5937
aFinf
ag8
(g10
S'T\xd0j4\xb1\xa4e?'
tRp5938
ag8
(g10
S'\x80\xa07\x8d]\xe9\x8a?'
tRp5939
aa(lp5940
S'ENSG00000157103'
p5941
ag8
(g10
S'\x00\x00\x00\x00\x00\x90\x87@'
tRp5942
ag8
(g10
S'\x07\xd5\x1f\x19\x07\xa1u?'
tRp5943
ag8
(g10
S' i\xfen\xe1"\x90?'
tRp5944
aa(lp5945
S'ENSG00000142875'
p5946
ag8
(g10
S'n\xdb\xb6m\xdb\xb6Z@'
tRp5947
ag8
(g10
S'bB\\u\n\x8b\x95?'
tRp5948
ag8
(g10
S'\x10\xa2\xe8\r\x07Q\xa5?'
tRp5949
aa(lp5950
S'ENSG00000116675'
p5951
ag8
(g10
S'\x8e\xe38\x8e\xe3\xb8T@'
tRp5952
ag8
(g10
S'\x8bJw\xce\xa3\xe4\x9a?'
tRp5953
ag8
(g10
S'\x10\xa2\xe8\r\x07Q\xa5?'
tRp5954
aasg108
g109
((lp5955
S'ENSG00000151748'
p5956
aS'ENSG00000076242'
p5957
aS'ENSG00000143376'
p5958
aS'ENSG00000175806'
p5959
aS'ENSG00000100380'
p5960
aS'ENSG00000145391'
p5961
aS'ENSG00000160310'
p5962
aS'ENSG00000163393'
p5963
aS'ENSG00000115539'
p5964
aS'ENSG00000174564'
p5965
aS'ENSG00000135040'
p5966
aS'ENSG00000112079'
p5967
aS'ENSG00000137996'
p5968
aS'ENSG00000183647'
p5969
aS'ENSG00000089486'
p5970
aS'ENSG00000113269'
p5971
aS'ENSG00000203780'
p5972
aS'ENSG00000099960'
p5973
aS'ENSG00000161016'
p5974
atRp5975
ssS'oldlace'
p5976
(dp5977
g108
g109
((lp5978
S'ENSG00000009830'
p5979
aS'ENSG00000079785'
p5980
aS'ENSG00000196189'
p5981
aS'ENSG00000178188'
p5982
aS'ENSG00000184220'
p5983
aS'ENSG00000125877'
p5984
aS'ENSG00000148604'
p5985
aS'ENSG00000094755'
p5986
aS'ENSG00000148600'
p5987
aS'ENSG00000106615'
p5988
aS'ENSG00000145882'
p5989
aS'ENSG00000174093'
p5990
aS'ENSG00000170175'
p5991
atRp5992
ssS'pink1'
p5993
(dp5994
g4
(lp5995
(lp5996
S'ENSG00000183690'
p5997
aFinf
ag8
(g10
S'T\xd0j4\xb1\xa4e?'
tRp5998
ag8
(g10
S'\xe0\xa8\xf3\x19+ \x90?'
tRp5999
aasg108
g109
((lp6000
S'ENSG00000100324'
p6001
aS'ENSG00000167377'
p6002
aS'ENSG00000010292'
p6003
aS'ENSG00000188493'
p6004
aS'ENSG00000213903'
p6005
aS'ENSG00000125510'
p6006
aS'ENSG00000145244'
p6007
aS'ENSG00000140995'
p6008
aS'ENSG00000137876'
p6009
aS'ENSG00000147536'
p6010
aS'ENSG00000116906'
p6011
aS'ENSG00000131386'
p6012
aS'ENSG00000151474'
p6013
aS'ENSG00000135457'
p6014
atRp6015
ssS'mediumpurple1'
p6016
(dp6017
g108
g109
((lp6018
S'ENSG00000011295'
p6019
aS'ENSG00000197444'
p6020
aS'ENSG00000242259'
p6021
aS'ENSG00000177302'
p6022
aS'ENSG00000196353'
p6023
aS'ENSG00000170802'
p6024
aS'ENSG00000182919'
p6025
aS'ENSG00000104518'
p6026
aS'ENSG00000138190'
p6027
aS'ENSG00000253719'
p6028
aS'ENSG00000113273'
p6029
aS'ENSG00000160226'
p6030
aS'ENSG00000204099'
p6031
aS'ENSG00000149292'
p6032
aS'ENSG00000064763'
p6033
aS'ENSG00000132478'
p6034
aS'ENSG00000205670'
p6035
aS'ENSG00000128655'
p6036
aS'ENSG00000168936'
p6037
aS'ENSG00000143162'
p6038
atRp6039
ssS'mediumpurple2'
p6040
(dp6041
g108
g109
((lp6042
S'ENSG00000118804'
p6043
aS'ENSG00000150527'
p6044
aS'ENSG00000172409'
p6045
aS'ENSG00000104219'
p6046
aS'ENSG00000162419'
p6047
aS'ENSG00000175376'
p6048
aS'ENSG00000149743'
p6049
aS'ENSG00000242114'
p6050
aS'ENSG00000220205'
p6051
aS'ENSG00000074219'
p6052
aS'ENSG00000185187'
p6053
aS'ENSG00000120253'
p6054
aS'ENSG00000167447'
p6055
aS'ENSG00000105058'
p6056
aS'ENSG00000111341'
p6057
aS'ENSG00000204308'
p6058
aS'ENSG00000186001'
p6059
aS'ENSG00000085644'
p6060
aS'ENSG00000196268'
p6061
aS'ENSG00000154274'
p6062
aS'ENSG00000171714'
p6063
aS'ENSG00000186453'
p6064
aS'ENSG00000056661'
p6065
atRp6066
ssS'lightgreen'
p6067
(dp6068
g4
(lp6069
(lp6070
S'ENSG00000163909'
p6071
aFinf
ag8
(g10
S'\xad4\xcc\x1dS\x0c8?'
tRp6072
ag8
(g10
S'`\x0f\x85\x99\xc9\xff\xa0?'
tRp6073
aa(lp6074
S'ENSG00000131620'
p6075
aFinf
ag8
(g10
S'\xad4\xcc\x1dS\x0c8?'
tRp6076
ag8
(g10
S'`\x0f\x85\x99\xc9\xff\xa0?'
tRp6077
aa(lp6078
S'ENSG00000187513'
p6079
aFinf
ag8
(g10
S'\xad4\xcc\x1dS\x0c8?'
tRp6080
ag8
(g10
S'`\x0f\x85\x99\xc9\xff\xa0?'
tRp6081
aa(lp6082
S'ENSG00000164626'
p6083
aFinf
ag8
(g10
S'\xad4\xcc\x1dS\x0c8?'
tRp6084
ag8
(g10
S'`\x0f\x85\x99\xc9\xff\xa0?'
tRp6085
aa(lp6086
S'ENSG00000156218'
p6087
aFinf
ag8
(g10
S'\xad4\xcc\x1dS\x0c8?'
tRp6088
ag8
(g10
S'`\x0f\x85\x99\xc9\xff\xa0?'
tRp6089
aa(lp6090
S'ENSG00000165929'
p6091
aFinf
ag8
(g10
S'\xad4\xcc\x1dS\x0c8?'
tRp6092
ag8
(g10
S'`\x0f\x85\x99\xc9\xff\xa0?'
tRp6093
aa(lp6094
S'ENSG00000005102'
p6095
aFinf
ag8
(g10
S'\xad4\xcc\x1dS\x0c8?'
tRp6096
ag8
(g10
S'`\x0f\x85\x99\xc9\xff\xa0?'
tRp6097
aasg108
g109
((lp6098
S'ENSG00000110048'
p6099
aS'ENSG00000187140'
p6100
aS'ENSG00000179564'
p6101
aS'ENSG00000189056'
p6102
aS'ENSG00000122966'
p6103
aS'ENSG00000139344'
p6104
aS'ENSG00000173480'
p6105
aS'ENSG00000139364'
p6106
aS'ENSG00000167747'
p6107
aS'ENSG00000125851'
p6108
aS'ENSG00000172171'
p6109
aS'ENSG00000134121'
p6110
aS'ENSG00000140274'
p6111
aS'ENSG00000070731'
p6112
aS'ENSG00000110900'
p6113
aS'ENSG00000137857'
p6114
aS'ENSG00000140279'
p6115
aS'ENSG00000011454'
p6116
aS'ENSG00000105700'
p6117
aS'ENSG00000182272'
p6118
aS'ENSG00000106278'
p6119
aS'ENSG00000263002'
p6120
aS'ENSG00000117020'
p6121
aS'ENSG00000117069'
p6122
aS'ENSG00000163684'
p6123
aS'ENSG00000100410'
p6124
aS'ENSG00000139372'
p6125
aS'ENSG00000140993'
p6126
aS'ENSG00000213246'
p6127
aS'ENSG00000119231'
p6128
aS'ENSG00000134917'
p6129
atRp6130
ssS'mediumpurple4'
p6131
(dp6132
g108
g109
((lp6133
S'ENSG00000146731'
p6134
aS'ENSG00000112941'
p6135
aS'ENSG00000137714'
p6136
aS'ENSG00000135298'
p6137
aS'ENSG00000109519'
p6138
aS'ENSG00000136925'
p6139
aS'ENSG00000214140'
p6140
aS'ENSG00000164414'
p6141
aS'ENSG00000100908'
p6142
aS'ENSG00000189195'
p6143
aS'ENSG00000144339'
p6144
aS'ENSG00000123545'
p6145
aS'ENSG00000240682'
p6146
aS'ENSG00000019505'
p6147
aS'ENSG00000141580'
p6148
aS'ENSG00000100441'
p6149
aS'ENSG00000168159'
p6150
aS'ENSG00000166268'
p6151
aS'ENSG00000132341'
p6152
aS'ENSG00000114841'
p6153
atRp6154
ssS'pink4'
p6155
(dp6156
g108
g109
((lp6157
S'ENSG00000184232'
p6158
aS'ENSG00000151657'
p6159
aS'ENSG00000129317'
p6160
aS'ENSG00000063854'
p6161
aS'ENSG00000256061'
p6162
aS'ENSG00000138738'
p6163
aS'ENSG00000092094'
p6164
aS'ENSG00000196670'
p6165
aS'ENSG00000105072'
p6166
aS'ENSG00000125779'
p6167
aS'ENSG00000116791'
p6168
aS'ENSG00000050555'
p6169
aS'ENSG00000177082'
p6170
aS'ENSG00000083099'
p6171
aS'ENSG00000197632'
p6172
aS'ENSG00000142330'
p6173
aS'ENSG00000110455'
p6174
aS'ENSG00000139428'
p6175
aS'ENSG00000140104'
p6176
aS'ENSG00000103494'
p6177
atRp6178
ssS'paleturquoise3'
p6179
(dp6180
g108
g109
((lp6181
S'ENSG00000164106'
p6182
aS'ENSG00000007237'
p6183
aS'ENSG00000148572'
p6184
aS'ENSG00000143369'
p6185
aS'ENSG00000148814'
p6186
aS'ENSG00000141012'
p6187
aS'ENSG00000150967'
p6188
aS'ENSG00000136950'
p6189
aS'ENSG00000103051'
p6190
aS'ENSG00000071991'
p6191
aS'ENSG00000169855'
p6192
aS'ENSG00000040531'
p6193
aS'ENSG00000109047'
p6194
atRp6195
ssS'hotpink4'
p6196
(dp6197
g108
g109
((lp6198
S'ENSG00000205835'
p6199
aS'ENSG00000161265'
p6200
aS'ENSG00000141294'
p6201
aS'ENSG00000138750'
p6202
aS'ENSG00000181830'
p6203
aS'ENSG00000142856'
p6204
aS'ENSG00000117697'
p6205
aS'ENSG00000215712'
p6206
aS'ENSG00000116652'
p6207
aS'ENSG00000167077'
p6208
aS'ENSG00000116128'
p6209
aS'ENSG00000203965'
p6210
atRp6211
ssS'khaki4'
p6212
(dp6213
g108
g109
((lp6214
S'ENSG00000103404'
p6215
aS'ENSG00000161243'
p6216
aS'ENSG00000167800'
p6217
aS'ENSG00000011347'
p6218
aS'ENSG00000075043'
p6219
aS'ENSG00000010282'
p6220
aS'ENSG00000167799'
p6221
aS'ENSG00000237541'
p6222
aS'ENSG00000153406'
p6223
aS'ENSG00000105287'
p6224
aS'ENSG00000159348'
p6225
aS'ENSG00000181027'
p6226
aS'ENSG00000196531'
p6227
atRp6228
ssS'darkolivegreen4'
p6229
(dp6230
g4
(lp6231
(lp6232
S'ENSG00000248144'
p6233
aFinf
ag8
(g10
S'L\x1cP\xe7\x84;p?'
tRp6234
ag8
(g10
S'\x80\x1cP\xe7\x84;p?'
tRp6235
aasg108
g109
((lp6236
S'ENSG00000031003'
p6237
aS'ENSG00000188729'
p6238
aS'ENSG00000171298'
p6239
aS'ENSG00000213614'
p6240
aS'ENSG00000177628'
p6241
aS'ENSG00000102796'
p6242
aS'ENSG00000134202'
p6243
aS'ENSG00000186834'
p6244
aS'ENSG00000106415'
p6245
aS'ENSG00000148935'
p6246
aS'ENSG00000184227'
p6247
aS'ENSG00000030582'
p6248
aS'ENSG00000116663'
p6249
aS'ENSG00000138621'
p6250
aS'ENSG00000213214'
p6251
aS'ENSG00000005187'
p6252
aS'ENSG00000013288'
p6253
aS'ENSG00000249242'
p6254
aS'ENSG00000111581'
p6255
aS'ENSG00000115604'
p6256
aS'ENSG00000079931'
p6257
aS'ENSG00000198758'
p6258
aS'ENSG00000021488'
p6259
atRp6260
ssS'darkseagreen4'
p6261
(dp6262
g108
g109
((lp6263
S'ENSG00000144843'
p6264
aS'ENSG00000011260'
p6265
aS'ENSG00000165424'
p6266
aS'ENSG00000183230'
p6267
aS'ENSG00000073921'
p6268
aS'ENSG00000152749'
p6269
aS'ENSG00000166912'
p6270
aS'ENSG00000144115'
p6271
aS'ENSG00000164849'
p6272
aS'ENSG00000141504'
p6273
aS'ENSG00000171700'
p6274
aS'ENSG00000188177'
p6275
aS'ENSG00000133243'
p6276
aS'ENSG00000105649'
p6277
aS'ENSG00000158941'
p6278
aS'ENSG00000206535'
p6279
aS'ENSG00000156973'
p6280
aS'ENSG00000165055'
p6281
aS'ENSG00000159840'
p6282
aS'ENSG00000125630'
p6283
aS'ENSG00000198589'
p6284
aS'ENSG00000112339'
p6285
aS'ENSG00000136379'
p6286
aS'ENSG00000135763'
p6287
atRp6288
ssS'darkolivegreen1'
p6289
(dp6290
g108
g109
((lp6291
S'ENSG00000104979'
p6292
aS'ENSG00000077044'
p6293
aS'ENSG00000133657'
p6294
aS'ENSG00000198646'
p6295
aS'ENSG00000080845'
p6296
aS'ENSG00000103966'
p6297
aS'ENSG00000143776'
p6298
aS'ENSG00000169398'
p6299
aS'ENSG00000127084'
p6300
aS'ENSG00000140859'
p6301
aS'ENSG00000167280'
p6302
aS'ENSG00000126790'
p6303
aS'ENSG00000115232'
p6304
aS'ENSG00000171067'
p6305
aS'ENSG00000163625'
p6306
aS'ENSG00000135097'
p6307
aS'ENSG00000103316'
p6308
atRp6309
ssS'darkseagreen2'
p6310
(dp6311
g108
g109
((lp6312
S'ENSG00000041802'
p6313
aS'ENSG00000172985'
p6314
aS'ENSG00000106733'
p6315
aS'ENSG00000198331'
p6316
aS'ENSG00000259363'
p6317
aS'ENSG00000180758'
p6318
aS'ENSG00000254858'
p6319
aS'ENSG00000109184'
p6320
aS'ENSG00000198324'
p6321
aS'ENSG00000196498'
p6322
aS'ENSG00000137434'
p6323
aS'ENSG00000156873'
p6324
aS'ENSG00000163961'
p6325
aS'ENSG00000215271'
p6326
aS'ENSG00000069493'
p6327
aS'ENSG00000134262'
p6328
aS'ENSG00000122692'
p6329
aS'ENSG00000131437'
p6330
atRp6331
ssS'darkseagreen1'
p6332
(dp6333
g108
g109
((lp6334
S'ENSG00000175283'
p6335
aS'ENSG00000205084'
p6336
aS'ENSG00000185800'
p6337
aS'ENSG00000037757'
p6338
aS'ENSG00000196659'
p6339
aS'ENSG00000080823'
p6340
aS'ENSG00000152778'
p6341
aS'ENSG00000132623'
p6342
aS'ENSG00000123815'
p6343
aS'ENSG00000124588'
p6344
aS'ENSG00000127415'
p6345
aS'ENSG00000187535'
p6346
aS'ENSG00000089335'
p6347
aS'ENSG00000149179'
p6348
aS'ENSG00000154743'
p6349
aS'ENSG00000123080'
p6350
atRp6351
ssS'darkolivegreen2'
p6352
(dp6353
g108
g109
((lp6354
S'ENSG00000168216'
p6355
aS'ENSG00000170633'
p6356
aS'ENSG00000154079'
p6357
aS'ENSG00000245680'
p6358
aS'ENSG00000117410'
p6359
aS'ENSG00000124228'
p6360
aS'ENSG00000165282'
p6361
aS'ENSG00000155957'
p6362
aS'ENSG00000174903'
p6363
aS'ENSG00000167595'
p6364
aS'ENSG00000137207'
p6365
aS'ENSG00000180481'
p6366
aS'ENSG00000186866'
p6367
aS'ENSG00000132824'
p6368
aS'ENSG00000170852'
p6369
aS'ENSG00000103479'
p6370
aS'ENSG00000213625'
p6371
aS'ENSG00000185963'
p6372
aS'ENSG00000178623'
p6373
atRp6374
ssS'lavenderblush'
p6375
(dp6376
g108
g109
((lp6377
S'ENSG00000142168'
p6378
aS'ENSG00000163288'
p6379
aS'ENSG00000119509'
p6380
aS'ENSG00000104611'
p6381
aS'ENSG00000113312'
p6382
aS'ENSG00000176386'
p6383
aS'ENSG00000074966'
p6384
aS'ENSG00000132405'
p6385
aS'ENSG00000101639'
p6386
aS'ENSG00000181722'
p6387
aS'ENSG00000171843'
p6388
aS'ENSG00000135835'
p6389
aS'ENSG00000181826'
p6390
aS'ENSG00000166035'
p6391
aS'ENSG00000099785'
p6392
aS'ENSG00000109158'
p6393
atRp6394
ssS'salmon2'
p6395
(dp6396
g4
(lp6397
(lp6398
S'ENSG00000197253'
p6399
aFinf
ag8
(g10
S'\xcd\x0f:x\x88R\x02?'
tRp6400
ag8
(g10
S'\x00\xc8.\x8brz;?'
tRp6401
aa(lp6402
S'ENSG00000172236'
p6403
aFinf
ag8
(g10
S'\xcd\x0f:x\x88R\x02?'
tRp6404
ag8
(g10
S'\x00\xc8.\x8brz;?'
tRp6405
aasg108
g109
((lp6406
S'ENSG00000196378'
p6407
aS'ENSG00000141433'
p6408
aS'ENSG00000160948'
p6409
aS'ENSG00000166037'
p6410
aS'ENSG00000106524'
p6411
aS'ENSG00000177103'
p6412
aS'ENSG00000185875'
p6413
aS'ENSG00000103642'
p6414
aS'ENSG00000167766'
p6415
aS'ENSG00000165807'
p6416
aS'ENSG00000095917'
p6417
aS'ENSG00000131242'
p6418
aS'ENSG00000070444'
p6419
aS'ENSG00000245317'
p6420
aS'ENSG00000163751'
p6421
aS'ENSG00000130024'
p6422
aS'ENSG00000143401'
p6423
aS'ENSG00000066427'
p6424
aS'ENSG00000163867'
p6425
aS'ENSG00000198339'
p6426
aS'ENSG00000100448'
p6427
atRp6428
ssS'salmon4'
p6429
(dp6430
g108
g109
((lp6431
S'ENSG00000171566'
p6432
aS'ENSG00000119878'
p6433
aS'ENSG00000164542'
p6434
aS'ENSG00000137364'
p6435
aS'ENSG00000125818'
p6436
aS'ENSG00000153015'
p6437
aS'ENSG00000134186'
p6438
aS'ENSG00000171861'
p6439
aS'ENSG00000181610'
p6440
aS'ENSG00000126254'
p6441
aS'ENSG00000136463'
p6442
aS'ENSG00000135972'
p6443
aS'ENSG00000133265'
p6444
aS'ENSG00000014914'
p6445
aS'ENSG00000174100'
p6446
aS'ENSG00000163319'
p6447
aS'ENSG00000167862'
p6448
aS'ENSG00000181315'
p6449
aS'ENSG00000147471'
p6450
aS'ENSG00000137103'
p6451
aS'ENSG00000187764'
p6452
aS'ENSG00000130413'
p6453
aS'ENSG00000143653'
p6454
aS'ENSG00000061794'
p6455
atRp6456
ssS'linen'
p6457
(dp6458
g4
(lp6459
(lp6460
S'ENSG00000162882'
p6461
ag8
(g10
S'\xab\xaa\xaa\xaa\xaaJ\x7f@'
tRp6462
ag8
(g10
S'\xdd\xb0?h)i\x1b?'
tRp6463
ag8
(g10
S'\x00/\xf2k\x85B`?'
tRp6464
aa(lp6465
S'ENSG00000106809'
p6466
ag8
(g10
S'\xab\xaa\xaa\xaa\xaaJ\x7f@'
tRp6467
ag8
(g10
S'\xdd\xb0?h)i\x1b?'
tRp6468
ag8
(g10
S'\x00/\xf2k\x85B`?'
tRp6469
aasg108
g109
((lp6470
S'ENSG00000127337'
p6471
aS'ENSG00000111364'
p6472
aS'ENSG00000169221'
p6473
aS'ENSG00000116273'
p6474
aS'ENSG00000048405'
p6475
aS'ENSG00000095321'
p6476
aS'ENSG00000143768'
p6477
aS'ENSG00000183208'
p6478
aS'ENSG00000119242'
p6479
aS'ENSG00000197619'
p6480
aS'ENSG00000158109'
p6481
aS'ENSG00000090382'
p6482
aS'ENSG00000124780'
p6483
atRp6484
ssS'green'
p6485
(dp6486
g108
g109
((lp6487
S'ENSG00000221963'
p6488
aS'ENSG00000198133'
p6489
aS'ENSG00000214872'
p6490
aS'ENSG00000165949'
p6491
aS'ENSG00000214530'
p6492
aS'ENSG00000164307'
p6493
aS'ENSG00000026950'
p6494
aS'ENSG00000173821'
p6495
aS'ENSG00000128218'
p6496
aS'ENSG00000239713'
p6497
aS'ENSG00000124508'
p6498
aS'ENSG00000122417'
p6499
aS'ENSG00000204267'
p6500
aS'ENSG00000188242'
p6501
aS'ENSG00000135899'
p6502
aS'ENSG00000182986'
p6503
aS'ENSG00000075223'
p6504
aS'ENSG00000119686'
p6505
aS'ENSG00000234745'
p6506
aS'ENSG00000188157'
p6507
aS'ENSG00000197646'
p6508
aS'ENSG00000006042'
p6509
aS'ENSG00000240065'
p6510
aS'ENSG00000122870'
p6511
aS'ENSG00000117228'
p6512
aS'ENSG00000183486'
p6513
aS'ENSG00000205930'
p6514
aS'ENSG00000166750'
p6515
aS'ENSG00000185404'
p6516
aS'ENSG00000241186'
p6517
aS'ENSG00000105699'
p6518
aS'ENSG00000185507'
p6519
aS'ENSG00000173193'
p6520
aS'ENSG00000105939'
p6521
aS'ENSG00000187608'
p6522
aS'ENSG00000186470'
p6523
aS'ENSG00000231925'
p6524
aS'ENSG00000138496'
p6525
aS'ENSG00000159231'
p6526
aS'ENSG00000157601'
p6527
aS'ENSG00000137965'
p6528
aS'ENSG00000150054'
p6529
atRp6530
ssS'blueviolet'
p6531
(dp6532
g4
(lp6533
(lp6534
S'ENSG00000167971'
p6535
aFinf
ag8
(g10
S'_\xd0j4\xb1\xa4u?'
tRp6536
ag8
(g10
S'\xc0\xd59\xbc\r\x96\x85?'
tRp6537
aasg108
g109
((lp6538
S'ENSG00000115159'
p6539
aS'ENSG00000160439'
p6540
aS'ENSG00000213901'
p6541
aS'ENSG00000243708'
p6542
aS'ENSG00000117280'
p6543
aS'ENSG00000130720'
p6544
aS'ENSG00000157992'
p6545
aS'ENSG00000170049'
p6546
aS'ENSG00000162542'
p6547
aS'ENSG00000102886'
p6548
aS'ENSG00000158470'
p6549
aS'ENSG00000149654'
p6550
aS'ENSG00000166796'
p6551
aS'ENSG00000105341'
p6552
aS'ENSG00000172890'
p6553
aS'ENSG00000171045'
p6554
aS'ENSG00000142675'
p6555
aS'ENSG00000119139'
p6556
aS'ENSG00000108352'
p6557
atRp6558
ssS'brown2'
p6559
(dp6560
g108
g109
((lp6561
S'ENSG00000169715'
p6562
aS'ENSG00000131507'
p6563
aS'ENSG00000180535'
p6564
aS'ENSG00000080200'
p6565
aS'ENSG00000189362'
p6566
aS'ENSG00000102760'
p6567
aS'ENSG00000104998'
p6568
aS'ENSG00000170222'
p6569
aS'ENSG00000100097'
p6570
aS'ENSG00000143390'
p6571
aS'ENSG00000196072'
p6572
aS'ENSG00000106868'
p6573
aS'ENSG00000140043'
p6574
aS'ENSG00000166510'
p6575
aS'ENSG00000105339'
p6576
aS'ENSG00000021826'
p6577
aS'ENSG00000105854'
p6578
aS'ENSG00000151690'
p6579
aS'ENSG00000083454'
p6580
aS'ENSG00000186642'
p6581
aS'ENSG00000114200'
p6582
aS'ENSG00000106105'
p6583
atRp6584
ssS'brown3'
p6585
(dp6586
g108
g109
((lp6587
S'ENSG00000151090'
p6588
aS'ENSG00000185483'
p6589
aS'ENSG00000162599'
p6590
aS'ENSG00000058866'
p6591
aS'ENSG00000185630'
p6592
aS'ENSG00000185115'
p6593
aS'ENSG00000185499'
p6594
aS'ENSG00000002016'
p6595
aS'ENSG00000085832'
p6596
aS'ENSG00000162595'
p6597
aS'ENSG00000082438'
p6598
aS'ENSG00000116138'
p6599
aS'ENSG00000151353'
p6600
aS'ENSG00000111885'
p6601
aS'ENSG00000143028'
p6602
atRp6603
ssS'brown1'
p6604
(dp6605
g108
g109
((lp6606
S'ENSG00000141140'
p6607
aS'ENSG00000165548'
p6608
aS'ENSG00000100911'
p6609
aS'ENSG00000172346'
p6610
aS'ENSG00000167508'
p6611
aS'ENSG00000197081'
p6612
aS'ENSG00000085831'
p6613
aS'ENSG00000132510'
p6614
aS'ENSG00000134258'
p6615
aS'ENSG00000143167'
p6616
aS'ENSG00000029639'
p6617
aS'ENSG00000148690'
p6618
aS'ENSG00000108272'
p6619
aS'ENSG00000204220'
p6620
aS'ENSG00000160446'
p6621
aS'ENSG00000144199'
p6622
aS'ENSG00000247596'
p6623
atRp6624
ssS'steelblue'
p6625
(dp6626
g108
g109
((lp6627
S'ENSG00000131477'
p6628
aS'ENSG00000104848'
p6629
aS'ENSG00000066056'
p6630
aS'ENSG00000198885'
p6631
aS'ENSG00000243477'
p6632
aS'ENSG00000166405'
p6633
aS'ENSG00000137404'
p6634
aS'ENSG00000136861'
p6635
aS'ENSG00000178031'
p6636
aS'ENSG00000213551'
p6637
aS'ENSG00000182670'
p6638
aS'ENSG00000164167'
p6639
aS'ENSG00000128881'
p6640
aS'ENSG00000138814'
p6641
aS'ENSG00000156052'
p6642
aS'ENSG00000187151'
p6643
aS'ENSG00000120279'
p6644
aS'ENSG00000196586'
p6645
aS'ENSG00000079337'
p6646
aS'ENSG00000164035'
p6647
aS'ENSG00000169313'
p6648
aS'ENSG00000141469'
p6649
aS'ENSG00000113532'
p6650
aS'ENSG00000197261'
p6651
aS'ENSG00000117862'
p6652
aS'ENSG00000182957'
p6653
aS'ENSG00000156042'
p6654
aS'ENSG00000150076'
p6655
atRp6656
ssS'brown4'
p6657
(dp6658
g4
(lp6659
(lp6660
S'ENSG00000244734'
p6661
ag8
(g10
S'\x00\x00\x00\x00\x00B\x9d@'
tRp6662
ag8
(g10
S'\xdc\xfd\xe4\xe9\x7f\xe7\xd0='
tRp6663
ag8
(g10
S'\x00\x00\x00\x00p\x04\x03>'
tRp6664
aa(lp6665
S'ENSG00000223609'
p6666
ag8
(g10
S'\x9a\x99\x99\x99\x99\xb9r@'
tRp6667
ag8
(g10
S'\xe8\xcee+\xf9\xba,?'
tRp6668
ag8
(g10
S'\x00\xd2\x1aKU\xb5\\?'
tRp6669
aa(lp6670
S'ENSG00000158578'
p6671
ag8
(g10
S'\x9a\x99\x99\x99\x99\xb9r@'
tRp6672
ag8
(g10
S'\xe8\xcee+\xf9\xba,?'
tRp6673
ag8
(g10
S'\x00\xd2\x1aKU\xb5\\?'
tRp6674
aasg108
g109
((lp6675
S'ENSG00000206172'
p6676
aS'ENSG00000177683'
p6677
aS'ENSG00000073350'
p6678
aS'ENSG00000240247'
p6679
aS'ENSG00000163206'
p6680
aS'ENSG00000101190'
p6681
aS'ENSG00000124532'
p6682
aS'ENSG00000141759'
p6683
aS'ENSG00000004939'
p6684
aS'ENSG00000196565'
p6685
aS'ENSG00000101425'
p6686
aS'ENSG00000116830'
p6687
aS'ENSG00000155542'
p6688
aS'ENSG00000141040'
p6689
aS'ENSG00000163964'
p6690
aS'ENSG00000134827'
p6691
aS'ENSG00000140905'
p6692
aS'ENSG00000241043'
p6693
aS'ENSG00000179195'
p6694
aS'ENSG00000188536'
p6695
aS'ENSG00000177303'
p6696
aS'ENSG00000148396'
p6697
aS'ENSG00000226742'
p6698
aS'ENSG00000120675'
p6699
atRp6700
ss.