(dp1
S'yellow'
p2
(dp3
S'module_genes'
p4
c__builtin__
set
p5
((lp6
S'ENSG00000135905'
p7
aS'ENSG00000162415'
p8
aS'ENSG00000113273'
p9
aS'ENSG00000144476'
p10
aS'ENSG00000183765'
p11
aS'ENSG00000166260'
p12
aS'ENSG00000134852'
p13
aS'ENSG00000114857'
p14
aS'ENSG00000041802'
p15
aS'ENSG00000100038'
p16
aS'ENSG00000127337'
p17
aS'ENSG00000141639'
p18
aS'ENSG00000160190'
p19
aS'ENSG00000182923'
p20
aS'ENSG00000149054'
p21
aS'ENSG00000130758'
p22
aS'ENSG00000040531'
p23
aS'ENSG00000146574'
p24
aS'ENSG00000196247'
p25
aS'ENSG00000151500'
p26
aS'ENSG00000261701'
p27
aS'ENSG00000110619'
p28
aS'ENSG00000197921'
p29
aS'ENSG00000152240'
p30
aS'ENSG00000250305'
p31
aS'ENSG00000187867'
p32
aS'ENSG00000129055'
p33
aS'ENSG00000113318'
p34
aS'ENSG00000171056'
p35
aS'ENSG00000059573'
p36
aS'ENSG00000205581'
p37
aS'ENSG00000119227'
p38
aS'ENSG00000172164'
p39
aS'ENSG00000139651'
p40
aS'ENSG00000135334'
p41
aS'ENSG00000163602'
p42
aS'ENSG00000102870'
p43
aS'ENSG00000056661'
p44
aS'ENSG00000138639'
p45
aS'ENSG00000159445'
p46
atRp47
ssS'darkolivegreen'
p48
(dp49
S'driver_genes'
p50
(lp51
(lp52
S'ENSG00000187116'
p53
aFinf
acnumpy.core.multiarray
scalar
p54
(cnumpy
dtype
p55
(S'f8'
I0
I1
tRp56
(I3
S'<'
NNNI-1
I-1
I0
tbS'\xb6\xcb\xfd\xa3\xb9Qq?'
tRp57
ag54
(g56
S'`/c\x0c\x15b\xa9?'
tRp58
aa(lp59
S'ENSG00000131042'
p60
aFinf
ag54
(g56
S'\xb6\xcb\xfd\xa3\xb9Qq?'
tRp61
ag54
(g56
S'`/c\x0c\x15b\xa9?'
tRp62
aa(lp63
S'ENSG00000229356'
p64
aFinf
ag54
(g56
S'\xb6\xcb\xfd\xa3\xb9Qq?'
tRp65
ag54
(g56
S'`/c\x0c\x15b\xa9?'
tRp66
aasg4
g5
((lp67
S'ENSG00000165948'
p68
aS'ENSG00000069712'
p69
aS'ENSG00000188295'
p70
aS'ENSG00000186814'
p71
aS'ENSG00000142794'
p72
aS'ENSG00000001461'
p73
aS'ENSG00000131196'
p74
aS'ENSG00000112234'
p75
aS'ENSG00000080166'
p76
aS'ENSG00000140386'
p77
aS'ENSG00000179364'
p78
aS'ENSG00000178750'
p79
aS'ENSG00000198924'
p80
aS'ENSG00000070423'
p81
aS'ENSG00000145934'
p82
aS'ENSG00000022976'
p83
aS'ENSG00000204257'
p84
aS'ENSG00000152778'
p85
aS'ENSG00000115275'
p86
aS'ENSG00000256087'
p87
aS'ENSG00000106392'
p88
aS'ENSG00000111961'
p89
atRp90
ssS'grey60'
p91
(dp92
g50
(lp93
(lp94
S'ENSG00000131747'
p95
ag54
(g56
S'\x00\x00\x00\x00\x00@q@'
tRp96
ag54
(g56
S'\xf1\x96j\n?\xf6\x0c>'
tRp97
ag54
(g56
S'\x00\x00\x00n\x83JP>'
tRp98
aa(lp99
S'ENSG00000109805'
p100
ag54
(g56
S'\x00\x00\x00\x00\x00\x9ce@'
tRp101
ag54
(g56
S'\x1cyO\xc3\x01~\x03?'
tRp102
ag54
(g56
S'\x00\x98LAN\xb4D?'
tRp103
aa(lp104
S'ENSG00000148773'
p105
ag54
(g56
S'\xc7q\x1c\xc7q\x9cY@'
tRp106
ag54
(g56
S'VV\xfd-\xb9\xe8W?'
tRp107
ag54
(g56
S'\xa0\xeb*\x190\xa6\x97?'
tRp108
aasg4
g5
((lp109
S'ENSG00000121211'
p110
aS'ENSG00000158402'
p111
aS'ENSG00000164087'
p112
aS'ENSG00000135476'
p113
aS'ENSG00000186185'
p114
aS'ENSG00000110080'
p115
aS'ENSG00000100376'
p116
aS'ENSG00000163029'
p117
aS'ENSG00000113946'
p118
aS'ENSG00000186638'
p119
aS'ENSG00000125378'
p120
aS'ENSG00000082196'
p121
aS'ENSG00000272636'
p122
aS'ENSG00000169607'
p123
aS'ENSG00000089685'
p124
aS'ENSG00000172728'
p125
aS'ENSG00000203760'
p126
aS'ENSG00000089847'
p127
aS'ENSG00000171320'
p128
aS'ENSG00000164253'
p129
aS'ENSG00000166803'
p130
aS'ENSG00000162877'
p131
aS'ENSG00000187741'
p132
aS'ENSG00000156042'
p133
aS'ENSG00000163032'
p134
aS'ENSG00000163138'
p135
aS'ENSG00000134057'
p136
atRp137
ssS'green4'
p138
(dp139
g4
g5
((lp140
S'ENSG00000132436'
p141
aS'ENSG00000157168'
p142
aS'ENSG00000257949'
p143
aS'ENSG00000068903'
p144
aS'ENSG00000179921'
p145
aS'ENSG00000121101'
p146
aS'ENSG00000168135'
p147
aS'ENSG00000104689'
p148
aS'ENSG00000135617'
p149
aS'ENSG00000100867'
p150
aS'ENSG00000104825'
p151
atRp152
ssS'magenta4'
p153
(dp154
g4
g5
((lp155
S'ENSG00000175920'
p156
aS'ENSG00000150656'
p157
aS'ENSG00000158457'
p158
aS'ENSG00000117640'
p159
aS'ENSG00000140563'
p160
aS'ENSG00000248712'
p161
aS'ENSG00000108179'
p162
aS'ENSG00000120563'
p163
aS'ENSG00000101213'
p164
aS'ENSG00000125534'
p165
aS'ENSG00000171916'
p166
aS'ENSG00000126460'
p167
aS'ENSG00000162039'
p168
aS'ENSG00000103375'
p169
aS'ENSG00000219626'
p170
aS'ENSG00000248487'
p171
atRp172
ssS'mediumorchid'
p173
(dp174
g4
g5
((lp175
S'ENSG00000159069'
p176
aS'ENSG00000188677'
p177
aS'ENSG00000169862'
p178
aS'ENSG00000108950'
p179
aS'ENSG00000101577'
p180
aS'ENSG00000144485'
p181
aS'ENSG00000197969'
p182
aS'ENSG00000185499'
p183
aS'ENSG00000137692'
p184
aS'ENSG00000102802'
p185
aS'ENSG00000161055'
p186
aS'ENSG00000116157'
p187
aS'ENSG00000245317'
p188
aS'ENSG00000168702'
p189
aS'ENSG00000007080'
p190
aS'ENSG00000092009'
p191
aS'ENSG00000145494'
p192
aS'ENSG00000250317'
p193
atRp194
ssS'yellow2'
p195
(dp196
g50
(lp197
(lp198
S'ENSG00000069535'
p199
aFinf
ag54
(g56
S'\xa7\xc9\xfd\xa3\xb9Q\x81?'
tRp200
ag54
(g56
S'\xc0\xc9\xfd\xa3\xb9Q\x81?'
tRp201
aasg4
g5
((lp202
S'ENSG00000197580'
p203
aS'ENSG00000143537'
p204
aS'ENSG00000129596'
p205
aS'ENSG00000168000'
p206
aS'ENSG00000105677'
p207
aS'ENSG00000150787'
p208
aS'ENSG00000126217'
p209
aS'ENSG00000166831'
p210
aS'ENSG00000164535'
p211
atRp212
ssS'black'
p213
(dp214
g4
g5
((lp215
S'ENSG00000172247'
p216
aS'ENSG00000185619'
p217
aS'ENSG00000164048'
p218
aS'ENSG00000114268'
p219
aS'ENSG00000011405'
p220
aS'ENSG00000165813'
p221
aS'ENSG00000157045'
p222
aS'ENSG00000185043'
p223
aS'ENSG00000020922'
p224
aS'ENSG00000197381'
p225
aS'ENSG00000170745'
p226
aS'ENSG00000058404'
p227
aS'ENSG00000109182'
p228
aS'ENSG00000070718'
p229
aS'ENSG00000101405'
p230
aS'ENSG00000225697'
p231
aS'ENSG00000067057'
p232
aS'ENSG00000128699'
p233
aS'ENSG00000095261'
p234
aS'ENSG00000096996'
p235
aS'ENSG00000070444'
p236
aS'ENSG00000099949'
p237
aS'ENSG00000180155'
p238
aS'ENSG00000135698'
p239
aS'ENSG00000166847'
p240
aS'ENSG00000070540'
p241
aS'ENSG00000106733'
p242
aS'ENSG00000225828'
p243
aS'ENSG00000134278'
p244
aS'ENSG00000169598'
p245
aS'ENSG00000182400'
p246
aS'ENSG00000153208'
p247
aS'ENSG00000099901'
p248
atRp249
ssS'orange'
p250
(dp251
g4
g5
((lp252
S'ENSG00000213903'
p253
aS'ENSG00000029363'
p254
aS'ENSG00000176386'
p255
aS'ENSG00000176731'
p256
aS'ENSG00000102886'
p257
aS'ENSG00000145736'
p258
aS'ENSG00000179104'
p259
aS'ENSG00000151006'
p260
aS'ENSG00000186998'
p261
aS'ENSG00000173209'
p262
aS'ENSG00000150510'
p263
aS'ENSG00000105556'
p264
aS'ENSG00000205978'
p265
aS'ENSG00000178226'
p266
aS'ENSG00000103510'
p267
aS'ENSG00000167397'
p268
aS'ENSG00000196152'
p269
aS'ENSG00000165389'
p270
aS'ENSG00000101457'
p271
aS'ENSG00000151136'
p272
aS'ENSG00000235978'
p273
aS'ENSG00000123427'
p274
atRp275
ssS'brown'
p276
(dp277
g4
g5
((lp278
S'ENSG00000196388'
p279
aS'ENSG00000146039'
p280
aS'ENSG00000149231'
p281
aS'ENSG00000073169'
p282
aS'ENSG00000163660'
p283
aS'ENSG00000113319'
p284
aS'ENSG00000164543'
p285
aS'ENSG00000156256'
p286
aS'ENSG00000165502'
p287
aS'ENSG00000152137'
p288
aS'ENSG00000128313'
p289
aS'ENSG00000205629'
p290
aS'ENSG00000171103'
p291
aS'ENSG00000099260'
p292
aS'ENSG00000154265'
p293
aS'ENSG00000128050'
p294
aS'ENSG00000116017'
p295
aS'ENSG00000135778'
p296
aS'ENSG00000186635'
p297
aS'ENSG00000125450'
p298
aS'ENSG00000107099'
p299
aS'ENSG00000113194'
p300
aS'ENSG00000162409'
p301
aS'ENSG00000188895'
p302
aS'ENSG00000170638'
p303
aS'ENSG00000065268'
p304
aS'ENSG00000206344'
p305
aS'ENSG00000139572'
p306
aS'ENSG00000166359'
p307
aS'ENSG00000134375'
p308
aS'ENSG00000172780'
p309
aS'ENSG00000168803'
p310
aS'ENSG00000108242'
p311
aS'ENSG00000189350'
p312
aS'ENSG00000143869'
p313
aS'ENSG00000100577'
p314
aS'ENSG00000164111'
p315
aS'ENSG00000109436'
p316
aS'ENSG00000124164'
p317
aS'ENSG00000112378'
p318
aS'ENSG00000138613'
p319
aS'ENSG00000004534'
p320
aS'ENSG00000147852'
p321
atRp322
ssS'turquoise'
p323
(dp324
g50
(lp325
(lp326
S'ENSG00000171860'
p327
ag54
(g56
S'\x94\xd7P^C\xb9A@'
tRp328
ag54
(g56
S'\x8a\x0618\x14\x13K?'
tRp329
ag54
(g56
S'p\xa7@\xca\xfd=\xa0?'
tRp330
aa(lp331
S'ENSG00000129450'
p332
ag54
(g56
S'\x94\xd7P^C\xb9A@'
tRp333
ag54
(g56
S'\x8a\x0618\x14\x13K?'
tRp334
ag54
(g56
S'p\xa7@\xca\xfd=\xa0?'
tRp335
aasg4
g5
((lp336
S'ENSG00000103404'
p337
aS'ENSG00000178199'
p338
aS'ENSG00000233927'
p339
aS'ENSG00000196511'
p340
aS'ENSG00000104093'
p341
aS'ENSG00000243414'
p342
aS'ENSG00000186051'
p343
aS'ENSG00000026297'
p344
aS'ENSG00000113552'
p345
aS'ENSG00000136770'
p346
aS'ENSG00000128604'
p347
aS'ENSG00000248905'
p348
aS'ENSG00000183496'
p349
aS'ENSG00000111450'
p350
aS'ENSG00000161929'
p351
aS'ENSG00000204287'
p352
aS'ENSG00000105366'
p353
aS'ENSG00000172785'
p354
aS'ENSG00000172243'
p355
aS'ENSG00000204516'
p356
aS'ENSG00000143110'
p357
aS'ENSG00000151923'
p358
aS'ENSG00000146285'
p359
aS'ENSG00000148426'
p360
aS'ENSG00000171858'
p361
aS'ENSG00000188690'
p362
aS'ENSG00000186184'
p363
aS'ENSG00000143119'
p364
aS'ENSG00000124743'
p365
aS'ENSG00000141506'
p366
aS'ENSG00000204103'
p367
aS'ENSG00000171700'
p368
aS'ENSG00000134285'
p369
aS'ENSG00000126882'
p370
aS'ENSG00000074706'
p371
aS'ENSG00000135655'
p372
aS'ENSG00000157107'
p373
aS'ENSG00000090920'
p374
aS'ENSG00000189283'
p375
aS'ENSG00000099290'
p376
aS'ENSG00000149201'
p377
aS'ENSG00000093072'
p378
aS'ENSG00000125618'
p379
aS'ENSG00000115590'
p380
aS'ENSG00000149196'
p381
aS'ENSG00000146373'
p382
aS'ENSG00000144230'
p383
aS'ENSG00000158869'
p384
aS'ENSG00000196209'
p385
aS'ENSG00000115318'
p386
aS'ENSG00000180113'
p387
aS'ENSG00000198846'
p388
aS'ENSG00000237541'
p389
aS'ENSG00000073737'
p390
aS'ENSG00000167613'
p391
aS'ENSG00000166928'
p392
aS'ENSG00000153132'
p393
aS'ENSG00000254521'
p394
aS'ENSG00000106261'
p395
aS'ENSG00000163131'
p396
aS'ENSG00000172738'
p397
aS'ENSG00000170866'
p398
aS'ENSG00000123636'
p399
aS'ENSG00000105223'
p400
aS'ENSG00000182993'
p401
aS'ENSG00000172322'
p402
atRp403
ssS'antiquewhite2'
p404
(dp405
g50
(lp406
(lp407
S'ENSG00000047457'
p408
ag54
(g56
S'\x00\x00\x00\x00\x00`}@'
tRp409
ag54
(g56
S'i\x15BF\x07M\x81?'
tRp410
ag54
(g56
S'\x80\xc1\xf6#R:\x91?'
tRp411
aa(lp412
S'ENSG00000175899'
p413
ag54
(g56
S'\x00\x00\x00\x00\x00`}@'
tRp414
ag54
(g56
S'i\x15BF\x07M\x81?'
tRp415
ag54
(g56
S'\x80\xc1\xf6#R:\x91?'
tRp416
aasg4
g5
((lp417
S'ENSG00000259803'
p418
aS'ENSG00000137274'
p419
aS'ENSG00000166479'
p420
aS'ENSG00000163293'
p421
aS'ENSG00000143157'
p422
aS'ENSG00000162267'
p423
aS'ENSG00000167543'
p424
aS'ENSG00000168792'
p425
aS'ENSG00000142961'
p426
aS'ENSG00000198515'
p427
aS'ENSG00000173960'
p428
aS'ENSG00000138757'
p429
aS'ENSG00000155545'
p430
aS'ENSG00000111786'
p431
aS'ENSG00000121289'
p432
atRp433
ssS'antiquewhite1'
p434
(dp435
g50
(lp436
(lp437
S'ENSG00000145451'
p438
aFinf
ag54
(g56
S'\xb6\xcb\xfd\xa3\xb9Qq?'
tRp439
ag54
(g56
S'\xc0\x8a\x07\xfeYH\x81?'
tRp440
aa(lp441
S'ENSG00000136099'
p442
aFinf
ag54
(g56
S'\xb6\xcb\xfd\xa3\xb9Qq?'
tRp443
ag54
(g56
S'\xc0\x8a\x07\xfeYH\x81?'
tRp444
aasg4
g5
((lp445
S'ENSG00000196990'
p446
aS'ENSG00000188368'
p447
aS'ENSG00000174718'
p448
aS'ENSG00000151773'
p449
aS'ENSG00000205106'
p450
aS'ENSG00000183657'
p451
aS'ENSG00000101605'
p452
aS'ENSG00000179630'
p453
aS'ENSG00000116857'
p454
aS'ENSG00000139668'
p455
atRp456
ssS'antiquewhite4'
p457
(dp458
g50
(lp459
(lp460
S'ENSG00000119888'
p461
ag54
(g56
S'\x00\x00\x00\x00\x00`}@'
tRp462
ag54
(g56
S'i\x15BF\x07M\x81?'
tRp463
ag54
(g56
S'\xb0*\x8fl\xceh\xa9?'
tRp464
aa(lp465
S'ENSG00000179178'
p466
ag54
(g56
S'\x00\x00\x00\x00\x00Pm@'
tRp467
ag54
(g56
S'\xb4\xb4\xc9\\\x7f\xec\x89?'
tRp468
ag54
(g56
S'\xb0*\x8fl\xceh\xa9?'
tRp469
aa(lp470
S'ENSG00000141934'
p471
ag54
(g56
S'\x00\x00\x00\x00\x00`}@'
tRp472
ag54
(g56
S'i\x15BF\x07M\x81?'
tRp473
ag54
(g56
S'\xb0*\x8fl\xceh\xa9?'
tRp474
aa(lp475
S'ENSG00000006611'
p476
ag54
(g56
S'\x00\x00\x00\x00\x00`}@'
tRp477
ag54
(g56
S'i\x15BF\x07M\x81?'
tRp478
ag54
(g56
S'\xb0*\x8fl\xceh\xa9?'
tRp479
aa(lp480
S'ENSG00000104413'
p481
ag54
(g56
S'\x00\x00\x00\x00\x00\x80c@'
tRp482
ag54
(g56
S'_\xcd\xca\x8a\xa2C\x91?'
tRp483
ag54
(g56
S'\xb0*\x8fl\xceh\xa9?'
tRp484
aa(lp485
S'ENSG00000129354'
p486
ag54
(g56
S'\x00\x00\x00\x00\x00Pm@'
tRp487
ag54
(g56
S'\xb4\xb4\xc9\\\x7f\xec\x89?'
tRp488
ag54
(g56
S'\xb0*\x8fl\xceh\xa9?'
tRp489
aasg4
g5
((lp490
S'ENSG00000105364'
p491
aS'ENSG00000136717'
p492
aS'ENSG00000177103'
p493
aS'ENSG00000058453'
p494
aS'ENSG00000080298'
p495
aS'ENSG00000115339'
p496
aS'ENSG00000170619'
p497
aS'ENSG00000128536'
p498
aS'ENSG00000241973'
p499
aS'ENSG00000111850'
p500
aS'ENSG00000217442'
p501
aS'ENSG00000140396'
p502
aS'ENSG00000137968'
p503
aS'ENSG00000158483'
p504
aS'ENSG00000064995'
p505
aS'ENSG00000131653'
p506
aS'ENSG00000010626'
p507
aS'ENSG00000213047'
p508
atRp509
ssS'indianred4'
p510
(dp511
g4
g5
((lp512
S'ENSG00000221963'
p513
aS'ENSG00000196405'
p514
aS'ENSG00000214872'
p515
aS'ENSG00000001561'
p516
aS'ENSG00000163082'
p517
aS'ENSG00000127472'
p518
aS'ENSG00000130489'
p519
aS'ENSG00000063127'
p520
aS'ENSG00000218739'
p521
aS'ENSG00000112297'
p522
aS'ENSG00000166825'
p523
aS'ENSG00000241839'
p524
aS'ENSG00000140043'
p525
aS'ENSG00000197406'
p526
aS'ENSG00000117226'
p527
aS'ENSG00000132109'
p528
aS'ENSG00000175518'
p529
atRp530
ssS'bisque4'
p531
(dp532
g50
(lp533
(lp534
S'ENSG00000100196'
p535
aFinf
ag54
(g56
S'\xb6\xcb\xfd\xa3\xb9Qq?'
tRp536
ag54
(g56
S'@\xd2\x9f\xf7\xae5\x91?'
tRp537
aa(lp538
S'ENSG00000087076'
p539
aFinf
ag54
(g56
S'\xb6\xcb\xfd\xa3\xb9Qq?'
tRp540
ag54
(g56
S'@\xd2\x9f\xf7\xae5\x91?'
tRp541
aasg4
g5
((lp542
S'ENSG00000189280'
p543
aS'ENSG00000122203'
p544
aS'ENSG00000168944'
p545
aS'ENSG00000114520'
p546
aS'ENSG00000086475'
p547
aS'ENSG00000131626'
p548
aS'ENSG00000141086'
p549
aS'ENSG00000144671'
p550
aS'ENSG00000175322'
p551
aS'ENSG00000115310'
p552
aS'ENSG00000164031'
p553
aS'ENSG00000204538'
p554
aS'ENSG00000183889'
p555
aS'ENSG00000096433'
p556
aS'ENSG00000135837'
p557
aS'ENSG00000175287'
p558
aS'ENSG00000205560'
p559
aS'ENSG00000101782'
p560
aS'ENSG00000122515'
p561
aS'ENSG00000188257'
p562
atRp563
ssS'cyan'
p564
(dp565
g4
g5
((lp566
S'ENSG00000086619'
p567
aS'ENSG00000184925'
p568
aS'ENSG00000106330'
p569
aS'ENSG00000184731'
p570
aS'ENSG00000139880'
p571
aS'ENSG00000163479'
p572
aS'ENSG00000182670'
p573
aS'ENSG00000071537'
p574
aS'ENSG00000100359'
p575
aS'ENSG00000101546'
p576
aS'ENSG00000110911'
p577
aS'ENSG00000105397'
p578
aS'ENSG00000169282'
p579
aS'ENSG00000177697'
p580
aS'ENSG00000249751'
p581
aS'ENSG00000103356'
p582
aS'ENSG00000196937'
p583
aS'ENSG00000149428'
p584
aS'ENSG00000111678'
p585
aS'ENSG00000140105'
p586
aS'ENSG00000124783'
p587
aS'ENSG00000044574'
p588
aS'ENSG00000145832'
p589
aS'ENSG00000078070'
p590
aS'ENSG00000186765'
p591
aS'ENSG00000116353'
p592
aS'ENSG00000136026'
p593
aS'ENSG00000171617'
p594
atRp595
ssS'skyblue'
p596
(dp597
g50
(lp598
(lp599
S'ENSG00000198821'
p600
ag54
(g56
S'\x00\x00\x00\x00\x00@g@'
tRp601
ag54
(g56
S'3\xc0N\xaf\xcf\\B?'
tRp602
ag54
(g56
S'\x00c\xf0\xe8/\xbd}?'
tRp603
aasg4
g5
((lp604
S'ENSG00000182183'
p605
aS'ENSG00000169826'
p606
aS'ENSG00000101596'
p607
aS'ENSG00000020633'
p608
aS'ENSG00000110665'
p609
aS'ENSG00000181036'
p610
aS'ENSG00000065357'
p611
aS'ENSG00000239713'
p612
aS'ENSG00000185477'
p613
aS'ENSG00000070759'
p614
aS'ENSG00000072958'
p615
aS'ENSG00000171357'
p616
aS'ENSG00000172543'
p617
aS'ENSG00000181847'
p618
aS'ENSG00000162032'
p619
aS'ENSG00000110448'
p620
aS'ENSG00000136169'
p621
aS'ENSG00000108306'
p622
aS'ENSG00000089012'
p623
aS'ENSG00000183833'
p624
aS'ENSG00000151208'
p625
aS'ENSG00000174990'
p626
atRp627
ssS'darkturquoise'
p628
(dp629
g4
g5
((lp630
S'ENSG00000184293'
p631
aS'ENSG00000196821'
p632
aS'ENSG00000183111'
p633
aS'ENSG00000006652'
p634
aS'ENSG00000145241'
p635
aS'ENSG00000126870'
p636
aS'ENSG00000260259'
p637
aS'ENSG00000113732'
p638
aS'ENSG00000138744'
p639
aS'ENSG00000136888'
p640
aS'ENSG00000162913'
p641
aS'ENSG00000180979'
p642
aS'ENSG00000100395'
p643
aS'ENSG00000173805'
p644
aS'ENSG00000140943'
p645
aS'ENSG00000090487'
p646
aS'ENSG00000223496'
p647
aS'ENSG00000223510'
p648
aS'ENSG00000153898'
p649
aS'ENSG00000143612'
p650
aS'ENSG00000166507'
p651
aS'ENSG00000111860'
p652
aS'ENSG00000151360'
p653
atRp654
ssS'darkgreen'
p655
(dp656
g50
(lp657
(lp658
S'ENSG00000164692'
p659
aFinf
ag54
(g56
S'\x9a\xb1\xfcu\x96\xfa\x89?'
tRp660
ag54
(g56
S' H\x11X\xfa>\x91?'
tRp661
aa(lp662
S'ENSG00000177469'
p663
aFinf
ag54
(g56
S'\xa7\xc9\xfd\xa3\xb9Q\x81?'
tRp664
ag54
(g56
S' H\x11X\xfa>\x91?'
tRp665
aasg4
g5
((lp666
S'ENSG00000109787'
p667
aS'ENSG00000164932'
p668
aS'ENSG00000170448'
p669
aS'ENSG00000240344'
p670
aS'ENSG00000236624'
p671
aS'ENSG00000138346'
p672
aS'ENSG00000106086'
p673
aS'ENSG00000089123'
p674
aS'ENSG00000125871'
p675
aS'ENSG00000204713'
p676
aS'ENSG00000126231'
p677
aS'ENSG00000153291'
p678
aS'ENSG00000196544'
p679
aS'ENSG00000077312'
p680
aS'ENSG00000168795'
p681
aS'ENSG00000183891'
p682
aS'ENSG00000161692'
p683
aS'ENSG00000143882'
p684
aS'ENSG00000170430'
p685
aS'ENSG00000214253'
p686
aS'ENSG00000166435'
p687
aS'ENSG00000151364'
p688
aS'ENSG00000172650'
p689
atRp690
ssS'darkviolet'
p691
(dp692
g50
(lp693
(lp694
S'ENSG00000198099'
p695
ag54
(g56
S'\xcd\xcc\xcc\xcc\xccLW@'
tRp696
ag54
(g56
S'\x8c4\xfd\xb6\\\xd7\x99?'
tRp697
ag54
(g56
S'\x804\xfd\xb6\\\xd7\x99?'
tRp698
aasg4
g5
((lp699
S'ENSG00000204387'
p700
aS'ENSG00000204876'
p701
aS'ENSG00000104859'
p702
aS'ENSG00000213512'
p703
aS'ENSG00000178922'
p704
aS'ENSG00000100938'
p705
aS'ENSG00000104388'
p706
aS'ENSG00000154252'
p707
aS'ENSG00000161016'
p708
aS'ENSG00000180481'
p709
aS'ENSG00000177764'
p710
aS'ENSG00000171055'
p711
aS'ENSG00000162244'
p712
aS'ENSG00000100726'
p713
aS'ENSG00000108561'
p714
aS'ENSG00000180694'
p715
aS'ENSG00000154059'
p716
atRp717
ssS'darkmagenta'
p718
(dp719
g50
(lp720
(lp721
S'ENSG00000131037'
p722
aFinf
ag54
(g56
S'\xa7\xb1\xfcu\x96\xfay?'
tRp723
ag54
(g56
S' D\x1b9\x84-\xa3?'
tRp724
aa(lp725
S'ENSG00000247095'
p726
aFinf
ag54
(g56
S'\xa7\xb1\xfcu\x96\xfay?'
tRp727
ag54
(g56
S' D\x1b9\x84-\xa3?'
tRp728
aasg4
g5
((lp729
S'ENSG00000196418'
p730
aS'ENSG00000110801'
p731
aS'ENSG00000011638'
p732
aS'ENSG00000204060'
p733
aS'ENSG00000108424'
p734
aS'ENSG00000143971'
p735
aS'ENSG00000196378'
p736
aS'ENSG00000177234'
p737
aS'ENSG00000196704'
p738
aS'ENSG00000116957'
p739
aS'ENSG00000198246'
p740
aS'ENSG00000162777'
p741
aS'ENSG00000134982'
p742
aS'ENSG00000175265'
p743
aS'ENSG00000198721'
p744
aS'ENSG00000002919'
p745
aS'ENSG00000166924'
p746
aS'ENSG00000120733'
p747
aS'ENSG00000170537'
p748
aS'ENSG00000165929'
p749
aS'ENSG00000131023'
p750
aS'ENSG00000089195'
p751
atRp752
ssS'indianred3'
p753
(dp754
g50
(lp755
(lp756
S'ENSG00000166920'
p757
aFinf
ag54
(g56
S'\xb6\xcb\xfd\xa3\xb9Qq?'
tRp758
ag54
(g56
S'\x80\xcb\xfd\xa3\xb9Qq?'
tRp759
aasg4
g5
((lp760
S'ENSG00000187583'
p761
aS'ENSG00000105856'
p762
aS'ENSG00000110203'
p763
aS'ENSG00000087087'
p764
aS'ENSG00000161265'
p765
aS'ENSG00000132824'
p766
aS'ENSG00000175550'
p767
aS'ENSG00000112473'
p768
aS'ENSG00000159363'
p769
aS'ENSG00000181588'
p770
aS'ENSG00000185920'
p771
aS'ENSG00000145757'
p772
aS'ENSG00000135968'
p773
aS'ENSG00000146830'
p774
atRp775
ssS'plum3'
p776
(dp777
g50
(lp778
(lp779
S'ENSG00000115425'
p780
aFinf
ag54
(g56
S'\xad\xcb\xfd\xa3\xb9Qa?'
tRp781
ag54
(g56
S'\x00\xcc\xfd\xa3\xb9Qa?'
tRp782
aasg4
g5
((lp783
S'ENSG00000160194'
p784
aS'ENSG00000172985'
p785
aS'ENSG00000072736'
p786
aS'ENSG00000204682'
p787
aS'ENSG00000168724'
p788
aS'ENSG00000125124'
p789
aS'ENSG00000122512'
p790
aS'ENSG00000196961'
p791
aS'ENSG00000173226'
p792
aS'ENSG00000089693'
p793
aS'ENSG00000011105'
p794
aS'ENSG00000206127'
p795
aS'ENSG00000103429'
p796
aS'ENSG00000189269'
p797
aS'ENSG00000053501'
p798
aS'ENSG00000196535'
p799
aS'ENSG00000081051'
p800
atRp801
ssS'plum2'
p802
(dp803
g4
g5
((lp804
S'ENSG00000114738'
p805
aS'ENSG00000072310'
p806
aS'ENSG00000175764'
p807
aS'ENSG00000151338'
p808
aS'ENSG00000017427'
p809
aS'ENSG00000139405'
p810
aS'ENSG00000215193'
p811
aS'ENSG00000168952'
p812
aS'ENSG00000112992'
p813
aS'ENSG00000121766'
p814
aS'ENSG00000184110'
p815
aS'ENSG00000163239'
p816
aS'ENSG00000186716'
p817
aS'ENSG00000144559'
p818
aS'ENSG00000129422'
p819
aS'ENSG00000105287'
p820
aS'ENSG00000143515'
p821
aS'ENSG00000163106'
p822
aS'ENSG00000198873'
p823
aS'ENSG00000103852'
p824
atRp825
ssS'plum1'
p826
(dp827
g50
(lp828
(lp829
S'ENSG00000125520'
p830
aFinf
ag54
(g56
S'\xb6\xcb\xfd\xa3\xb9Qq?'
tRp831
ag54
(g56
S'\xc0JEo|w\x95?'
tRp832
aa(lp833
S'ENSG00000144395'
p834
aFinf
ag54
(g56
S'\xb6\xcb\xfd\xa3\xb9Qq?'
tRp835
ag54
(g56
S'\xc0JEo|w\x95?'
tRp836
aa(lp837
S'ENSG00000109193'
p838
aFinf
ag54
(g56
S'\xb6\xcb\xfd\xa3\xb9Qq?'
tRp839
ag54
(g56
S'\xc0JEo|w\x95?'
tRp840
aa(lp841
g695
ag54
(g56
S'\xcd\xcc\xcc\xcc\xccLW@'
tRp842
ag54
(g56
S'\x8c4\xfd\xb6\\\xd7\x99?'
tRp843
ag54
(g56
S'\xb0\xf3\xba?\x95T\xa5?'
tRp844
aa(lp845
S'ENSG00000129009'
p846
ag54
(g56
S'\x00\x00\x00\x00\x000]@'
tRp847
ag54
(g56
S',\xf2R8\xac\x8e\x95?'
tRp848
ag54
(g56
S'\xb0\xf3\xba?\x95T\xa5?'
tRp849
aasg4
g5
((lp850
S'ENSG00000106477'
p851
aS'ENSG00000159147'
p852
aS'ENSG00000151694'
p853
aS'ENSG00000197013'
p854
aS'ENSG00000167785'
p855
aS'ENSG00000171786'
p856
aS'ENSG00000099940'
p857
aS'ENSG00000181894'
p858
aS'ENSG00000258365'
p859
aS'ENSG00000169871'
p860
aS'ENSG00000250067'
p861
aS'ENSG00000106993'
p862
aS'ENSG00000188629'
p863
aS'ENSG00000125885'
p864
aS'ENSG00000135318'
p865
aS'ENSG00000174194'
p866
aS'ENSG00000072864'
p867
aS'ENSG00000070087'
p868
aS'ENSG00000182156'
p869
aS'ENSG00000136492'
p870
aS'ENSG00000092036'
p871
atRp872
ssS'saddlebrown'
p873
(dp874
g50
(lp875
(lp876
S'ENSG00000095370'
p877
aFinf
ag54
(g56
S'\xb6\xcb\xfd\xa3\xb9Qq?'
tRp878
ag54
(g56
S' \xc5\x01aI\xed\x9d?'
tRp879
aa(lp880
S'ENSG00000171115'
p881
aFinf
ag54
(g56
S'\xb6\xcb\xfd\xa3\xb9Qq?'
tRp882
ag54
(g56
S' \xc5\x01aI\xed\x9d?'
tRp883
aa(lp884
S'ENSG00000105357'
p885
ag54
(g56
S'\x00\x00\x00\x00\x00`}@'
tRp886
ag54
(g56
S'i\x15BF\x07M\x81?'
tRp887
ag54
(g56
S'\x80u+\xdb\x88C\xa5?'
tRp888
aa(lp889
S'ENSG00000106078'
p890
ag54
(g56
S'\x00\x00\x00\x00\x00Pm@'
tRp891
ag54
(g56
S'\xb4\xb4\xc9\\\x7f\xec\x89?'
tRp892
ag54
(g56
S'\x80u+\xdb\x88C\xa5?'
tRp893
aa(lp894
S'ENSG00000133561'
p895
ag54
(g56
S'\x00\x00\x00\x00\x00`}@'
tRp896
ag54
(g56
S'i\x15BF\x07M\x81?'
tRp897
ag54
(g56
S'\x80u+\xdb\x88C\xa5?'
tRp898
aa(lp899
S'ENSG00000133574'
p900
ag54
(g56
S'\x00\x00\x00\x00\x00`}@'
tRp901
ag54
(g56
S'i\x15BF\x07M\x81?'
tRp902
ag54
(g56
S'\x80u+\xdb\x88C\xa5?'
tRp903
aa(lp904
S'ENSG00000129946'
p905
ag54
(g56
S'\x00\x00\x00\x00\x00`}@'
tRp906
ag54
(g56
S'i\x15BF\x07M\x81?'
tRp907
ag54
(g56
S'\x80u+\xdb\x88C\xa5?'
tRp908
aasg4
g5
((lp909
S'ENSG00000128849'
p910
aS'ENSG00000131368'
p911
aS'ENSG00000154803'
p912
aS'ENSG00000109103'
p913
aS'ENSG00000130702'
p914
aS'ENSG00000137709'
p915
aS'ENSG00000023572'
p916
aS'ENSG00000116898'
p917
aS'ENSG00000141385'
p918
aS'ENSG00000184983'
p919
aS'ENSG00000130312'
p920
aS'ENSG00000204161'
p921
aS'ENSG00000130560'
p922
aS'ENSG00000161243'
p923
aS'ENSG00000156110'
p924
aS'ENSG00000137547'
p925
aS'ENSG00000155592'
p926
aS'ENSG00000069667'
p927
aS'ENSG00000128463'
p928
aS'ENSG00000165264'
p929
aS'ENSG00000018699'
p930
aS'ENSG00000136450'
p931
atRp932
ssS'yellowgreen'
p933
(dp934
g4
g5
((lp935
S'ENSG00000151657'
p936
aS'ENSG00000005421'
p937
aS'ENSG00000135378'
p938
aS'ENSG00000137161'
p939
aS'ENSG00000170906'
p940
aS'ENSG00000135390'
p941
aS'ENSG00000268538'
p942
aS'ENSG00000196735'
p943
aS'ENSG00000196126'
p944
aS'ENSG00000150316'
p945
aS'ENSG00000119705'
p946
aS'ENSG00000156886'
p947
aS'ENSG00000108839'
p948
aS'ENSG00000197487'
p949
aS'ENSG00000129925'
p950
aS'ENSG00000179344'
p951
aS'ENSG00000157017'
p952
aS'ENSG00000117602'
p953
aS'ENSG00000198502'
p954
aS'ENSG00000181656'
p955
aS'ENSG00000085721'
p956
atRp957
ssS'thistle'
p958
(dp959
g4
g5
((lp960
S'ENSG00000005075'
p961
aS'ENSG00000182534'
p962
aS'ENSG00000128708'
p963
aS'ENSG00000155957'
p964
aS'ENSG00000025293'
p965
aS'ENSG00000109511'
p966
aS'ENSG00000183060'
p967
aS'ENSG00000169062'
p968
aS'ENSG00000197771'
p969
aS'ENSG00000108479'
p970
aS'ENSG00000228696'
p971
aS'ENSG00000198954'
p972
aS'ENSG00000234444'
p973
aS'ENSG00000147799'
p974
aS'ENSG00000146834'
p975
aS'ENSG00000182022'
p976
atRp977
ssS'violet'
p978
(dp979
g4
g5
((lp980
S'ENSG00000136068'
p981
aS'ENSG00000164300'
p982
aS'ENSG00000176531'
p983
aS'ENSG00000127311'
p984
aS'ENSG00000103855'
p985
aS'ENSG00000178297'
p986
aS'ENSG00000178295'
p987
aS'ENSG00000141505'
p988
aS'ENSG00000198417'
p989
aS'ENSG00000062282'
p990
aS'ENSG00000134109'
p991
aS'ENSG00000171928'
p992
aS'ENSG00000120341'
p993
aS'ENSG00000117280'
p994
aS'ENSG00000135525'
p995
aS'ENSG00000101181'
p996
aS'ENSG00000005379'
p997
aS'ENSG00000105854'
p998
aS'ENSG00000183087'
p999
aS'ENSG00000216588'
p1000
aS'ENSG00000140526'
p1001
aS'ENSG00000182957'
p1002
atRp1003
ssS'blue'
p1004
(dp1005
g50
(lp1006
(lp1007
S'ENSG00000116774'
p1008
aFinf
ag54
(g56
S'\x9a\x95\x82\x1f\x87\xd2N?'
tRp1009
ag54
(g56
S'P\x82\xf1=\xcb\x12\xa7?'
tRp1010
aa(lp1011
S'ENSG00000113594'
p1012
aFinf
ag54
(g56
S'\x9a\x95\x82\x1f\x87\xd2N?'
tRp1013
ag54
(g56
S'P\x82\xf1=\xcb\x12\xa7?'
tRp1014
aa(lp1015
S'ENSG00000123146'
p1016
aFinf
ag54
(g56
S'\x9a\x95\x82\x1f\x87\xd2N?'
tRp1017
ag54
(g56
S'P\x82\xf1=\xcb\x12\xa7?'
tRp1018
aasg4
g5
((lp1019
S'ENSG00000196437'
p1020
aS'ENSG00000163491'
p1021
aS'ENSG00000167123'
p1022
aS'ENSG00000006638'
p1023
aS'ENSG00000100299'
p1024
aS'ENSG00000183908'
p1025
aS'ENSG00000115808'
p1026
aS'ENSG00000111817'
p1027
aS'ENSG00000240184'
p1028
aS'ENSG00000176105'
p1029
aS'ENSG00000186792'
p1030
aS'ENSG00000166741'
p1031
aS'ENSG00000087303'
p1032
aS'ENSG00000049323'
p1033
aS'ENSG00000213672'
p1034
aS'ENSG00000184564'
p1035
aS'ENSG00000012983'
p1036
aS'ENSG00000170153'
p1037
aS'ENSG00000157191'
p1038
aS'ENSG00000189184'
p1039
aS'ENSG00000153904'
p1040
aS'ENSG00000134775'
p1041
aS'ENSG00000106819'
p1042
aS'ENSG00000011132'
p1043
aS'ENSG00000256073'
p1044
aS'ENSG00000164318'
p1045
aS'ENSG00000197721'
p1046
aS'ENSG00000169951'
p1047
aS'ENSG00000105472'
p1048
aS'ENSG00000214860'
p1049
aS'ENSG00000138135'
p1050
aS'ENSG00000146530'
p1051
aS'ENSG00000118004'
p1052
aS'ENSG00000204851'
p1053
aS'ENSG00000169946'
p1054
aS'ENSG00000138111'
p1055
aS'ENSG00000061337'
p1056
aS'ENSG00000168297'
p1057
aS'ENSG00000103494'
p1058
aS'ENSG00000122545'
p1059
aS'ENSG00000164129'
p1060
aS'ENSG00000181585'
p1061
aS'ENSG00000146122'
p1062
aS'ENSG00000137801'
p1063
aS'ENSG00000162746'
p1064
aS'ENSG00000173114'
p1065
atRp1066
ssS'honeydew'
p1067
(dp1068
g4
g5
((lp1069
S'ENSG00000168329'
p1070
aS'ENSG00000168447'
p1071
aS'ENSG00000118245'
p1072
aS'ENSG00000187630'
p1073
aS'ENSG00000214530'
p1074
aS'ENSG00000218537'
p1075
aS'ENSG00000100053'
p1076
aS'ENSG00000255284'
p1077
aS'ENSG00000112159'
p1078
aS'ENSG00000163682'
p1079
aS'ENSG00000184674'
p1080
aS'ENSG00000157326'
p1081
aS'ENSG00000143771'
p1082
aS'ENSG00000030110'
p1083
aS'ENSG00000110693'
p1084
atRp1085
ssS'purple'
p1086
(dp1087
g4
g5
((lp1088
S'ENSG00000179698'
p1089
aS'ENSG00000107317'
p1090
aS'ENSG00000171291'
p1091
aS'ENSG00000204531'
p1092
aS'ENSG00000085788'
p1093
aS'ENSG00000134265'
p1094
aS'ENSG00000180902'
p1095
aS'ENSG00000158445'
p1096
aS'ENSG00000198185'
p1097
aS'ENSG00000048544'
p1098
aS'ENSG00000152910'
p1099
aS'ENSG00000171596'
p1100
aS'ENSG00000080573'
p1101
aS'ENSG00000022556'
p1102
aS'ENSG00000116874'
p1103
aS'ENSG00000138663'
p1104
aS'ENSG00000169660'
p1105
aS'ENSG00000166233'
p1106
aS'ENSG00000196683'
p1107
aS'ENSG00000110675'
p1108
aS'ENSG00000138246'
p1109
aS'ENSG00000177990'
p1110
aS'ENSG00000138378'
p1111
aS'ENSG00000130347'
p1112
aS'ENSG00000156931'
p1113
aS'ENSG00000100575'
p1114
aS'ENSG00000167920'
p1115
aS'ENSG00000025423'
p1116
aS'ENSG00000160439'
p1117
aS'ENSG00000158467'
p1118
aS'ENSG00000258366'
p1119
atRp1120
ssS'palevioletred1'
p1121
(dp1122
g4
g5
((lp1123
S'ENSG00000144746'
p1124
aS'ENSG00000106125'
p1125
aS'ENSG00000163633'
p1126
aS'ENSG00000197894'
p1127
aS'ENSG00000145416'
p1128
aS'ENSG00000165985'
p1129
aS'ENSG00000186017'
p1130
aS'ENSG00000178826'
p1131
aS'ENSG00000104537'
p1132
aS'ENSG00000123297'
p1133
aS'ENSG00000122696'
p1134
aS'ENSG00000162613'
p1135
aS'ENSG00000053372'
p1136
atRp1137
ssS'palevioletred2'
p1138
(dp1139
g50
(lp1140
(lp1141
S'ENSG00000174175'
p1142
aFinf
ag54
(g56
S'\xa7\xb1\xfcu\x96\xfay?'
tRp1143
ag54
(g56
S'\xc0\x9f\x92@\x7f\xe5\x89?'
tRp1144
aa(lp1145
S'ENSG00000042781'
p1146
ag54
(g56
S'\x00\x00\x00\x00\x00 M@'
tRp1147
ag54
(g56
S'l\x01\x1cpw\x19\xa0?'
tRp1148
ag54
(g56
S'p\x01\x1cpw\x19\xa0?'
tRp1149
aasg4
g5
((lp1150
S'ENSG00000183426'
p1151
aS'ENSG00000198791'
p1152
aS'ENSG00000108405'
p1153
aS'ENSG00000135226'
p1154
aS'ENSG00000162989'
p1155
aS'ENSG00000133687'
p1156
aS'ENSG00000171840'
p1157
aS'ENSG00000085563'
p1158
aS'ENSG00000092094'
p1159
aS'ENSG00000118873'
p1160
aS'ENSG00000137941'
p1161
aS'ENSG00000111696'
p1162
aS'ENSG00000028203'
p1163
aS'ENSG00000170100'
p1164
aS'ENSG00000166140'
p1165
aS'ENSG00000178252'
p1166
atRp1167
ssS'palevioletred3'
p1168
(dp1169
g4
g5
((lp1170
S'ENSG00000136935'
p1171
aS'ENSG00000060709'
p1172
aS'ENSG00000163993'
p1173
aS'ENSG00000104341'
p1174
aS'ENSG00000105849'
p1175
aS'ENSG00000187094'
p1176
aS'ENSG00000243566'
p1177
aS'ENSG00000174564'
p1178
aS'ENSG00000180953'
p1179
aS'ENSG00000185087'
p1180
aS'ENSG00000206013'
p1181
aS'ENSG00000122873'
p1182
aS'ENSG00000156795'
p1183
aS'ENSG00000204616'
p1184
aS'ENSG00000108823'
p1185
aS'ENSG00000183605'
p1186
aS'ENSG00000104804'
p1187
aS'ENSG00000146221'
p1188
aS'ENSG00000143036'
p1189
atRp1190
ssS'coral3'
p1191
(dp1192
g4
g5
((lp1193
S'ENSG00000137054'
p1194
aS'ENSG00000057704'
p1195
aS'ENSG00000077420'
p1196
aS'ENSG00000180509'
p1197
aS'ENSG00000123892'
p1198
aS'ENSG00000076555'
p1199
aS'ENSG00000120738'
p1200
aS'ENSG00000186001'
p1201
aS'ENSG00000159200'
p1202
aS'ENSG00000140464'
p1203
aS'ENSG00000062650'
p1204
aS'ENSG00000185332'
p1205
aS'ENSG00000143850'
p1206
aS'ENSG00000166391'
p1207
aS'ENSG00000183508'
p1208
atRp1209
ssS'coral2'
p1210
(dp1211
g50
(lp1212
(lp1213
S'ENSG00000100652'
p1214
ag54
(g56
S'\x00\x00\x00\x00\x00`}@'
tRp1215
ag54
(g56
S'i\x15BF\x07M\x81?'
tRp1216
ag54
(g56
S'\xb0*\x8fl\xceh\xa9?'
tRp1217
aa(lp1218
S'ENSG00000145936'
p1219
ag54
(g56
S'\x00\x00\x00\x00\x00`}@'
tRp1220
ag54
(g56
S'i\x15BF\x07M\x81?'
tRp1221
ag54
(g56
S'\xb0*\x8fl\xceh\xa9?'
tRp1222
aa(lp1223
S'ENSG00000122787'
p1224
ag54
(g56
S'\x00\x00\x00\x00\x00Pm@'
tRp1225
ag54
(g56
S'\xb4\xb4\xc9\\\x7f\xec\x89?'
tRp1226
ag54
(g56
S'@\xcd\xfb\x96\x8co\xa9?'
tRp1227
aasg4
g5
((lp1228
S'ENSG00000196639'
p1229
aS'ENSG00000127947'
p1230
aS'ENSG00000103415'
p1231
aS'ENSG00000065057'
p1232
aS'ENSG00000184307'
p1233
aS'ENSG00000124116'
p1234
aS'ENSG00000206150'
p1235
aS'ENSG00000123454'
p1236
aS'ENSG00000105497'
p1237
aS'ENSG00000139190'
p1238
aS'ENSG00000117834'
p1239
aS'ENSG00000166133'
p1240
aS'ENSG00000196326'
p1241
aS'ENSG00000143420'
p1242
aS'ENSG00000029725'
p1243
aS'ENSG00000203667'
p1244
aS'ENSG00000186628'
p1245
aS'ENSG00000002726'
p1246
atRp1247
ssS'coral1'
p1248
(dp1249
g4
g5
((lp1250
S'ENSG00000107798'
p1251
aS'ENSG00000175567'
p1252
aS'ENSG00000213585'
p1253
aS'ENSG00000152213'
p1254
aS'ENSG00000129932'
p1255
aS'ENSG00000185917'
p1256
aS'ENSG00000109861'
p1257
aS'ENSG00000133665'
p1258
aS'ENSG00000143344'
p1259
aS'ENSG00000154589'
p1260
aS'ENSG00000137393'
p1261
aS'ENSG00000184060'
p1262
aS'ENSG00000051523'
p1263
aS'ENSG00000188000'
p1264
aS'ENSG00000053900'
p1265
aS'ENSG00000127528'
p1266
aS'ENSG00000112799'
p1267
aS'ENSG00000147874'
p1268
atRp1269
ssS'red'
p1270
(dp1271
g4
g5
((lp1272
S'ENSG00000188488'
p1273
aS'ENSG00000162664'
p1274
aS'ENSG00000146648'
p1275
aS'ENSG00000154556'
p1276
aS'ENSG00000152700'
p1277
aS'ENSG00000176532'
p1278
aS'ENSG00000213402'
p1279
aS'ENSG00000197879'
p1280
aS'ENSG00000171714'
p1281
aS'ENSG00000171989'
p1282
aS'ENSG00000091483'
p1283
aS'ENSG00000157322'
p1284
aS'ENSG00000162889'
p1285
aS'ENSG00000161328'
p1286
aS'ENSG00000161996'
p1287
aS'ENSG00000137285'
p1288
aS'ENSG00000204348'
p1289
aS'ENSG00000231852'
p1290
aS'ENSG00000164924'
p1291
aS'ENSG00000122477'
p1292
aS'ENSG00000156011'
p1293
aS'ENSG00000106789'
p1294
aS'ENSG00000171551'
p1295
aS'ENSG00000116883'
p1296
aS'ENSG00000125753'
p1297
aS'ENSG00000269337'
p1298
aS'ENSG00000108515'
p1299
aS'ENSG00000177303'
p1300
aS'ENSG00000103966'
p1301
aS'ENSG00000121690'
p1302
aS'ENSG00000141252'
p1303
aS'ENSG00000139410'
p1304
aS'ENSG00000143320'
p1305
aS'ENSG00000197345'
p1306
aS'ENSG00000172530'
p1307
aS'ENSG00000172995'
p1308
aS'ENSG00000127578'
p1309
atRp1310
ssS'coral4'
p1311
(dp1312
g50
(lp1313
(lp1314
S'ENSG00000162069'
p1315
aFinf
ag54
(g56
S'\xa7\xb1\xfcu\x96\xfay?'
tRp1316
ag54
(g56
S' \x80\xb7\x8d\xb3M\xa6?'
tRp1317
aa(lp1318
S'ENSG00000087258'
p1319
aFinf
ag54
(g56
S'\xa7\xb1\xfcu\x96\xfay?'
tRp1320
ag54
(g56
S' \x80\xb7\x8d\xb3M\xa6?'
tRp1321
aa(lp1322
S'ENSG00000172935'
p1323
aFinf
ag54
(g56
S'\xa7\xb1\xfcu\x96\xfay?'
tRp1324
ag54
(g56
S' \x80\xb7\x8d\xb3M\xa6?'
tRp1325
aasg4
g5
((lp1326
S'ENSG00000167797'
p1327
aS'ENSG00000173320'
p1328
aS'ENSG00000105738'
p1329
aS'ENSG00000186684'
p1330
aS'ENSG00000197785'
p1331
aS'ENSG00000171469'
p1332
aS'ENSG00000006282'
p1333
aS'ENSG00000167799'
p1334
aS'ENSG00000091164'
p1335
aS'ENSG00000116032'
p1336
atRp1337
ssS'lightslateblue'
p1338
(dp1339
g50
(lp1340
(lp1341
S'ENSG00000135472'
p1342
aFinf
ag54
(g56
S'\xb6\xcb\xfd\xa3\xb9Qq?'
tRp1343
ag54
(g56
S' \xfc\x16>\xae\xb4\x99?'
tRp1344
aa(lp1345
S'ENSG00000238194'
p1346
aFinf
ag54
(g56
S'\xb6\xcb\xfd\xa3\xb9Qq?'
tRp1347
ag54
(g56
S' \xfc\x16>\xae\xb4\x99?'
tRp1348
aa(lp1349
S'ENSG00000101323'
p1350
ag54
(g56
S'\x00\x00\x00\x00\x00`}@'
tRp1351
ag54
(g56
S'i\x15BF\x07M\x81?'
tRp1352
ag54
(g56
S' \xfc\x16>\xae\xb4\x99?'
tRp1353
aa(lp1354
S'ENSG00000124140'
p1355
aFinf
ag54
(g56
S'\xb6\xcb\xfd\xa3\xb9Qq?'
tRp1356
ag54
(g56
S' \xfc\x16>\xae\xb4\x99?'
tRp1357
aa(lp1358
S'ENSG00000231963'
p1359
aFinf
ag54
(g56
S'\xb6\xcb\xfd\xa3\xb9Qq?'
tRp1360
ag54
(g56
S' \xfc\x16>\xae\xb4\x99?'
tRp1361
aa(lp1362
S'ENSG00000080910'
p1363
ag54
(g56
S'\x00\x00\x00\x00\x00`}@'
tRp1364
ag54
(g56
S'i\x15BF\x07M\x81?'
tRp1365
ag54
(g56
S' \xfc\x16>\xae\xb4\x99?'
tRp1366
aasg4
g5
((lp1367
S'ENSG00000196932'
p1368
aS'ENSG00000177051'
p1369
aS'ENSG00000155755'
p1370
aS'ENSG00000107338'
p1371
aS'ENSG00000129480'
p1372
aS'ENSG00000132842'
p1373
aS'ENSG00000136104'
p1374
aS'ENSG00000132855'
p1375
aS'ENSG00000166938'
p1376
aS'ENSG00000239264'
p1377
aS'ENSG00000113758'
p1378
aS'ENSG00000128283'
p1379
aS'ENSG00000159840'
p1380
aS'ENSG00000075624'
p1381
atRp1382
ssS'lightblue4'
p1383
(dp1384
g4
g5
((lp1385
S'ENSG00000107551'
p1386
aS'ENSG00000072274'
p1387
aS'ENSG00000226124'
p1388
aS'ENSG00000026025'
p1389
aS'ENSG00000116711'
p1390
aS'ENSG00000154380'
p1391
aS'ENSG00000197272'
p1392
aS'ENSG00000157259'
p1393
aS'ENSG00000197363'
p1394
aS'ENSG00000128298'
p1395
aS'ENSG00000103245'
p1396
aS'ENSG00000163945'
p1397
aS'ENSG00000012061'
p1398
aS'ENSG00000021488'
p1399
atRp1400
ssS'lightsteelblue1'
p1401
(dp1402
g4
g5
((lp1403
S'ENSG00000108175'
p1404
aS'ENSG00000145781'
p1405
aS'ENSG00000173917'
p1406
aS'ENSG00000180767'
p1407
aS'ENSG00000174370'
p1408
aS'ENSG00000182327'
p1409
aS'ENSG00000179588'
p1410
aS'ENSG00000153113'
p1411
aS'ENSG00000095383'
p1412
aS'ENSG00000146216'
p1413
aS'ENSG00000139197'
p1414
aS'ENSG00000005102'
p1415
aS'ENSG00000054219'
p1416
aS'ENSG00000103202'
p1417
aS'ENSG00000092010'
p1418
aS'ENSG00000262003'
p1419
aS'ENSG00000140319'
p1420
aS'ENSG00000149089'
p1421
aS'ENSG00000144026'
p1422
aS'ENSG00000072135'
p1423
aS'ENSG00000137509'
p1424
atRp1425
ssS'skyblue4'
p1426
(dp1427
g50
(lp1428
(lp1429
S'ENSG00000131730'
p1430
aFinf
ag54
(g56
S'\x94\xac\xfcu\x96\xfay?'
tRp1431
ag54
(g56
S'\x80\xac\xfcu\x96\xfay?'
tRp1432
aasg4
g5
((lp1433
S'ENSG00000144214'
p1434
aS'ENSG00000197780'
p1435
aS'ENSG00000256053'
p1436
aS'ENSG00000249915'
p1437
aS'ENSG00000110435'
p1438
aS'ENSG00000100304'
p1439
aS'ENSG00000162819'
p1440
aS'ENSG00000160539'
p1441
aS'ENSG00000242441'
p1442
aS'ENSG00000141562'
p1443
aS'ENSG00000172500'
p1444
aS'ENSG00000175110'
p1445
aS'ENSG00000151611'
p1446
aS'ENSG00000161204'
p1447
aS'ENSG00000100109'
p1448
atRp1449
ssS'skyblue1'
p1450
(dp1451
g4
g5
((lp1452
S'ENSG00000167637'
p1453
aS'ENSG00000163939'
p1454
aS'ENSG00000092607'
p1455
aS'ENSG00000156299'
p1456
aS'ENSG00000172878'
p1457
aS'ENSG00000090534'
p1458
aS'ENSG00000165688'
p1459
aS'ENSG00000154914'
p1460
aS'ENSG00000106367'
p1461
aS'ENSG00000054983'
p1462
aS'ENSG00000143891'
p1463
aS'ENSG00000164978'
p1464
aS'ENSG00000118557'
p1465
aS'ENSG00000081791'
p1466
aS'ENSG00000171914'
p1467
aS'ENSG00000092621'
p1468
aS'ENSG00000112182'
p1469
aS'ENSG00000168904'
p1470
atRp1471
ssS'darkred'
p1472
(dp1473
g4
g5
((lp1474
S'ENSG00000189157'
p1475
aS'ENSG00000172954'
p1476
aS'ENSG00000142655'
p1477
aS'ENSG00000100997'
p1478
aS'ENSG00000067248'
p1479
aS'ENSG00000145476'
p1480
aS'ENSG00000164144'
p1481
aS'ENSG00000100350'
p1482
aS'ENSG00000181619'
p1483
aS'ENSG00000141560'
p1484
aS'ENSG00000149150'
p1485
aS'ENSG00000158604'
p1486
aS'ENSG00000125454'
p1487
aS'ENSG00000167114'
p1488
aS'ENSG00000131844'
p1489
aS'ENSG00000125656'
p1490
aS'ENSG00000221955'
p1491
aS'ENSG00000132740'
p1492
aS'ENSG00000113262'
p1493
aS'ENSG00000163444'
p1494
aS'ENSG00000198890'
p1495
aS'ENSG00000205302'
p1496
aS'ENSG00000134463'
p1497
aS'ENSG00000154174'
p1498
aS'ENSG00000132361'
p1499
aS'ENSG00000125445'
p1500
atRp1501
ssS'skyblue2'
p1502
(dp1503
g50
(lp1504
(lp1505
S'ENSG00000109181'
p1506
aFinf
ag54
(g56
S'\xaa>\xfd\x0c(\xa6\x85?'
tRp1507
ag54
(g56
S'0Y\xdbw\xe5N\xa5?'
tRp1508
aa(lp1509
S'ENSG00000106927'
p1510
aFinf
ag54
(g56
S'\xaa>\xfd\x0c(\xa6\x85?'
tRp1511
ag54
(g56
S'0Y\xdbw\xe5N\xa5?'
tRp1512
aasg4
g5
((lp1513
S'ENSG00000011009'
p1514
aS'ENSG00000105699'
p1515
aS'ENSG00000117114'
p1516
aS'ENSG00000188672'
p1517
aS'ENSG00000130202'
p1518
aS'ENSG00000186910'
p1519
aS'ENSG00000183729'
p1520
aS'ENSG00000087095'
p1521
aS'ENSG00000037757'
p1522
aS'ENSG00000168522'
p1523
aS'ENSG00000244067'
p1524
aS'ENSG00000171234'
p1525
aS'ENSG00000086696'
p1526
aS'ENSG00000078549'
p1527
aS'ENSG00000173852'
p1528
aS'ENSG00000002834'
p1529
aS'ENSG00000165471'
p1530
aS'ENSG00000203711'
p1531
atRp1532
ssS'lavenderblush1'
p1533
(dp1534
g50
(lp1535
(lp1536
S'ENSG00000119698'
p1537
aFinf
ag54
(g56
S'\xa7\xb1\xfcu\x96\xfay?'
tRp1538
ag54
(g56
S' \x80\xb7\x8d\xb3M\xa6?'
tRp1539
aa(lp1540
S'ENSG00000261804'
p1541
aFinf
ag54
(g56
S'\xa7\xb1\xfcu\x96\xfay?'
tRp1542
ag54
(g56
S' \x80\xb7\x8d\xb3M\xa6?'
tRp1543
aa(lp1544
S'ENSG00000136297'
p1545
aFinf
ag54
(g56
S'\xa7\xb1\xfcu\x96\xfay?'
tRp1546
ag54
(g56
S' \x80\xb7\x8d\xb3M\xa6?'
tRp1547
aa(lp1548
S'ENSG00000105996'
p1549
ag54
(g56
S'\x00\x00\x00\x00\x00Pm@'
tRp1550
ag54
(g56
S'\x9e\xbe\xc9\\\x7f\xec\x89?'
tRp1551
ag54
(g56
S'\xa0\xd6\xfb\x96\x8co\xa9?'
tRp1552
aa(lp1553
S'ENSG00000233429'
p1554
ag54
(g56
S'\x00\x00\x00\x00\x00Pm@'
tRp1555
ag54
(g56
S'\x9e\xbe\xc9\\\x7f\xec\x89?'
tRp1556
ag54
(g56
S'\xa0\xd6\xfb\x96\x8co\xa9?'
tRp1557
aasg4
g5
((lp1558
S'ENSG00000131507'
p1559
aS'ENSG00000137210'
p1560
aS'ENSG00000168938'
p1561
aS'ENSG00000124102'
p1562
aS'ENSG00000213719'
p1563
aS'ENSG00000112294'
p1564
aS'ENSG00000138363'
p1565
aS'ENSG00000090316'
p1566
aS'ENSG00000157379'
p1567
aS'ENSG00000198010'
p1568
aS'ENSG00000111843'
p1569
aS'ENSG00000170113'
p1570
atRp1571
ssS'lavenderblush3'
p1572
(dp1573
g4
g5
((lp1574
S'ENSG00000049246'
p1575
aS'ENSG00000188211'
p1576
aS'ENSG00000176049'
p1577
aS'ENSG00000103642'
p1578
aS'ENSG00000119943'
p1579
aS'ENSG00000166323'
p1580
aS'ENSG00000198642'
p1581
aS'ENSG00000142197'
p1582
aS'ENSG00000106397'
p1583
aS'ENSG00000169567'
p1584
aS'ENSG00000083097'
p1585
aS'ENSG00000145794'
p1586
aS'ENSG00000087008'
p1587
aS'ENSG00000125637'
p1588
aS'ENSG00000122678'
p1589
aS'ENSG00000167074'
p1590
aS'ENSG00000146205'
p1591
aS'ENSG00000125630'
p1592
atRp1593
ssS'lavenderblush2'
p1594
(dp1595
g50
(lp1596
(lp1597
S'ENSG00000160460'
p1598
ag54
(g56
S'\x00\x00\x00\x00\x00\x80c@'
tRp1599
ag54
(g56
S'_\xcd\xca\x8a\xa2C\x91?'
tRp1600
ag54
(g56
S'\xa0T\xff\x82\xa22\xa3?'
tRp1601
aa(lp1602
S'ENSG00000153822'
p1603
ag54
(g56
S'\x00\x00\x00\x00\x00Pm@'
tRp1604
ag54
(g56
S'\xb4\xb4\xc9\\\x7f\xec\x89?'
tRp1605
ag54
(g56
S'\xa0T\xff\x82\xa22\xa3?'
tRp1606
aa(lp1607
S'ENSG00000145779'
p1608
ag54
(g56
S'\x00\x00\x00\x00\x00\x80c@'
tRp1609
ag54
(g56
S'_\xcd\xca\x8a\xa2C\x91?'
tRp1610
ag54
(g56
S'\xa0T\xff\x82\xa22\xa3?'
tRp1611
aasg4
g5
((lp1612
S'ENSG00000027001'
p1613
aS'ENSG00000171130'
p1614
aS'ENSG00000188959'
p1615
aS'ENSG00000103160'
p1616
aS'ENSG00000160803'
p1617
aS'ENSG00000050555'
p1618
aS'ENSG00000196132'
p1619
aS'ENSG00000125734'
p1620
aS'ENSG00000121775'
p1621
aS'ENSG00000182230'
p1622
aS'ENSG00000197912'
p1623
aS'ENSG00000105229'
p1624
aS'ENSG00000267893'
p1625
aS'ENSG00000145147'
p1626
aS'ENSG00000204217'
p1627
aS'ENSG00000127364'
p1628
atRp1629
ssS'skyblue3'
p1630
(dp1631
g4
g5
((lp1632
S'ENSG00000145990'
p1633
aS'ENSG00000127324'
p1634
aS'ENSG00000115425'
p1635
aS'ENSG00000129566'
p1636
aS'ENSG00000068793'
p1637
aS'ENSG00000125505'
p1638
aS'ENSG00000099821'
p1639
aS'ENSG00000100652'
p1640
aS'ENSG00000151948'
p1641
aS'ENSG00000125409'
p1642
aS'ENSG00000165905'
p1643
aS'ENSG00000117155'
p1644
aS'ENSG00000198900'
p1645
aS'ENSG00000136937'
p1646
aS'ENSG00000149292'
p1647
aS'ENSG00000100991'
p1648
aS'ENSG00000144647'
p1649
aS'ENSG00000166037'
p1650
aS'ENSG00000198203'
p1651
aS'ENSG00000135678'
p1652
aS'ENSG00000077458'
p1653
atRp1654
ssS'blue2'
p1655
(dp1656
g50
(lp1657
(lp1658
S'ENSG00000137726'
p1659
aFinf
ag54
(g56
S'\xa7\xb1\xfcu\x96\xfay?'
tRp1660
ag54
(g56
S' \x80\xb7\x8d\xb3M\xa6?'
tRp1661
aa(lp1662
S'ENSG00000169783'
p1663
aFinf
ag54
(g56
S'\xa7\xb1\xfcu\x96\xfay?'
tRp1664
ag54
(g56
S' \x80\xb7\x8d\xb3M\xa6?'
tRp1665
aa(lp1666
S'ENSG00000107719'
p1667
aFinf
ag54
(g56
S'\xa7\xb1\xfcu\x96\xfay?'
tRp1668
ag54
(g56
S' \x80\xb7\x8d\xb3M\xa6?'
tRp1669
aa(lp1670
S'ENSG00000149124'
p1671
ag54
(g56
S'\x00\x00\x00\x00\x00Pm@'
tRp1672
ag54
(g56
S'\x9e\xbe\xc9\\\x7f\xec\x89?'
tRp1673
ag54
(g56
S'\xa0\xd6\xfb\x96\x8co\xa9?'
tRp1674
aasg4
g5
((lp1675
S'ENSG00000139970'
p1676
aS'ENSG00000111254'
p1677
aS'ENSG00000122257'
p1678
aS'ENSG00000178623'
p1679
aS'ENSG00000131018'
p1680
aS'ENSG00000143387'
p1681
aS'ENSG00000159261'
p1682
aS'ENSG00000179774'
p1683
aS'ENSG00000007171'
p1684
aS'ENSG00000141570'
p1685
aS'ENSG00000115423'
p1686
aS'ENSG00000130518'
p1687
aS'ENSG00000188906'
p1688
aS'ENSG00000205464'
p1689
aS'ENSG00000179409'
p1690
aS'ENSG00000108590'
p1691
aS'ENSG00000165494'
p1692
atRp1693
ssS'blue4'
p1694
(dp1695
g50
(lp1696
(lp1697
S'ENSG00000064666'
p1698
aFinf
ag54
(g56
S'\xbf\xcb\xfd\xa3\xb9Q\x81?'
tRp1699
ag54
(g56
S'\x90\x11T\xc0\xcc\x19\xa1?'
tRp1700
aa(lp1701
S'ENSG00000168878'
p1702
aFinf
ag54
(g56
S'\xbf\xcb\xfd\xa3\xb9Q\x81?'
tRp1703
ag54
(g56
S'\x90\x11T\xc0\xcc\x19\xa1?'
tRp1704
aa(lp1705
S'ENSG00000231920'
p1706
aFinf
ag54
(g56
S'\xbf\xcb\xfd\xa3\xb9Q\x81?'
tRp1707
ag54
(g56
S'\x90\x11T\xc0\xcc\x19\xa1?'
tRp1708
aa(lp1709
S'ENSG00000076864'
p1710
ag54
(g56
S'9\x8e\xe38\x8e\xe3I@'
tRp1711
ag54
(g56
S"\x8e*h\xf6\x92'\xa1?"
tRp1712
ag54
(g56
S"\x90*h\xf6\x92'\xa1?"
tRp1713
aasg4
g5
((lp1714
S'ENSG00000256515'
p1715
aS'ENSG00000132321'
p1716
aS'ENSG00000184990'
p1717
aS'ENSG00000152763'
p1718
aS'ENSG00000205758'
p1719
aS'ENSG00000122852'
p1720
aS'ENSG00000152669'
p1721
aS'ENSG00000154721'
p1722
aS'ENSG00000168878'
p1723
aS'ENSG00000184635'
p1724
aS'ENSG00000070495'
p1725
aS'ENSG00000217702'
p1726
aS'ENSG00000137501'
p1727
atRp1728
ssS'steelblue'
p1729
(dp1730
g50
(lp1731
(lp1732
S'ENSG00000128016'
p1733
ag54
(g56
S'\x00\x00\x00\x00\x00`}@'
tRp1734
ag54
(g56
S'i\x15BF\x07M\x81?'
tRp1735
ag54
(g56
S'@q\x8a\xf7\x93\xbb\x99?'
tRp1736
aa(lp1737
S'ENSG00000272273'
p1738
ag54
(g56
S'\x00\x00\x00\x00\x00\x80c@'
tRp1739
ag54
(g56
S'_\xcd\xca\x8a\xa2C\x91?'
tRp1740
ag54
(g56
S'`\x97\x16\xa7~\xc2\x99?'
tRp1741
aa(lp1742
S'ENSG00000185022'
p1743
ag54
(g56
S'\x00\x00\x00\x00\x00Pm@'
tRp1744
ag54
(g56
S'\xb4\xb4\xc9\\\x7f\xec\x89?'
tRp1745
ag54
(g56
S'`\x97\x16\xa7~\xc2\x99?'
tRp1746
aasg4
g5
((lp1747
S'ENSG00000003147'
p1748
aS'ENSG00000163611'
p1749
aS'ENSG00000069943'
p1750
aS'ENSG00000083844'
p1751
aS'ENSG00000177595'
p1752
aS'ENSG00000118094'
p1753
aS'ENSG00000143376'
p1754
aS'ENSG00000184349'
p1755
aS'ENSG00000204365'
p1756
aS'ENSG00000198700'
p1757
aS'ENSG00000100949'
p1758
aS'ENSG00000071894'
p1759
aS'ENSG00000157240'
p1760
aS'ENSG00000105726'
p1761
aS'ENSG00000115602'
p1762
aS'ENSG00000176393'
p1763
aS'ENSG00000124641'
p1764
aS'ENSG00000008838'
p1765
aS'ENSG00000178149'
p1766
aS'ENSG00000099860'
p1767
aS'ENSG00000066135'
p1768
aS'ENSG00000147419'
p1769
atRp1770
ssS'plum4'
p1771
(dp1772
g50
(lp1773
(lp1774
S'ENSG00000130147'
p1775
aFinf
ag54
(g56
S'\xad\xcb\xfd\xa3\xb9Qa?'
tRp1776
ag54
(g56
S'\x00\xcc\xfd\xa3\xb9Qa?'
tRp1777
aasg4
g5
((lp1778
S'ENSG00000148484'
p1779
aS'ENSG00000102189'
p1780
aS'ENSG00000133961'
p1781
aS'ENSG00000131845'
p1782
aS'ENSG00000124613'
p1783
aS'ENSG00000120329'
p1784
aS'ENSG00000138032'
p1785
aS'ENSG00000113282'
p1786
aS'ENSG00000148943'
p1787
aS'ENSG00000068650'
p1788
aS'ENSG00000184828'
p1789
aS'ENSG00000218819'
p1790
aS'ENSG00000167193'
p1791
atRp1792
ssS'floralwhite'
p1793
(dp1794
g50
(lp1795
(lp1796
S'ENSG00000173641'
p1797
aFinf
ag54
(g56
S'sU\xb8\x7f\xdf\x9c!?'
tRp1798
ag54
(g56
S'\x00\x00Q8\xaf\x00V?'
tRp1799
aasg4
g5
((lp1800
S'ENSG00000197893'
p1801
aS'ENSG00000100628'
p1802
aS'ENSG00000171476'
p1803
aS'ENSG00000174928'
p1804
aS'ENSG00000187815'
p1805
aS'ENSG00000186523'
p1806
aS'ENSG00000133612'
p1807
aS'ENSG00000138336'
p1808
aS'ENSG00000249471'
p1809
aS'ENSG00000125657'
p1810
aS'ENSG00000101189'
p1811
aS'ENSG00000165887'
p1812
aS'ENSG00000189007'
p1813
aS'ENSG00000168427'
p1814
aS'ENSG00000124588'
p1815
aS'ENSG00000239474'
p1816
aS'ENSG00000167077'
p1817
aS'ENSG00000159455'
p1818
aS'ENSG00000134905'
p1819
aS'ENSG00000187742'
p1820
atRp1821
ssS'coral'
p1822
(dp1823
g4
g5
((lp1824
S'ENSG00000104883'
p1825
aS'ENSG00000001460'
p1826
aS'ENSG00000104522'
p1827
aS'ENSG00000128791'
p1828
aS'ENSG00000176715'
p1829
aS'ENSG00000151388'
p1830
aS'ENSG00000155530'
p1831
aS'ENSG00000145545'
p1832
aS'ENSG00000143951'
p1833
aS'ENSG00000108821'
p1834
aS'ENSG00000166147'
p1835
aS'ENSG00000099769'
p1836
aS'ENSG00000099994'
p1837
aS'ENSG00000174989'
p1838
aS'ENSG00000127399'
p1839
atRp1840
ssS'firebrick3'
p1841
(dp1842
g50
(lp1843
(lp1844
S'ENSG00000156959'
p1845
ag54
(g56
S'\x00\x00\x00\x00\x00`}@'
tRp1846
ag54
(g56
S'i\x15BF\x07M\x81?'
tRp1847
ag54
(g56
S'\x80\xc1\xf6#R:\x91?'
tRp1848
aa(lp1849
S'ENSG00000236502'
p1850
ag54
(g56
S'\x00\x00\x00\x00\x00`}@'
tRp1851
ag54
(g56
S'i\x15BF\x07M\x81?'
tRp1852
ag54
(g56
S'\x80\xc1\xf6#R:\x91?'
tRp1853
aasg4
g5
((lp1854
S'ENSG00000249087'
p1855
aS'ENSG00000110076'
p1856
aS'ENSG00000147677'
p1857
aS'ENSG00000213892'
p1858
aS'ENSG00000130540'
p1859
aS'ENSG00000164346'
p1860
aS'ENSG00000125945'
p1861
aS'ENSG00000131127'
p1862
aS'ENSG00000155542'
p1863
aS'ENSG00000160799'
p1864
aS'ENSG00000117676'
p1865
aS'ENSG00000170236'
p1866
aS'ENSG00000185989'
p1867
aS'ENSG00000075234'
p1868
atRp1869
ssS'lightcyan'
p1870
(dp1871
g4
g5
((lp1872
S'ENSG00000079385'
p1873
aS'ENSG00000163328'
p1874
aS'ENSG00000197498'
p1875
aS'ENSG00000008323'
p1876
aS'ENSG00000144362'
p1877
aS'ENSG00000136811'
p1878
aS'ENSG00000109332'
p1879
aS'ENSG00000117984'
p1880
aS'ENSG00000104044'
p1881
aS'ENSG00000183828'
p1882
aS'ENSG00000178913'
p1883
aS'ENSG00000101639'
p1884
aS'ENSG00000007908'
p1885
aS'ENSG00000128274'
p1886
aS'ENSG00000118058'
p1887
aS'ENSG00000083937'
p1888
aS'ENSG00000169629'
p1889
aS'ENSG00000165806'
p1890
aS'ENSG00000166126'
p1891
aS'ENSG00000243725'
p1892
aS'ENSG00000177464'
p1893
aS'ENSG00000163684'
p1894
aS'ENSG00000065485'
p1895
aS'ENSG00000227184'
p1896
aS'ENSG00000188833'
p1897
aS'ENSG00000157315'
p1898
aS'ENSG00000073146'
p1899
aS'ENSG00000142279'
p1900
atRp1901
ssS'sienna3'
p1902
(dp1903
g4
g5
((lp1904
S'ENSG00000169302'
p1905
aS'ENSG00000160392'
p1906
aS'ENSG00000134809'
p1907
aS'ENSG00000214078'
p1908
aS'ENSG00000099984'
p1909
aS'ENSG00000228278'
p1910
aS'ENSG00000184584'
p1911
aS'ENSG00000099953'
p1912
aS'ENSG00000099977'
p1913
aS'ENSG00000183255'
p1914
aS'ENSG00000113578'
p1915
aS'ENSG00000137463'
p1916
aS'ENSG00000117318'
p1917
aS'ENSG00000099974'
p1918
aS'ENSG00000151806'
p1919
aS'ENSG00000133460'
p1920
aS'ENSG00000118017'
p1921
aS'ENSG00000133433'
p1922
aS'ENSG00000131697'
p1923
aS'ENSG00000203791'
p1924
aS'ENSG00000163041'
p1925
atRp1926
ssS'firebrick4'
p1927
(dp1928
g50
(lp1929
(lp1930
S'ENSG00000099864'
p1931
ag54
(g56
S'\x00\x00\x00\x00\x00`}@'
tRp1932
ag54
(g56
S'i\x15BF\x07M\x81?'
tRp1933
ag54
(g56
S'\x80\x15BF\x07M\x81?'
tRp1934
aasg4
g5
((lp1935
S'ENSG00000142634'
p1936
aS'ENSG00000185420'
p1937
aS'ENSG00000168081'
p1938
aS'ENSG00000108091'
p1939
aS'ENSG00000131849'
p1940
aS'ENSG00000131055'
p1941
aS'ENSG00000219438'
p1942
aS'ENSG00000142149'
p1943
aS'ENSG00000241399'
p1944
aS'ENSG00000129965'
p1945
aS'ENSG00000156232'
p1946
aS'ENSG00000112715'
p1947
aS'ENSG00000188191'
p1948
aS'ENSG00000130382'
p1949
aS'ENSG00000140350'
p1950
aS'ENSG00000224982'
p1951
aS'ENSG00000136856'
p1952
atRp1953
ssS'honeydew1'
p1954
(dp1955
g50
(lp1956
(lp1957
S'ENSG00000248323'
p1958
aFinf
ag54
(g56
S'\xbf\xcb\xfd\xa3\xb9Q\x81?'
tRp1959
ag54
(g56
S'\xd0\xad\x00\x08\x8fo\xa9?'
tRp1960
aa(lp1961
S'ENSG00000120907'
p1962
aFinf
ag54
(g56
S'\xbf\xcb\xfd\xa3\xb9Q\x81?'
tRp1963
ag54
(g56
S'\xd0\xad\x00\x08\x8fo\xa9?'
tRp1964
aa(lp1965
S'ENSG00000198074'
p1966
aFinf
ag54
(g56
S'\xbf\xcb\xfd\xa3\xb9Q\x81?'
tRp1967
ag54
(g56
S'\xd0\xad\x00\x08\x8fo\xa9?'
tRp1968
aa(lp1969
S'ENSG00000183044'
p1970
ag54
(g56
S'\x00\x00\x00\x00\x00\x80c@'
tRp1971
ag54
(g56
S'\xb5\xd2\xca\x8a\xa2C\x91?'
tRp1972
ag54
(g56
S'\xb0jt\x91Ov\xa9?'
tRp1973
aa(lp1974
S'ENSG00000171346'
p1975
ag54
(g56
S'\x00\x00\x00\x00\x00\x80c@'
tRp1976
ag54
(g56
S'\xb5\xd2\xca\x8a\xa2C\x91?'
tRp1977
ag54
(g56
S'\xb0jt\x91Ov\xa9?'
tRp1978
aa(lp1979
S'ENSG00000137561'
p1980
ag54
(g56
S'\x00\x00\x00\x00\x00\x80c@'
tRp1981
ag54
(g56
S'\xb5\xd2\xca\x8a\xa2C\x91?'
tRp1982
ag54
(g56
S'\xb0jt\x91Ov\xa9?'
tRp1983
aasg4
g5
((lp1984
S'ENSG00000198074'
p1985
aS'ENSG00000164684'
p1986
aS'ENSG00000125877'
p1987
aS'ENSG00000140575'
p1988
aS'ENSG00000010932'
p1989
aS'ENSG00000184999'
p1990
aS'ENSG00000143061'
p1991
aS'ENSG00000126233'
p1992
aS'ENSG00000221926'
p1993
aS'ENSG00000100522'
p1994
aS'ENSG00000139637'
p1995
aS'ENSG00000241322'
p1996
aS'ENSG00000227471'
p1997
aS'ENSG00000100330'
p1998
aS'ENSG00000157557'
p1999
aS'ENSG00000204310'
p2000
aS'ENSG00000023909'
p2001
aS'ENSG00000152475'
p2002
atRp2003
ssS'lightsteelblue'
p2004
(dp2005
g4
g5
((lp2006
S'ENSG00000197782'
p2007
aS'ENSG00000088298'
p2008
aS'ENSG00000175106'
p2009
aS'ENSG00000142632'
p2010
aS'ENSG00000169519'
p2011
aS'ENSG00000197646'
p2012
aS'ENSG00000169689'
p2013
aS'ENSG00000152133'
p2014
aS'ENSG00000186470'
p2015
aS'ENSG00000156958'
p2016
aS'ENSG00000183748'
p2017
aS'ENSG00000174529'
p2018
aS'ENSG00000204169'
p2019
aS'ENSG00000186204'
p2020
aS'ENSG00000148672'
p2021
aS'ENSG00000198035'
p2022
aS'ENSG00000125703'
p2023
aS'ENSG00000124508'
p2024
atRp2025
ssS'yellow4'
p2026
(dp2027
g4
g5
((lp2028
S'ENSG00000179144'
p2029
aS'ENSG00000107485'
p2030
aS'ENSG00000059769'
p2031
aS'ENSG00000173214'
p2032
aS'ENSG00000164414'
p2033
aS'ENSG00000203883'
p2034
aS'ENSG00000183186'
p2035
aS'ENSG00000171160'
p2036
aS'ENSG00000169851'
p2037
aS'ENSG00000123119'
p2038
aS'ENSG00000102575'
p2039
aS'ENSG00000100060'
p2040
aS'ENSG00000186973'
p2041
aS'ENSG00000106823'
p2042
aS'ENSG00000120217'
p2043
aS'ENSG00000138722'
p2044
aS'ENSG00000166750'
p2045
aS'ENSG00000187944'
p2046
atRp2047
ssS'greenyellow'
p2048
(dp2049
g50
(lp2050
(lp2051
S'ENSG00000183287'
p2052
aFinf
ag54
(g56
S'\xbf\xcb\xfd\xa3\xb9Q\x81?'
tRp2053
ag54
(g56
S'\x80\x8b.\xa45I\xa5?'
tRp2054
aa(lp2055
S'ENSG00000118526'
p2056
aFinf
ag54
(g56
S'\xbf\xcb\xfd\xa3\xb9Q\x81?'
tRp2057
ag54
(g56
S'\x80\x8b.\xa45I\xa5?'
tRp2058
aa(lp2059
S'ENSG00000154096'
p2060
ag54
(g56
S'\x00\x00\x00\x00\x00\x80c@'
tRp2061
ag54
(g56
S'\xb5\xd2\xca\x8a\xa2C\x91?'
tRp2062
ag54
(g56
S'\xb0jt\x91Ov\xa9?'
tRp2063
aasg4
g5
((lp2064
S'ENSG00000124151'
p2065
aS'ENSG00000184454'
p2066
aS'ENSG00000269302'
p2067
aS'ENSG00000184470'
p2068
aS'ENSG00000164713'
p2069
aS'ENSG00000176108'
p2070
aS'ENSG00000124749'
p2071
aS'ENSG00000183807'
p2072
aS'ENSG00000141994'
p2073
aS'ENSG00000157978'
p2074
aS'ENSG00000115944'
p2075
aS'ENSG00000196072'
p2076
aS'ENSG00000135919'
p2077
aS'ENSG00000183773'
p2078
aS'ENSG00000164332'
p2079
aS'ENSG00000174080'
p2080
aS'ENSG00000188938'
p2081
aS'ENSG00000182117'
p2082
aS'ENSG00000169085'
p2083
aS'ENSG00000242485'
p2084
aS'ENSG00000186806'
p2085
aS'ENSG00000121898'
p2086
aS'ENSG00000160325'
p2087
aS'ENSG00000214212'
p2088
aS'ENSG00000171824'
p2089
aS'ENSG00000184254'
p2090
aS'ENSG00000059122'
p2091
aS'ENSG00000112640'
p2092
aS'ENSG00000186625'
p2093
aS'ENSG00000067533'
p2094
atRp2095
ssS'magenta3'
p2096
(dp2097
g50
(lp2098
(lp2099
S'ENSG00000100385'
p2100
aFinf
ag54
(g56
S'\xa7\xb1\xfcu\x96\xfay?'
tRp2101
ag54
(g56
S' D\x1b9\x84-\xa3?'
tRp2102
aa(lp2103
S'ENSG00000073861'
p2104
aFinf
ag54
(g56
S'\xa7\xb1\xfcu\x96\xfay?'
tRp2105
ag54
(g56
S' D\x1b9\x84-\xa3?'
tRp2106
aa(lp2107
S'ENSG00000177455'
p2108
aFinf
ag54
(g56
S'\xa7\xb1\xfcu\x96\xfay?'
tRp2109
ag54
(g56
S' D\x1b9\x84-\xa3?'
tRp2110
aa(lp2111
S'ENSG00000105369'
p2112
ag54
(g56
S'\x00\x00\x00\x00\x00Pm@'
tRp2113
ag54
(g56
S'\x9e\xbe\xc9\\\x7f\xec\x89?'
tRp2114
ag54
(g56
S' D\x1b9\x84-\xa3?'
tRp2115
aa(lp2116
S'ENSG00000083454'
p2117
aFinf
ag54
(g56
S'\xa7\xb1\xfcu\x96\xfay?'
tRp2118
ag54
(g56
S' D\x1b9\x84-\xa3?'
tRp2119
aa(lp2120
S'ENSG00000235621'
p2121
aFinf
ag54
(g56
S'\xa7\xb1\xfcu\x96\xfay?'
tRp2122
ag54
(g56
S' D\x1b9\x84-\xa3?'
tRp2123
aasg4
g5
((lp2124
S'ENSG00000148935'
p2125
aS'ENSG00000166922'
p2126
aS'ENSG00000197601'
p2127
aS'ENSG00000128159'
p2128
aS'ENSG00000179454'
p2129
aS'ENSG00000234745'
p2130
aS'ENSG00000170442'
p2131
aS'ENSG00000105483'
p2132
aS'ENSG00000204525'
p2133
aS'ENSG00000143184'
p2134
aS'ENSG00000204642'
p2135
aS'ENSG00000054523'
p2136
atRp2137
ssS'navajowhite1'
p2138
(dp2139
g50
(lp2140
(lp2141
S'ENSG00000132613'
p2142
aFinf
ag54
(g56
S'\xb6\xcb\xfd\xa3\xb9Qq?'
tRp2143
ag54
(g56
S'\x80\xcb\xfd\xa3\xb9Qq?'
tRp2144
aasg4
g5
((lp2145
S'ENSG00000109472'
p2146
aS'ENSG00000148300'
p2147
aS'ENSG00000263264'
p2148
aS'ENSG00000164291'
p2149
aS'ENSG00000117592'
p2150
aS'ENSG00000145075'
p2151
aS'ENSG00000151893'
p2152
aS'ENSG00000153560'
p2153
aS'ENSG00000148341'
p2154
aS'ENSG00000099800'
p2155
aS'ENSG00000141698'
p2156
aS'ENSG00000137338'
p2157
aS'ENSG00000171885'
p2158
aS'ENSG00000143851'
p2159
aS'ENSG00000128185'
p2160
aS'ENSG00000110455'
p2161
atRp2162
ssS'navajowhite2'
p2163
(dp2164
g50
(lp2165
(lp2166
S'ENSG00000206177'
p2167
aFinf
ag54
(g56
S'\xb6\xcb\xfd\xa3\xb9Qq?'
tRp2168
ag54
(g56
S'\xc0\x8a\x07\xfeYH\x81?'
tRp2169
aa(lp2170
S'ENSG00000169877'
p2171
ag54
(g56
S'\x00\x00\x00\x00\x00\x80c@'
tRp2172
ag54
(g56
S'_\xcd\xca\x8a\xa2C\x91?'
tRp2173
ag54
(g56
S'`\xcd\xca\x8a\xa2C\x91?'
tRp2174
aasg4
g5
((lp2175
S'ENSG00000105185'
p2176
aS'ENSG00000065000'
p2177
aS'ENSG00000142623'
p2178
aS'ENSG00000180817'
p2179
aS'ENSG00000065427'
p2180
aS'ENSG00000205639'
p2181
aS'ENSG00000254614'
p2182
aS'ENSG00000157637'
p2183
aS'ENSG00000064652'
p2184
aS'ENSG00000184207'
p2185
aS'ENSG00000232653'
p2186
aS'ENSG00000123415'
p2187
aS'ENSG00000157423'
p2188
aS'ENSG00000141564'
p2189
aS'ENSG00000123609'
p2190
aS'ENSG00000185437'
p2191
aS'ENSG00000164896'
p2192
aS'ENSG00000164880'
p2193
aS'ENSG00000142459'
p2194
atRp2195
ssS'lightcoral'
p2196
(dp2197
g50
(lp2198
(lp2199
g1710
ag54
(g56
S'UUUUUuS@'
tRp2200
ag54
(g56
S'\xc7f{{`\xd0\x99?'
tRp2201
ag54
(g56
S'\xc0f{{`\xd0\x99?'
tRp2202
aasg4
g5
((lp2203
S'ENSG00000147592'
p2204
aS'ENSG00000079974'
p2205
aS'ENSG00000175220'
p2206
aS'ENSG00000128311'
p2207
aS'ENSG00000134243'
p2208
aS'ENSG00000101204'
p2209
aS'ENSG00000159733'
p2210
aS'ENSG00000135392'
p2211
aS'ENSG00000143126'
p2212
aS'ENSG00000127328'
p2213
aS'ENSG00000134222'
p2214
aS'ENSG00000188573'
p2215
aS'ENSG00000167720'
p2216
aS'ENSG00000197362'
p2217
aS'ENSG00000221947'
p2218
aS'ENSG00000108001'
p2219
aS'ENSG00000246366'
p2220
atRp2221
ssS'navajowhite'
p2222
(dp2223
g4
g5
((lp2224
S'ENSG00000115252'
p2225
aS'ENSG00000182253'
p2226
aS'ENSG00000126934'
p2227
aS'ENSG00000106565'
p2228
aS'ENSG00000146250'
p2229
aS'ENSG00000183826'
p2230
aS'ENSG00000150977'
p2231
aS'ENSG00000083838'
p2232
aS'ENSG00000125991'
p2233
aS'ENSG00000121350'
p2234
aS'ENSG00000156171'
p2235
aS'ENSG00000002933'
p2236
atRp2237
ssS'mistyrose'
p2238
(dp2239
g50
(lp2240
(lp2241
S'ENSG00000157388'
p2242
aFinf
ag54
(g56
S'\xad\xcb\xfd\xa3\xb9Qa?'
tRp2243
ag54
(g56
S'\x80\xab\x02\xd1\tMq?'
tRp2244
aa(lp2245
g1710
aFinf
ag54
(g56
S'\xa7\xc9\xfd\xa3\xb9Q\x81?'
tRp2246
ag54
(g56
S'\xc0\xc9\xfd\xa3\xb9Q\x81?'
tRp2247
aasg4
g5
((lp2248
S'ENSG00000187824'
p2249
aS'ENSG00000007376'
p2250
aS'ENSG00000179526'
p2251
aS'ENSG00000079387'
p2252
aS'ENSG00000154479'
p2253
aS'ENSG00000144134'
p2254
aS'ENSG00000134058'
p2255
aS'ENSG00000136381'
p2256
aS'ENSG00000262246'
p2257
aS'ENSG00000126464'
p2258
atRp2259
ssS'royalblue'
p2260
(dp2261
g4
g5
((lp2262
S'ENSG00000115718'
p2263
aS'ENSG00000221968'
p2264
aS'ENSG00000182362'
p2265
aS'ENSG00000182319'
p2266
aS'ENSG00000096092'
p2267
aS'ENSG00000166743'
p2268
aS'ENSG00000250673'
p2269
aS'ENSG00000134324'
p2270
aS'ENSG00000162482'
p2271
aS'ENSG00000156471'
p2272
aS'ENSG00000163866'
p2273
aS'ENSG00000125457'
p2274
aS'ENSG00000147576'
p2275
aS'ENSG00000168614'
p2276
aS'ENSG00000211584'
p2277
aS'ENSG00000123178'
p2278
aS'ENSG00000176771'
p2279
aS'ENSG00000254827'
p2280
aS'ENSG00000169592'
p2281
aS'ENSG00000196227'
p2282
aS'ENSG00000159884'
p2283
aS'ENSG00000170802'
p2284
aS'ENSG00000126246'
p2285
aS'ENSG00000088543'
p2286
aS'ENSG00000116667'
p2287
aS'ENSG00000120162'
p2288
atRp2289
ssS'white'
p2290
(dp2291
g4
g5
((lp2292
S'ENSG00000115525'
p2293
aS'ENSG00000151575'
p2294
aS'ENSG00000106123'
p2295
aS'ENSG00000013503'
p2296
aS'ENSG00000167608'
p2297
aS'ENSG00000146038'
p2298
aS'ENSG00000079691'
p2299
aS'ENSG00000124920'
p2300
aS'ENSG00000104413'
p2301
aS'ENSG00000183844'
p2302
aS'ENSG00000131981'
p2303
aS'ENSG00000153822'
p2304
aS'ENSG00000188321'
p2305
aS'ENSG00000122870'
p2306
aS'ENSG00000166796'
p2307
aS'ENSG00000240583'
p2308
aS'ENSG00000108433'
p2309
aS'ENSG00000136936'
p2310
aS'ENSG00000170927'
p2311
aS'ENSG00000112312'
p2312
aS'ENSG00000254685'
p2313
aS'ENSG00000132122'
p2314
atRp2315
ssS'tan4'
p2316
(dp2317
g50
(lp2318
(lp2319
S'ENSG00000171714'
p2320
aFinf
ag54
(g56
S'\xb6\xcb\xfd\xa3\xb9Qq?'
tRp2321
ag54
(g56
S'\x80\xcb\xfd\xa3\xb9Qq?'
tRp2322
aasg4
g5
((lp2323
S'ENSG00000186665'
p2324
aS'ENSG00000173531'
p2325
aS'ENSG00000189050'
p2326
aS'ENSG00000065060'
p2327
aS'ENSG00000133466'
p2328
aS'ENSG00000100221'
p2329
aS'ENSG00000150433'
p2330
aS'ENSG00000178700'
p2331
aS'ENSG00000076258'
p2332
aS'ENSG00000127124'
p2333
aS'ENSG00000170425'
p2334
aS'ENSG00000136141'
p2335
aS'ENSG00000170500'
p2336
atRp2337
ssS'ivory'
p2338
(dp2339
g50
(lp2340
(lp2341
S'ENSG00000204983'
p2342
aFinf
ag54
(g56
S'sU\xb8\x7f\xdf\x9c!?'
tRp2343
ag54
(g56
S'\x00\x00Q8\xaf\x00V?'
tRp2344
aasg4
g5
((lp2345
S'ENSG00000173818'
p2346
aS'ENSG00000169605'
p2347
aS'ENSG00000131386'
p2348
aS'ENSG00000197769'
p2349
aS'ENSG00000182333'
p2350
aS'ENSG00000197323'
p2351
aS'ENSG00000178363'
p2352
aS'ENSG00000137392'
p2353
aS'ENSG00000135541'
p2354
aS'ENSG00000130177'
p2355
aS'ENSG00000166822'
p2356
aS'ENSG00000219073'
p2357
aS'ENSG00000185479'
p2358
aS'ENSG00000106976'
p2359
aS'ENSG00000081277'
p2360
aS'ENSG00000172977'
p2361
aS'ENSG00000115561'
p2362
aS'ENSG00000118197'
p2363
aS'ENSG00000167523'
p2364
aS'ENSG00000203772'
p2365
atRp2366
ssS'lightgreen'
p2367
(dp2368
g50
(lp2369
(lp2370
g95
ag54
(g56
S'UUUUU5C@'
tRp2371
ag54
(g56
S'?\x81\xf9\x84\xad\xc9m?'
tRp2372
ag54
(g56
S'0\x831\xd3@\xe6\xa5?'
tRp2373
aasg4
g5
((lp2374
S'ENSG00000089006'
p2375
aS'ENSG00000104889'
p2376
aS'ENSG00000141294'
p2377
aS'ENSG00000189057'
p2378
aS'ENSG00000211450'
p2379
aS'ENSG00000049239'
p2380
aS'ENSG00000153885'
p2381
aS'ENSG00000184348'
p2382
aS'ENSG00000108231'
p2383
aS'ENSG00000221829'
p2384
aS'ENSG00000151725'
p2385
aS'ENSG00000128578'
p2386
aS'ENSG00000126215'
p2387
aS'ENSG00000077152'
p2388
aS'ENSG00000137135'
p2389
aS'ENSG00000146281'
p2390
aS'ENSG00000243317'
p2391
aS'ENSG00000100479'
p2392
aS'ENSG00000168393'
p2393
aS'ENSG00000132906'
p2394
aS'ENSG00000175643'
p2395
aS'ENSG00000151693'
p2396
aS'ENSG00000113810'
p2397
aS'ENSG00000112078'
p2398
aS'ENSG00000076382'
p2399
aS'ENSG00000147439'
p2400
aS'ENSG00000115468'
p2401
atRp2402
ssS'lightpink2'
p2403
(dp2404
g4
g5
((lp2405
S'ENSG00000189091'
p2406
aS'ENSG00000116205'
p2407
aS'ENSG00000128944'
p2408
aS'ENSG00000148468'
p2409
aS'ENSG00000130711'
p2410
aS'ENSG00000170775'
p2411
aS'ENSG00000203727'
p2412
aS'ENSG00000086232'
p2413
aS'ENSG00000124587'
p2414
aS'ENSG00000005156'
p2415
aS'ENSG00000171723'
p2416
aS'ENSG00000152556'
p2417
atRp2418
ssS'lightpink3'
p2419
(dp2420
g50
(lp2421
(lp2422
S'ENSG00000110777'
p2423
aFinf
ag54
(g56
S'\xbf\xcb\xfd\xa3\xb9Q\x81?'
tRp2424
ag54
(g56
S'\x80\x8b.\xa45I\xa5?'
tRp2425
aasg4
g5
((lp2426
S'ENSG00000228146'
p2427
aS'ENSG00000135925'
p2428
aS'ENSG00000163634'
p2429
aS'ENSG00000172197'
p2430
aS'ENSG00000140955'
p2431
aS'ENSG00000095397'
p2432
aS'ENSG00000213214'
p2433
aS'ENSG00000166716'
p2434
aS'ENSG00000112599'
p2435
aS'ENSG00000124440'
p2436
aS'ENSG00000172296'
p2437
aS'ENSG00000099330'
p2438
aS'ENSG00000121270'
p2439
aS'ENSG00000103811'
p2440
aS'ENSG00000171227'
p2441
aS'ENSG00000122783'
p2442
atRp2443
ssS'darkgrey'
p2444
(dp2445
g50
(lp2446
(lp2447
S'ENSG00000163220'
p2448
aFinf
ag54
(g56
S'sU\xb8\x7f\xdf\x9c!?'
tRp2449
ag54
(g56
S'\x00W\xbdQ\xf3\x15g?'
tRp2450
aa(lp2451
S'ENSG00000158869'
p2452
ag54
(g56
S'UUUUUUS@'
tRp2453
ag54
(g56
S'~\x03\xf8\xbb\xd1\xa4U?'
tRp2454
ag54
(g56
S'\xa09\x95\xee\xc9\xb7\x9a?'
tRp2455
aasg4
g5
((lp2456
S'ENSG00000214087'
p2457
aS'ENSG00000185829'
p2458
aS'ENSG00000131187'
p2459
aS'ENSG00000141295'
p2460
aS'ENSG00000064270'
p2461
aS'ENSG00000143546'
p2462
aS'ENSG00000176681'
p2463
aS'ENSG00000186854'
p2464
aS'ENSG00000150526'
p2465
aS'ENSG00000121454'
p2466
aS'ENSG00000116852'
p2467
aS'ENSG00000115825'
p2468
aS'ENSG00000182885'
p2469
aS'ENSG00000238083'
p2470
aS'ENSG00000241697'
p2471
aS'ENSG00000169180'
p2472
aS'ENSG00000101307'
p2473
aS'ENSG00000132965'
p2474
aS'ENSG00000040933'
p2475
aS'ENSG00000140323'
p2476
aS'ENSG00000090382'
p2477
aS'ENSG00000163221'
p2478
atRp2479
ssS'lightpink4'
p2480
(dp2481
g50
(lp2482
(lp2483
S'ENSG00000157554'
p2484
aFinf
ag54
(g56
S'\x9a\xb1\xfcu\x96\xfa\x89?'
tRp2485
ag54
(g56
S'\xe0\x8d(\x0bh\xd0\x99?'
tRp2486
aasg4
g5
((lp2487
S'ENSG00000176974'
p2488
aS'ENSG00000110074'
p2489
aS'ENSG00000178188'
p2490
aS'ENSG00000162650'
p2491
aS'ENSG00000168653'
p2492
aS'ENSG00000148218'
p2493
aS'ENSG00000198130'
p2494
aS'ENSG00000212719'
p2495
aS'ENSG00000164736'
p2496
aS'ENSG00000100612'
p2497
aS'ENSG00000267855'
p2498
aS'ENSG00000181754'
p2499
aS'ENSG00000115556'
p2500
aS'ENSG00000116478'
p2501
aS'ENSG00000151353'
p2502
aS'ENSG00000115364'
p2503
aS'ENSG00000143028'
p2504
aS'ENSG00000109667'
p2505
atRp2506
ssS'darkorange2'
p2507
(dp2508
g4
g5
((lp2509
S'ENSG00000111361'
p2510
aS'ENSG00000112541'
p2511
aS'ENSG00000140400'
p2512
aS'ENSG00000183032'
p2513
aS'ENSG00000113812'
p2514
aS'ENSG00000141425'
p2515
aS'ENSG00000176055'
p2516
aS'ENSG00000145555'
p2517
aS'ENSG00000056736'
p2518
aS'ENSG00000172817'
p2519
aS'ENSG00000163006'
p2520
aS'ENSG00000166974'
p2521
aS'ENSG00000244411'
p2522
aS'ENSG00000177875'
p2523
aS'ENSG00000134201'
p2524
aS'ENSG00000134202'
p2525
aS'ENSG00000123643'
p2526
aS'ENSG00000215440'
p2527
aS'ENSG00000144021'
p2528
aS'ENSG00000183793'
p2529
atRp2530
ssS'darkolivegreen2'
p2531
(dp2532
g50
(lp2533
(lp2534
g327
aFinf
ag54
(g56
S'xB\xfd\x0c(\xa6\x85?'
tRp2535
ag54
(g56
S'\xe0\xb7[&\xdd\x88\x95?'
tRp2536
aa(lp2537
g332
aFinf
ag54
(g56
S'xB\xfd\x0c(\xa6\x85?'
tRp2538
ag54
(g56
S'\xe0\xb7[&\xdd\x88\x95?'
tRp2539
aasg4
g5
((lp2540
S'ENSG00000133121'
p2541
aS'ENSG00000100380'
p2542
aS'ENSG00000008513'
p2543
aS'ENSG00000100023'
p2544
aS'ENSG00000156398'
p2545
aS'ENSG00000171495'
p2546
aS'ENSG00000121716'
p2547
aS'ENSG00000117682'
p2548
aS'ENSG00000160961'
p2549
aS'ENSG00000022277'
p2550
aS'ENSG00000119285'
p2551
aS'ENSG00000085514'
p2552
aS'ENSG00000170899'
p2553
aS'ENSG00000118785'
p2554
atRp2555
ssS'chocolate4'
p2556
(dp2557
g50
(lp2558
(lp2559
S'ENSG00000180644'
p2560
aFinf
ag54
(g56
S'\xb6\xcb\xfd\xa3\xb9Qq?'
tRp2561
ag54
(g56
S'\xc0\x8a\x07\xfeYH\x81?'
tRp2562
aa(lp2563
S'ENSG00000080709'
p2564
aFinf
ag54
(g56
S'\xb6\xcb\xfd\xa3\xb9Qq?'
tRp2565
ag54
(g56
S'\xc0\x8a\x07\xfeYH\x81?'
tRp2566
aasg4
g5
((lp2567
S'ENSG00000150672'
p2568
aS'ENSG00000147604'
p2569
aS'ENSG00000118816'
p2570
aS'ENSG00000169704'
p2571
aS'ENSG00000105877'
p2572
aS'ENSG00000204149'
p2573
aS'ENSG00000198755'
p2574
aS'ENSG00000237190'
p2575
aS'ENSG00000111142'
p2576
aS'ENSG00000118961'
p2577
aS'ENSG00000205246'
p2578
atRp2579
ssS'darkslateblue'
p2580
(dp2581
g4
g5
((lp2582
S'ENSG00000120645'
p2583
aS'ENSG00000134864'
p2584
aS'ENSG00000164220'
p2585
aS'ENSG00000166856'
p2586
aS'ENSG00000104938'
p2587
aS'ENSG00000100075'
p2588
aS'ENSG00000116396'
p2589
aS'ENSG00000121005'
p2590
aS'ENSG00000092421'
p2591
aS'ENSG00000134569'
p2592
aS'ENSG00000115459'
p2593
aS'ENSG00000196570'
p2594
aS'ENSG00000224531'
p2595
aS'ENSG00000156097'
p2596
aS'ENSG00000188163'
p2597
aS'ENSG00000172889'
p2598
aS'ENSG00000064545'
p2599
aS'ENSG00000129282'
p2600
aS'ENSG00000186994'
p2601
aS'ENSG00000162981'
p2602
atRp2603
ssS'deeppink'
p2604
(dp2605
g4
g5
((lp2606
S'ENSG00000119878'
p2607
aS'ENSG00000188542'
p2608
aS'ENSG00000196605'
p2609
aS'ENSG00000125046'
p2610
aS'ENSG00000164022'
p2611
aS'ENSG00000181240'
p2612
aS'ENSG00000138750'
p2613
aS'ENSG00000145321'
p2614
aS'ENSG00000204152'
p2615
aS'ENSG00000144182'
p2616
aS'ENSG00000170464'
p2617
aS'ENSG00000124786'
p2618
aS'ENSG00000126467'
p2619
atRp2620
ssS'plum'
p2621
(dp2622
g4
g5
((lp2623
S'ENSG00000171812'
p2624
aS'ENSG00000239282'
p2625
aS'ENSG00000102595'
p2626
aS'ENSG00000130713'
p2627
aS'ENSG00000144120'
p2628
aS'ENSG00000136044'
p2629
aS'ENSG00000170209'
p2630
aS'ENSG00000151131'
p2631
aS'ENSG00000142273'
p2632
aS'ENSG00000102547'
p2633
aS'ENSG00000101751'
p2634
aS'ENSG00000143198'
p2635
aS'ENSG00000163382'
p2636
aS'ENSG00000168395'
p2637
aS'ENSG00000065150'
p2638
aS'ENSG00000174007'
p2639
aS'ENSG00000142675'
p2640
aS'ENSG00000166165'
p2641
atRp2642
ssS'maroon'
p2643
(dp2644
g4
g5
((lp2645
S'ENSG00000164308'
p2646
aS'ENSG00000065809'
p2647
aS'ENSG00000168246'
p2648
aS'ENSG00000114544'
p2649
aS'ENSG00000078369'
p2650
aS'ENSG00000243955'
p2651
aS'ENSG00000163795'
p2652
aS'ENSG00000165730'
p2653
aS'ENSG00000160161'
p2654
aS'ENSG00000137877'
p2655
aS'ENSG00000197818'
p2656
aS'ENSG00000018189'
p2657
aS'ENSG00000167723'
p2658
aS'ENSG00000162881'
p2659
aS'ENSG00000177889'
p2660
aS'ENSG00000067208'
p2661
aS'ENSG00000107130'
p2662
aS'ENSG00000140104'
p2663
aS'ENSG00000048471'
p2664
atRp2665
ssS'lightcyan1'
p2666
(dp2667
g50
(lp2668
(lp2669
g2171
ag54
(g56
S'ffffffq@'
tRp2670
ag54
(g56
S'P9\xd6u)\x97\xea>'
tRp2671
ag54
(g56
S'\x00 e7\xab\xe9\x1d?'
tRp2672
aa(lp2673
S'ENSG00000223609'
p2674
aFinf
ag54
(g56
S'\xa6-\xce\x10Hp0?'
tRp2675
ag54
(g56
S'\x00?W\xbe\x96l`?'
tRp2676
aasg4
g5
((lp2677
S'ENSG00000105205'
p2678
aS'ENSG00000186104'
p2679
aS'ENSG00000107249'
p2680
aS'ENSG00000164088'
p2681
aS'ENSG00000117394'
p2682
aS'ENSG00000149516'
p2683
aS'ENSG00000075975'
p2684
aS'ENSG00000186652'
p2685
aS'ENSG00000256269'
p2686
aS'ENSG00000164010'
p2687
aS'ENSG00000120675'
p2688
aS'ENSG00000004939'
p2689
aS'ENSG00000179933'
p2690
aS'ENSG00000170180'
p2691
aS'ENSG00000172653'
p2692
aS'ENSG00000187010'
p2693
aS'ENSG00000239839'
p2694
aS'ENSG00000108309'
p2695
aS'ENSG00000177868'
p2696
aS'ENSG00000206177'
p2697
atRp2698
ssS'magenta'
p2699
(dp2700
g4
g5
((lp2701
S'ENSG00000204882'
p2702
aS'ENSG00000187140'
p2703
aS'ENSG00000111647'
p2704
aS'ENSG00000006695'
p2705
aS'ENSG00000136738'
p2706
aS'ENSG00000152292'
p2707
aS'ENSG00000198467'
p2708
aS'ENSG00000177239'
p2709
aS'ENSG00000163395'
p2710
aS'ENSG00000066923'
p2711
aS'ENSG00000140538'
p2712
aS'ENSG00000162951'
p2713
aS'ENSG00000133392'
p2714
aS'ENSG00000152583'
p2715
aS'ENSG00000144857'
p2716
aS'ENSG00000036448'
p2717
aS'ENSG00000175785'
p2718
aS'ENSG00000130653'
p2719
aS'ENSG00000111404'
p2720
aS'ENSG00000103710'
p2721
aS'ENSG00000185404'
p2722
aS'ENSG00000182667'
p2723
aS'ENSG00000145936'
p2724
aS'ENSG00000119147'
p2725
aS'ENSG00000134250'
p2726
aS'ENSG00000077943'
p2727
aS'ENSG00000007237'
p2728
aS'ENSG00000154134'
p2729
aS'ENSG00000132470'
p2730
aS'ENSG00000174358'
p2731
aS'ENSG00000089335'
p2732
aS'ENSG00000105085'
p2733
atRp2734
ssS'tan'
p2735
(dp2736
g50
(lp2737
(lp2738
S'ENSG00000037280'
p2739
aFinf
ag54
(g56
S'\xf6\xce\xfd\xa3\xb9Qq?'
tRp2740
ag54
(g56
S'@\x8e\x07\xfeYH\x81?'
tRp2741
aasg4
g5
((lp2742
S'ENSG00000165733'
p2743
aS'ENSG00000179562'
p2744
aS'ENSG00000172594'
p2745
aS'ENSG00000087365'
p2746
aS'ENSG00000136718'
p2747
aS'ENSG00000095485'
p2748
aS'ENSG00000105329'
p2749
aS'ENSG00000037474'
p2750
aS'ENSG00000004487'
p2751
aS'ENSG00000168038'
p2752
aS'ENSG00000243056'
p2753
aS'ENSG00000108592'
p2754
aS'ENSG00000160111'
p2755
aS'ENSG00000138814'
p2756
aS'ENSG00000163161'
p2757
aS'ENSG00000039123'
p2758
aS'ENSG00000158545'
p2759
aS'ENSG00000132823'
p2760
aS'ENSG00000100823'
p2761
aS'ENSG00000177674'
p2762
aS'ENSG00000111676'
p2763
aS'ENSG00000113643'
p2764
aS'ENSG00000162373'
p2765
aS'ENSG00000144741'
p2766
aS'ENSG00000163281'
p2767
aS'ENSG00000179115'
p2768
aS'ENSG00000132881'
p2769
aS'ENSG00000204314'
p2770
aS'ENSG00000123352'
p2771
aS'ENSG00000090238'
p2772
atRp2773
ssS'pink'
p2774
(dp2775
g4
g5
((lp2776
S'ENSG00000250588'
p2777
aS'ENSG00000156006'
p2778
aS'ENSG00000256162'
p2779
aS'ENSG00000111291'
p2780
aS'ENSG00000149573'
p2781
aS'ENSG00000132677'
p2782
aS'ENSG00000117054'
p2783
aS'ENSG00000162365'
p2784
aS'ENSG00000079335'
p2785
aS'ENSG00000152404'
p2786
aS'ENSG00000206562'
p2787
aS'ENSG00000071205'
p2788
aS'ENSG00000166819'
p2789
aS'ENSG00000242110'
p2790
aS'ENSG00000178852'
p2791
aS'ENSG00000184012'
p2792
aS'ENSG00000170836'
p2793
aS'ENSG00000056972'
p2794
aS'ENSG00000139624'
p2795
aS'ENSG00000172059'
p2796
aS'ENSG00000181513'
p2797
aS'ENSG00000132703'
p2798
aS'ENSG00000221890'
p2799
aS'ENSG00000125775'
p2800
aS'ENSG00000134317'
p2801
aS'ENSG00000215251'
p2802
aS'ENSG00000088448'
p2803
aS'ENSG00000173218'
p2804
aS'ENSG00000164251'
p2805
aS'ENSG00000133703'
p2806
aS'ENSG00000162836'
p2807
aS'ENSG00000088766'
p2808
atRp2809
ssS'slateblue'
p2810
(dp2811
g50
(lp2812
(lp2813
S'ENSG00000153179'
p2814
aFinf
ag54
(g56
S'\xa7\xb1\xfcu\x96\xfay?'
tRp2815
ag54
(g56
S' D\x1b9\x84-\xa3?'
tRp2816
aa(lp2817
S'ENSG00000163739'
p2818
aFinf
ag54
(g56
S'\xa7\xb1\xfcu\x96\xfay?'
tRp2819
ag54
(g56
S' D\x1b9\x84-\xa3?'
tRp2820
aasg4
g5
((lp2821
S'ENSG00000013288'
p2822
aS'ENSG00000184708'
p2823
aS'ENSG00000171940'
p2824
aS'ENSG00000124875'
p2825
aS'ENSG00000124766'
p2826
aS'ENSG00000173210'
p2827
aS'ENSG00000166405'
p2828
aS'ENSG00000163739'
p2829
aS'ENSG00000267596'
p2830
atRp2831
ssS'sienna4'
p2832
(dp2833
g50
(lp2834
(lp2835
S'ENSG00000076826'
p2836
aFinf
ag54
(g56
S'\xa7\xc9\xfd\xa3\xb9Q\x81?'
tRp2837
ag54
(g56
S' H\x11X\xfa>\x91?'
tRp2838
aa(lp2839
S'ENSG00000154639'
p2840
aFinf
ag54
(g56
S'\x8c\x87}\xd8\xf0{\x93?'
tRp2841
ag54
(g56
S'\x80\x87}\xd8\xf0{\x93?'
tRp2842
aasg4
g5
((lp2843
S'ENSG00000152291'
p2844
aS'ENSG00000091527'
p2845
aS'ENSG00000167291'
p2846
aS'ENSG00000166436'
p2847
aS'ENSG00000175482'
p2848
aS'ENSG00000196648'
p2849
aS'ENSG00000041353'
p2850
aS'ENSG00000186350'
p2851
aS'ENSG00000140995'
p2852
aS'ENSG00000246705'
p2853
aS'ENSG00000160216'
p2854
aS'ENSG00000269430'
p2855
aS'ENSG00000269396'
p2856
aS'ENSG00000067955'
p2857
aS'ENSG00000249852'
p2858
atRp2859
ssS'darkorange'
p2860
(dp2861
g50
(lp2862
(lp2863
S'ENSG00000111335'
p2864
aFinf
ag54
(g56
S'\xf6\xce\xfd\xa3\xb9Qq?'
tRp2865
ag54
(g56
S'@\x8e\x07\xfeYH\x81?'
tRp2866
aa(lp2867
S'ENSG00000137965'
p2868
aFinf
ag54
(g56
S'\xf6\xce\xfd\xa3\xb9Qq?'
tRp2869
ag54
(g56
S'@\x8e\x07\xfeYH\x81?'
tRp2870
aasg4
g5
((lp2871
S'ENSG00000160145'
p2872
aS'ENSG00000170581'
p2873
aS'ENSG00000087152'
p2874
aS'ENSG00000087502'
p2875
aS'ENSG00000152217'
p2876
aS'ENSG00000181381'
p2877
aS'ENSG00000119913'
p2878
aS'ENSG00000084072'
p2879
aS'ENSG00000100911'
p2880
aS'ENSG00000133106'
p2881
aS'ENSG00000138646'
p2882
aS'ENSG00000110944'
p2883
aS'ENSG00000127993'
p2884
aS'ENSG00000171202'
p2885
aS'ENSG00000124782'
p2886
aS'ENSG00000150054'
p2887
aS'ENSG00000169992'
p2888
aS'ENSG00000173193'
p2889
aS'ENSG00000182179'
p2890
aS'ENSG00000138496'
p2891
aS'ENSG00000010030'
p2892
aS'ENSG00000135482'
p2893
atRp2894
ssS'midnightblue'
p2895
(dp2896
g4
g5
((lp2897
S'ENSG00000169758'
p2898
aS'ENSG00000120332'
p2899
aS'ENSG00000079156'
p2900
aS'ENSG00000091136'
p2901
aS'ENSG00000063660'
p2902
aS'ENSG00000143502'
p2903
aS'ENSG00000004838'
p2904
aS'ENSG00000159267'
p2905
aS'ENSG00000086289'
p2906
aS'ENSG00000013573'
p2907
aS'ENSG00000106078'
p2908
aS'ENSG00000103599'
p2909
aS'ENSG00000159023'
p2910
aS'ENSG00000111364'
p2911
aS'ENSG00000151640'
p2912
aS'ENSG00000168411'
p2913
aS'ENSG00000168671'
p2914
aS'ENSG00000111671'
p2915
aS'ENSG00000172782'
p2916
aS'ENSG00000166006'
p2917
aS'ENSG00000057019'
p2918
aS'ENSG00000187288'
p2919
aS'ENSG00000144649'
p2920
aS'ENSG00000172380'
p2921
aS'ENSG00000213965'
p2922
aS'ENSG00000160207'
p2923
aS'ENSG00000187105'
p2924
aS'ENSG00000134769'
p2925
atRp2926
ssS'paleturquoise'
p2927
(dp2928
g4
g5
((lp2929
S'ENSG00000144455'
p2930
aS'ENSG00000110046'
p2931
aS'ENSG00000154096'
p2932
aS'ENSG00000205078'
p2933
aS'ENSG00000068724'
p2934
aS'ENSG00000165171'
p2935
aS'ENSG00000180185'
p2936
aS'ENSG00000160447'
p2937
aS'ENSG00000173166'
p2938
aS'ENSG00000166896'
p2939
aS'ENSG00000103168'
p2940
aS'ENSG00000154864'
p2941
aS'ENSG00000120306'
p2942
aS'ENSG00000204920'
p2943
aS'ENSG00000225190'
p2944
aS'ENSG00000169087'
p2945
aS'ENSG00000180398'
p2946
aS'ENSG00000169230'
p2947
aS'ENSG00000128011'
p2948
aS'ENSG00000106772'
p2949
aS'ENSG00000105088'
p2950
aS'ENSG00000103249'
p2951
atRp2952
ssS'yellow3'
p2953
(dp2954
g4
g5
((lp2955
S'ENSG00000141519'
p2956
aS'ENSG00000267534'
p2957
aS'ENSG00000188659'
p2958
aS'ENSG00000120709'
p2959
aS'ENSG00000152749'
p2960
aS'ENSG00000173272'
p2961
aS'ENSG00000113648'
p2962
aS'ENSG00000088451'
p2963
aS'ENSG00000174456'
p2964
aS'ENSG00000162994'
p2965
aS'ENSG00000142856'
p2966
aS'ENSG00000175536'
p2967
aS'ENSG00000103248'
p2968
aS'ENSG00000204644'
p2969
aS'ENSG00000164741'
p2970
atRp2971
ssS'orangered3'
p2972
(dp2973
g4
g5
((lp2974
S'ENSG00000115392'
p2975
aS'ENSG00000136108'
p2976
aS'ENSG00000172301'
p2977
aS'ENSG00000144837'
p2978
aS'ENSG00000012048'
p2979
aS'ENSG00000132938'
p2980
aS'ENSG00000099834'
p2981
aS'ENSG00000174233'
p2982
aS'ENSG00000162976'
p2983
aS'ENSG00000078401'
p2984
aS'ENSG00000197888'
p2985
aS'ENSG00000166167'
p2986
aS'ENSG00000125821'
p2987
aS'ENSG00000159899'
p2988
aS'ENSG00000128829'
p2989
aS'ENSG00000122778'
p2990
aS'ENSG00000105251'
p2991
aS'ENSG00000100097'
p2992
atRp2993
ssS'orangered1'
p2994
(dp2995
g4
g5
((lp2996
S'ENSG00000145817'
p2997
aS'ENSG00000113068'
p2998
aS'ENSG00000168679'
p2999
aS'ENSG00000005812'
p3000
aS'ENSG00000089597'
p3001
aS'ENSG00000255798'
p3002
aS'ENSG00000111725'
p3003
aS'ENSG00000146909'
p3004
aS'ENSG00000165512'
p3005
aS'ENSG00000125629'
p3006
aS'ENSG00000076662'
p3007
aS'ENSG00000137675'
p3008
aS'ENSG00000179021'
p3009
aS'ENSG00000198933'
p3010
atRp3011
ssS'orangered4'
p3012
(dp3013
g50
(lp3014
(lp3015
S'ENSG00000178171'
p3016
aFinf
ag54
(g56
S'\xad\xcb\xfd\xa3\xb9Qa?'
tRp3017
ag54
(g56
S'\x80\xab\x02\xd1\tMq?'
tRp3018
aa(lp3019
g1603
aFinf
ag54
(g56
S'\x94\xac\xfcu\x96\xfay?'
tRp3020
ag54
(g56
S'\x80\xac\xfcu\x96\xfay?'
tRp3021
aasg4
g5
((lp3022
S'ENSG00000124733'
p3023
aS'ENSG00000136425'
p3024
aS'ENSG00000148840'
p3025
aS'ENSG00000242612'
p3026
aS'ENSG00000101460'
p3027
aS'ENSG00000006042'
p3028
aS'ENSG00000008382'
p3029
aS'ENSG00000214063'
p3030
aS'ENSG00000171574'
p3031
aS'ENSG00000113734'
p3032
aS'ENSG00000132661'
p3033
aS'ENSG00000136319'
p3034
aS'ENSG00000242498'
p3035
aS'ENSG00000158806'
p3036
aS'ENSG00000158856'
p3037
aS'ENSG00000197361'
p3038
aS'ENSG00000163347'
p3039
aS'ENSG00000140367'
p3040
aS'ENSG00000141696'
p3041
aS'ENSG00000186153'
p3042
aS'ENSG00000186088'
p3043
atRp3044
ssS'thistle3'
p3045
(dp3046
g50
(lp3047
(lp3048
S'ENSG00000005421'
p3049
ag54
(g56
S'\x00\x00\x00\x00\x00 M@'
tRp3050
ag54
(g56
S'l\x01\x1cpw\x19\xa0?'
tRp3051
ag54
(g56
S'p\x01\x1cpw\x19\xa0?'
tRp3052
aasg4
g5
((lp3053
S'ENSG00000186230'
p3054
aS'ENSG00000196705'
p3055
aS'ENSG00000204764'
p3056
aS'ENSG00000196268'
p3057
aS'ENSG00000182141'
p3058
aS'ENSG00000178187'
p3059
aS'ENSG00000119946'
p3060
aS'ENSG00000129204'
p3061
aS'ENSG00000105695'
p3062
aS'ENSG00000095917'
p3063
aS'ENSG00000118620'
p3064
aS'ENSG00000095932'
p3065
aS'ENSG00000160352'
p3066
aS'ENSG00000203880'
p3067
aS'ENSG00000012124'
p3068
aS'ENSG00000057593'
p3069
atRp3070
ssS'thistle2'
p3071
(dp3072
g50
(lp3073
(lp3074
S'ENSG00000067057'
p3075
aFinf
ag54
(g56
S'\xb6\xcb\xfd\xa3\xb9Qq?'
tRp3076
ag54
(g56
S'\xc0JEo|w\x95?'
tRp3077
aa(lp3078
S'ENSG00000223358'
p3079
ag54
(g56
S'\x00\x00\x00\x00\x00`}@'
tRp3080
ag54
(g56
S'i\x15BF\x07M\x81?'
tRp3081
ag54
(g56
S'\xf0\x93\xb3\x9d8\x15\xa1?'
tRp3082
aasg4
g5
((lp3083
S'ENSG00000172717'
p3084
aS'ENSG00000214944'
p3085
aS'ENSG00000229292'
p3086
aS'ENSG00000206044'
p3087
aS'ENSG00000174373'
p3088
aS'ENSG00000188312'
p3089
aS'ENSG00000204335'
p3090
aS'ENSG00000133985'
p3091
aS'ENSG00000122481'
p3092
aS'ENSG00000100027'
p3093
aS'ENSG00000165338'
p3094
aS'ENSG00000084090'
p3095
aS'ENSG00000222033'
p3096
aS'ENSG00000168065'
p3097
aS'ENSG00000176222'
p3098
aS'ENSG00000163389'
p3099
aS'ENSG00000136875'
p3100
aS'ENSG00000110871'
p3101
aS'ENSG00000152620'
p3102
atRp3103
ssS'thistle1'
p3104
(dp3105
g4
g5
((lp3106
S'ENSG00000204677'
p3107
aS'ENSG00000257218'
p3108
aS'ENSG00000167207'
p3109
aS'ENSG00000185955'
p3110
aS'ENSG00000166923'
p3111
aS'ENSG00000148344'
p3112
aS'ENSG00000127481'
p3113
aS'ENSG00000213523'
p3114
aS'ENSG00000128310'
p3115
aS'ENSG00000197102'
p3116
aS'ENSG00000155906'
p3117
aS'ENSG00000143622'
p3118
aS'ENSG00000172478'
p3119
aS'ENSG00000134077'
p3120
aS'ENSG00000111886'
p3121
aS'ENSG00000137337'
p3122
aS'ENSG00000100505'
p3123
aS'ENSG00000140511'
p3124
aS'ENSG00000055208'
p3125
atRp3126
ssS'sienna2'
p3127
(dp3128
g50
(lp3129
(lp3130
S'ENSG00000185792'
p3131
aFinf
ag54
(g56
S'\xad\xcb\xfd\xa3\xb9Qa?'
tRp3132
ag54
(g56
S'\x00\xcc\xfd\xa3\xb9Qa?'
tRp3133
aasg4
g5
((lp3134
S'ENSG00000115446'
p3135
aS'ENSG00000258289'
p3136
aS'ENSG00000159763'
p3137
aS'ENSG00000188372'
p3138
aS'ENSG00000171195'
p3139
aS'ENSG00000226180'
p3140
aS'ENSG00000128039'
p3141
atRp3142
ssS'salmon'
p3143
(dp3144
g4
g5
((lp3145
S'ENSG00000052344'
p3146
aS'ENSG00000064419'
p3147
aS'ENSG00000182263'
p3148
aS'ENSG00000093144'
p3149
aS'ENSG00000141293'
p3150
aS'ENSG00000182472'
p3151
aS'ENSG00000149084'
p3152
aS'ENSG00000103485'
p3153
aS'ENSG00000103528'
p3154
aS'ENSG00000104047'
p3155
aS'ENSG00000001630'
p3156
aS'ENSG00000119782'
p3157
aS'ENSG00000174652'
p3158
aS'ENSG00000139620'
p3159
aS'ENSG00000124767'
p3160
aS'ENSG00000204520'
p3161
aS'ENSG00000179532'
p3162
aS'ENSG00000214900'
p3163
aS'ENSG00000240720'
p3164
aS'ENSG00000176635'
p3165
aS'ENSG00000227124'
p3166
aS'ENSG00000180098'
p3167
aS'ENSG00000068097'
p3168
aS'ENSG00000100344'
p3169
aS'ENSG00000100024'
p3170
aS'ENSG00000116783'
p3171
aS'ENSG00000141458'
p3172
aS'ENSG00000189339'
p3173
atRp3174
ssS'thistle4'
p3175
(dp3176
g4
g5
((lp3177
S'ENSG00000074621'
p3178
aS'ENSG00000169217'
p3179
aS'ENSG00000122557'
p3180
aS'ENSG00000260362'
p3181
aS'ENSG00000141753'
p3182
aS'ENSG00000189366'
p3183
aS'ENSG00000131944'
p3184
aS'ENSG00000175198'
p3185
aS'ENSG00000119335'
p3186
aS'ENSG00000172660'
p3187
aS'ENSG00000140853'
p3188
aS'ENSG00000224870'
p3189
aS'ENSG00000128245'
p3190
atRp3191
ssS'mediumpurple1'
p3192
(dp3193
g50
(lp3194
(lp3195
S'ENSG00000132837'
p3196
aFinf
ag54
(g56
S'R\xb4)|]%\xa3>'
tRp3197
ag54
(g56
S'\x00\x00\xf8\x8a\t\xb8\xcc>'
tRp3198
aa(lp3199
S'ENSG00000149970'
p3200
aFinf
ag54
(g56
S'\r\xbc\xf3e2.\xfc>'
tRp3201
ag54
(g56
S'\x00@bu\xa1\x9c!?'
tRp3202
aa(lp3203
S'ENSG00000129151'
p3204
aFinf
ag54
(g56
S'\r\xbc\xf3e2.\xfc>'
tRp3205
ag54
(g56
S'\x00@bu\xa1\x9c!?'
tRp3206
aa(lp3207
g1598
ag54
(g56
S'\x00\x00\x00\x00\x00@}@'
tRp3208
ag54
(g56
S'_L\xe0\xb4T\x13%?'
tRp3209
ag54
(g56
S'\x00\x18\xde\xf1\xb1\x9b??'
tRp3210
aa(lp3211
g1608
ag54
(g56
S'\x00\x00\x00\x00\x00@}@'
tRp3212
ag54
(g56
S'_L\xe0\xb4T\x13%?'
tRp3213
ag54
(g56
S'\x00\x18\xde\xf1\xb1\x9b??'
tRp3214
aa(lp3215
S'ENSG00000009694'
p3216
aFinf
ag54
(g56
S'\xa7\xb1\xfcu\x96\xfay?'
tRp3217
ag54
(g56
S'\x80\xb1\xfcu\x96\xfay?'
tRp3218
aasg4
g5
((lp3219
S'ENSG00000168807'
p3220
aS'ENSG00000171421'
p3221
aS'ENSG00000206052'
p3222
aS'ENSG00000198952'
p3223
aS'ENSG00000198715'
p3224
aS'ENSG00000174606'
p3225
aS'ENSG00000183513'
p3226
aS'ENSG00000160781'
p3227
aS'ENSG00000153130'
p3228
aS'ENSG00000132541'
p3229
aS'ENSG00000133104'
p3230
aS'ENSG00000107736'
p3231
aS'ENSG00000151470'
p3232
aS'ENSG00000143194'
p3233
atRp3234
ssS'mediumpurple2'
p3235
(dp3236
g4
g5
((lp3237
S'ENSG00000115902'
p3238
aS'ENSG00000145020'
p3239
aS'ENSG00000167747'
p3240
aS'ENSG00000144792'
p3241
aS'ENSG00000186235'
p3242
aS'ENSG00000101353'
p3243
aS'ENSG00000060138'
p3244
aS'ENSG00000144115'
p3245
aS'ENSG00000183010'
p3246
aS'ENSG00000165055'
p3247
aS'ENSG00000140950'
p3248
aS'ENSG00000117360'
p3249
aS'ENSG00000069275'
p3250
aS'ENSG00000184117'
p3251
aS'ENSG00000172348'
p3252
aS'ENSG00000175395'
p3253
aS'ENSG00000163354'
p3254
aS'ENSG00000150076'
p3255
atRp3256
ssS'mediumpurple3'
p3257
(dp3258
g4
g5
((lp3259
S'ENSG00000149806'
p3260
aS'ENSG00000108294'
p3261
aS'ENSG00000113231'
p3262
aS'ENSG00000180011'
p3263
aS'ENSG00000103353'
p3264
aS'ENSG00000164187'
p3265
aS'ENSG00000104497'
p3266
aS'ENSG00000092200'
p3267
aS'ENSG00000145907'
p3268
aS'ENSG00000164002'
p3269
aS'ENSG00000026652'
p3270
aS'ENSG00000205937'
p3271
aS'ENSG00000119720'
p3272
aS'ENSG00000156885'
p3273
aS'ENSG00000138468'
p3274
aS'ENSG00000120071'
p3275
aS'ENSG00000112139'
p3276
aS'ENSG00000145979'
p3277
aS'ENSG00000103479'
p3278
aS'ENSG00000073711'
p3279
aS'ENSG00000204209'
p3280
atRp3281
ssS'mediumpurple4'
p3282
(dp3283
g50
(lp3284
(lp3285
S'ENSG00000138074'
p3286
aFinf
ag54
(g56
S'\xbf\xcb\xfd\xa3\xb9Q\x81?'
tRp3287
ag54
(g56
S'\x80\x8b.\xa45I\xa5?'
tRp3288
aa(lp3289
S'ENSG00000159289'
p3290
aFinf
ag54
(g56
S'\xbf\xcb\xfd\xa3\xb9Q\x81?'
tRp3291
ag54
(g56
S'\x80\x8b.\xa45I\xa5?'
tRp3292
aasg4
g5
((lp3293
S'ENSG00000185482'
p3294
aS'ENSG00000244607'
p3295
aS'ENSG00000115750'
p3296
aS'ENSG00000146858'
p3297
aS'ENSG00000083799'
p3298
aS'ENSG00000083444'
p3299
aS'ENSG00000131100'
p3300
aS'ENSG00000183527'
p3301
aS'ENSG00000121577'
p3302
aS'ENSG00000172046'
p3303
aS'ENSG00000074319'
p3304
aS'ENSG00000168356'
p3305
aS'ENSG00000116991'
p3306
aS'ENSG00000117614'
p3307
aS'ENSG00000146833'
p3308
atRp3309
ssS'pink4'
p3310
(dp3311
g50
(lp3312
(lp3313
S'ENSG00000197272'
p3314
aFinf
ag54
(g56
S'\xb6\xcb\xfd\xa3\xb9Qq?'
tRp3315
ag54
(g56
S'\x80\xcb\xfd\xa3\xb9Qq?'
tRp3316
aasg4
g5
((lp3317
S'ENSG00000185684'
p3318
aS'ENSG00000029639'
p3319
aS'ENSG00000171604'
p3320
aS'ENSG00000187624'
p3321
aS'ENSG00000128891'
p3322
aS'ENSG00000206535'
p3323
aS'ENSG00000130348'
p3324
aS'ENSG00000166685'
p3325
aS'ENSG00000150401'
p3326
aS'ENSG00000222014'
p3327
aS'ENSG00000188234'
p3328
aS'ENSG00000100068'
p3329
aS'ENSG00000089737'
p3330
aS'ENSG00000132600'
p3331
aS'ENSG00000167646'
p3332
atRp3333
ssS'darkolivegreen4'
p3334
(dp3335
g50
(lp3336
(lp3337
S'ENSG00000234899'
p3338
aFinf
ag54
(g56
S'\xad\xcb\xfd\xa3\xb9Qa?'
tRp3339
ag54
(g56
S'\xa0\x04\xd9\xd8\xb9q\x95?'
tRp3340
aa(lp3341
S'ENSG00000165238'
p3342
aFinf
ag54
(g56
S'\xad\xcb\xfd\xa3\xb9Qa?'
tRp3343
ag54
(g56
S'\xa0\x04\xd9\xd8\xb9q\x95?'
tRp3344
aa(lp3345
S'ENSG00000154783'
p3346
aFinf
ag54
(g56
S'\xad\xcb\xfd\xa3\xb9Qa?'
tRp3347
ag54
(g56
S'\xa0\x04\xd9\xd8\xb9q\x95?'
tRp3348
aa(lp3349
S'ENSG00000110799'
p3350
aFinf
ag54
(g56
S'\xad\xcb\xfd\xa3\xb9Qa?'
tRp3351
ag54
(g56
S'\xa0\x04\xd9\xd8\xb9q\x95?'
tRp3352
aa(lp3353
S'ENSG00000135063'
p3354
aFinf
ag54
(g56
S'\xad\xcb\xfd\xa3\xb9Qa?'
tRp3355
ag54
(g56
S'\xa0\x04\xd9\xd8\xb9q\x95?'
tRp3356
aa(lp3357
S'ENSG00000176435'
p3358
aFinf
ag54
(g56
S'\xf6\xce\xfd\xa3\xb9Qq?'
tRp3359
ag54
(g56
S'\x00OEo|w\x95?'
tRp3360
aa(lp3361
S'ENSG00000249751'
p3362
aFinf
ag54
(g56
S'\x94\xac\xfcu\x96\xfay?'
tRp3363
ag54
(g56
S'\x00OEo|w\x95?'
tRp3364
aa(lp3365
S'ENSG00000142910'
p3366
aFinf
ag54
(g56
S'\xf6\xce\xfd\xa3\xb9Qq?'
tRp3367
ag54
(g56
S'\x00OEo|w\x95?'
tRp3368
aa(lp3369
g2484
aFinf
ag54
(g56
S'\x9a\xb1\xfcu\x96\xfa\x89?'
tRp3370
ag54
(g56
S'\xe0\x8d(\x0bh\xd0\x99?'
tRp3371
aasg4
g5
((lp3372
S'ENSG00000132386'
p3373
aS'ENSG00000169246'
p3374
aS'ENSG00000003756'
p3375
aS'ENSG00000162714'
p3376
aS'ENSG00000142609'
p3377
aS'ENSG00000178821'
p3378
aS'ENSG00000164488'
p3379
aS'ENSG00000146147'
p3380
aS'ENSG00000119723'
p3381
aS'ENSG00000070601'
p3382
aS'ENSG00000160202'
p3383
aS'ENSG00000260300'
p3384
aS'ENSG00000166035'
p3385
aS'ENSG00000166394'
p3386
aS'ENSG00000100599'
p3387
aS'ENSG00000071794'
p3388
aS'ENSG00000133398'
p3389
atRp3390
ssS'darkseagreen4'
p3391
(dp3392
g50
(lp3393
(lp3394
S'ENSG00000135919'
p3395
aFinf
ag54
(g56
S'\xb6\xcb\xfd\xa3\xb9Qq?'
tRp3396
ag54
(g56
S'\xc0JEo|w\x95?'
tRp3397
aa(lp3398
g2060
ag54
(g56
S'\x00\x00\x00\x00\x00`}@'
tRp3399
ag54
(g56
S'i\x15BF\x07M\x81?'
tRp3400
ag54
(g56
S'\xf0\x93\xb3\x9d8\x15\xa1?'
tRp3401
aasg4
g5
((lp3402
S'ENSG00000120696'
p3403
aS'ENSG00000079999'
p3404
aS'ENSG00000197043'
p3405
aS'ENSG00000198794'
p3406
aS'ENSG00000185627'
p3407
aS'ENSG00000167554'
p3408
aS'ENSG00000258839'
p3409
aS'ENSG00000013275'
p3410
aS'ENSG00000169976'
p3411
aS'ENSG00000175390'
p3412
aS'ENSG00000134215'
p3413
aS'ENSG00000165916'
p3414
aS'ENSG00000159352'
p3415
aS'ENSG00000103550'
p3416
aS'ENSG00000172346'
p3417
aS'ENSG00000044459'
p3418
aS'ENSG00000149182'
p3419
aS'ENSG00000151553'
p3420
atRp3421
ssS'darkseagreen3'
p3422
(dp3423
g50
(lp3424
(lp3425
S'ENSG00000152672'
p3426
aFinf
ag54
(g56
S'\xa7\xb1\xfcu\x96\xfay?'
tRp3427
ag54
(g56
S'\x00I\x1a7\x95\xbb\x99?'
tRp3428
aa(lp3429
S'ENSG00000134242'
p3430
ag54
(g56
S'\x00\x00\x00\x00\x00Pm@'
tRp3431
ag54
(g56
S'\x9e\xbe\xc9\\\x7f\xec\x89?'
tRp3432
ag54
(g56
S'\xc0[\xff\x82\xa22\xa3?'
tRp3433
aa(lp3434
S'ENSG00000128340'
p3435
ag54
(g56
S'\x00\x00\x00\x00\x00Pm@'
tRp3436
ag54
(g56
S'\x9e\xbe\xc9\\\x7f\xec\x89?'
tRp3437
ag54
(g56
S'\xc0[\xff\x82\xa22\xa3?'
tRp3438
aa(lp3439
S'ENSG00000168421'
p3440
ag54
(g56
S'\x00\x00\x00\x00\x00Pm@'
tRp3441
ag54
(g56
S'\x9e\xbe\xc9\\\x7f\xec\x89?'
tRp3442
ag54
(g56
S'\xc0[\xff\x82\xa22\xa3?'
tRp3443
aasg4
g5
((lp3444
S'ENSG00000204403'
p3445
aS'ENSG00000014164'
p3446
aS'ENSG00000169894'
p3447
aS'ENSG00000073008'
p3448
aS'ENSG00000087085'
p3449
aS'ENSG00000258643'
p3450
aS'ENSG00000184206'
p3451
aS'ENSG00000166130'
p3452
aS'ENSG00000076067'
p3453
aS'ENSG00000139921'
p3454
aS'ENSG00000242616'
p3455
aS'ENSG00000115232'
p3456
aS'ENSG00000164061'
p3457
aS'ENSG00000091409'
p3458
aS'ENSG00000171097'
p3459
atRp3460
ssS'darkseagreen2'
p3461
(dp3462
g50
(lp3463
(lp3464
S'ENSG00000167614'
p3465
ag54
(g56
S'\xcd\xcc\xcc\xcc\xcc\\a@'
tRp3466
ag54
(g56
S'\xb30\x81\xcb}|\x00?'
tRp3467
ag54
(g56
S'\x00\x80z\xc8)\xd9,?'
tRp3468
aasg4
g5
((lp3469
S'ENSG00000161091'
p3470
aS'ENSG00000131095'
p3471
aS'ENSG00000120539'
p3472
aS'ENSG00000198042'
p3473
aS'ENSG00000150967'
p3474
aS'ENSG00000087250'
p3475
aS'ENSG00000180998'
p3476
aS'ENSG00000066230'
p3477
aS'ENSG00000131771'
p3478
aS'ENSG00000251369'
p3479
aS'ENSG00000092051'
p3480
atRp3481
ssS'lightyellow'
p3482
(dp3483
g4
g5
((lp3484
S'ENSG00000132305'
p3485
aS'ENSG00000174243'
p3486
aS'ENSG00000013374'
p3487
aS'ENSG00000104375'
p3488
aS'ENSG00000164818'
p3489
aS'ENSG00000147905'
p3490
aS'ENSG00000061676'
p3491
aS'ENSG00000110768'
p3492
aS'ENSG00000121871'
p3493
aS'ENSG00000103544'
p3494
aS'ENSG00000256436'
p3495
aS'ENSG00000088320'
p3496
aS'ENSG00000163864'
p3497
aS'ENSG00000135951'
p3498
aS'ENSG00000171121'
p3499
aS'ENSG00000135931'
p3500
aS'ENSG00000176945'
p3501
aS'ENSG00000174231'
p3502
aS'ENSG00000148498'
p3503
aS'ENSG00000060069'
p3504
aS'ENSG00000167986'
p3505
aS'ENSG00000171722'
p3506
aS'ENSG00000084676'
p3507
aS'ENSG00000198732'
p3508
aS'ENSG00000142606'
p3509
aS'ENSG00000136147'
p3510
atRp3511
ssS'salmon1'
p3512
(dp3513
g50
(lp3514
(lp3515
S'ENSG00000126878'
p3516
ag54
(g56
S'\x00\x00\x00\x00\x00`}@'
tRp3517
ag54
(g56
S'i\x15BF\x07M\x81?'
tRp3518
ag54
(g56
S'\xf0\x93\xb3\x9d8\x15\xa1?'
tRp3519
aasg4
g5
((lp3520
S'ENSG00000186529'
p3521
aS'ENSG00000198060'
p3522
aS'ENSG00000183291'
p3523
aS'ENSG00000065413'
p3524
aS'ENSG00000038210'
p3525
aS'ENSG00000198805'
p3526
aS'ENSG00000135297'
p3527
aS'ENSG00000162852'
p3528
aS'ENSG00000197696'
p3529
aS'ENSG00000135324'
p3530
aS'ENSG00000213639'
p3531
aS'ENSG00000170185'
p3532
aS'ENSG00000167103'
p3533
atRp3534
ssS'salmon2'
p3535
(dp3536
g50
(lp3537
(lp3538
S'ENSG00000143434'
p3539
aFinf
ag54
(g56
S'\xb6\xcb\xfd\xa3\xb9Qq?'
tRp3540
ag54
(g56
S'@\xd2\x9f\xf7\xae5\x91?'
tRp3541
aa(lp3542
S'ENSG00000110169'
p3543
ag54
(g56
S'\x00\x00\x00\x00\x00`}@'
tRp3544
ag54
(g56
S'i\x15BF\x07M\x81?'
tRp3545
ag54
(g56
S'@q\x8a\xf7\x93\xbb\x99?'
tRp3546
aa(lp3547
S'ENSG00000123838'
p3548
ag54
(g56
S'\x00\x00\x00\x00\x00`}@'
tRp3549
ag54
(g56
S'i\x15BF\x07M\x81?'
tRp3550
ag54
(g56
S'@q\x8a\xf7\x93\xbb\x99?'
tRp3551
aa(lp3552
S'ENSG00000091583'
p3553
ag54
(g56
S'\x00\x00\x00\x00\x00`S@'
tRp3554
ag54
(g56
S'w\xc1\xc9\x06\xb4\x1d\x9e?'
tRp3555
ag54
(g56
S'\x80\xc1\xc9\x06\xb4\x1d\x9e?'
tRp3556
aasg4
g5
((lp3557
S'ENSG00000182676'
p3558
aS'ENSG00000188086'
p3559
aS'ENSG00000038002'
p3560
aS'ENSG00000168566'
p3561
aS'ENSG00000178105'
p3562
aS'ENSG00000104290'
p3563
aS'ENSG00000174915'
p3564
aS'ENSG00000132964'
p3565
aS'ENSG00000170242'
p3566
aS'ENSG00000187555'
p3567
aS'ENSG00000164334'
p3568
aS'ENSG00000148357'
p3569
aS'ENSG00000101266'
p3570
aS'ENSG00000100865'
p3571
aS'ENSG00000166024'
p3572
aS'ENSG00000151461'
p3573
atRp3574
ssS'salmon4'
p3575
(dp3576
g50
(lp3577
(lp3578
S'ENSG00000175707'
p3579
ag54
(g56
S'\x00\x00\x00\x00\x00Pm@'
tRp3580
ag54
(g56
S'\x9e\xbe\xc9\\\x7f\xec\x89?'
tRp3581
ag54
(g56
S'\x805\x17\xa4\xcfh\xa9?'
tRp3582
aa(lp3583
S'ENSG00000113600'
p3584
aFinf
ag54
(g56
S'\xa7\xb1\xfcu\x96\xfay?'
tRp3585
ag54
(g56
S'\x805\x17\xa4\xcfh\xa9?'
tRp3586
aa(lp3587
S'ENSG00000134365'
p3588
aFinf
ag54
(g56
S'\xa7\xb1\xfcu\x96\xfay?'
tRp3589
ag54
(g56
S'\x805\x17\xa4\xcfh\xa9?'
tRp3590
aa(lp3591
S'ENSG00000145321'
p3592
ag54
(g56
S'\x00\x00\x00\x00\x00Pm@'
tRp3593
ag54
(g56
S'\x9e\xbe\xc9\\\x7f\xec\x89?'
tRp3594
ag54
(g56
S'\x805\x17\xa4\xcfh\xa9?'
tRp3595
aa(lp3596
S'ENSG00000189334'
p3597
aFinf
ag54
(g56
S'\xa7\xb1\xfcu\x96\xfay?'
tRp3598
ag54
(g56
S'\x805\x17\xa4\xcfh\xa9?'
tRp3599
aa(lp3600
S'ENSG00000132703'
p3601
aFinf
ag54
(g56
S'\xa7\xb1\xfcu\x96\xfay?'
tRp3602
ag54
(g56
S'\x805\x17\xa4\xcfh\xa9?'
tRp3603
aa(lp3604
g3553
ag54
(g56
S'UUUUUUC@'
tRp3605
ag54
(g56
S'\xb0\xc6\xb8e\x8dq\xa6?'
tRp3606
ag54
(g56
S'\x805\x17\xa4\xcfh\xa9?'
tRp3607
aa(lp3608
S'ENSG00000253313'
p3609
aFinf
ag54
(g56
S'\xa7\xb1\xfcu\x96\xfay?'
tRp3610
ag54
(g56
S'\x805\x17\xa4\xcfh\xa9?'
tRp3611
aasg4
g5
((lp3612
S'ENSG00000196954'
p3613
aS'ENSG00000197124'
p3614
aS'ENSG00000176472'
p3615
aS'ENSG00000198945'
p3616
aS'ENSG00000173011'
p3617
aS'ENSG00000182054'
p3618
aS'ENSG00000198670'
p3619
aS'ENSG00000120915'
p3620
aS'ENSG00000088053'
p3621
aS'ENSG00000117595'
p3622
aS'ENSG00000105755'
p3623
aS'ENSG00000173599'
p3624
aS'ENSG00000241106'
p3625
aS'ENSG00000177951'
p3626
aS'ENSG00000181885'
p3627
aS'ENSG00000104432'
p3628
aS'ENSG00000137699'
p3629
aS'ENSG00000176485'
p3630
aS'ENSG00000167535'
p3631
atRp3632
ssS'green'
p3633
(dp3634
g50
(lp3635
(lp3636
S'ENSG00000110723'
p3637
aFinf
ag54
(g56
S'\xad\xcb\xfd\xa3\xb9Qa?'
tRp3638
ag54
(g56
S'\x80\xa4k\x86\x89\xecy?'
tRp3639
aa(lp3640
S'ENSG00000163293'
p3641
aFinf
ag54
(g56
S'\xad\xcb\xfd\xa3\xb9Qa?'
tRp3642
ag54
(g56
S'\x80\xa4k\x86\x89\xecy?'
tRp3643
aa(lp3644
S'ENSG00000187017'
p3645
aFinf
ag54
(g56
S'\xad\xcb\xfd\xa3\xb9Qa?'
tRp3646
ag54
(g56
S'\x80\xa4k\x86\x89\xecy?'
tRp3647
aasg4
g5
((lp3648
S'ENSG00000103365'
p3649
aS'ENSG00000186399'
p3650
aS'ENSG00000104518'
p3651
aS'ENSG00000168661'
p3652
aS'ENSG00000120008'
p3653
aS'ENSG00000197872'
p3654
aS'ENSG00000063241'
p3655
aS'ENSG00000151914'
p3656
aS'ENSG00000088876'
p3657
aS'ENSG00000134262'
p3658
aS'ENSG00000203778'
p3659
aS'ENSG00000144674'
p3660
aS'ENSG00000119509'
p3661
aS'ENSG00000198040'
p3662
aS'ENSG00000157653'
p3663
aS'ENSG00000102904'
p3664
aS'ENSG00000117748'
p3665
aS'ENSG00000204147'
p3666
aS'ENSG00000130755'
p3667
aS'ENSG00000132199'
p3668
aS'ENSG00000120784'
p3669
aS'ENSG00000104731'
p3670
aS'ENSG00000152348'
p3671
aS'ENSG00000125485'
p3672
aS'ENSG00000184465'
p3673
aS'ENSG00000196151'
p3674
aS'ENSG00000163702'
p3675
aS'ENSG00000089177'
p3676
aS'ENSG00000196387'
p3677
aS'ENSG00000203666'
p3678
aS'ENSG00000168903'
p3679
aS'ENSG00000185522'
p3680
aS'ENSG00000136874'
p3681
aS'ENSG00000153201'
p3682
aS'ENSG00000112079'
p3683
aS'ENSG00000204178'
p3684
aS'ENSG00000162704'
p3685
aS'ENSG00000186448'
p3686
aS'ENSG00000129158'
p3687
atRp3688
ssS'blueviolet'
p3689
(dp3690
g50
(lp3691
(lp3692
S'ENSG00000122194'
p3693
aFinf
ag54
(g56
S'\x9a\xb1\xfcu\x96\xfa\x89?'
tRp3694
ag54
(g56
S'\x80*h\xb5\xef<\xa3?'
tRp3695
aa(lp3696
S'ENSG00000113889'
p3697
aFinf
ag54
(g56
S'\x9a\xb1\xfcu\x96\xfa\x89?'
tRp3698
ag54
(g56
S'\x80*h\xb5\xef<\xa3?'
tRp3699
aasg4
g5
((lp3700
S'ENSG00000266714'
p3701
aS'ENSG00000198270'
p3702
aS'ENSG00000133027'
p3703
aS'ENSG00000244731'
p3704
aS'ENSG00000159173'
p3705
aS'ENSG00000157823'
p3706
aS'ENSG00000161395'
p3707
aS'ENSG00000221946'
p3708
aS'ENSG00000205517'
p3709
aS'ENSG00000161281'
p3710
aS'ENSG00000102924'
p3711
aS'ENSG00000124789'
p3712
aS'ENSG00000139914'
p3713
aS'ENSG00000140107'
p3714
atRp3715
ssS'brown2'
p3716
(dp3717
g50
(lp3718
(lp3719
S'ENSG00000135052'
p3720
aFinf
ag54
(g56
S'\xa7\xb1\xfcu\x96\xfay?'
tRp3721
ag54
(g56
S'\x00I\x1a7\x95\xbb\x99?'
tRp3722
aa(lp3723
S'ENSG00000163393'
p3724
ag54
(g56
S'\x00\x00\x00\x00\x00Pm@'
tRp3725
ag54
(g56
S'\x9e\xbe\xc9\\\x7f\xec\x89?'
tRp3726
ag54
(g56
S'\xc0[\xff\x82\xa22\xa3?'
tRp3727
aa(lp3728
S'ENSG00000170743'
p3729
ag54
(g56
S'UUUUUuS@'
tRp3730
ag54
(g56
S'\xc7f{{`\xd0\x99?'
tRp3731
ag54
(g56
S'\xd0\x02\xda\xec\x14}\xa9?'
tRp3732
aa(lp3733
g1146
ag54
(g56
S'\x00\x00\x00\x00\x00 M@'
tRp3734
ag54
(g56
S'l\x01\x1cpw\x19\xa0?'
tRp3735
ag54
(g56
S'\xd0\x02\xda\xec\x14}\xa9?'
tRp3736
aasg4
g5
((lp3737
S'ENSG00000164695'
p3738
aS'ENSG00000157578'
p3739
aS'ENSG00000153317'
p3740
aS'ENSG00000131019'
p3741
aS'ENSG00000143156'
p3742
aS'ENSG00000227500'
p3743
aS'ENSG00000100908'
p3744
aS'ENSG00000120451'
p3745
aS'ENSG00000132010'
p3746
aS'ENSG00000181541'
p3747
aS'ENSG00000178860'
p3748
aS'ENSG00000118217'
p3749
aS'ENSG00000180917'
p3750
aS'ENSG00000137074'
p3751
aS'ENSG00000197208'
p3752
aS'ENSG00000213057'
p3753
aS'ENSG00000176953'
p3754
atRp3755
ssS'brown4'
p3756
(dp3757
g4
g5
((lp3758
S'ENSG00000139531'
p3759
aS'ENSG00000139835'
p3760
aS'ENSG00000100228'
p3761
aS'ENSG00000165972'
p3762
aS'ENSG00000125430'
p3763
aS'ENSG00000167914'
p3764
aS'ENSG00000205143'
p3765
aS'ENSG00000244405'
p3766
aS'ENSG00000180257'
p3767
aS'ENSG00000121417'
p3768
aS'ENSG00000167766'
p3769
aS'ENSG00000172687'
p3770
aS'ENSG00000196867'
p3771
aS'ENSG00000129347'
p3772
aS'ENSG00000197937'
p3773
aS'ENSG00000119725'
p3774
aS'ENSG00000154760'
p3775
aS'ENSG00000182986'
p3776
aS'ENSG00000176593'
p3777
aS'ENSG00000164051'
p3778
atRp3779
ss.