(dp1
S'tan'
p2
(dp3
S'module_genes'
p4
c__builtin__
set
p5
((lp6
S'ENSG00000176974'
p7
aS'ENSG00000113712'
p8
aS'ENSG00000169826'
p9
aS'ENSG00000176720'
p10
aS'ENSG00000148308'
p11
aS'ENSG00000185808'
p12
aS'ENSG00000240038'
p13
aS'ENSG00000213639'
p14
aS'ENSG00000100441'
p15
aS'ENSG00000172795'
p16
aS'ENSG00000085491'
p17
aS'ENSG00000187733'
p18
aS'ENSG00000196236'
p19
aS'ENSG00000129538'
p20
aS'ENSG00000189362'
p21
aS'ENSG00000153767'
p22
aS'ENSG00000196704'
p23
aS'ENSG00000112303'
p24
aS'ENSG00000143028'
p25
aS'ENSG00000119686'
p26
aS'ENSG00000269404'
p27
aS'ENSG00000203943'
p28
aS'ENSG00000184608'
p29
aS'ENSG00000158825'
p30
aS'ENSG00000143554'
p31
aS'ENSG00000243480'
p32
aS'ENSG00000144231'
p33
aS'ENSG00000174876'
p34
aS'ENSG00000182919'
p35
aS'ENSG00000185730'
p36
atRp37
ssS'mistyrose'
p38
(dp39
g4
g5
((lp40
S'ENSG00000136197'
p41
aS'ENSG00000205835'
p42
aS'ENSG00000170638'
p43
aS'ENSG00000017427'
p44
aS'ENSG00000110435'
p45
aS'ENSG00000198805'
p46
aS'ENSG00000073169'
p47
aS'ENSG00000144895'
p48
aS'ENSG00000104332'
p49
aS'ENSG00000146477'
p50
aS'ENSG00000102802'
p51
aS'ENSG00000165458'
p52
aS'ENSG00000128829'
p53
aS'ENSG00000144362'
p54
aS'ENSG00000099337'
p55
aS'ENSG00000188257'
p56
atRp57
ssS'orange4'
p58
(dp59
g4
g5
((lp60
S'ENSG00000116833'
p61
aS'ENSG00000122068'
p62
aS'ENSG00000165548'
p63
aS'ENSG00000197568'
p64
aS'ENSG00000185585'
p65
aS'ENSG00000143641'
p66
aS'ENSG00000130300'
p67
aS'ENSG00000170390'
p68
aS'ENSG00000226124'
p69
aS'ENSG00000134222'
p70
aS'ENSG00000072682'
p71
aS'ENSG00000186862'
p72
aS'ENSG00000138658'
p73
aS'ENSG00000132906'
p74
aS'ENSG00000135164'
p75
atRp76
ssS'firebrick'
p77
(dp78
S'driver_genes'
p79
(lp80
(lp81
S'ENSG00000168907'
p82
aFinf
acnumpy.core.multiarray
scalar
p83
(cnumpy
dtype
p84
(S'f8'
I0
I1
tRp85
(I3
S'<'
NNNI-1
I-1
I0
tbS'\xf4!A\x10\x04Ap?'
tRp86
ag83
(g85
S'\xc0\x000:\xee#\x98?'
tRp87
aasg4
g5
((lp88
S'ENSG00000166896'
p89
aS'ENSG00000055211'
p90
aS'ENSG00000168116'
p91
aS'ENSG00000146094'
p92
aS'ENSG00000196381'
p93
aS'ENSG00000179477'
p94
aS'ENSG00000105143'
p95
aS'ENSG00000105141'
p96
aS'ENSG00000163239'
p97
aS'ENSG00000179299'
p98
aS'ENSG00000154222'
p99
aS'ENSG00000160994'
p100
aS'ENSG00000114670'
p101
aS'ENSG00000120253'
p102
atRp103
ssS'indianred'
p104
(dp105
g4
g5
((lp106
S'ENSG00000165156'
p107
aS'ENSG00000128159'
p108
aS'ENSG00000026508'
p109
aS'ENSG00000185684'
p110
aS'ENSG00000182240'
p111
aS'ENSG00000140675'
p112
aS'ENSG00000117280'
p113
aS'ENSG00000106278'
p114
aS'ENSG00000133065'
p115
aS'ENSG00000253910'
p116
aS'ENSG00000183844'
p117
aS'ENSG00000124160'
p118
aS'ENSG00000161326'
p119
atRp120
ssS'orange1'
p121
(dp122
g4
g5
((lp123
S'ENSG00000158008'
p124
aS'ENSG00000121716'
p125
aS'ENSG00000178773'
p126
aS'ENSG00000160305'
p127
aS'ENSG00000158270'
p128
aS'ENSG00000158516'
p129
aS'ENSG00000165392'
p130
aS'ENSG00000079257'
p131
aS'ENSG00000085514'
p132
aS'ENSG00000204540'
p133
atRp134
ssS'orange3'
p135
(dp136
g79
(lp137
(lp138
S'ENSG00000117091'
p139
ag83
(g85
S'\x00\x00\x00\x00\x00`w@'
tRp140
ag83
(g85
S'8\xa1\xf4\x05\x1b@\xc7>'
tRp141
ag83
(g85
S'\x00\x008^\x01\xe4\x02?'
tRp142
aa(lp143
S'ENSG00000186517'
p144
ag83
(g85
S'\x00\x00\x00\x00\x00\xa0b@'
tRp145
ag83
(g85
S'\x14X\xa3\xe7#!\xf0>'
tRp146
ag83
(g85
S'\x00@1\xb8/1(?'
tRp147
aa(lp148
S'ENSG00000213654'
p149
ag83
(g85
S'\x00\x00\x00\x00\x00\xa0b@'
tRp150
ag83
(g85
S'\x14X\xa3\xe7#!\xf0>'
tRp151
ag83
(g85
S'\x00@1\xb8/1(?'
tRp152
aa(lp153
S'ENSG00000136286'
p154
aFinf
ag83
(g85
S'_Sn\x00p\x8e\x0b?'
tRp155
ag83
(g85
S'\x00\xe8\xe5\x13\xfb7A?'
tRp156
aa(lp157
S'ENSG00000180644'
p158
aFinf
ag83
(g85
S'_Sn\x00p\x8e\x0b?'
tRp159
ag83
(g85
S'\x00\xe8\xe5\x13\xfb7A?'
tRp160
aa(lp161
S'ENSG00000136167'
p162
ag83
(g85
S'\x92$I\x92$\xc99@'
tRp163
ag83
(g85
S'|\xd6\xc5U\x9a\xddR?'
tRp164
ag83
(g85
S'\xc0\x16\xb7\x05/\xca\x82?'
tRp165
aasg4
g5
((lp166
S'ENSG00000244734'
p167
aS'ENSG00000105369'
p168
aS'ENSG00000154451'
p169
aS'ENSG00000138376'
p170
aS'ENSG00000154124'
p171
aS'ENSG00000124641'
p172
aS'ENSG00000100450'
p173
aS'ENSG00000152253'
p174
aS'ENSG00000150401'
p175
aS'ENSG00000205045'
p176
aS'ENSG00000105374'
p177
aS'ENSG00000232629'
p178
aS'ENSG00000127152'
p179
atRp180
ssS'orange2'
p181
(dp182
g79
(lp183
(lp184
S'ENSG00000162374'
p185
ag83
(g85
S'\xdb\xb6m\xdb\xb6\xadZ@'
tRp186
ag83
(g85
S'~\xac\xbcFM\x92\x95?'
tRp187
ag83
(g85
S'\xa0\xcd\x81\xbd"X\xa5?'
tRp188
aasg4
g5
((lp189
S'ENSG00000186230'
p190
aS'ENSG00000108370'
p191
aS'ENSG00000086619'
p192
aS'ENSG00000142089'
p193
aS'ENSG00000163807'
p194
aS'ENSG00000165280'
p195
aS'ENSG00000256087'
p196
aS'ENSG00000162695'
p197
aS'ENSG00000181626'
p198
aS'ENSG00000091136'
p199
aS'ENSG00000128534'
p200
aS'ENSG00000142556'
p201
atRp202
ssS'darkolivegreen'
p203
(dp204
g79
(lp205
(lp206
S'ENSG00000160868'
p207
ag83
(g85
S'\x00\x00\x00\x00\x00xg@'
tRp208
ag83
(g85
S'g\xed\xceM\xffP\x88?'
tRp209
ag83
(g85
S"\xc0W\xdd\x8e\xfb'\x98?"
tRp210
aa(lp211
S'ENSG00000244067'
p212
ag83
(g85
S'\x00\x00\x00\x00\x00\x80w@'
tRp213
ag83
(g85
S'E\xbf\r-\x81;\x80?'
tRp214
ag83
(g85
S"\xc0W\xdd\x8e\xfb'\x98?"
tRp215
aa(lp216
S'ENSG00000106258'
p217
ag83
(g85
S'\x00\x00\x00\x00\x00\x80w@'
tRp218
ag83
(g85
S'E\xbf\r-\x81;\x80?'
tRp219
ag83
(g85
S"\xc0W\xdd\x8e\xfb'\x98?"
tRp220
aasg4
g5
((lp221
S'ENSG00000104881'
p222
aS'ENSG00000165943'
p223
aS'ENSG00000070019'
p224
aS'ENSG00000139192'
p225
aS'ENSG00000102531'
p226
aS'ENSG00000164088'
p227
aS'ENSG00000109180'
p228
aS'ENSG00000159459'
p229
aS'ENSG00000171160'
p230
aS'ENSG00000213171'
p231
aS'ENSG00000244094'
p232
aS'ENSG00000011258'
p233
aS'ENSG00000092108'
p234
aS'ENSG00000163257'
p235
aS'ENSG00000183654'
p236
aS'ENSG00000101189'
p237
aS'ENSG00000188385'
p238
aS'ENSG00000144741'
p239
aS'ENSG00000018699'
p240
aS'ENSG00000183833'
p241
aS'ENSG00000177000'
p242
aS'ENSG00000103202'
p243
aS'ENSG00000163382'
p244
aS'ENSG00000170906'
p245
aS'ENSG00000164855'
p246
atRp247
ssS'grey60'
p248
(dp249
g4
g5
((lp250
S'ENSG00000173852'
p251
aS'ENSG00000100911'
p252
aS'ENSG00000023191'
p253
aS'ENSG00000138346'
p254
aS'ENSG00000128928'
p255
aS'ENSG00000165678'
p256
aS'ENSG00000013288'
p257
aS'ENSG00000144320'
p258
aS'ENSG00000128311'
p259
aS'ENSG00000177239'
p260
aS'ENSG00000105519'
p261
aS'ENSG00000167702'
p262
aS'ENSG00000109956'
p263
aS'ENSG00000185158'
p264
aS'ENSG00000060762'
p265
aS'ENSG00000108439'
p266
aS'ENSG00000177200'
p267
aS'ENSG00000214274'
p268
aS'ENSG00000213995'
p269
aS'ENSG00000139515'
p270
aS'ENSG00000188833'
p271
aS'ENSG00000134278'
p272
aS'ENSG00000152061'
p273
aS'ENSG00000163913'
p274
aS'ENSG00000076662'
p275
aS'ENSG00000122574'
p276
aS'ENSG00000173621'
p277
aS'ENSG00000159110'
p278
atRp279
ssS'darkseagreen'
p280
(dp281
g4
g5
((lp282
S'ENSG00000168938'
p283
aS'ENSG00000169330'
p284
aS'ENSG00000182938'
p285
aS'ENSG00000186510'
p286
aS'ENSG00000065833'
p287
aS'ENSG00000142794'
p288
aS'ENSG00000115423'
p289
aS'ENSG00000163331'
p290
aS'ENSG00000169282'
p291
aS'ENSG00000113231'
p292
aS'ENSG00000104899'
p293
aS'ENSG00000182379'
p294
aS'ENSG00000181751'
p295
aS'ENSG00000106415'
p296
atRp297
ssS'mediumorchid4'
p298
(dp299
g4
g5
((lp300
S'ENSG00000223572'
p301
aS'ENSG00000237289'
p302
aS'ENSG00000168096'
p303
aS'ENSG00000117425'
p304
aS'ENSG00000204681'
p305
aS'ENSG00000243566'
p306
aS'ENSG00000174564'
p307
aS'ENSG00000100612'
p308
aS'ENSG00000131037'
p309
aS'ENSG00000127952'
p310
aS'ENSG00000004866'
p311
aS'ENSG00000112139'
p312
aS'ENSG00000100968'
p313
aS'ENSG00000126458'
p314
aS'ENSG00000171291'
p315
atRp316
ssS'pink2'
p317
(dp318
g4
g5
((lp319
S'ENSG00000179698'
p320
aS'ENSG00000114654'
p321
aS'ENSG00000157315'
p322
aS'ENSG00000103056'
p323
aS'ENSG00000174628'
p324
aS'ENSG00000100284'
p325
aS'ENSG00000215788'
p326
aS'ENSG00000221946'
p327
aS'ENSG00000124357'
p328
aS'ENSG00000170891'
p329
aS'ENSG00000163751'
p330
aS'ENSG00000268657'
p331
aS'ENSG00000120519'
p332
aS'ENSG00000174059'
p333
aS'ENSG00000163106'
p334
atRp335
ssS'green4'
p336
(dp337
g79
(lp338
(lp339
S'ENSG00000205744'
p340
ag83
(g85
S'\x00\x00\x00\x00\x00hW@'
tRp341
ag83
(g85
S'\xd2\xebt\xff\xbf5\x94?'
tRp342
ag83
(g85
S'\x90\xaaU\xd6\xb1\x02\xa4?'
tRp343
aa(lp344
S'ENSG00000111679'
p345
ag83
(g85
S'\xab\xaa\xaa\xaa\xaa\xaaD@'
tRp346
ag83
(g85
S'\x94e(\xbb|\x13\xa4?'
tRp347
ag83
(g85
S'\x90e(\xbb|\x13\xa4?'
tRp348
aasg4
g5
((lp349
S'ENSG00000180777'
p350
aS'ENSG00000042493'
p351
aS'ENSG00000111254'
p352
aS'ENSG00000124831'
p353
aS'ENSG00000167757'
p354
aS'ENSG00000165025'
p355
aS'ENSG00000080345'
p356
aS'ENSG00000167759'
p357
aS'ENSG00000136279'
p358
aS'ENSG00000185823'
p359
aS'ENSG00000108984'
p360
aS'ENSG00000135047'
p361
aS'ENSG00000102575'
p362
aS'ENSG00000198865'
p363
aS'ENSG00000163482'
p364
aS'ENSG00000157349'
p365
atRp366
ssS'green1'
p367
(dp368
g79
(lp369
(lp370
S'ENSG00000131042'
p371
aFinf
ag83
(g85
S'\x88\x82\x01k\x05\xace?'
tRp372
ag83
(g85
S'0\xc9\x1b\xa3\xe7T\xa1?'
tRp373
aa(lp374
S'ENSG00000119535'
p375
aFinf
ag83
(g85
S'\x88\x82\x01k\x05\xace?'
tRp376
ag83
(g85
S'0\xc9\x1b\xa3\xe7T\xa1?'
tRp377
aasg4
g5
((lp378
S'ENSG00000116299'
p379
aS'ENSG00000198099'
p380
aS'ENSG00000100288'
p381
aS'ENSG00000223510'
p382
aS'ENSG00000186952'
p383
aS'ENSG00000104728'
p384
aS'ENSG00000197128'
p385
aS'ENSG00000180509'
p386
aS'ENSG00000091513'
p387
aS'ENSG00000125375'
p388
aS'ENSG00000100097'
p389
aS'ENSG00000219435'
p390
atRp391
ssS'green3'
p392
(dp393
g4
g5
((lp394
S'ENSG00000168958'
p395
aS'ENSG00000007171'
p396
aS'ENSG00000175567'
p397
aS'ENSG00000107020'
p398
aS'ENSG00000198848'
p399
aS'ENSG00000171497'
p400
aS'ENSG00000082146'
p401
aS'ENSG00000182871'
p402
aS'ENSG00000115541'
p403
aS'ENSG00000184117'
p404
aS'ENSG00000127920'
p405
aS'ENSG00000115561'
p406
aS'ENSG00000079246'
p407
aS'ENSG00000110871'
p408
aS'ENSG00000112130'
p409
atRp410
ssS'green2'
p411
(dp412
g4
g5
((lp413
S'ENSG00000180953'
p414
aS'ENSG00000176842'
p415
aS'ENSG00000213901'
p416
aS'ENSG00000159720'
p417
aS'ENSG00000197927'
p418
aS'ENSG00000177508'
p419
aS'ENSG00000027697'
p420
aS'ENSG00000214087'
p421
aS'ENSG00000100603'
p422
aS'ENSG00000167670'
p423
aS'ENSG00000166165'
p424
aS'ENSG00000158856'
p425
aS'ENSG00000104835'
p426
aS'ENSG00000089737'
p427
atRp428
ssS'darkgoldenrod4'
p429
(dp430
g79
(lp431
(lp432
S'ENSG00000088386'
p433
aFinf
ag83
(g85
S'\xf4!A\x10\x04Ap?'
tRp434
ag83
(g85
S'\x00"A\x10\x04Ap?'
tRp435
aasg4
g5
((lp436
S'ENSG00000133477'
p437
aS'ENSG00000008838'
p438
aS'ENSG00000158457'
p439
aS'ENSG00000105974'
p440
aS'ENSG00000112164'
p441
aS'ENSG00000139144'
p442
aS'ENSG00000013573'
p443
aS'ENSG00000178974'
p444
aS'ENSG00000105672'
p445
aS'ENSG00000205212'
p446
aS'ENSG00000105971'
p447
aS'ENSG00000173566'
p448
aS'ENSG00000073536'
p449
aS'ENSG00000163682'
p450
atRp451
ssS'magenta4'
p452
(dp453
g79
(lp454
(lp455
S'ENSG00000106538'
p456
aFinf
ag83
(g85
S'\x94\x82\x01k\x05\xacu?'
tRp457
ag83
(g85
S'@\xd1*\x07X\x9d\x85?'
tRp458
aa(lp459
S'ENSG00000140297'
p460
ag83
(g85
S'\xcf\xf3<\xcf\xf3\xbcA@'
tRp461
ag83
(g85
S'=\xaa>\x9bE_\xa5?'
tRp462
ag83
(g85
S'@\xaa>\x9bE_\xa5?'
tRp463
aasg4
g5
((lp464
S'ENSG00000110074'
p465
aS'ENSG00000157873'
p466
aS'ENSG00000170367'
p467
aS'ENSG00000107679'
p468
aS'ENSG00000141316'
p469
aS'ENSG00000175344'
p470
aS'ENSG00000189306'
p471
aS'ENSG00000157823'
p472
aS'ENSG00000253719'
p473
aS'ENSG00000012779'
p474
aS'ENSG00000168411'
p475
aS'ENSG00000213523'
p476
aS'ENSG00000100147'
p477
aS'ENSG00000163486'
p478
aS'ENSG00000166664'
p479
aS'ENSG00000105650'
p480
aS'ENSG00000140265'
p481
aS'ENSG00000187908'
p482
aS'ENSG00000133731'
p483
atRp484
ssS'aquamarine1'
p485
(dp486
g4
g5
((lp487
S'ENSG00000147592'
p488
aS'ENSG00000149435'
p489
aS'ENSG00000221947'
p490
aS'ENSG00000158864'
p491
aS'ENSG00000249158'
p492
aS'ENSG00000173452'
p493
aS'ENSG00000198680'
p494
atRp495
ssS'darkgoldenrod1'
p496
(dp497
g79
(lp498
(lp499
S'ENSG00000095970'
p500
ag83
(g85
S'\x00\x00\x00\x00\x00@_@'
tRp501
ag83
(g85
S'[\xb6\xb5$\x7f0\x90?'
tRp502
ag83
(g85
S'`\xb6\xb5$\x7f0\x90?'
tRp503
aasg4
g5
((lp504
S'ENSG00000164045'
p505
aS'ENSG00000104341'
p506
aS'ENSG00000197093'
p507
aS'ENSG00000160188'
p508
aS'ENSG00000164048'
p509
aS'ENSG00000178385'
p510
aS'ENSG00000188573'
p511
aS'ENSG00000138472'
p512
aS'ENSG00000162924'
p513
aS'ENSG00000078814'
p514
aS'ENSG00000125485'
p515
aS'ENSG00000108826'
p516
atRp517
ssS'magenta1'
p518
(dp519
g4
g5
((lp520
S'ENSG00000184232'
p521
aS'ENSG00000039068'
p522
aS'ENSG00000160294'
p523
aS'ENSG00000146039'
p524
aS'ENSG00000106344'
p525
aS'ENSG00000139668'
p526
aS'ENSG00000168899'
p527
aS'ENSG00000101333'
p528
aS'ENSG00000105877'
p529
aS'ENSG00000143321'
p530
aS'ENSG00000138111'
p531
aS'ENSG00000103222'
p532
aS'ENSG00000155465'
p533
aS'ENSG00000140105'
p534
atRp535
ssS'darkgoldenrod3'
p536
(dp537
g79
(lp538
(lp539
S'ENSG00000125735'
p540
aFinf
ag83
(g85
S'\x99\x86\x01k\x05\xace?'
tRp541
ag83
(g85
S'\x80\xedz\xb2\x00\x05\xa0?'
tRp542
aa(lp543
S'ENSG00000133321'
p544
aFinf
ag83
(g85
S'\x99\x86\x01k\x05\xace?'
tRp545
ag83
(g85
S'\x80\xedz\xb2\x00\x05\xa0?'
tRp546
aasg4
g5
((lp547
S'ENSG00000196352'
p548
aS'ENSG00000110628'
p549
aS'ENSG00000198824'
p550
aS'ENSG00000083937'
p551
aS'ENSG00000136932'
p552
aS'ENSG00000130943'
p553
aS'ENSG00000166920'
p554
aS'ENSG00000164068'
p555
aS'ENSG00000156239'
p556
aS'ENSG00000205352'
p557
aS'ENSG00000066651'
p558
aS'ENSG00000132356'
p559
aS'ENSG00000153815'
p560
atRp561
ssS'skyblue3'
p562
(dp563
g4
g5
((lp564
S'ENSG00000174226'
p565
aS'ENSG00000197958'
p566
aS'ENSG00000011590'
p567
aS'ENSG00000111640'
p568
aS'ENSG00000064687'
p569
aS'ENSG00000217702'
p570
aS'ENSG00000097046'
p571
aS'ENSG00000175920'
p572
aS'ENSG00000173369'
p573
aS'ENSG00000146243'
p574
aS'ENSG00000107614'
p575
aS'ENSG00000132842'
p576
aS'ENSG00000180979'
p577
aS'ENSG00000130203'
p578
aS'ENSG00000169972'
p579
aS'ENSG00000130208'
p580
aS'ENSG00000170889'
p581
aS'ENSG00000177994'
p582
aS'ENSG00000239704'
p583
aS'ENSG00000140416'
p584
aS'ENSG00000169313'
p585
aS'ENSG00000213782'
p586
aS'ENSG00000136379'
p587
atRp588
ssS'black'
p589
(dp590
g4
g5
((lp591
S'ENSG00000104884'
p592
aS'ENSG00000108846'
p593
aS'ENSG00000171469'
p594
aS'ENSG00000198231'
p595
aS'ENSG00000137561'
p596
aS'ENSG00000205517'
p597
aS'ENSG00000141971'
p598
aS'ENSG00000111665'
p599
aS'ENSG00000111664'
p600
aS'ENSG00000133195'
p601
aS'ENSG00000120586'
p602
aS'ENSG00000175928'
p603
aS'ENSG00000171596'
p604
aS'ENSG00000090530'
p605
aS'ENSG00000180329'
p606
aS'ENSG00000122674'
p607
aS'ENSG00000111696'
p608
aS'ENSG00000117600'
p609
aS'ENSG00000130714'
p610
aS'ENSG00000248098'
p611
aS'ENSG00000134716'
p612
aS'ENSG00000138119'
p613
aS'ENSG00000164118'
p614
aS'ENSG00000141258'
p615
aS'ENSG00000152433'
p616
aS'ENSG00000164251'
p617
aS'ENSG00000125848'
p618
aS'ENSG00000254521'
p619
aS'ENSG00000075275'
p620
aS'ENSG00000138756'
p621
aS'ENSG00000112282'
p622
aS'ENSG00000221829'
p623
atRp624
ssS'mediumorchid3'
p625
(dp626
g79
(lp627
(lp628
S'ENSG00000185507'
p629
aFinf
ag83
(g85
S'\xf4!A\x10\x04Ap?'
tRp630
ag83
(g85
S'\xa0\x1d\xa1-\xae\x07\xa0?'
tRp631
aa(lp632
S'ENSG00000023445'
p633
aFinf
ag83
(g85
S'\xf4!A\x10\x04Ap?'
tRp634
ag83
(g85
S'\xa0\x1d\xa1-\xae\x07\xa0?'
tRp635
aasg4
g5
((lp636
S'ENSG00000124214'
p637
aS'ENSG00000213928'
p638
aS'ENSG00000105499'
p639
aS'ENSG00000205464'
p640
aS'ENSG00000141013'
p641
aS'ENSG00000104856'
p642
aS'ENSG00000152348'
p643
aS'ENSG00000152904'
p644
aS'ENSG00000231925'
p645
aS'ENSG00000221819'
p646
aS'ENSG00000240065'
p647
aS'ENSG00000168394'
p648
aS'ENSG00000173480'
p649
atRp650
ssS'yellow2'
p651
(dp652
g79
(lp653
(lp654
S'ENSG00000066336'
p655
ag83
(g85
S'\x8a\x9d\xd8\x89\x9dXL@'
tRp656
ag83
(g85
S'v2\xb3\xaeo\xae#?'
tRp657
ag83
(g85
S'\x00\x83$\xd6T4a?'
tRp658
aa(lp659
S'ENSG00000011600'
p660
ag83
(g85
S'\x00\x00\x00\x00\x00\x80H@'
tRp661
ag83
(g85
S'\xd7O\x89\xf2e\x81,?'
tRp662
ag83
(g85
S'\x00^\xe1\xcag!g?'
tRp663
aa(lp664
S'ENSG00000167613'
p665
ag83
(g85
S'\x00\x00\x00\x00\x00\xf0F@'
tRp666
ag83
(g85
S'&FZ\xde\xb6\xdf0?'
tRp667
ag83
(g85
S'\x00\x9b\xdfOgFi?'
tRp668
aa(lp669
S'ENSG00000137841'
p670
ag83
(g85
S'\x00\x00\x00\x00\x00\xf0F@'
tRp671
ag83
(g85
S'&FZ\xde\xb6\xdf0?'
tRp672
ag83
(g85
S'\x00\x9b\xdfOgFi?'
tRp673
aa(lp674
S'ENSG00000110077'
p675
ag83
(g85
S'UUUUUUD@'
tRp676
ag83
(g85
S'\xfa\xe0\x8d\xc8!\x057?'
tRp677
ag83
(g85
S'\x00\xf0\x8d4\xc8\xbal?'
tRp678
aasg4
g5
((lp679
S'ENSG00000185105'
p680
aS'ENSG00000244187'
p681
aS'ENSG00000183617'
p682
aS'ENSG00000196355'
p683
aS'ENSG00000183628'
p684
aS'ENSG00000204482'
p685
aS'ENSG00000184925'
p686
aS'ENSG00000116701'
p687
aS'ENSG00000142546'
p688
aS'ENSG00000139990'
p689
aS'ENSG00000142347'
p690
aS'ENSG00000256771'
p691
aS'ENSG00000123329'
p692
aS'ENSG00000166002'
p693
aS'ENSG00000166140'
p694
aS'ENSG00000250120'
p695
atRp696
ssS'orange'
p697
(dp698
g79
(lp699
(lp700
S'ENSG00000171596'
p701
aFinf
ag83
(g85
S'\xf4!A\x10\x04Ap?'
tRp702
ag83
(g85
S'\xe0\xd25\xde\x85\xff\xa1?'
tRp703
aasg4
g5
((lp704
S'ENSG00000167693'
p705
aS'ENSG00000117139'
p706
aS'ENSG00000144476'
p707
aS'ENSG00000118579'
p708
aS'ENSG00000118557'
p709
aS'ENSG00000108509'
p710
aS'ENSG00000047410'
p711
aS'ENSG00000173482'
p712
aS'ENSG00000081791'
p713
aS'ENSG00000186812'
p714
aS'ENSG00000133808'
p715
aS'ENSG00000254531'
p716
aS'ENSG00000157322'
p717
aS'ENSG00000088888'
p718
aS'ENSG00000117122'
p719
aS'ENSG00000185608'
p720
aS'ENSG00000172197'
p721
aS'ENSG00000104081'
p722
aS'ENSG00000107036'
p723
aS'ENSG00000223496'
p724
aS'ENSG00000143367'
p725
aS'ENSG00000162817'
p726
aS'ENSG00000174749'
p727
aS'ENSG00000102837'
p728
aS'ENSG00000157884'
p729
aS'ENSG00000130413'
p730
atRp731
ssS'mediumorchid2'
p732
(dp733
g79
(lp734
(lp735
S'ENSG00000136999'
p736
aFinf
ag83
(g85
S'2\xe3\xc1\xc5\x06\x17{?'
tRp737
ag83
(g85
S'\x10r\xff\xado\xb5\xa0?'
tRp738
aa(lp739
S'ENSG00000185532'
p740
aFinf
ag83
(g85
S'2\xe3\xc1\xc5\x06\x17{?'
tRp741
ag83
(g85
S'\x10r\xff\xado\xb5\xa0?'
tRp742
aasg4
g5
((lp743
S'ENSG00000155393'
p744
aS'ENSG00000104714'
p745
aS'ENSG00000119943'
p746
aS'ENSG00000146250'
p747
aS'ENSG00000175229'
p748
aS'ENSG00000196376'
p749
aS'ENSG00000107833'
p750
aS'ENSG00000137285'
p751
aS'ENSG00000237541'
p752
aS'ENSG00000121350'
p753
aS'ENSG00000146700'
p754
aS'ENSG00000101311'
p755
atRp756
ssS'brown'
p757
(dp758
g4
g5
((lp759
S'ENSG00000198130'
p760
aS'ENSG00000256162'
p761
aS'ENSG00000170584'
p762
aS'ENSG00000112249'
p763
aS'ENSG00000144843'
p764
aS'ENSG00000135297'
p765
aS'ENSG00000014641'
p766
aS'ENSG00000165983'
p767
aS'ENSG00000108771'
p768
aS'ENSG00000048392'
p769
aS'ENSG00000103723'
p770
aS'ENSG00000144119'
p771
aS'ENSG00000122585'
p772
aS'ENSG00000113658'
p773
aS'ENSG00000168778'
p774
aS'ENSG00000124762'
p775
aS'ENSG00000161513'
p776
aS'ENSG00000125995'
p777
aS'ENSG00000146267'
p778
aS'ENSG00000188000'
p779
aS'ENSG00000176890'
p780
aS'ENSG00000120256'
p781
aS'ENSG00000115107'
p782
aS'ENSG00000185088'
p783
aS'ENSG00000132274'
p784
aS'ENSG00000113328'
p785
aS'ENSG00000111860'
p786
aS'ENSG00000173530'
p787
aS'ENSG00000141293'
p788
aS'ENSG00000063046'
p789
aS'ENSG00000119862'
p790
aS'ENSG00000100796'
p791
aS'ENSG00000119900'
p792
aS'ENSG00000130427'
p793
aS'ENSG00000174953'
p794
aS'ENSG00000087088'
p795
aS'ENSG00000179774'
p796
aS'ENSG00000163832'
p797
aS'ENSG00000162086'
p798
aS'ENSG00000125885'
p799
aS'ENSG00000054148'
p800
aS'ENSG00000250067'
p801
aS'ENSG00000196660'
p802
aS'ENSG00000172890'
p803
aS'ENSG00000182858'
p804
atRp805
ssS'turquoise'
p806
(dp807
g4
g5
((lp808
S'ENSG00000167513'
p809
aS'ENSG00000259511'
p810
aS'ENSG00000222020'
p811
aS'ENSG00000136235'
p812
aS'ENSG00000149575'
p813
aS'ENSG00000144021'
p814
aS'ENSG00000136717'
p815
aS'ENSG00000143970'
p816
aS'ENSG00000099994'
p817
aS'ENSG00000154096'
p818
aS'ENSG00000183722'
p819
aS'ENSG00000139116'
p820
aS'ENSG00000140403'
p821
aS'ENSG00000152580'
p822
aS'ENSG00000184206'
p823
aS'ENSG00000116132'
p824
aS'ENSG00000204262'
p825
aS'ENSG00000189129'
p826
aS'ENSG00000204314'
p827
aS'ENSG00000108963'
p828
aS'ENSG00000135318'
p829
aS'ENSG00000134809'
p830
aS'ENSG00000072071'
p831
aS'ENSG00000037474'
p832
aS'ENSG00000064309'
p833
aS'ENSG00000221955'
p834
aS'ENSG00000189325'
p835
aS'ENSG00000178573'
p836
aS'ENSG00000161281'
p837
aS'ENSG00000128059'
p838
aS'ENSG00000116774'
p839
aS'ENSG00000187955'
p840
aS'ENSG00000100413'
p841
aS'ENSG00000088882'
p842
aS'ENSG00000182667'
p843
aS'ENSG00000158169'
p844
aS'ENSG00000186825'
p845
aS'ENSG00000113296'
p846
aS'ENSG00000106809'
p847
aS'ENSG00000104760'
p848
aS'ENSG00000167900'
p849
aS'ENSG00000129158'
p850
aS'ENSG00000187741'
p851
aS'ENSG00000039139'
p852
aS'ENSG00000168542'
p853
aS'ENSG00000112137'
p854
aS'ENSG00000162745'
p855
aS'ENSG00000164692'
p856
aS'ENSG00000141219'
p857
atRp858
ssS'wheat3'
p859
(dp860
g4
g5
((lp861
S'ENSG00000141519'
p862
aS'ENSG00000127337'
p863
aS'ENSG00000197768'
p864
aS'ENSG00000204351'
p865
aS'ENSG00000129204'
p866
aS'ENSG00000163320'
p867
aS'ENSG00000126453'
p868
aS'ENSG00000100519'
p869
aS'ENSG00000106066'
p870
aS'ENSG00000174177'
p871
aS'ENSG00000188163'
p872
aS'ENSG00000167840'
p873
aS'ENSG00000142459'
p874
atRp875
ssS'antiquewhite3'
p876
(dp877
g79
(lp878
(lp879
S'ENSG00000133561'
p880
ag83
(g85
S'\x00\x00\x00\x00\x00hW@'
tRp881
ag83
(g85
S'\xd2\xebt\xff\xbf5\x94?'
tRp882
ag83
(g85
S'\x90\xaaU\xd6\xb1\x02\xa4?'
tRp883
aa(lp884
S'ENSG00000133574'
p885
ag83
(g85
S'\x00\x00\x00\x00\x00hW@'
tRp886
ag83
(g85
S'\xd2\xebt\xff\xbf5\x94?'
tRp887
ag83
(g85
S'\x90\xaaU\xd6\xb1\x02\xa4?'
tRp888
aasg4
g5
((lp889
S'ENSG00000197444'
p890
aS'ENSG00000104218'
p891
aS'ENSG00000121989'
p892
aS'ENSG00000122025'
p893
aS'ENSG00000175582'
p894
aS'ENSG00000123643'
p895
aS'ENSG00000079156'
p896
aS'ENSG00000106605'
p897
aS'ENSG00000164627'
p898
aS'ENSG00000204711'
p899
aS'ENSG00000204161'
p900
aS'ENSG00000171316'
p901
atRp902
ssS'antiquewhite2'
p903
(dp904
g4
g5
((lp905
S'ENSG00000185290'
p906
aS'ENSG00000177042'
p907
aS'ENSG00000182827'
p908
aS'ENSG00000197723'
p909
aS'ENSG00000185507'
p910
aS'ENSG00000100263'
p911
aS'ENSG00000177030'
p912
aS'ENSG00000099834'
p913
aS'ENSG00000108187'
p914
aS'ENSG00000158050'
p915
aS'ENSG00000187824'
p916
aS'ENSG00000235098'
p917
aS'ENSG00000186998'
p918
aS'ENSG00000129187'
p919
aS'ENSG00000019485'
p920
aS'ENSG00000101213'
p921
aS'ENSG00000110931'
p922
aS'ENSG00000148396'
p923
atRp924
ssS'antiquewhite1'
p925
(dp926
g4
g5
((lp927
S'ENSG00000197580'
p928
aS'ENSG00000197822'
p929
aS'ENSG00000197124'
p930
aS'ENSG00000125872'
p931
aS'ENSG00000165125'
p932
aS'ENSG00000118507'
p933
aS'ENSG00000106123'
p934
aS'ENSG00000121413'
p935
aS'ENSG00000165215'
p936
aS'ENSG00000138738'
p937
aS'ENSG00000169085'
p938
aS'ENSG00000164403'
p939
aS'ENSG00000126217'
p940
aS'ENSG00000141655'
p941
aS'ENSG00000125450'
p942
aS'ENSG00000131941'
p943
atRp944
ssS'antiquewhite4'
p945
(dp946
g79
(lp947
(lp948
S'ENSG00000057294'
p949
aFinf
ag83
(g85
S'\xf4!A\x10\x04Ap?'
tRp950
ag83
(g85
S'\xc07\xad9P(\x90?'
tRp951
aa(lp952
S'ENSG00000156463'
p953
aFinf
ag83
(g85
S'\xf4!A\x10\x04Ap?'
tRp954
ag83
(g85
S'\xc07\xad9P(\x90?'
tRp955
aa(lp956
S'ENSG00000134755'
p957
ag83
(g85
S'\x00\x00\x00\x00\x00\x80w@'
tRp958
ag83
(g85
S'E\xbf\r-\x81;\x80?'
tRp959
ag83
(g85
S'\xa0\xe4fM\t+\x90?'
tRp960
aa(lp961
S'ENSG00000049283'
p962
ag83
(g85
S'\x00\x00\x00\x00\x00\x80w@'
tRp963
ag83
(g85
S'E\xbf\r-\x81;\x80?'
tRp964
ag83
(g85
S'\xa0\xe4fM\t+\x90?'
tRp965
aasg4
g5
((lp966
S'ENSG00000174446'
p967
aS'ENSG00000167861'
p968
aS'ENSG00000007255'
p969
aS'ENSG00000102595'
p970
aS'ENSG00000168653'
p971
aS'ENSG00000063854'
p972
aS'ENSG00000169689'
p973
aS'ENSG00000179979'
p974
aS'ENSG00000137288'
p975
aS'ENSG00000243789'
p976
aS'ENSG00000246705'
p977
aS'ENSG00000120756'
p978
aS'ENSG00000160862'
p979
aS'ENSG00000131711'
p980
aS'ENSG00000117533'
p981
aS'ENSG00000103550'
p982
aS'ENSG00000099795'
p983
aS'ENSG00000180185'
p984
aS'ENSG00000187860'
p985
aS'ENSG00000163945'
p986
aS'ENSG00000173113'
p987
atRp988
ssS'indianred4'
p989
(dp990
g79
(lp991
(lp992
S'ENSG00000243955'
p993
aFinf
ag83
(g85
S'\x94\x82\x01k\x05\xacu?'
tRp994
ag83
(g85
S'@\xd1*\x07X\x9d\x85?'
tRp995
aa(lp996
S'ENSG00000141448'
p997
ag83
(g85
S'\xe48\x8e\xe38\xceT@'
tRp998
ag83
(g85
S'\xa9\xd1\xc1\x0e\x03\x8b\x95?'
tRp999
ag83
(g85
S'\xa0\xd1\xc1\x0e\x03\x8b\x95?'
tRp1000
aasg4
g5
((lp1001
S'ENSG00000125871'
p1002
aS'ENSG00000148484'
p1003
aS'ENSG00000239389'
p1004
aS'ENSG00000188488'
p1005
aS'ENSG00000170209'
p1006
aS'ENSG00000137168'
p1007
aS'ENSG00000174567'
p1008
aS'ENSG00000112062'
p1009
aS'ENSG00000021300'
p1010
aS'ENSG00000137877'
p1011
aS'ENSG00000118965'
p1012
aS'ENSG00000120071'
p1013
aS'ENSG00000078269'
p1014
aS'ENSG00000204231'
p1015
aS'ENSG00000126775'
p1016
aS'ENSG00000116957'
p1017
aS'ENSG00000144283'
p1018
aS'ENSG00000103811'
p1019
aS'ENSG00000127838'
p1020
aS'ENSG00000183793'
p1021
atRp1022
ssS'yellow'
p1023
(dp1024
g79
(lp1025
(lp1026
S'ENSG00000110799'
p1027
ag83
(g85
S'333333E@'
tRp1028
ag83
(g85
S'#\xb6+ \x7f\te?'
tRp1029
ag83
(g85
S'\xd0\xc7\x17b%_\xa3?'
tRp1030
aa(lp1031
S'ENSG00000152583'
p1032
ag83
(g85
S'333333E@'
tRp1033
ag83
(g85
S'#\xb6+ \x7f\te?'
tRp1034
ag83
(g85
S'\xd0\xc7\x17b%_\xa3?'
tRp1035
aasg4
g5
((lp1036
S'ENSG00000173876'
p1037
aS'ENSG00000171119'
p1038
aS'ENSG00000124615'
p1039
aS'ENSG00000131910'
p1040
aS'ENSG00000204604'
p1041
aS'ENSG00000100997'
p1042
aS'ENSG00000181350'
p1043
aS'ENSG00000113739'
p1044
aS'ENSG00000126602'
p1045
aS'ENSG00000254614'
p1046
aS'ENSG00000198538'
p1047
aS'ENSG00000114503'
p1048
aS'ENSG00000173457'
p1049
aS'ENSG00000164924'
p1050
aS'ENSG00000110719'
p1051
aS'ENSG00000112514'
p1052
aS'ENSG00000064225'
p1053
aS'ENSG00000116455'
p1054
aS'ENSG00000131373'
p1055
aS'ENSG00000205268'
p1056
aS'ENSG00000122085'
p1057
aS'ENSG00000244405'
p1058
aS'ENSG00000078902'
p1059
aS'ENSG00000151552'
p1060
aS'ENSG00000171206'
p1061
aS'ENSG00000179241'
p1062
aS'ENSG00000163995'
p1063
aS'ENSG00000204634'
p1064
aS'ENSG00000196208'
p1065
aS'ENSG00000189190'
p1066
aS'ENSG00000107562'
p1067
aS'ENSG00000183955'
p1068
aS'ENSG00000140526'
p1069
aS'ENSG00000068615'
p1070
aS'ENSG00000189337'
p1071
aS'ENSG00000104660'
p1072
aS'ENSG00000102934'
p1073
aS'ENSG00000046889'
p1074
aS'ENSG00000171150'
p1075
aS'ENSG00000114805'
p1076
atRp1077
ssS'lightsteelblue'
p1078
(dp1079
g4
g5
((lp1080
S'ENSG00000158715'
p1081
aS'ENSG00000183570'
p1082
aS'ENSG00000001629'
p1083
aS'ENSG00000128699'
p1084
aS'ENSG00000104889'
p1085
aS'ENSG00000137960'
p1086
aS'ENSG00000136381'
p1087
aS'ENSG00000004660'
p1088
aS'ENSG00000095917'
p1089
aS'ENSG00000226174'
p1090
aS'ENSG00000073584'
p1091
aS'ENSG00000137504'
p1092
aS'ENSG00000130363'
p1093
aS'ENSG00000004534'
p1094
aS'ENSG00000198862'
p1095
aS'ENSG00000056661'
p1096
aS'ENSG00000102882'
p1097
aS'ENSG00000164754'
p1098
aS'ENSG00000118655'
p1099
aS'ENSG00000188199'
p1100
atRp1101
ssS'bisque4'
p1102
(dp1103
g79
(lp1104
(lp1105
S'ENSG00000153283'
p1106
ag83
(g85
S'\x00\x00\x00\x00\x00\x80w@'
tRp1107
ag83
(g85
S'E\xbf\r-\x81;\x80?'
tRp1108
ag83
(g85
S"\xc0W\xdd\x8e\xfb'\x98?"
tRp1109
aa(lp1110
S'ENSG00000198851'
p1111
ag83
(g85
S'\x00\x00\x00\x00\x00xg@'
tRp1112
ag83
(g85
S'g\xed\xceM\xffP\x88?'
tRp1113
ag83
(g85
S'\xe0\x8c\xdc\xb5\n,\x98?'
tRp1114
aa(lp1115
S'ENSG00000182866'
p1116
ag83
(g85
S'\x00\x00\x00\x00\x00@_@'
tRp1117
ag83
(g85
S'[\xb6\xb5$\x7f0\x90?'
tRp1118
ag83
(g85
S'\xe0\x8c\xdc\xb5\n,\x98?'
tRp1119
aasg4
g5
((lp1120
S'ENSG00000166428'
p1121
aS'ENSG00000163249'
p1122
aS'ENSG00000129493'
p1123
aS'ENSG00000105329'
p1124
aS'ENSG00000198933'
p1125
aS'ENSG00000132819'
p1126
aS'ENSG00000146285'
p1127
aS'ENSG00000198821'
p1128
aS'ENSG00000160310'
p1129
aS'ENSG00000101654'
p1130
aS'ENSG00000184156'
p1131
aS'ENSG00000132600'
p1132
aS'ENSG00000104524'
p1133
aS'ENSG00000147813'
p1134
aS'ENSG00000054793'
p1135
aS'ENSG00000136147'
p1136
aS'ENSG00000146729'
p1137
aS'ENSG00000134545'
p1138
aS'ENSG00000186765'
p1139
aS'ENSG00000160654'
p1140
aS'ENSG00000173239'
p1141
aS'ENSG00000214491'
p1142
atRp1143
ssS'cyan'
p1144
(dp1145
g79
(lp1146
(lp1147
S'ENSG00000237298'
p1148
ag83
(g85
S'\x00\x00\x00\x00\x00\x80w@'
tRp1149
ag83
(g85
S'E\xbf\r-\x81;\x80?'
tRp1150
ag83
(g85
S' >\xad@\\\n\xa0?'
tRp1151
aa(lp1152
S'ENSG00000166741'
p1153
ag83
(g85
S'\x00\x00\x00\x00\x00xg@'
tRp1154
ag83
(g85
S'g\xed\xceM\xffP\x88?'
tRp1155
ag83
(g85
S'p2h\xc0\x88\x05\xa2?'
tRp1156
aa(lp1157
S'ENSG00000159173'
p1158
ag83
(g85
S'33333\xb3R@'
tRp1159
ag83
(g85
S'8\xf1\xa8&C8\x98?'
tRp1160
ag83
(g85
S'\xb0\xaa\x12\x08\xf0\xee\xa7?'
tRp1161
aa(lp1162
S'ENSG00000159403'
p1163
ag83
(g85
S'33333\xb3R@'
tRp1164
ag83
(g85
S'8\xf1\xa8&C8\x98?'
tRp1165
ag83
(g85
S'\xb0\xaa\x12\x08\xf0\xee\xa7?'
tRp1166
aasg4
g5
((lp1167
S'ENSG00000162437'
p1168
aS'ENSG00000081923'
p1169
aS'ENSG00000197498'
p1170
aS'ENSG00000177354'
p1171
aS'ENSG00000133943'
p1172
aS'ENSG00000233493'
p1173
aS'ENSG00000099204'
p1174
aS'ENSG00000160200'
p1175
aS'ENSG00000151689'
p1176
aS'ENSG00000169683'
p1177
aS'ENSG00000104147'
p1178
aS'ENSG00000138629'
p1179
aS'ENSG00000130770'
p1180
aS'ENSG00000157978'
p1181
aS'ENSG00000175220'
p1182
aS'ENSG00000114023'
p1183
aS'ENSG00000119866'
p1184
aS'ENSG00000143924'
p1185
aS'ENSG00000101181'
p1186
aS'ENSG00000112977'
p1187
aS'ENSG00000034152'
p1188
aS'ENSG00000174915'
p1189
aS'ENSG00000064115'
p1190
aS'ENSG00000157538'
p1191
aS'ENSG00000151715'
p1192
aS'ENSG00000239789'
p1193
aS'ENSG00000003436'
p1194
aS'ENSG00000164976'
p1195
aS'ENSG00000157483'
p1196
aS'ENSG00000174405'
p1197
atRp1198
ssS'navajowhite3'
p1199
(dp1200
g79
(lp1201
(lp1202
S'ENSG00000145920'
p1203
aFinf
ag83
(g85
S'\xc7\x1eA\x10\x04Ap?'
tRp1204
ag83
(g85
S'@[\x18\x88\xc28\x80?'
tRp1205
aa(lp1206
S'ENSG00000159409'
p1207
aFinf
ag83
(g85
S']\xf8!s\x87\xcc\x8d?'
tRp1208
ag83
(g85
S'@\xf8!s\x87\xcc\x8d?'
tRp1209
aasg4
g5
((lp1210
S'ENSG00000165730'
p1211
aS'ENSG00000205978'
p1212
aS'ENSG00000134452'
p1213
aS'ENSG00000128563'
p1214
aS'ENSG00000179115'
p1215
aS'ENSG00000162572'
p1216
aS'ENSG00000155158'
p1217
aS'ENSG00000197451'
p1218
aS'ENSG00000144401'
p1219
aS'ENSG00000143434'
p1220
aS'ENSG00000105355'
p1221
aS'ENSG00000204228'
p1222
aS'ENSG00000160439'
p1223
aS'ENSG00000137843'
p1224
aS'ENSG00000204536'
p1225
atRp1226
ssS'mediumorchid1'
p1227
(dp1228
g79
(lp1229
(lp1230
S'ENSG00000101331'
p1231
ag83
(g85
S'\x00\x00\x00\x00\x00\x88\x87@'
tRp1232
ag83
(g85
S'E\xe6\x89\xd3X\xa8u?'
tRp1233
ag83
(g85
S'\x00\xad\x93\xcc\xe1\x1f\x98?'
tRp1234
aa(lp1235
S'ENSG00000128917'
p1236
aFinf
ag83
(g85
S'\x88\x82\x01k\x05\xace?'
tRp1237
ag83
(g85
S'\x00\xad\x93\xcc\xe1\x1f\x98?'
tRp1238
aa(lp1239
S'ENSG00000122574'
p1240
aFinf
ag83
(g85
S'\x88\x82\x01k\x05\xace?'
tRp1241
ag83
(g85
S'\x00\xad\x93\xcc\xe1\x1f\x98?'
tRp1242
aa(lp1243
S'ENSG00000061337'
p1244
aFinf
ag83
(g85
S'\x88\x82\x01k\x05\xace?'
tRp1245
ag83
(g85
S'\x00\xad\x93\xcc\xe1\x1f\x98?'
tRp1246
aa(lp1247
S'ENSG00000175264'
p1248
aFinf
ag83
(g85
S'\x88\x82\x01k\x05\xace?'
tRp1249
ag83
(g85
S'\x00\xad\x93\xcc\xe1\x1f\x98?'
tRp1250
aa(lp1251
S'ENSG00000114654'
p1252
aFinf
ag83
(g85
S'\x88\x82\x01k\x05\xace?'
tRp1253
ag83
(g85
S'\x00\xad\x93\xcc\xe1\x1f\x98?'
tRp1254
aa(lp1255
S'ENSG00000066056'
p1256
ag83
(g85
S'\xab\xaa\xaa\xaa\xaaJo@'
tRp1257
ag83
(g85
S'\x07\xef\x9a\xa4\xff\xa0\x85?'
tRp1258
ag83
(g85
S'\x00\x90\x02\xd5\x0b\r\xa0?'
tRp1259
aa(lp1260
S'ENSG00000184113'
p1261
ag83
(g85
S'\xab\xaa\xaa\xaa\xaaJo@'
tRp1262
ag83
(g85
S'\x07\xef\x9a\xa4\xff\xa0\x85?'
tRp1263
ag83
(g85
S'\x00\x90\x02\xd5\x0b\r\xa0?'
tRp1264
aasg4
g5
((lp1265
S'ENSG00000138316'
p1266
aS'ENSG00000136111'
p1267
aS'ENSG00000163281'
p1268
aS'ENSG00000204531'
p1269
aS'ENSG00000143578'
p1270
aS'ENSG00000164556'
p1271
aS'ENSG00000135951'
p1272
aS'ENSG00000180730'
p1273
aS'ENSG00000135945'
p1274
aS'ENSG00000070476'
p1275
atRp1276
ssS'bisque2'
p1277
(dp1278
g4
g5
((lp1279
S'ENSG00000175643'
p1280
aS'ENSG00000101574'
p1281
aS'ENSG00000254986'
p1282
aS'ENSG00000164169'
p1283
aS'ENSG00000157895'
p1284
aS'ENSG00000171714'
p1285
aS'ENSG00000110958'
p1286
aS'ENSG00000172728'
p1287
aS'ENSG00000102967'
p1288
aS'ENSG00000002919'
p1289
atRp1290
ssS'bisque3'
p1291
(dp1292
g79
(lp1293
(lp1294
g460
ag83
(g85
S'\xdb\xb6m\xdb\xb6\xadZ@'
tRp1295
ag83
(g85
S'~\xac\xbcFM\x92\x95?'
tRp1296
ag83
(g85
S'`eCy\xe6I\xa5?'
tRp1297
aa(lp1298
S'ENSG00000198758'
p1299
ag83
(g85
S'\xab\xaa\xaa\xaa\xaaJo@'
tRp1300
ag83
(g85
S'\x07\xef\x9a\xa4\xff\xa0\x85?'
tRp1301
ag83
(g85
S'`eCy\xe6I\xa5?'
tRp1302
aa(lp1303
S'ENSG00000162896'
p1304
ag83
(g85
S'\xab\xaa\xaa\xaa\xaaJo@'
tRp1305
ag83
(g85
S'\x07\xef\x9a\xa4\xff\xa0\x85?'
tRp1306
ag83
(g85
S'`eCy\xe6I\xa5?'
tRp1307
aa(lp1308
S'ENSG00000134398'
p1309
ag83
(g85
S'\x9a\x99\x99\x99\x99\xb9b@'
tRp1310
ag83
(g85
S'r\xe1@\xd8<3\x90?'
tRp1311
ag83
(g85
S'`eCy\xe6I\xa5?'
tRp1312
aasg4
g5
((lp1313
S'ENSG00000005981'
p1314
aS'ENSG00000197520'
p1315
aS'ENSG00000154035'
p1316
aS'ENSG00000002933'
p1317
aS'ENSG00000005421'
p1318
aS'ENSG00000178386'
p1319
aS'ENSG00000106565'
p1320
aS'ENSG00000157103'
p1321
aS'ENSG00000160111'
p1322
aS'ENSG00000106367'
p1323
aS'ENSG00000169515'
p1324
atRp1325
ssS'skyblue'
p1326
(dp1327
g4
g5
((lp1328
S'ENSG00000114631'
p1329
aS'ENSG00000054277'
p1330
aS'ENSG00000213988'
p1331
aS'ENSG00000180543'
p1332
aS'ENSG00000125089'
p1333
aS'ENSG00000185519'
p1334
aS'ENSG00000169031'
p1335
aS'ENSG00000133063'
p1336
aS'ENSG00000137074'
p1337
aS'ENSG00000149506'
p1338
aS'ENSG00000092330'
p1339
aS'ENSG00000203668'
p1340
aS'ENSG00000170412'
p1341
aS'ENSG00000108786'
p1342
aS'ENSG00000183733'
p1343
aS'ENSG00000012061'
p1344
aS'ENSG00000182645'
p1345
aS'ENSG00000130684'
p1346
aS'ENSG00000189195'
p1347
aS'ENSG00000196458'
p1348
aS'ENSG00000234719'
p1349
aS'ENSG00000140323'
p1350
aS'ENSG00000151224'
p1351
aS'ENSG00000081052'
p1352
aS'ENSG00000196476'
p1353
aS'ENSG00000053254'
p1354
atRp1355
ssS'darkturquoise'
p1356
(dp1357
g4
g5
((lp1358
S'ENSG00000113734'
p1359
aS'ENSG00000115661'
p1360
aS'ENSG00000151882'
p1361
aS'ENSG00000214530'
p1362
aS'ENSG00000113732'
p1363
aS'ENSG00000178252'
p1364
aS'ENSG00000163888'
p1365
aS'ENSG00000110455'
p1366
aS'ENSG00000151748'
p1367
aS'ENSG00000069431'
p1368
aS'ENSG00000159363'
p1369
aS'ENSG00000044012'
p1370
aS'ENSG00000040531'
p1371
aS'ENSG00000198513'
p1372
aS'ENSG00000072364'
p1373
aS'ENSG00000066379'
p1374
aS'ENSG00000011275'
p1375
aS'ENSG00000145194'
p1376
aS'ENSG00000099330'
p1377
aS'ENSG00000049130'
p1378
aS'ENSG00000176273'
p1379
aS'ENSG00000173272'
p1380
aS'ENSG00000175727'
p1381
aS'ENSG00000109511'
p1382
aS'ENSG00000165929'
p1383
aS'ENSG00000119318'
p1384
aS'ENSG00000187105'
p1385
atRp1386
ssS'cyan1'
p1387
(dp1388
g79
(lp1389
(lp1390
S'ENSG00000105290'
p1391
aFinf
ag83
(g85
S'\xca\x8a\x01k\x05\xacu?'
tRp1392
ag83
(g85
S'\x00\x8b\x01k\x05\xacu?'
tRp1393
aasg4
g5
((lp1394
S'ENSG00000242384'
p1395
aS'ENSG00000196268'
p1396
aS'ENSG00000155792'
p1397
aS'ENSG00000152749'
p1398
aS'ENSG00000144218'
p1399
aS'ENSG00000187231'
p1400
aS'ENSG00000168255'
p1401
aS'ENSG00000197013'
p1402
aS'ENSG00000164707'
p1403
aS'ENSG00000243232'
p1404
aS'ENSG00000150076'
p1405
atRp1406
ssS'darkgreen'
p1407
(dp1408
g79
(lp1409
(lp1410
S'ENSG00000143153'
p1411
aFinf
ag83
(g85
S'\x88\x82\x01k\x05\xace?'
tRp1412
ag83
(g85
S'`\xf8\xbf\x83\xa6\x8b\xa6?'
tRp1413
aasg4
g5
((lp1414
S'ENSG00000115524'
p1415
aS'ENSG00000164934'
p1416
aS'ENSG00000026297'
p1417
aS'ENSG00000167552'
p1418
aS'ENSG00000184949'
p1419
aS'ENSG00000197782'
p1420
aS'ENSG00000171811'
p1421
aS'ENSG00000176225'
p1422
aS'ENSG00000198624'
p1423
aS'ENSG00000100211'
p1424
aS'ENSG00000197747'
p1425
aS'ENSG00000109016'
p1426
aS'ENSG00000188321'
p1427
aS'ENSG00000108622'
p1428
aS'ENSG00000197969'
p1429
aS'ENSG00000137434'
p1430
aS'ENSG00000164332'
p1431
aS'ENSG00000196872'
p1432
aS'ENSG00000136514'
p1433
aS'ENSG00000166750'
p1434
aS'ENSG00000264278'
p1435
aS'ENSG00000135423'
p1436
aS'ENSG00000198612'
p1437
aS'ENSG00000204444'
p1438
aS'ENSG00000144485'
p1439
aS'ENSG00000155530'
p1440
aS'ENSG00000188629'
p1441
atRp1442
ssS'rosybrown4'
p1443
(dp1444
g79
(lp1445
(lp1446
S'ENSG00000139970'
p1447
ag83
(g85
S'\x00\x00\x00\x00\x00\x88\x87@'
tRp1448
ag83
(g85
S'E\xe6\x89\xd3X\xa8u?'
tRp1449
ag83
(g85
S'\xc0\x0f\x0b\x91\x15\xdb\xa7?'
tRp1450
aasg4
g5
((lp1451
S'ENSG00000103356'
p1452
aS'ENSG00000167363'
p1453
aS'ENSG00000186496'
p1454
aS'ENSG00000165948'
p1455
aS'ENSG00000133612'
p1456
aS'ENSG00000196843'
p1457
aS'ENSG00000141504'
p1458
aS'ENSG00000156475'
p1459
aS'ENSG00000115998'
p1460
aS'ENSG00000100031'
p1461
aS'ENSG00000156042'
p1462
aS'ENSG00000108591'
p1463
aS'ENSG00000197054'
p1464
atRp1465
ssS'cyan4'
p1466
(dp1467
g79
(lp1468
(lp1469
S'ENSG00000183844'
p1470
aFinf
ag83
(g85
S'}\x82\x01k\x05\xacU?'
tRp1471
ag83
(g85
S'\x00\x82\x01k\x05\xacU?'
tRp1472
aasg4
g5
((lp1473
S'ENSG00000130762'
p1474
aS'ENSG00000248905'
p1475
aS'ENSG00000120370'
p1476
aS'ENSG00000139629'
p1477
aS'ENSG00000197345'
p1478
aS'ENSG00000136866'
p1479
aS'ENSG00000139624'
p1480
atRp1481
ssS'darkviolet'
p1482
(dp1483
g79
(lp1484
(lp1485
S'ENSG00000175463'
p1486
aFinf
ag83
(g85
S'\x88\x82\x01k\x05\xace?'
tRp1487
ag83
(g85
S'\x00\xad\x93\xcc\xe1\x1f\x98?'
tRp1488
aasg4
g5
((lp1489
S'ENSG00000135913'
p1490
aS'ENSG00000168993'
p1491
aS'ENSG00000232671'
p1492
aS'ENSG00000166912'
p1493
aS'ENSG00000184779'
p1494
aS'ENSG00000176978'
p1495
aS'ENSG00000116127'
p1496
aS'ENSG00000141127'
p1497
aS'ENSG00000075073'
p1498
aS'ENSG00000173200'
p1499
aS'ENSG00000005955'
p1500
aS'ENSG00000140386'
p1501
aS'ENSG00000170959'
p1502
aS'ENSG00000162367'
p1503
aS'ENSG00000151470'
p1504
aS'ENSG00000110768'
p1505
aS'ENSG00000174196'
p1506
aS'ENSG00000144035'
p1507
aS'ENSG00000136490'
p1508
atRp1509
ssS'peachpuff4'
p1510
(dp1511
g4
g5
((lp1512
S'ENSG00000148290'
p1513
aS'ENSG00000160323'
p1514
aS'ENSG00000080608'
p1515
aS'ENSG00000137171'
p1516
aS'ENSG00000050820'
p1517
aS'ENSG00000189157'
p1518
aS'ENSG00000133466'
p1519
aS'ENSG00000151612'
p1520
aS'ENSG00000256073'
p1521
aS'ENSG00000147789'
p1522
atRp1523
ssS'slateblue4'
p1524
(dp1525
g79
(lp1526
(lp1527
g162
aFinf
ag83
(g85
S'\xb3m\xa9?\xa5\xfe\xa4?'
tRp1528
ag83
(g85
S' \xa4\xd9\x80\x8d\x06\xa6?'
tRp1529
aa(lp1530
S'ENSG00000149781'
p1531
aFinf
ag83
(g85
S']\xf8!s\x87\xcc\x8d?'
tRp1532
ag83
(g85
S' \xa4\xd9\x80\x8d\x06\xa6?'
tRp1533
aa(lp1534
S'ENSG00000180353'
p1535
aFinf
ag83
(g85
S']\xf8!s\x87\xcc\x8d?'
tRp1536
ag83
(g85
S' \xa4\xd9\x80\x8d\x06\xa6?'
tRp1537
aasg4
g5
((lp1538
S'ENSG00000107798'
p1539
aS'ENSG00000132423'
p1540
aS'ENSG00000152926'
p1541
aS'ENSG00000213462'
p1542
aS'ENSG00000180592'
p1543
aS'ENSG00000132965'
p1544
aS'ENSG00000167766'
p1545
aS'ENSG00000103995'
p1546
aS'ENSG00000106868'
p1547
aS'ENSG00000102805'
p1548
atRp1549
ssS'slateblue3'
p1550
(dp1551
g4
g5
((lp1552
S'ENSG00000177103'
p1553
aS'ENSG00000111859'
p1554
aS'ENSG00000141576'
p1555
aS'ENSG00000187720'
p1556
aS'ENSG00000184887'
p1557
aS'ENSG00000163235'
p1558
aS'ENSG00000086696'
p1559
aS'ENSG00000144560'
p1560
aS'ENSG00000164761'
p1561
aS'ENSG00000204138'
p1562
aS'ENSG00000108774'
p1563
aS'ENSG00000072134'
p1564
atRp1565
ssS'slateblue2'
p1566
(dp1567
g4
g5
((lp1568
S'ENSG00000151338'
p1569
aS'ENSG00000183032'
p1570
aS'ENSG00000241106'
p1571
aS'ENSG00000106560'
p1572
aS'ENSG00000083457'
p1573
aS'ENSG00000100908'
p1574
aS'ENSG00000108443'
p1575
aS'ENSG00000111725'
p1576
aS'ENSG00000117174'
p1577
aS'ENSG00000110906'
p1578
aS'ENSG00000150782'
p1579
aS'ENSG00000148832'
p1580
aS'ENSG00000172785'
p1581
atRp1582
ssS'slateblue1'
p1583
(dp1584
g4
g5
((lp1585
S'ENSG00000241058'
p1586
aS'ENSG00000123179'
p1587
aS'ENSG00000162757'
p1588
aS'ENSG00000070182'
p1589
aS'ENSG00000179673'
p1590
aS'ENSG00000188511'
p1591
aS'ENSG00000185594'
p1592
aS'ENSG00000163389'
p1593
aS'ENSG00000108296'
p1594
aS'ENSG00000124942'
p1595
aS'ENSG00000182551'
p1596
aS'ENSG00000198901'
p1597
aS'ENSG00000188032'
p1598
aS'ENSG00000177830'
p1599
aS'ENSG00000187951'
p1600
atRp1601
ssS'indianred1'
p1602
(dp1603
g4
g5
((lp1604
S'ENSG00000171105'
p1605
aS'ENSG00000142949'
p1606
aS'ENSG00000156411'
p1607
aS'ENSG00000100350'
p1608
aS'ENSG00000103512'
p1609
aS'ENSG00000115364'
p1610
aS'ENSG00000129595'
p1611
aS'ENSG00000185900'
p1612
aS'ENSG00000183889'
p1613
aS'ENSG00000176014'
p1614
aS'ENSG00000111845'
p1615
aS'ENSG00000214435'
p1616
aS'ENSG00000069764'
p1617
aS'ENSG00000103226'
p1618
atRp1619
ssS'lightpink'
p1620
(dp1621
g79
(lp1622
(lp1623
S'ENSG00000183248'
p1624
ag83
(g85
S'\x00\x00\x00\x00\x00\x88\x87@'
tRp1625
ag83
(g85
S'E\xe6\x89\xd3X\xa8u?'
tRp1626
ag83
(g85
S'`\x04#\xe0\xad\x07\xa0?'
tRp1627
aa(lp1628
S'ENSG00000231963'
p1629
ag83
(g85
S'\x00\x00\x00\x00\x00\x80w@'
tRp1630
ag83
(g85
S'\x1f\xb9\r-\x81;\x80?'
tRp1631
ag83
(g85
S'\x80\x89\x05\x84\xb0\xf8\xa3?'
tRp1632
aa(lp1633
S'ENSG00000161249'
p1634
ag83
(g85
S'\xab\xaa\xaa\xaa\xaaJo@'
tRp1635
ag83
(g85
S'\x07\xef\x9a\xa4\xff\xa0\x85?'
tRp1636
ag83
(g85
S'`eCy\xe6I\xa5?'
tRp1637
aa(lp1638
S'ENSG00000203499'
p1639
ag83
(g85
S'\x00\x00\x00\x00\x00pg@'
tRp1640
ag83
(g85
S'\xf2 l\xd0\xa7\x04\x8b?'
tRp1641
ag83
(g85
S'`eCy\xe6I\xa5?'
tRp1642
aa(lp1643
S'ENSG00000104413'
p1644
ag83
(g85
S'\x00\x00\x00\x00\x00PW@'
tRp1645
ag83
(g85
S'v\xe3-\xc5t@\x98?'
tRp1646
ag83
(g85
S'\xe0\xd4;\x01\xf0\xf6\xa7?'
tRp1647
aasg4
g5
((lp1648
S'ENSG00000117500'
p1649
aS'ENSG00000082996'
p1650
aS'ENSG00000143815'
p1651
aS'ENSG00000147894'
p1652
aS'ENSG00000158106'
p1653
aS'ENSG00000096872'
p1654
aS'ENSG00000103042'
p1655
aS'ENSG00000181085'
p1656
aS'ENSG00000135677'
p1657
aS'ENSG00000215217'
p1658
aS'ENSG00000163879'
p1659
aS'ENSG00000039650'
p1660
aS'ENSG00000138018'
p1661
aS'ENSG00000184154'
p1662
atRp1663
ssS'red'
p1664
(dp1665
g4
g5
((lp1666
S'ENSG00000233024'
p1667
aS'ENSG00000169612'
p1668
aS'ENSG00000138796'
p1669
aS'ENSG00000101353'
p1670
aS'ENSG00000073969'
p1671
aS'ENSG00000075035'
p1672
aS'ENSG00000143891'
p1673
aS'ENSG00000145642'
p1674
aS'ENSG00000122547'
p1675
aS'ENSG00000112715'
p1676
aS'ENSG00000135077'
p1677
aS'ENSG00000011132'
p1678
aS'ENSG00000185187'
p1679
aS'ENSG00000116032'
p1680
aS'ENSG00000171724'
p1681
aS'ENSG00000139970'
p1682
aS'ENSG00000165066'
p1683
aS'ENSG00000197769'
p1684
aS'ENSG00000117477'
p1685
aS'ENSG00000069248'
p1686
aS'ENSG00000176834'
p1687
aS'ENSG00000178301'
p1688
aS'ENSG00000006744'
p1689
aS'ENSG00000172661'
p1690
aS'ENSG00000168824'
p1691
aS'ENSG00000186868'
p1692
aS'ENSG00000183426'
p1693
aS'ENSG00000131386'
p1694
aS'ENSG00000166435'
p1695
aS'ENSG00000141433'
p1696
aS'ENSG00000043143'
p1697
aS'ENSG00000175262'
p1698
aS'ENSG00000134744'
p1699
aS'ENSG00000173376'
p1700
atRp1701
ssS'limegreen'
p1702
(dp1703
g4
g5
((lp1704
S'ENSG00000144744'
p1705
aS'ENSG00000177225'
p1706
aS'ENSG00000185477'
p1707
aS'ENSG00000122490'
p1708
aS'ENSG00000243943'
p1709
aS'ENSG00000110395'
p1710
aS'ENSG00000135124'
p1711
aS'ENSG00000124116'
p1712
aS'ENSG00000101191'
p1713
aS'ENSG00000198920'
p1714
aS'ENSG00000141295'
p1715
atRp1716
ssS'darkmagenta'
p1717
(dp1718
g4
g5
((lp1719
S'ENSG00000080815'
p1720
aS'ENSG00000185829'
p1721
aS'ENSG00000186115'
p1722
aS'ENSG00000144579'
p1723
aS'ENSG00000176681'
p1724
aS'ENSG00000153214'
p1725
aS'ENSG00000108379'
p1726
aS'ENSG00000238083'
p1727
aS'ENSG00000101158'
p1728
aS'ENSG00000118017'
p1729
aS'ENSG00000072135'
p1730
aS'ENSG00000152990'
p1731
aS'ENSG00000196935'
p1732
aS'ENSG00000129480'
p1733
aS'ENSG00000156345'
p1734
aS'ENSG00000235162'
p1735
aS'ENSG00000120860'
p1736
aS'ENSG00000164880'
p1737
aS'ENSG00000168928'
p1738
aS'ENSG00000164010'
p1739
aS'ENSG00000035141'
p1740
aS'ENSG00000148824'
p1741
aS'ENSG00000168274'
p1742
aS'ENSG00000173567'
p1743
atRp1744
ssS'indianred3'
p1745
(dp1746
g4
g5
((lp1747
S'ENSG00000205609'
p1748
aS'ENSG00000100577'
p1749
aS'ENSG00000173145'
p1750
aS'ENSG00000198945'
p1751
aS'ENSG00000138160'
p1752
aS'ENSG00000139537'
p1753
aS'ENSG00000161265'
p1754
aS'ENSG00000137411'
p1755
aS'ENSG00000116791'
p1756
aS'ENSG00000102924'
p1757
aS'ENSG00000178952'
p1758
aS'ENSG00000184110'
p1759
aS'ENSG00000132603'
p1760
aS'ENSG00000166037'
p1761
aS'ENSG00000168397'
p1762
aS'ENSG00000171314'
p1763
aS'ENSG00000119715'
p1764
atRp1765
ssS'plum3'
p1766
(dp1767
g4
g5
((lp1768
S'ENSG00000160145'
p1769
aS'ENSG00000187098'
p1770
aS'ENSG00000115946'
p1771
aS'ENSG00000178202'
p1772
aS'ENSG00000135341'
p1773
aS'ENSG00000050555'
p1774
aS'ENSG00000113273'
p1775
aS'ENSG00000167765'
p1776
aS'ENSG00000124749'
p1777
aS'ENSG00000175352'
p1778
aS'ENSG00000140092'
p1779
aS'ENSG00000118961'
p1780
aS'ENSG00000118004'
p1781
aS'ENSG00000258366'
p1782
aS'ENSG00000181104'
p1783
aS'ENSG00000143196'
p1784
aS'ENSG00000044524'
p1785
aS'ENSG00000211448'
p1786
aS'ENSG00000134917'
p1787
atRp1788
ssS'plum2'
p1789
(dp1790
g79
(lp1791
(lp1792
S'ENSG00000158373'
p1793
aFinf
ag83
(g85
S'\xf4!A\x10\x04Ap?'
tRp1794
ag83
(g85
S'@^\x18\x88\xc28\x80?'
tRp1795
aa(lp1796
S'ENSG00000263934'
p1797
aFinf
ag83
(g85
S'\xf4!A\x10\x04Ap?'
tRp1798
ag83
(g85
S'@^\x18\x88\xc28\x80?'
tRp1799
aasg4
g5
((lp1800
S'ENSG00000134873'
p1801
aS'ENSG00000184840'
p1802
aS'ENSG00000138439'
p1803
aS'ENSG00000115073'
p1804
aS'ENSG00000196378'
p1805
aS'ENSG00000008283'
p1806
aS'ENSG00000140575'
p1807
aS'ENSG00000157637'
p1808
aS'ENSG00000132507'
p1809
aS'ENSG00000182986'
p1810
aS'ENSG00000102580'
p1811
aS'ENSG00000138172'
p1812
aS'ENSG00000203814'
p1813
aS'ENSG00000168298'
p1814
aS'ENSG00000198856'
p1815
aS'ENSG00000132432'
p1816
aS'ENSG00000112667'
p1817
aS'ENSG00000088256'
p1818
aS'ENSG00000198373'
p1819
aS'ENSG00000160633'
p1820
aS'ENSG00000134970'
p1821
aS'ENSG00000146350'
p1822
atRp1823
ssS'plum1'
p1824
(dp1825
g4
g5
((lp1826
S'ENSG00000220032'
p1827
aS'ENSG00000184432'
p1828
aS'ENSG00000172349'
p1829
aS'ENSG00000053702'
p1830
aS'ENSG00000139209'
p1831
aS'ENSG00000148110'
p1832
aS'ENSG00000110002'
p1833
aS'ENSG00000253598'
p1834
aS'ENSG00000119509'
p1835
aS'ENSG00000114115'
p1836
aS'ENSG00000163902'
p1837
aS'ENSG00000243137'
p1838
aS'ENSG00000121101'
p1839
aS'ENSG00000134146'
p1840
aS'ENSG00000052749'
p1841
aS'ENSG00000066230'
p1842
aS'ENSG00000136240'
p1843
aS'ENSG00000137806'
p1844
aS'ENSG00000158258'
p1845
aS'ENSG00000168679'
p1846
aS'ENSG00000173706'
p1847
aS'ENSG00000168214'
p1848
aS'ENSG00000171862'
p1849
atRp1850
ssS'lemonchiffon4'
p1851
(dp1852
g4
g5
((lp1853
S'ENSG00000087206'
p1854
aS'ENSG00000197321'
p1855
aS'ENSG00000125257'
p1856
aS'ENSG00000064726'
p1857
aS'ENSG00000259363'
p1858
aS'ENSG00000214872'
p1859
aS'ENSG00000060642'
p1860
aS'ENSG00000145782'
p1861
aS'ENSG00000179528'
p1862
aS'ENSG00000213918'
p1863
atRp1864
ssS'orangered2'
p1865
(dp1866
g79
(lp1867
(lp1868
S'ENSG00000160867'
p1869
aFinf
ag83
(g85
S'\x88\x82\x01k\x05\xace?'
tRp1870
ag83
(g85
S'\xe0(\x9a\xe7\xebx\x95?'
tRp1871
aa(lp1872
S'ENSG00000136883'
p1873
aFinf
ag83
(g85
S'\x88\x82\x01k\x05\xace?'
tRp1874
ag83
(g85
S'\xe0(\x9a\xe7\xebx\x95?'
tRp1875
aa(lp1876
S'ENSG00000161270'
p1877
aFinf
ag83
(g85
S'\x88\x82\x01k\x05\xace?'
tRp1878
ag83
(g85
S'\xe0(\x9a\xe7\xebx\x95?'
tRp1879
aa(lp1880
S'ENSG00000130675'
p1881
aFinf
ag83
(g85
S'\x88\x82\x01k\x05\xace?'
tRp1882
ag83
(g85
S'\xe0(\x9a\xe7\xebx\x95?'
tRp1883
aa(lp1884
S'ENSG00000103067'
p1885
ag83
(g85
S'\x00\x00\x00\x00\x00\x88\x87@'
tRp1886
ag83
(g85
S'E\xe6\x89\xd3X\xa8u?'
tRp1887
ag83
(g85
S'`\xb8\xf45\x87|\x95?'
tRp1888
aa(lp1889
S'ENSG00000129354'
p1890
ag83
(g85
S'\x00\x00\x00\x00\x00pg@'
tRp1891
ag83
(g85
S'\xf2 l\xd0\xa7\x04\x8b?'
tRp1892
ag83
(g85
S'pF\x86S[\xff\xa3?'
tRp1893
aasg4
g5
((lp1894
S'ENSG00000109775'
p1895
aS'ENSG00000113073'
p1896
aS'ENSG00000183762'
p1897
aS'ENSG00000154328'
p1898
aS'ENSG00000204128'
p1899
aS'ENSG00000134905'
p1900
atRp1901
ssS'saddlebrown'
p1902
(dp1903
g79
(lp1904
(lp1905
S'ENSG00000174567'
p1906
aFinf
ag83
(g85
S'}\x82\x01k\x05\xacU?'
tRp1907
ag83
(g85
S'\x00\x82\x01k\x05\xacU?'
tRp1908
aasg4
g5
((lp1909
S'ENSG00000170448'
p1910
aS'ENSG00000107669'
p1911
aS'ENSG00000144455'
p1912
aS'ENSG00000136169'
p1913
aS'ENSG00000159871'
p1914
aS'ENSG00000116990'
p1915
aS'ENSG00000135828'
p1916
aS'ENSG00000176148'
p1917
aS'ENSG00000035115'
p1918
aS'ENSG00000005700'
p1919
aS'ENSG00000144619'
p1920
aS'ENSG00000123415'
p1921
aS'ENSG00000187013'
p1922
aS'ENSG00000096063'
p1923
aS'ENSG00000204140'
p1924
aS'ENSG00000197753'
p1925
aS'ENSG00000104320'
p1926
aS'ENSG00000187959'
p1927
aS'ENSG00000173848'
p1928
aS'ENSG00000150687'
p1929
aS'ENSG00000047932'
p1930
aS'ENSG00000137392'
p1931
aS'ENSG00000120160'
p1932
aS'ENSG00000043514'
p1933
aS'ENSG00000050748'
p1934
atRp1935
ssS'lightgoldenrodyellow'
p1936
(dp1937
g79
(lp1938
(lp1939
S'ENSG00000108950'
p1940
aFinf
ag83
(g85
S'\x88\x82\x01k\x05\xace?'
tRp1941
ag83
(g85
S'\xc0\x1b\x8c\x81\x046\x80?'
tRp1942
aa(lp1943
S'ENSG00000159216'
p1944
ag83
(g85
S'\x00\x00\x00\x00\x00\x88\x87@'
tRp1945
ag83
(g85
S'E\xe6\x89\xd3X\xa8u?'
tRp1946
ag83
(g85
S'\xc0\x9dNi\xb0\x99\x85?'
tRp1947
aa(lp1948
S'ENSG00000163191'
p1949
ag83
(g85
S'\xab\xaa\xaa\xaa\xaaJo@'
tRp1950
ag83
(g85
S'\x07\xef\x9a\xa4\xff\xa0\x85?'
tRp1951
ag83
(g85
S'\x00\xef\x9a\xa4\xff\xa0\x85?'
tRp1952
aasg4
g5
((lp1953
S'ENSG00000116288'
p1954
aS'ENSG00000140320'
p1955
aS'ENSG00000077420'
p1956
aS'ENSG00000049283'
p1957
aS'ENSG00000239713'
p1958
aS'ENSG00000215018'
p1959
aS'ENSG00000164654'
p1960
aS'ENSG00000148834'
p1961
aS'ENSG00000164588'
p1962
aS'ENSG00000129277'
p1963
aS'ENSG00000104432'
p1964
aS'ENSG00000172724'
p1965
atRp1966
ssS'lavender'
p1967
(dp1968
g79
(lp1969
(lp1970
g1111
aFinf
ag83
(g85
S'\xc7\x1eA\x10\x04Ap?'
tRp1971
ag83
(g85
S'@[\x18\x88\xc28\x80?'
tRp1972
aa(lp1973
g1116
aFinf
ag83
(g85
S'\xca\x8a\x01k\x05\xacu?'
tRp1974
ag83
(g85
S'@[\x18\x88\xc28\x80?'
tRp1975
aasg4
g5
((lp1976
S'ENSG00000196199'
p1977
aS'ENSG00000258744'
p1978
aS'ENSG00000164040'
p1979
aS'ENSG00000155275'
p1980
aS'ENSG00000167914'
p1981
aS'ENSG00000164023'
p1982
aS'ENSG00000103966'
p1983
aS'ENSG00000141560'
p1984
aS'ENSG00000138750'
p1985
aS'ENSG00000055732'
p1986
aS'ENSG00000163864'
p1987
aS'ENSG00000176531'
p1988
aS'ENSG00000151353'
p1989
aS'ENSG00000183508'
p1990
atRp1991
ssS'lightgoldenrod4'
p1992
(dp1993
g4
g5
((lp1994
S'ENSG00000253457'
p1995
aS'ENSG00000173193'
p1996
aS'ENSG00000138964'
p1997
aS'ENSG00000178913'
p1998
aS'ENSG00000167785'
p1999
aS'ENSG00000166523'
p2000
aS'ENSG00000196263'
p2001
aS'ENSG00000143768'
p2002
aS'ENSG00000204169'
p2003
aS'ENSG00000163618'
p2004
aS'ENSG00000095787'
p2005
atRp2006
ssS'yellowgreen'
p2007
(dp2008
g4
g5
((lp2009
S'ENSG00000117505'
p2010
aS'ENSG00000122965'
p2011
aS'ENSG00000172936'
p2012
aS'ENSG00000052795'
p2013
aS'ENSG00000153707'
p2014
aS'ENSG00000204516'
p2015
aS'ENSG00000173638'
p2016
aS'ENSG00000100216'
p2017
aS'ENSG00000099974'
p2018
aS'ENSG00000099977'
p2019
aS'ENSG00000133433'
p2020
aS'ENSG00000132740'
p2021
aS'ENSG00000138399'
p2022
aS'ENSG00000206344'
p2023
aS'ENSG00000178184'
p2024
aS'ENSG00000172922'
p2025
aS'ENSG00000099984'
p2026
aS'ENSG00000160345'
p2027
aS'ENSG00000197555'
p2028
aS'ENSG00000157259'
p2029
aS'ENSG00000158483'
p2030
aS'ENSG00000198039'
p2031
aS'ENSG00000090316'
p2032
atRp2033
ssS'orangered1'
p2034
(dp2035
g79
(lp2036
(lp2037
S'ENSG00000112964'
p2038
aFinf
ag83
(g85
S'}\x82\x01k\x05\xacU?'
tRp2039
ag83
(g85
S'\x00LV>\xb4\x04{?'
tRp2040
aa(lp2041
S'ENSG00000116194'
p2042
aFinf
ag83
(g85
S'\x99\x86\x01k\x05\xace?'
tRp2043
ag83
(g85
S'@\x9e@D\x0b\x96\x85?'
tRp2044
aa(lp2045
S'ENSG00000165072'
p2046
aFinf
ag83
(g85
S'\x99\x86\x01k\x05\xace?'
tRp2047
ag83
(g85
S'@\x9e@D\x0b\x96\x85?'
tRp2048
aa(lp2049
S'ENSG00000163431'
p2050
aFinf
ag83
(g85
S'\xc7\x1eA\x10\x04Ap?'
tRp2051
ag83
(g85
S'@\x9e@D\x0b\x96\x85?'
tRp2052
aa(lp2053
S'ENSG00000124440'
p2054
aFinf
ag83
(g85
S'\x99\x86\x01k\x05\xace?'
tRp2055
ag83
(g85
S'@\x9e@D\x0b\x96\x85?'
tRp2056
aasg4
g5
((lp2057
S'ENSG00000127947'
p2058
aS'ENSG00000168944'
p2059
aS'ENSG00000134247'
p2060
aS'ENSG00000144891'
p2061
aS'ENSG00000071967'
p2062
aS'ENSG00000254122'
p2063
aS'ENSG00000187024'
p2064
aS'ENSG00000213366'
p2065
aS'ENSG00000163297'
p2066
aS'ENSG00000205937'
p2067
aS'ENSG00000100336'
p2068
aS'ENSG00000186567'
p2069
aS'ENSG00000109099'
p2070
aS'ENSG00000067208'
p2071
aS'ENSG00000133424'
p2072
aS'ENSG00000240184'
p2073
aS'ENSG00000095397'
p2074
aS'ENSG00000213339'
p2075
atRp2076
ssS'lightgoldenrod3'
p2077
(dp2078
g4
g5
((lp2079
S'ENSG00000198718'
p2080
aS'ENSG00000184990'
p2081
aS'ENSG00000151503'
p2082
aS'ENSG00000198646'
p2083
aS'ENSG00000101000'
p2084
aS'ENSG00000111731'
p2085
aS'ENSG00000145214'
p2086
aS'ENSG00000088298'
p2087
aS'ENSG00000188312'
p2088
atRp2089
ssS'chartreuse4'
p2090
(dp2091
g4
g5
((lp2092
S'ENSG00000234949'
p2093
aS'ENSG00000104731'
p2094
aS'ENSG00000132313'
p2095
aS'ENSG00000110172'
p2096
aS'ENSG00000130948'
p2097
aS'ENSG00000198001'
p2098
aS'ENSG00000183688'
p2099
aS'ENSG00000127399'
p2100
atRp2101
ssS'darkorchid4'
p2102
(dp2103
g79
(lp2104
(lp2105
S'ENSG00000124875'
p2106
aFinf
ag83
(g85
S'}\x82\x01k\x05\xacU?'
tRp2107
ag83
(g85
S'\x00\x82\x01k\x05\xacU?'
tRp2108
aasg4
g5
((lp2109
S'ENSG00000131196'
p2110
aS'ENSG00000136877'
p2111
aS'ENSG00000105607'
p2112
aS'ENSG00000185518'
p2113
aS'ENSG00000176170'
p2114
aS'ENSG00000160679'
p2115
aS'ENSG00000151778'
p2116
aS'ENSG00000060688'
p2117
aS'ENSG00000157111'
p2118
aS'ENSG00000131795'
p2119
aS'ENSG00000122692'
p2120
atRp2121
ssS'violetred4'
p2122
(dp2123
g79
(lp2124
(lp2125
S'ENSG00000120328'
p2126
aFinf
ag83
(g85
S'U\xe2\x9eU\xf5^\x02?'
tRp2127
ag83
(g85
S'\x00\x10d\xcf\xd1\x8d+?'
tRp2128
aa(lp2129
S'ENSG00000197479'
p2130
aFinf
ag83
(g85
S'U\xe2\x9eU\xf5^\x02?'
tRp2131
ag83
(g85
S'\x00\x10d\xcf\xd1\x8d+?'
tRp2132
aa(lp2133
S'ENSG00000120324'
p2134
ag83
(g85
S'\x00\x00\x00\x00\x00@\x7f@'
tRp2135
ag83
(g85
S'\xf2\x85s\xb8\xb9{\x1b?'
tRp2136
ag83
(g85
S'\x00\x90\xa7}\x9ez;?'
tRp2137
aasg4
g5
((lp2138
S'ENSG00000197479'
p2139
aS'ENSG00000122477'
p2140
aS'ENSG00000196963'
p2141
aS'ENSG00000126262'
p2142
aS'ENSG00000164244'
p2143
aS'ENSG00000163528'
p2144
aS'ENSG00000081818'
p2145
aS'ENSG00000262576'
p2146
aS'ENSG00000125388'
p2147
aS'ENSG00000113248'
p2148
atRp2149
ssS'darkorchid3'
p2150
(dp2151
g4
g5
((lp2152
S'ENSG00000100197'
p2153
aS'ENSG00000150756'
p2154
aS'ENSG00000149231'
p2155
aS'ENSG00000168779'
p2156
aS'ENSG00000122497'
p2157
aS'ENSG00000101751'
p2158
aS'ENSG00000178896'
p2159
aS'ENSG00000127054'
p2160
atRp2161
ssS'blue'
p2162
(dp2163
g4
g5
((lp2164
S'ENSG00000174444'
p2165
aS'ENSG00000147677'
p2166
aS'ENSG00000180817'
p2167
aS'ENSG00000105486'
p2168
aS'ENSG00000138326'
p2169
aS'ENSG00000162069'
p2170
aS'ENSG00000162244'
p2171
aS'ENSG00000116741'
p2172
aS'ENSG00000115486'
p2173
aS'ENSG00000163412'
p2174
aS'ENSG00000070214'
p2175
aS'ENSG00000008517'
p2176
aS'ENSG00000088451'
p2177
aS'ENSG00000221983'
p2178
aS'ENSG00000158669'
p2179
aS'ENSG00000170382'
p2180
aS'ENSG00000010438'
p2181
aS'ENSG00000142534'
p2182
aS'ENSG00000134419'
p2183
aS'ENSG00000186468'
p2184
aS'ENSG00000116874'
p2185
aS'ENSG00000091592'
p2186
aS'ENSG00000166573'
p2187
aS'ENSG00000132581'
p2188
aS'ENSG00000023839'
p2189
aS'ENSG00000196683'
p2190
aS'ENSG00000196152'
p2191
aS'ENSG00000137709'
p2192
aS'ENSG00000138375'
p2193
aS'ENSG00000122512'
p2194
aS'ENSG00000007312'
p2195
aS'ENSG00000171222'
p2196
aS'ENSG00000101367'
p2197
aS'ENSG00000144747'
p2198
aS'ENSG00000136936'
p2199
aS'ENSG00000221838'
p2200
aS'ENSG00000187800'
p2201
aS'ENSG00000141255'
p2202
aS'ENSG00000168061'
p2203
aS'ENSG00000132530'
p2204
aS'ENSG00000205129'
p2205
aS'ENSG00000103248'
p2206
aS'ENSG00000196531'
p2207
aS'ENSG00000156482'
p2208
aS'ENSG00000075399'
p2209
aS'ENSG00000186074'
p2210
aS'ENSG00000102970'
p2211
atRp2212
ssS'rosybrown2'
p2213
(dp2214
g4
g5
((lp2215
S'ENSG00000182093'
p2216
aS'ENSG00000185437'
p2217
aS'ENSG00000157578'
p2218
aS'ENSG00000165985'
p2219
aS'ENSG00000157837'
p2220
aS'ENSG00000099260'
p2221
aS'ENSG00000140391'
p2222
aS'ENSG00000211455'
p2223
aS'ENSG00000090905'
p2224
atRp2225
ssS'honeydew'
p2226
(dp2227
g4
g5
((lp2228
S'ENSG00000170631'
p2229
aS'ENSG00000184227'
p2230
aS'ENSG00000164053'
p2231
aS'ENSG00000008277'
p2232
aS'ENSG00000061918'
p2233
aS'ENSG00000125124'
p2234
aS'ENSG00000196126'
p2235
aS'ENSG00000183248'
p2236
aS'ENSG00000196735'
p2237
aS'ENSG00000183484'
p2238
aS'ENSG00000113763'
p2239
aS'ENSG00000177465'
p2240
aS'ENSG00000179344'
p2241
aS'ENSG00000166796'
p2242
aS'ENSG00000198502'
p2243
aS'ENSG00000124532'
p2244
aS'ENSG00000181408'
p2245
aS'ENSG00000152467'
p2246
atRp2247
ssS'cornflowerblue'
p2248
(dp2249
g4
g5
((lp2250
S'ENSG00000118596'
p2251
aS'ENSG00000177685'
p2252
aS'ENSG00000178623'
p2253
aS'ENSG00000253305'
p2254
aS'ENSG00000185591'
p2255
aS'ENSG00000114739'
p2256
aS'ENSG00000184207'
p2257
aS'ENSG00000255284'
p2258
aS'ENSG00000174292'
p2259
aS'ENSG00000145703'
p2260
aS'ENSG00000161618'
p2261
aS'ENSG00000125398'
p2262
aS'ENSG00000177600'
p2263
aS'ENSG00000030066'
p2264
aS'ENSG00000242485'
p2265
atRp2266
ssS'khaki3'
p2267
(dp2268
g4
g5
((lp2269
S'ENSG00000169203'
p2270
aS'ENSG00000205307'
p2271
aS'ENSG00000114423'
p2272
aS'ENSG00000198064'
p2273
aS'ENSG00000254206'
p2274
aS'ENSG00000187186'
p2275
aS'ENSG00000172780'
p2276
aS'ENSG00000181016'
p2277
aS'ENSG00000112695'
p2278
aS'ENSG00000103375'
p2279
aS'ENSG00000184752'
p2280
atRp2281
ssS'purple'
p2282
(dp2283
g4
g5
((lp2284
S'ENSG00000128944'
p2285
aS'ENSG00000004799'
p2286
aS'ENSG00000177556'
p2287
aS'ENSG00000049089'
p2288
aS'ENSG00000134201'
p2289
aS'ENSG00000123124'
p2290
aS'ENSG00000121691'
p2291
aS'ENSG00000126583'
p2292
aS'ENSG00000167723'
p2293
aS'ENSG00000106153'
p2294
aS'ENSG00000167315'
p2295
aS'ENSG00000162444'
p2296
aS'ENSG00000072778'
p2297
aS'ENSG00000162461'
p2298
aS'ENSG00000197312'
p2299
aS'ENSG00000105854'
p2300
aS'ENSG00000131558'
p2301
aS'ENSG00000076554'
p2302
aS'ENSG00000157833'
p2303
aS'ENSG00000147853'
p2304
aS'ENSG00000168297'
p2305
aS'ENSG00000116771'
p2306
aS'ENSG00000181481'
p2307
aS'ENSG00000196209'
p2308
aS'ENSG00000133835'
p2309
aS'ENSG00000167772'
p2310
aS'ENSG00000139651'
p2311
aS'ENSG00000114771'
p2312
aS'ENSG00000170949'
p2313
aS'ENSG00000116786'
p2314
aS'ENSG00000065457'
p2315
atRp2316
ssS'olivedrab4'
p2317
(dp2318
g4
g5
((lp2319
S'ENSG00000125430'
p2320
aS'ENSG00000078687'
p2321
aS'ENSG00000169991'
p2322
aS'ENSG00000169220'
p2323
aS'ENSG00000124191'
p2324
aS'ENSG00000148341'
p2325
aS'ENSG00000095321'
p2326
aS'ENSG00000137103'
p2327
aS'ENSG00000105229'
p2328
aS'ENSG00000167130'
p2329
atRp2330
ssS'wheat1'
p2331
(dp2332
g79
(lp2333
(lp2334
S'ENSG00000135373'
p2335
aFinf
ag83
(g85
S'}\x82\x01k\x05\xacU?'
tRp2336
ag83
(g85
S'\x80\x9e\xdb\xa9\x83;p?'
tRp2337
aa(lp2338
S'ENSG00000167741'
p2339
aFinf
ag83
(g85
S'\xca\x8a\x01k\x05\xacu?'
tRp2340
ag83
(g85
S'\xc0\xd9*\x07X\x9d\x85?'
tRp2341
aa(lp2342
S'ENSG00000083307'
p2343
aFinf
ag83
(g85
S'\xcf\x1b"s\x87\xcc\x9d?'
tRp2344
ag83
(g85
S'\xc0\x1b"s\x87\xcc\x9d?'
tRp2345
aasg4
g5
((lp2346
S'ENSG00000231672'
p2347
aS'ENSG00000129514'
p2348
aS'ENSG00000154832'
p2349
aS'ENSG00000183307'
p2350
aS'ENSG00000108947'
p2351
aS'ENSG00000104626'
p2352
aS'ENSG00000129484'
p2353
aS'ENSG00000092094'
p2354
aS'ENSG00000064270'
p2355
aS'ENSG00000174891'
p2356
aS'ENSG00000125826'
p2357
aS'ENSG00000032444'
p2358
atRp2359
ssS'palevioletred1'
p2360
(dp2361
g79
(lp2362
(lp2363
S'ENSG00000162511'
p2364
ag83
(g85
S'UUUUU\x15_@'
tRp2365
ag83
(g85
S'\xc1$\xf1\xcf\xd7\x15C?'
tRp2366
ag83
(g85
S'\x00\x90\xa6\x07\xbc\xf6\x8f?'
tRp2367
aasg4
g5
((lp2368
S'ENSG00000057468'
p2369
aS'ENSG00000132437'
p2370
aS'ENSG00000181458'
p2371
aS'ENSG00000178078'
p2372
aS'ENSG00000253276'
p2373
aS'ENSG00000110042'
p2374
aS'ENSG00000171051'
p2375
aS'ENSG00000151240'
p2376
aS'ENSG00000167566'
p2377
aS'ENSG00000243440'
p2378
aS'ENSG00000143226'
p2379
aS'ENSG00000165879'
p2380
aS'ENSG00000242616'
p2381
aS'ENSG00000139572'
p2382
aS'ENSG00000100644'
p2383
aS'ENSG00000196466'
p2384
aS'ENSG00000133657'
p2385
atRp2386
ssS'palevioletred2'
p2387
(dp2388
g4
g5
((lp2389
S'ENSG00000141582'
p2390
aS'ENSG00000118762'
p2391
aS'ENSG00000144791'
p2392
aS'ENSG00000034533'
p2393
aS'ENSG00000007384'
p2394
aS'ENSG00000152784'
p2395
aS'ENSG00000171357'
p2396
aS'ENSG00000152778'
p2397
aS'ENSG00000204889'
p2398
aS'ENSG00000173281'
p2399
aS'ENSG00000116663'
p2400
aS'ENSG00000137814'
p2401
aS'ENSG00000180376'
p2402
aS'ENSG00000113211'
p2403
aS'ENSG00000115507'
p2404
aS'ENSG00000134265'
p2405
aS'ENSG00000182771'
p2406
aS'ENSG00000130312'
p2407
aS'ENSG00000171617'
p2408
atRp2409
ssS'palevioletred3'
p2410
(dp2411
g4
g5
((lp2412
S'ENSG00000185803'
p2413
aS'ENSG00000040731'
p2414
aS'ENSG00000164346'
p2415
aS'ENSG00000005075'
p2416
aS'ENSG00000164066'
p2417
aS'ENSG00000128609'
p2418
aS'ENSG00000140983'
p2419
aS'ENSG00000143258'
p2420
aS'ENSG00000128271'
p2421
aS'ENSG00000106400'
p2422
aS'ENSG00000175221'
p2423
aS'ENSG00000161180'
p2424
aS'ENSG00000138071'
p2425
aS'ENSG00000196072'
p2426
aS'ENSG00000143436'
p2427
aS'ENSG00000111581'
p2428
aS'ENSG00000198909'
p2429
aS'ENSG00000145741'
p2430
aS'ENSG00000126249'
p2431
aS'ENSG00000115275'
p2432
aS'ENSG00000254505'
p2433
aS'ENSG00000204356'
p2434
atRp2435
ssS'coral3'
p2436
(dp2437
g79
(lp2438
(lp2439
S'ENSG00000103534'
p2440
ag83
(g85
S'\x00\x00\x00\x00\x00\x88\x87@'
tRp2441
ag83
(g85
S'E\xe6\x89\xd3X\xa8u?'
tRp2442
ag83
(g85
S'\xb0\xfd\xb0\xdd\xd1B\xa5?'
tRp2443
aasg4
g5
((lp2444
S'ENSG00000134864'
p2445
aS'ENSG00000163072'
p2446
aS'ENSG00000186283'
p2447
aS'ENSG00000111224'
p2448
aS'ENSG00000168675'
p2449
aS'ENSG00000163817'
p2450
aS'ENSG00000134569'
p2451
aS'ENSG00000101199'
p2452
aS'ENSG00000136950'
p2453
aS'ENSG00000188986'
p2454
aS'ENSG00000157368'
p2455
aS'ENSG00000160293'
p2456
aS'ENSG00000102796'
p2457
aS'ENSG00000132122'
p2458
aS'ENSG00000149179'
p2459
aS'ENSG00000170873'
p2460
aS'ENSG00000144815'
p2461
aS'ENSG00000066032'
p2462
atRp2463
ssS'coral2'
p2464
(dp2465
g4
g5
((lp2466
S'ENSG00000103264'
p2467
aS'ENSG00000259803'
p2468
aS'ENSG00000129910'
p2469
aS'ENSG00000115677'
p2470
aS'ENSG00000125166'
p2471
aS'ENSG00000125877'
p2472
aS'ENSG00000115825'
p2473
aS'ENSG00000196748'
p2474
aS'ENSG00000175137'
p2475
aS'ENSG00000106018'
p2476
aS'ENSG00000176715'
p2477
aS'ENSG00000113318'
p2478
aS'ENSG00000198515'
p2479
aS'ENSG00000094796'
p2480
aS'ENSG00000077782'
p2481
aS'ENSG00000129993'
p2482
aS'ENSG00000164885'
p2483
aS'ENSG00000170100'
p2484
aS'ENSG00000068654'
p2485
aS'ENSG00000124275'
p2486
atRp2487
ssS'coral1'
p2488
(dp2489
g4
g5
((lp2490
S'ENSG00000141294'
p2491
aS'ENSG00000166321'
p2492
aS'ENSG00000091542'
p2493
aS'ENSG00000161896'
p2494
aS'ENSG00000179134'
p2495
aS'ENSG00000183709'
p2496
aS'ENSG00000177181'
p2497
aS'ENSG00000103549'
p2498
aS'ENSG00000137947'
p2499
aS'ENSG00000198561'
p2500
aS'ENSG00000116752'
p2501
aS'ENSG00000120868'
p2502
aS'ENSG00000129946'
p2503
aS'ENSG00000006740'
p2504
aS'ENSG00000164136'
p2505
aS'ENSG00000091073'
p2506
aS'ENSG00000113716'
p2507
aS'ENSG00000163510'
p2508
aS'ENSG00000156968'
p2509
aS'ENSG00000204147'
p2510
aS'ENSG00000163041'
p2511
atRp2512
ssS'deepskyblue4'
p2513
(dp2514
g4
g5
((lp2515
S'ENSG00000183439'
p2516
aS'ENSG00000143498'
p2517
aS'ENSG00000249915'
p2518
aS'ENSG00000198265'
p2519
aS'ENSG00000101276'
p2520
aS'ENSG00000107897'
p2521
aS'ENSG00000146247'
p2522
aS'ENSG00000058804'
p2523
aS'ENSG00000123411'
p2524
aS'ENSG00000148154'
p2525
aS'ENSG00000213551'
p2526
atRp2527
ssS'rosybrown3'
p2528
(dp2529
g79
(lp2530
(lp2531
S'ENSG00000149557'
p2532
aFinf
ag83
(g85
S'\xf4!A\x10\x04Ap?'
tRp2533
ag83
(g85
S'\xa0\x1d\xa1-\xae\x07\xa0?'
tRp2534
aa(lp2535
S'ENSG00000175785'
p2536
aFinf
ag83
(g85
S'\xf4!A\x10\x04Ap?'
tRp2537
ag83
(g85
S'\xa0\x1d\xa1-\xae\x07\xa0?'
tRp2538
aa(lp2539
S'ENSG00000046653'
p2540
aFinf
ag83
(g85
S'\xf4!A\x10\x04Ap?'
tRp2541
ag83
(g85
S'\xa0\x1d\xa1-\xae\x07\xa0?'
tRp2542
aasg4
g5
((lp2543
S'ENSG00000181449'
p2544
aS'ENSG00000092203'
p2545
aS'ENSG00000100146'
p2546
aS'ENSG00000182179'
p2547
aS'ENSG00000138668'
p2548
aS'ENSG00000099338'
p2549
aS'ENSG00000153902'
p2550
aS'ENSG00000104219'
p2551
aS'ENSG00000162613'
p2552
aS'ENSG00000215251'
p2553
aS'ENSG00000182150'
p2554
atRp2555
ssS'cornsilk'
p2556
(dp2557
g4
g5
((lp2558
S'ENSG00000108924'
p2559
aS'ENSG00000010310'
p2560
aS'ENSG00000075461'
p2561
aS'ENSG00000159905'
p2562
aS'ENSG00000206530'
p2563
aS'ENSG00000151893'
p2564
aS'ENSG00000122729'
p2565
aS'ENSG00000095932'
p2566
aS'ENSG00000140093'
p2567
aS'ENSG00000118402'
p2568
aS'ENSG00000077616'
p2569
aS'ENSG00000135870'
p2570
aS'ENSG00000152556'
p2571
aS'ENSG00000166402'
p2572
atRp2573
ssS'indianred2'
p2574
(dp2575
g4
g5
((lp2576
S'ENSG00000139531'
p2577
aS'ENSG00000120647'
p2578
aS'ENSG00000197157'
p2579
aS'ENSG00000146409'
p2580
aS'ENSG00000196118'
p2581
aS'ENSG00000128886'
p2582
aS'ENSG00000133703'
p2583
aS'ENSG00000112343'
p2584
aS'ENSG00000198912'
p2585
aS'ENSG00000128408'
p2586
aS'ENSG00000108465'
p2587
aS'ENSG00000100372'
p2588
aS'ENSG00000138613'
p2589
aS'ENSG00000161692'
p2590
aS'ENSG00000145495'
p2591
aS'ENSG00000152672'
p2592
atRp2593
ssS'coral4'
p2594
(dp2595
g4
g5
((lp2596
S'ENSG00000145020'
p2597
aS'ENSG00000166847'
p2598
aS'ENSG00000042317'
p2599
aS'ENSG00000167792'
p2600
aS'ENSG00000196417'
p2601
aS'ENSG00000175348'
p2602
aS'ENSG00000267127'
p2603
aS'ENSG00000032389'
p2604
aS'ENSG00000170445'
p2605
aS'ENSG00000235863'
p2606
aS'ENSG00000160226'
p2607
aS'ENSG00000167646'
p2608
aS'ENSG00000137310'
p2609
aS'ENSG00000203818'
p2610
aS'ENSG00000124143'
p2611
aS'ENSG00000119147'
p2612
atRp2613
ssS'lightblue2'
p2614
(dp2615
g79
(lp2616
(lp2617
S'ENSG00000152669'
p2618
aFinf
ag83
(g85
S'\x88\x82\x01k\x05\xace?'
tRp2619
ag83
(g85
S' \xefY\xedI?\xa5?'
tRp2620
aa(lp2621
S'ENSG00000164099'
p2622
aFinf
ag83
(g85
S'\x88\x82\x01k\x05\xace?'
tRp2623
ag83
(g85
S' \xefY\xedI?\xa5?'
tRp2624
aa(lp2625
S'ENSG00000162105'
p2626
aFinf
ag83
(g85
S'\x88\x82\x01k\x05\xace?'
tRp2627
ag83
(g85
S' \xefY\xedI?\xa5?'
tRp2628
aa(lp2629
S'ENSG00000131409'
p2630
aFinf
ag83
(g85
S'\x88\x82\x01k\x05\xace?'
tRp2631
ag83
(g85
S' \xefY\xedI?\xa5?'
tRp2632
aa(lp2633
S'ENSG00000186472'
p2634
aFinf
ag83
(g85
S'\x88\x82\x01k\x05\xace?'
tRp2635
ag83
(g85
S' \xefY\xedI?\xa5?'
tRp2636
aasg4
g5
((lp2637
S'ENSG00000043591'
p2638
aS'ENSG00000189269'
p2639
aS'ENSG00000120662'
p2640
aS'ENSG00000148814'
p2641
aS'ENSG00000171262'
p2642
aS'ENSG00000140527'
p2643
aS'ENSG00000172766'
p2644
aS'ENSG00000140043'
p2645
aS'ENSG00000082196'
p2646
aS'ENSG00000244754'
p2647
aS'ENSG00000125630'
p2648
aS'ENSG00000162913'
p2649
aS'ENSG00000131061'
p2650
aS'ENSG00000146386'
p2651
aS'ENSG00000130517'
p2652
atRp2653
ssS'lightblue3'
p2654
(dp2655
g79
(lp2656
(lp2657
g2339
ag83
(g85
S'\x00\x00\x00\x00\x00@_@'
tRp2658
ag83
(g85
S'[\xb6\xb5$\x7f0\x90?'
tRp2659
ag83
(g85
S'0v \xe9\xf9\xe6\xa7?'
tRp2660
aasg4
g5
((lp2661
S'ENSG00000182511'
p2662
aS'ENSG00000249087'
p2663
aS'ENSG00000162994'
p2664
aS'ENSG00000159708'
p2665
aS'ENSG00000203872'
p2666
aS'ENSG00000135373'
p2667
aS'ENSG00000000457'
p2668
aS'ENSG00000145103'
p2669
aS'ENSG00000136848'
p2670
aS'ENSG00000198056'
p2671
aS'ENSG00000125945'
p2672
aS'ENSG00000089163'
p2673
aS'ENSG00000170917'
p2674
aS'ENSG00000167720'
p2675
aS'ENSG00000011523'
p2676
aS'ENSG00000166192'
p2677
atRp2678
ssS'lightblue1'
p2679
(dp2680
g79
(lp2681
(lp2682
g2440
ag83
(g85
S'\x00\x00\x00\x00\x00\x88\x87@'
tRp2683
ag83
(g85
S'E\xe6\x89\xd3X\xa8u?'
tRp2684
ag83
(g85
S'\x106\xbe<\x06\xa7\xa2?'
tRp2685
aa(lp2686
S'ENSG00000148346'
p2687
ag83
(g85
S'\x00\x00\x00\x00\x00\x80w@'
tRp2688
ag83
(g85
S'\x1f\xb9\r-\x81;\x80?'
tRp2689
ag83
(g85
S'\x90\x87\xb0\xe1\n\xdf\xa7?'
tRp2690
aa(lp2691
S'ENSG00000176153'
p2692
ag83
(g85
S'\x00\x00\x00\x00\x00\x80w@'
tRp2693
ag83
(g85
S'\x1f\xb9\r-\x81;\x80?'
tRp2694
ag83
(g85
S'\x90\x87\xb0\xe1\n\xdf\xa7?'
tRp2695
aa(lp2696
S'ENSG00000197249'
p2697
ag83
(g85
S'\x00\x00\x00\x00\x00\x80w@'
tRp2698
ag83
(g85
S'\x1f\xb9\r-\x81;\x80?'
tRp2699
ag83
(g85
S'\x90\x87\xb0\xe1\n\xdf\xa7?'
tRp2700
aasg4
g5
((lp2701
S'ENSG00000132849'
p2702
aS'ENSG00000106927'
p2703
aS'ENSG00000001036'
p2704
aS'ENSG00000140961'
p2705
aS'ENSG00000105701'
p2706
aS'ENSG00000087086'
p2707
aS'ENSG00000135362'
p2708
aS'ENSG00000169919'
p2709
aS'ENSG00000165916'
p2710
aS'ENSG00000185163'
p2711
aS'ENSG00000163110'
p2712
aS'ENSG00000023909'
p2713
aS'ENSG00000159228'
p2714
atRp2715
ssS'lightslateblue'
p2716
(dp2717
g79
(lp2718
(lp2719
S'ENSG00000108018'
p2720
aFinf
ag83
(g85
S'\xf4!A\x10\x04Ap?'
tRp2721
ag83
(g85
S'\xc0\x000:\xee#\x98?'
tRp2722
aa(lp2723
S'ENSG00000214456'
p2724
ag83
(g85
S'\x00\x00\x00\x00\x00\x80w@'
tRp2725
ag83
(g85
S'E\xbf\r-\x81;\x80?'
tRp2726
ag83
(g85
S'\x10\x91\x05\x84\xb0\xf8\xa3?'
tRp2727
aa(lp2728
S'ENSG00000170500'
p2729
ag83
(g85
S'\x00\x00\x00\x00\x00xg@'
tRp2730
ag83
(g85
S'g\xed\xceM\xffP\x88?'
tRp2731
ag83
(g85
S'\xc0\x82#\x83\x01\xe3\xa7?'
tRp2732
aasg4
g5
((lp2733
S'ENSG00000105699'
p2734
aS'ENSG00000083123'
p2735
aS'ENSG00000188157'
p2736
aS'ENSG00000185344'
p2737
aS'ENSG00000184313'
p2738
aS'ENSG00000014138'
p2739
aS'ENSG00000038210'
p2740
aS'ENSG00000153048'
p2741
aS'ENSG00000165644'
p2742
aS'ENSG00000145284'
p2743
aS'ENSG00000214456'
p2744
aS'ENSG00000142188'
p2745
aS'ENSG00000070759'
p2746
aS'ENSG00000145882'
p2747
aS'ENSG00000236624'
p2748
aS'ENSG00000167676'
p2749
aS'ENSG00000071051'
p2750
aS'ENSG00000092531'
p2751
atRp2752
ssS'lightblue4'
p2753
(dp2754
g79
(lp2755
(lp2756
S'ENSG00000136235'
p2757
ag83
(g85
S'\x00\x00\x00\x00\x00\x80w@'
tRp2758
ag83
(g85
S'E\xbf\r-\x81;\x80?'
tRp2759
ag83
(g85
S'\xa0\xe4fM\t+\x90?'
tRp2760
aa(lp2761
S'ENSG00000134709'
p2762
ag83
(g85
S'\x00\x00\x00\x00\x00xg@'
tRp2763
ag83
(g85
S'g\xed\xceM\xffP\x88?'
tRp2764
ag83
(g85
S'\xa0\xe4fM\t+\x90?'
tRp2765
aasg4
g5
((lp2766
S'ENSG00000162373'
p2767
aS'ENSG00000261652'
p2768
aS'ENSG00000250506'
p2769
aS'ENSG00000110786'
p2770
aS'ENSG00000111364'
p2771
aS'ENSG00000198218'
p2772
aS'ENSG00000257949'
p2773
aS'ENSG00000181924'
p2774
aS'ENSG00000145041'
p2775
aS'ENSG00000112378'
p2776
aS'ENSG00000163938'
p2777
aS'ENSG00000197646'
p2778
aS'ENSG00000164171'
p2779
aS'ENSG00000187017'
p2780
aS'ENSG00000111906'
p2781
aS'ENSG00000116688'
p2782
aS'ENSG00000105700'
p2783
aS'ENSG00000141994'
p2784
atRp2785
ssS'lightsteelblue1'
p2786
(dp2787
g4
g5
((lp2788
S'ENSG00000178809'
p2789
aS'ENSG00000168502'
p2790
aS'ENSG00000176386'
p2791
aS'ENSG00000157106'
p2792
aS'ENSG00000184983'
p2793
aS'ENSG00000138942'
p2794
aS'ENSG00000243056'
p2795
aS'ENSG00000115760'
p2796
aS'ENSG00000119714'
p2797
aS'ENSG00000182957'
p2798
aS'ENSG00000127481'
p2799
aS'ENSG00000138688'
p2800
aS'ENSG00000149196'
p2801
aS'ENSG00000125633'
p2802
aS'ENSG00000055609'
p2803
aS'ENSG00000101558'
p2804
aS'ENSG00000127578'
p2805
aS'ENSG00000188994'
p2806
aS'ENSG00000115464'
p2807
aS'ENSG00000172650'
p2808
aS'ENSG00000107521'
p2809
aS'ENSG00000075539'
p2810
aS'ENSG00000075413'
p2811
atRp2812
ssS'skyblue4'
p2813
(dp2814
g79
(lp2815
(lp2816
S'ENSG00000148773'
p2817
ag83
(g85
S'\xcd\xcc\xcc\xcc\xcc@\x90@'
tRp2818
ag83
(g85
S'\x82\x01n\x9cuFP='
tRp2819
ag83
(g85
S'\x00\x00\x00\x00\x80Wt='
tRp2820
aa(lp2821
S'ENSG00000131747'
p2822
ag83
(g85
S'\x00\x00\x00\x00\x00\xa0b@'
tRp2823
ag83
(g85
S'\x14B\xa3\xe7#!\xf0>'
tRp2824
ag83
(g85
S'\x00@\xe1\x83\x0b!\x10?'
tRp2825
aa(lp2826
S'ENSG00000117399'
p2827
aFinf
ag83
(g85
S'\x89\x82\x01k\x05\xac\x85?'
tRp2828
ag83
(g85
S'\x00\xf5|\xa7#\x15\xa0?'
tRp2829
aa(lp2830
S'ENSG00000111206'
p2831
aFinf
ag83
(g85
S'\x89\x82\x01k\x05\xac\x85?'
tRp2832
ag83
(g85
S'\x00\xf5|\xa7#\x15\xa0?'
tRp2833
aasg4
g5
((lp2834
S'ENSG00000138778'
p2835
aS'ENSG00000085999'
p2836
aS'ENSG00000085741'
p2837
aS'ENSG00000170312'
p2838
aS'ENSG00000160218'
p2839
aS'ENSG00000146223'
p2840
aS'ENSG00000171109'
p2841
aS'ENSG00000091947'
p2842
aS'ENSG00000115163'
p2843
aS'ENSG00000173599'
p2844
aS'ENSG00000109066'
p2845
aS'ENSG00000093009'
p2846
aS'ENSG00000196584'
p2847
aS'ENSG00000137804'
p2848
aS'ENSG00000117650'
p2849
aS'ENSG00000138758'
p2850
aS'ENSG00000124787'
p2851
aS'ENSG00000112984'
p2852
atRp2853
ssS'deepskyblue'
p2854
(dp2855
g4
g5
((lp2856
S'ENSG00000136856'
p2857
aS'ENSG00000170074'
p2858
aS'ENSG00000006607'
p2859
aS'ENSG00000141404'
p2860
aS'ENSG00000160325'
p2861
aS'ENSG00000100243'
p2862
aS'ENSG00000188643'
p2863
aS'ENSG00000067596'
p2864
aS'ENSG00000100036'
p2865
aS'ENSG00000116406'
p2866
aS'ENSG00000051523'
p2867
aS'ENSG00000164081'
p2868
aS'ENSG00000160190'
p2869
atRp2870
ssS'skyblue1'
p2871
(dp2872
g79
(lp2873
(lp2874
S'ENSG00000181092'
p2875
ag83
(g85
S'UUUUUEc@'
tRp2876
ag83
(g85
S'\x0f\xa8\xc5\x95\xb9\x8cb>'
tRp2877
ag83
(g85
S'\x00\x00\x00\x93~\x81\xa9>'
tRp2878
aa(lp2879
S'ENSG00000226482'
p2880
ag83
(g85
S']t\xd1E\x17\xdd`@'
tRp2881
ag83
(g85
S'\xd6"\xb1X.\x9bJ?'
tRp2882
ag83
(g85
S'\xa0\x95%\xfb\xbaQ\x91?'
tRp2883
aa(lp2884
S'ENSG00000187288'
p2885
ag83
(g85
S']t\xd1E\x17\xdd`@'
tRp2886
ag83
(g85
S'\xd6"\xb1X.\x9bJ?'
tRp2887
ag83
(g85
S'\xa0\x95%\xfb\xbaQ\x91?'
tRp2888
aa(lp2889
S'ENSG00000170323'
p2890
ag83
(g85
S'\x17]t\xd1E\xd7P@'
tRp2891
ag83
(g85
S'?vZ\xa9\xf3XZ?'
tRp2892
ag83
(g85
S'@F\xbaw\xc1\xd6\x9e?'
tRp2893
aasg4
g5
((lp2894
S'ENSG00000173641'
p2895
aS'ENSG00000135917'
p2896
aS'ENSG00000132170'
p2897
aS'ENSG00000170323'
p2898
aS'ENSG00000018625'
p2899
aS'ENSG00000182263'
p2900
aS'ENSG00000154736'
p2901
aS'ENSG00000009950'
p2902
aS'ENSG00000169710'
p2903
aS'ENSG00000130876'
p2904
aS'ENSG00000218537'
p2905
aS'ENSG00000160307'
p2906
aS'ENSG00000196549'
p2907
aS'ENSG00000179913'
p2908
aS'ENSG00000111676'
p2909
aS'ENSG00000186205'
p2910
aS'ENSG00000124253'
p2911
aS'ENSG00000198750'
p2912
aS'ENSG00000184674'
p2913
aS'ENSG00000181856'
p2914
atRp2915
ssS'darkred'
p2916
(dp2917
g79
(lp2918
(lp2919
g1158
ag83
(g85
S'\x00\x00\x00\x00\x00\x80b@'
tRp2920
ag83
(g85
S'n\x06\xe1\xd0\xdbB\xb2>'
tRp2921
ag83
(g85
S'\x00\x801\xd6*\x8b\xf4>'
tRp2922
aa(lp2923
S'ENSG00000197893'
p2924
aFinf
ag83
(g85
S'v!\xcbw\x9d\xe54?'
tRp2925
ag83
(g85
S'\x00\xad\xd3l}%v?'
tRp2926
aa(lp2927
S'ENSG00000198125'
p2928
aFinf
ag83
(g85
S'v!\xcbw\x9d\xe54?'
tRp2929
ag83
(g85
S'\x00\xad\xd3l}%v?'
tRp2930
aa(lp2931
S'ENSG00000198523'
p2932
ag83
(g85
S'\x00\x00\x00\x00\x00\xe0^@'
tRp2933
ag83
(g85
S'\xc5w.lH\x03O?'
tRp2934
ag83
(g85
S'\x80 \x80\xf5\xf7\xe1\x8c?'
tRp2935
aa(lp2936
S'ENSG00000068976'
p2937
ag83
(g85
S'\x00\x00\x00\x00\x00\xe0^@'
tRp2938
ag83
(g85
S'\xc5w.lH\x03O?'
tRp2939
ag83
(g85
S'\x80 \x80\xf5\xf7\xe1\x8c?'
tRp2940
aa(lp2941
S'ENSG00000122367'
p2942
ag83
(g85
S'\x00\x00\x00\x00\x00\xe0^@'
tRp2943
ag83
(g85
S'\xc5w.lH\x03O?'
tRp2944
ag83
(g85
S'\x80 \x80\xf5\xf7\xe1\x8c?'
tRp2945
aa(lp2946
S'ENSG00000133392'
p2947
ag83
(g85
S'r\x1c\xc7q\x1c\x87D@'
tRp2948
ag83
(g85
S'H\xa3\xfaC~Li?'
tRp2949
ag83
(g85
S'@\x05\xf9\xa5\xb5\xa7\xa2?'
tRp2950
aasg4
g5
((lp2951
S'ENSG00000197893'
p2952
aS'ENSG00000075884'
p2953
aS'ENSG00000159173'
p2954
aS'ENSG00000130595'
p2955
aS'ENSG00000162366'
p2956
aS'ENSG00000138100'
p2957
aS'ENSG00000144559'
p2958
aS'ENSG00000176476'
p2959
aS'ENSG00000182676'
p2960
aS'ENSG00000144063'
p2961
aS'ENSG00000163399'
p2962
aS'ENSG00000189182'
p2963
aS'ENSG00000178150'
p2964
aS'ENSG00000156885'
p2965
aS'ENSG00000136153'
p2966
aS'ENSG00000137699'
p2967
aS'ENSG00000143318'
p2968
aS'ENSG00000165953'
p2969
aS'ENSG00000060971'
p2970
aS'ENSG00000168530'
p2971
aS'ENSG00000173598'
p2972
aS'ENSG00000188910'
p2973
aS'ENSG00000158022'
p2974
aS'ENSG00000197530'
p2975
aS'ENSG00000186532'
p2976
aS'ENSG00000163964'
p2977
aS'ENSG00000089063'
p2978
atRp2979
ssS'skyblue2'
p2980
(dp2981
g79
(lp2982
(lp2983
S'ENSG00000102935'
p2984
ag83
(g85
S'\x00\x00\x00\x00\x00HG@'
tRp2985
ag83
(g85
S'2\xe4\x12\xe1\xb1\x17\xa2?'
tRp2986
ag83
(g85
S'0\xe4\x12\xe1\xb1\x17\xa2?'
tRp2987
aasg4
g5
((lp2988
S'ENSG00000047365'
p2989
aS'ENSG00000117834'
p2990
aS'ENSG00000157379'
p2991
aS'ENSG00000178852'
p2992
aS'ENSG00000224226'
p2993
aS'ENSG00000151929'
p2994
aS'ENSG00000197457'
p2995
aS'ENSG00000187630'
p2996
aS'ENSG00000169372'
p2997
aS'ENSG00000128833'
p2998
aS'ENSG00000140450'
p2999
aS'ENSG00000089250'
p3000
aS'ENSG00000140299'
p3001
aS'ENSG00000103326'
p3002
aS'ENSG00000111554'
p3003
aS'ENSG00000157326'
p3004
aS'ENSG00000167178'
p3005
aS'ENSG00000128039'
p3006
aS'ENSG00000164576'
p3007
aS'ENSG00000115112'
p3008
atRp3009
ssS'lavenderblush1'
p3010
(dp3011
g4
g5
((lp3012
S'ENSG00000136404'
p3013
aS'ENSG00000071246'
p3014
aS'ENSG00000171135'
p3015
aS'ENSG00000069998'
p3016
aS'ENSG00000158458'
p3017
aS'ENSG00000183386'
p3018
aS'ENSG00000109163'
p3019
aS'ENSG00000153246'
p3020
aS'ENSG00000188342'
p3021
aS'ENSG00000198467'
p3022
aS'ENSG00000107738'
p3023
aS'ENSG00000105270'
p3024
aS'ENSG00000141540'
p3025
aS'ENSG00000088854'
p3026
aS'ENSG00000030110'
p3027
aS'ENSG00000161791'
p3028
atRp3029
ssS'lavenderblush3'
p3030
(dp3031
g4
g5
((lp3032
S'ENSG00000187260'
p3033
aS'ENSG00000164941'
p3034
aS'ENSG00000119185'
p3035
aS'ENSG00000057019'
p3036
aS'ENSG00000044459'
p3037
aS'ENSG00000185220'
p3038
aS'ENSG00000188747'
p3039
aS'ENSG00000078900'
p3040
aS'ENSG00000184465'
p3041
aS'ENSG00000244242'
p3042
aS'ENSG00000204442'
p3043
aS'ENSG00000122741'
p3044
aS'ENSG00000126870'
p3045
aS'ENSG00000112309'
p3046
aS'ENSG00000006459'
p3047
aS'ENSG00000130226'
p3048
aS'ENSG00000174007'
p3049
aS'ENSG00000140104'
p3050
aS'ENSG00000144026'
p3051
aS'ENSG00000006451'
p3052
aS'ENSG00000106976'
p3053
atRp3054
ssS'lavenderblush2'
p3055
(dp3056
g4
g5
((lp3057
S'ENSG00000112619'
p3058
aS'ENSG00000164970'
p3059
aS'ENSG00000144827'
p3060
aS'ENSG00000087077'
p3061
aS'ENSG00000100592'
p3062
aS'ENSG00000140563'
p3063
aS'ENSG00000103199'
p3064
aS'ENSG00000089177'
p3065
aS'ENSG00000164989'
p3066
aS'ENSG00000165171'
p3067
aS'ENSG00000166529'
p3068
aS'ENSG00000143466'
p3069
aS'ENSG00000128683'
p3070
aS'ENSG00000143149'
p3071
aS'ENSG00000005156'
p3072
aS'ENSG00000137513'
p3073
aS'ENSG00000142611'
p3074
aS'ENSG00000131669'
p3075
aS'ENSG00000123427'
p3076
atRp3077
ssS'aliceblue'
p3078
(dp3079
g79
(lp3080
(lp3081
S'ENSG00000176438'
p3082
aFinf
ag83
(g85
S'\xf4!A\x10\x04Ap?'
tRp3083
ag83
(g85
S'\x90\xadr\x03\x16\xdb\xa7?'
tRp3084
aa(lp3085
S'ENSG00000127951'
p3086
aFinf
ag83
(g85
S'\xf4!A\x10\x04Ap?'
tRp3087
ag83
(g85
S'\x90\xadr\x03\x16\xdb\xa7?'
tRp3088
aa(lp3089
S'ENSG00000103742'
p3090
aFinf
ag83
(g85
S'\xf4!A\x10\x04Ap?'
tRp3091
ag83
(g85
S'\x90\xadr\x03\x16\xdb\xa7?'
tRp3092
aasg4
g5
((lp3093
S'ENSG00000170088'
p3094
aS'ENSG00000164488'
p3095
aS'ENSG00000112877'
p3096
aS'ENSG00000158987'
p3097
aS'ENSG00000151575'
p3098
aS'ENSG00000154102'
p3099
aS'ENSG00000197841'
p3100
aS'ENSG00000125850'
p3101
aS'ENSG00000146263'
p3102
aS'ENSG00000242612'
p3103
aS'ENSG00000166507'
p3104
aS'ENSG00000158109'
p3105
aS'ENSG00000182117'
p3106
aS'ENSG00000085719'
p3107
aS'ENSG00000170745'
p3108
atRp3109
ssS'lightskyblue2'
p3110
(dp3111
g4
g5
((lp3112
S'ENSG00000131620'
p3113
aS'ENSG00000188227'
p3114
aS'ENSG00000188785'
p3115
aS'ENSG00000121417'
p3116
aS'ENSG00000161298'
p3117
aS'ENSG00000198046'
p3118
aS'ENSG00000181894'
p3119
aS'ENSG00000111450'
p3120
aS'ENSG00000101115'
p3121
aS'ENSG00000267508'
p3122
aS'ENSG00000186088'
p3123
aS'ENSG00000103479'
p3124
aS'ENSG00000143753'
p3125
atRp3126
ssS'lightskyblue3'
p3127
(dp3128
g4
g5
((lp3129
S'ENSG00000147419'
p3130
aS'ENSG00000149554'
p3131
aS'ENSG00000133460'
p3132
aS'ENSG00000227500'
p3133
aS'ENSG00000133739'
p3134
aS'ENSG00000176619'
p3135
aS'ENSG00000140832'
p3136
aS'ENSG00000140950'
p3137
aS'ENSG00000171320'
p3138
aS'ENSG00000083896'
p3139
aS'ENSG00000118495'
p3140
aS'ENSG00000119446'
p3141
aS'ENSG00000119969'
p3142
aS'ENSG00000162441'
p3143
aS'ENSG00000160588'
p3144
atRp3145
ssS'blue1'
p3146
(dp3147
g4
g5
((lp3148
S'ENSG00000257218'
p3149
aS'ENSG00000103342'
p3150
aS'ENSG00000146457'
p3151
aS'ENSG00000134014'
p3152
aS'ENSG00000243955'
p3153
aS'ENSG00000107404'
p3154
aS'ENSG00000159248'
p3155
aS'ENSG00000185615'
p3156
aS'ENSG00000130957'
p3157
aS'ENSG00000244067'
p3158
aS'ENSG00000213965'
p3159
aS'ENSG00000260230'
p3160
aS'ENSG00000139540'
p3161
aS'ENSG00000242173'
p3162
atRp3163
ssS'blue3'
p3164
(dp3165
g79
(lp3166
(lp3167
g500
aFinf
ag83
(g85
S'\xca\x8a\x01k\x05\xacu?'
tRp3168
ag83
(g85
S'\x00\x8b\x01k\x05\xacu?'
tRp3169
aasg4
g5
((lp3170
S'ENSG00000145428'
p3171
aS'ENSG00000178980'
p3172
aS'ENSG00000185627'
p3173
aS'ENSG00000170260'
p3174
aS'ENSG00000141337'
p3175
aS'ENSG00000159199'
p3176
aS'ENSG00000151131'
p3177
aS'ENSG00000174885'
p3178
aS'ENSG00000142102'
p3179
aS'ENSG00000185379'
p3180
aS'ENSG00000095209'
p3181
aS'ENSG00000173950'
p3182
aS'ENSG00000206013'
p3183
aS'ENSG00000116199'
p3184
aS'ENSG00000177963'
p3185
atRp3186
ssS'blue2'
p3187
(dp3188
g79
(lp3189
(lp3190
S'ENSG00000174939'
p3191
aFinf
ag83
(g85
S'\x94\x82\x01k\x05\xacu?'
tRp3192
ag83
(g85
S'\xc0\x11/\xeb\t+\x90?'
tRp3193
aa(lp3194
S'ENSG00000148053'
p3195
ag83
(g85
S'\x00\x00\x00\x00\x00@_@'
tRp3196
ag83
(g85
S'%\xad\xb5$\x7f0\x90?'
tRp3197
ag83
(g85
S'\xa0\x03\x82\xb1\xc2\x83\x95?'
tRp3198
aa(lp3199
S'ENSG00000050030'
p3200
ag83
(g85
S'\xab\xaa\xaa\xaa\xaaJo@'
tRp3201
ag83
(g85
S'\xe5\xea\x9a\xa4\xff\xa0\x85?'
tRp3202
ag83
(g85
S'\xa0\x03\x82\xb1\xc2\x83\x95?'
tRp3203
aasg4
g5
((lp3204
S'ENSG00000197142'
p3205
aS'ENSG00000185033'
p3206
aS'ENSG00000196363'
p3207
aS'ENSG00000167183'
p3208
aS'ENSG00000128791'
p3209
aS'ENSG00000172273'
p3210
aS'ENSG00000100219'
p3211
aS'ENSG00000153012'
p3212
aS'ENSG00000142961'
p3213
aS'ENSG00000174672'
p3214
aS'ENSG00000162928'
p3215
aS'ENSG00000169129'
p3216
aS'ENSG00000128274'
p3217
aS'ENSG00000116983'
p3218
aS'ENSG00000120217'
p3219
aS'ENSG00000203791'
p3220
aS'ENSG00000026559'
p3221
aS'ENSG00000079277'
p3222
aS'ENSG00000141867'
p3223
atRp3224
ssS'blue4'
p3225
(dp3226
g79
(lp3227
(lp3228
S'ENSG00000183722'
p3229
aFinf
ag83
(g85
S'\xde\xcc\xc1\xc5\x06\x17{?'
tRp3230
ag83
(g85
S'\x00\xcd\xc1\xc5\x06\x17{?'
tRp3231
aasg4
g5
((lp3232
S'ENSG00000065675'
p3233
aS'ENSG00000099995'
p3234
aS'ENSG00000014164'
p3235
aS'ENSG00000070718'
p3236
aS'ENSG00000134250'
p3237
aS'ENSG00000124356'
p3238
aS'ENSG00000213240'
p3239
aS'ENSG00000051825'
p3240
aS'ENSG00000104518'
p3241
aS'ENSG00000127081'
p3242
aS'ENSG00000169946'
p3243
aS'ENSG00000163386'
p3244
aS'ENSG00000149262'
p3245
aS'ENSG00000162882'
p3246
aS'ENSG00000162881'
p3247
aS'ENSG00000116035'
p3248
aS'ENSG00000126464'
p3249
atRp3250
ssS'lightskyblue4'
p3251
(dp3252
g4
g5
((lp3253
S'ENSG00000132141'
p3254
aS'ENSG00000047188'
p3255
aS'ENSG00000144792'
p3256
aS'ENSG00000102710'
p3257
aS'ENSG00000143155'
p3258
aS'ENSG00000115523'
p3259
aS'ENSG00000227057'
p3260
aS'ENSG00000198885'
p3261
aS'ENSG00000139083'
p3262
aS'ENSG00000152240'
p3263
aS'ENSG00000176108'
p3264
aS'ENSG00000101224'
p3265
aS'ENSG00000169436'
p3266
aS'ENSG00000130045'
p3267
aS'ENSG00000147408'
p3268
aS'ENSG00000106392'
p3269
atRp3270
ssS'plum4'
p3271
(dp3272
g79
(lp3273
(lp3274
S'ENSG00000172348'
p3275
ag83
(g85
S'\xcd\xcc\xcc\xcc\xcc\xacb@'
tRp3276
ag83
(g85
S'\x10gN7\xcc\xad<?'
tRp3277
ag83
(g85
S'\x80pW\x8eo\x12\x80?'
tRp3278
aa(lp3279
S'ENSG00000076944'
p3280
ag83
(g85
S'UUUUU\x15_@'
tRp3281
ag83
(g85
S'\xc1$\xf1\xcf\xd7\x15C?'
tRp3282
ag83
(g85
S'\x00\xae\xb6\r\x17/\x84?'
tRp3283
aa(lp3284
g2984
ag83
(g85
S'\xb7m\xdb\xb6m\x9bZ@'
tRp3285
ag83
(g85
S'\xb9\xb9qV\xa3~H?'
tRp3286
ag83
(g85
S'@\x9c\x0f\xd1\x9a[\x88?'
tRp3287
aa(lp3288
S'ENSG00000172379'
p3289
ag83
(g85
S'\xb7m\xdb\xb6m\x9bZ@'
tRp3290
ag83
(g85
S'\xb9\xb9qV\xa3~H?'
tRp3291
ag83
(g85
S'@\x9c\x0f\xd1\x9a[\x88?'
tRp3292
aa(lp3293
S'ENSG00000125637'
p3294
ag83
(g85
S'9\x8e\xe38\x8e\xa3T@'
tRp3295
ag83
(g85
S'\x07\x97\xe9\xd0\x0b\xa5R?'
tRp3296
ag83
(g85
S'@&)\xc0\xa91\x90?'
tRp3297
aa(lp3298
S'ENSG00000128656'
p3299
ag83
(g85
S'\xc5N\xec\xc4NlL@'
tRp3300
ag83
(g85
S'_\x9c\x11\x98\xaf\xaba?'
tRp3301
ag83
(g85
S'\x80\xff\x8bL\x99X\x9c?'
tRp3302
aasg4
g5
((lp3303
S'ENSG00000110075'
p3304
aS'ENSG00000135931'
p3305
aS'ENSG00000165807'
p3306
aS'ENSG00000090432'
p3307
aS'ENSG00000108523'
p3308
aS'ENSG00000151320'
p3309
aS'ENSG00000160714'
p3310
aS'ENSG00000198093'
p3311
aS'ENSG00000132406'
p3312
aS'ENSG00000171243'
p3313
aS'ENSG00000164082'
p3314
aS'ENSG00000171603'
p3315
aS'ENSG00000115504'
p3316
aS'ENSG00000138760'
p3317
aS'ENSG00000131759'
p3318
aS'ENSG00000114200'
p3319
aS'ENSG00000171903'
p3320
atRp3321
ssS'yellow3'
p3322
(dp3323
g4
g5
((lp3324
S'ENSG00000106546'
p3325
aS'ENSG00000065882'
p3326
aS'ENSG00000152219'
p3327
aS'ENSG00000119328'
p3328
aS'ENSG00000140319'
p3329
aS'ENSG00000143801'
p3330
aS'ENSG00000267796'
p3331
aS'ENSG00000169217'
p3332
aS'ENSG00000197951'
p3333
aS'ENSG00000163576'
p3334
aS'ENSG00000175215'
p3335
aS'ENSG00000116977'
p3336
aS'ENSG00000165233'
p3337
aS'ENSG00000124508'
p3338
aS'ENSG00000175170'
p3339
aS'ENSG00000168385'
p3340
aS'ENSG00000099290'
p3341
aS'ENSG00000149089'
p3342
atRp3343
ssS'floralwhite'
p3344
(dp3345
g79
(lp3346
(lp3347
S'ENSG00000146267'
p3348
ag83
(g85
S'\x00\x00\x00\x00\x00xg@'
tRp3349
ag83
(g85
S'g\xed\xceM\xffP\x88?'
tRp3350
ag83
(g85
S'\xc0\x82#\x83\x01\xe3\xa7?'
tRp3351
aa(lp3352
S'ENSG00000107130'
p3353
ag83
(g85
S'\x00\x00\x00\x00\x00xg@'
tRp3354
ag83
(g85
S'g\xed\xceM\xffP\x88?'
tRp3355
ag83
(g85
S'\xc0\x82#\x83\x01\xe3\xa7?'
tRp3356
aasg4
g5
((lp3357
S'ENSG00000173404'
p3358
aS'ENSG00000196511'
p3359
aS'ENSG00000158089'
p3360
aS'ENSG00000184470'
p3361
aS'ENSG00000100445'
p3362
aS'ENSG00000148019'
p3363
aS'ENSG00000198700'
p3364
aS'ENSG00000138768'
p3365
aS'ENSG00000111203'
p3366
aS'ENSG00000070047'
p3367
aS'ENSG00000137038'
p3368
aS'ENSG00000153291'
p3369
aS'ENSG00000196396'
p3370
aS'ENSG00000124608'
p3371
aS'ENSG00000138246'
p3372
aS'ENSG00000108666'
p3373
aS'ENSG00000108556'
p3374
aS'ENSG00000060491'
p3375
aS'ENSG00000168395'
p3376
aS'ENSG00000156931'
p3377
aS'ENSG00000136159'
p3378
aS'ENSG00000164694'
p3379
aS'ENSG00000165487'
p3380
atRp3381
ssS'coral'
p3382
(dp3383
g4
g5
((lp3384
S'ENSG00000123843'
p3385
aS'ENSG00000183598'
p3386
aS'ENSG00000162415'
p3387
aS'ENSG00000197586'
p3388
aS'ENSG00000196646'
p3389
aS'ENSG00000175322'
p3390
aS'ENSG00000105866'
p3391
aS'ENSG00000143622'
p3392
aS'ENSG00000135686'
p3393
aS'ENSG00000060339'
p3394
aS'ENSG00000135127'
p3395
aS'ENSG00000117528'
p3396
aS'ENSG00000125735'
p3397
aS'ENSG00000138696'
p3398
aS'ENSG00000184160'
p3399
aS'ENSG00000055955'
p3400
aS'ENSG00000085840'
p3401
aS'ENSG00000123838'
p3402
atRp3403
ssS'royalblue2'
p3404
(dp3405
g4
g5
((lp3406
S'ENSG00000110436'
p3407
aS'ENSG00000119411'
p3408
aS'ENSG00000164111'
p3409
aS'ENSG00000123892'
p3410
aS'ENSG00000166130'
p3411
aS'ENSG00000196141'
p3412
aS'ENSG00000053900'
p3413
aS'ENSG00000010270'
p3414
aS'ENSG00000257743'
p3415
aS'ENSG00000143162'
p3416
aS'ENSG00000125731'
p3417
aS'ENSG00000108823'
p3418
aS'ENSG00000067225'
p3419
aS'ENSG00000143036'
p3420
atRp3421
ssS'whitesmoke'
p3422
(dp3423
g4
g5
((lp3424
S'ENSG00000136250'
p3425
aS'ENSG00000136048'
p3426
aS'ENSG00000127951'
p3427
aS'ENSG00000103876'
p3428
aS'ENSG00000168785'
p3429
aS'ENSG00000138095'
p3430
aS'ENSG00000254685'
p3431
aS'ENSG00000189366'
p3432
aS'ENSG00000062725'
p3433
aS'ENSG00000170049'
p3434
aS'ENSG00000173209'
p3435
aS'ENSG00000163866'
p3436
aS'ENSG00000176472'
p3437
aS'ENSG00000189007'
p3438
aS'ENSG00000105755'
p3439
atRp3440
ssS'paleturquoise4'
p3441
(dp3442
g79
(lp3443
(lp3444
S'ENSG00000152377'
p3445
aFinf
ag83
(g85
S'}\x82\x01k\x05\xacU?'
tRp3446
ag83
(g85
S'\x00\xd6\x0b\x12Z\xa8e?'
tRp3447
aa(lp3448
S'ENSG00000131711'
p3449
aFinf
ag83
(g85
S'\xca\x8a\x01k\x05\xacu?'
tRp3450
ag83
(g85
S'\x00\x8b\x01k\x05\xacu?'
tRp3451
aasg4
g5
((lp3452
S'ENSG00000165792'
p3453
aS'ENSG00000134324'
p3454
aS'ENSG00000079689'
p3455
aS'ENSG00000164574'
p3456
aS'ENSG00000139190'
p3457
aS'ENSG00000196313'
p3458
aS'ENSG00000139194'
p3459
aS'ENSG00000126746'
p3460
aS'ENSG00000100075'
p3461
aS'ENSG00000139433'
p3462
aS'ENSG00000154678'
p3463
aS'ENSG00000089693'
p3464
aS'ENSG00000173456'
p3465
aS'ENSG00000163513'
p3466
atRp3467
ssS'firebrick3'
p3468
(dp3469
g79
(lp3470
(lp3471
S'ENSG00000164128'
p3472
aFinf
ag83
(g85
S'\xf4!A\x10\x04Ap?'
tRp3473
ag83
(g85
S'\x00"A\x10\x04Ap?'
tRp3474
aasg4
g5
((lp3475
S'ENSG00000100258'
p3476
aS'ENSG00000153822'
p3477
aS'ENSG00000105556'
p3478
aS'ENSG00000119431'
p3479
aS'ENSG00000164128'
p3480
aS'ENSG00000164129'
p3481
aS'ENSG00000049167'
p3482
aS'ENSG00000135587'
p3483
aS'ENSG00000196705'
p3484
aS'ENSG00000172478'
p3485
aS'ENSG00000091844'
p3486
aS'ENSG00000224470'
p3487
aS'ENSG00000159496'
p3488
aS'ENSG00000164758'
p3489
aS'ENSG00000143751'
p3490
aS'ENSG00000141956'
p3491
aS'ENSG00000100321'
p3492
atRp3493
ssS'firebrick2'
p3494
(dp3495
g79
(lp3496
(lp3497
g2343
aFinf
ag83
(g85
S'\xcf\x1b"s\x87\xcc\x9d?'
tRp3498
ag83
(g85
S'\xc0\x1b"s\x87\xcc\x9d?'
tRp3499
aasg4
g5
((lp3500
S'ENSG00000080802'
p3501
aS'ENSG00000174227'
p3502
aS'ENSG00000162517'
p3503
aS'ENSG00000258792'
p3504
aS'ENSG00000165138'
p3505
aS'ENSG00000196312'
p3506
aS'ENSG00000250673'
p3507
aS'ENSG00000174165'
p3508
aS'ENSG00000054983'
p3509
aS'ENSG00000095485'
p3510
aS'ENSG00000161558'
p3511
aS'ENSG00000196730'
p3512
aS'ENSG00000167741'
p3513
aS'ENSG00000176593'
p3514
aS'ENSG00000116857'
p3515
aS'ENSG00000203772'
p3516
atRp3517
ssS'steelblue3'
p3518
(dp3519
g79
(lp3520
(lp3521
S'ENSG00000100385'
p3522
aFinf
ag83
(g85
S'}\x82\x01k\x05\xacU?'
tRp3523
ag83
(g85
S'\x80\x9e\xdb\xa9\x83;p?'
tRp3524
aa(lp3525
S'ENSG00000026751'
p3526
aFinf
ag83
(g85
S'}\x82\x01k\x05\xacU?'
tRp3527
ag83
(g85
S'\x80\x9e\xdb\xa9\x83;p?'
tRp3528
aa(lp3529
g1116
aFinf
ag83
(g85
S'\xca\x8a\x01k\x05\xacu?'
tRp3530
ag83
(g85
S'\x00\x8b\x01k\x05\xacu?'
tRp3531
aasg4
g5
((lp3532
S'ENSG00000135916'
p3533
aS'ENSG00000166881'
p3534
aS'ENSG00000003056'
p3535
aS'ENSG00000109943'
p3536
aS'ENSG00000125445'
p3537
aS'ENSG00000168216'
p3538
aS'ENSG00000164308'
p3539
aS'ENSG00000035403'
p3540
aS'ENSG00000082293'
p3541
atRp3542
ssS'darksalmon'
p3543
(dp3544
g79
(lp3545
(lp3546
S'ENSG00000224795'
p3547
ag83
(g85
S'\x00\x00\x00\x00\x00\x80w@'
tRp3548
ag83
(g85
S'\x1f\xb9\r-\x81;\x80?'
tRp3549
ag83
(g85
S'`\xdefM\t+\x90?'
tRp3550
aa(lp3551
S'ENSG00000241231'
p3552
ag83
(g85
S'\xab\xaa\xaa\xaa\xaa*_@'
tRp3553
ag83
(g85
S'\xae\xbam\xa2:\xe3\x92?'
tRp3554
ag83
(g85
S'\xa0\xbam\xa2:\xe3\x92?'
tRp3555
aasg4
g5
((lp3556
S'ENSG00000145740'
p3557
aS'ENSG00000142207'
p3558
aS'ENSG00000133121'
p3559
aS'ENSG00000086102'
p3560
aS'ENSG00000178075'
p3561
aS'ENSG00000166046'
p3562
aS'ENSG00000185565'
p3563
aS'ENSG00000105695'
p3564
aS'ENSG00000110514'
p3565
aS'ENSG00000090238'
p3566
aS'ENSG00000012124'
p3567
aS'ENSG00000198042'
p3568
atRp3569
ssS'steelblue4'
p3570
(dp3571
g4
g5
((lp3572
S'ENSG00000139178'
p3573
aS'ENSG00000182319'
p3574
aS'ENSG00000069206'
p3575
aS'ENSG00000197483'
p3576
aS'ENSG00000073849'
p3577
aS'ENSG00000086289'
p3578
aS'ENSG00000149269'
p3579
aS'ENSG00000170011'
p3580
aS'ENSG00000143486'
p3581
aS'ENSG00000181982'
p3582
aS'ENSG00000128654'
p3583
atRp3584
ssS'sienna3'
p3585
(dp3586
g79
(lp3587
(lp3588
S'ENSG00000224940'
p3589
aFinf
ag83
(g85
S'\xf4!A\x10\x04Ap?'
tRp3590
ag83
(g85
S"\xa0j\xa3E'(\x94?"
tRp3591
aa(lp3592
S'ENSG00000062282'
p3593
ag83
(g85
S'\x00\x00\x00\x00\x00\x80w@'
tRp3594
ag83
(g85
S'E\xbf\r-\x81;\x80?'
tRp3595
ag83
(g85
S' >\xad@\\\n\xa0?'
tRp3596
aa(lp3597
g2880
ag83
(g85
S'\x00\x00\x00\x00\x00xg@'
tRp3598
ag83
(g85
S'g\xed\xceM\xffP\x88?'
tRp3599
ag83
(g85
S'p2h\xc0\x88\x05\xa2?'
tRp3600
aa(lp3601
g2885
ag83
(g85
S'\x00\x00\x00\x00\x00xg@'
tRp3602
ag83
(g85
S'g\xed\xceM\xffP\x88?'
tRp3603
ag83
(g85
S'p2h\xc0\x88\x05\xa2?'
tRp3604
aa(lp3605
g2875
ag83
(g85
S'I\x92$I\x92\xa4J@'
tRp3606
ag83
(g85
S'0\xd0>\x0c\x8a\x1a\xa0?'
tRp3607
ag83
(g85
S'p2h\xc0\x88\x05\xa2?'
tRp3608
aasg4
g5
((lp3609
S'ENSG00000256043'
p3610
aS'ENSG00000138162'
p3611
aS'ENSG00000160285'
p3612
aS'ENSG00000198911'
p3613
aS'ENSG00000100504'
p3614
aS'ENSG00000088053'
p3615
aS'ENSG00000172296'
p3616
aS'ENSG00000149485'
p3617
aS'ENSG00000131473'
p3618
aS'ENSG00000114395'
p3619
aS'ENSG00000116133'
p3620
aS'ENSG00000139428'
p3621
aS'ENSG00000159592'
p3622
aS'ENSG00000219545'
p3623
aS'ENSG00000141580'
p3624
aS'ENSG00000196655'
p3625
aS'ENSG00000086232'
p3626
aS'ENSG00000179023'
p3627
aS'ENSG00000164211'
p3628
aS'ENSG00000235878'
p3629
aS'ENSG00000100344'
p3630
aS'ENSG00000168724'
p3631
aS'ENSG00000134748'
p3632
aS'ENSG00000143850'
p3633
atRp3634
ssS'firebrick4'
p3635
(dp3636
g79
(lp3637
(lp3638
S'ENSG00000185811'
p3639
ag83
(g85
S'\x00\x00\x00\x00\x00\x88\x87@'
tRp3640
ag83
(g85
S'E\xe6\x89\xd3X\xa8u?'
tRp3641
ag83
(g85
S'@\xaf\x8b\xe6\x87\xc9\x9a?'
tRp3642
aasg4
g5
((lp3643
S'ENSG00000068097'
p3644
aS'ENSG00000182183'
p3645
aS'ENSG00000141759'
p3646
aS'ENSG00000158711'
p3647
aS'ENSG00000106355'
p3648
aS'ENSG00000188004'
p3649
aS'ENSG00000157303'
p3650
aS'ENSG00000130731'
p3651
aS'ENSG00000213853'
p3652
aS'ENSG00000213533'
p3653
aS'ENSG00000143314'
p3654
aS'ENSG00000116883'
p3655
aS'ENSG00000150783'
p3656
aS'ENSG00000090266'
p3657
aS'ENSG00000258289'
p3658
aS'ENSG00000066629'
p3659
aS'ENSG00000239672'
p3660
aS'ENSG00000101194'
p3661
aS'ENSG00000119705'
p3662
aS'ENSG00000138459'
p3663
atRp3664
ssS'dodgerblue1'
p3665
(dp3666
g79
(lp3667
(lp3668
S'ENSG00000166482'
p3669
aFinf
ag83
(g85
S'\xe6\x8e\x01k\x05\xac\x85?'
tRp3670
ag83
(g85
S'0\xfe|\xa7#\x15\xa0?'
tRp3671
aa(lp3672
S'ENSG00000116774'
p3673
aFinf
ag83
(g85
S'\xd9\xc0\x11oF\xbc\x99?'
tRp3674
ag83
(g85
S'\x00\xe5\xf2N8\x17\xa8?'
tRp3675
aa(lp3676
S'ENSG00000077942'
p3677
aFinf
ag83
(g85
S'\xa1\xc6a\x18\x86a\x98?'
tRp3678
ag83
(g85
S'\x00\xe5\xf2N8\x17\xa8?'
tRp3679
aasg4
g5
((lp3680
S'ENSG00000153832'
p3681
aS'ENSG00000104368'
p3682
aS'ENSG00000204308'
p3683
aS'ENSG00000091157'
p3684
aS'ENSG00000198208'
p3685
aS'ENSG00000165650'
p3686
aS'ENSG00000198674'
p3687
aS'ENSG00000084463'
p3688
aS'ENSG00000181523'
p3689
aS'ENSG00000128185'
p3690
atRp3691
ssS'dodgerblue2'
p3692
(dp3693
g4
g5
((lp3694
S'ENSG00000112576'
p3695
aS'ENSG00000184454'
p3696
aS'ENSG00000134548'
p3697
aS'ENSG00000175893'
p3698
aS'ENSG00000170442'
p3699
aS'ENSG00000157426'
p3700
aS'ENSG00000111713'
p3701
aS'ENSG00000163293'
p3702
aS'ENSG00000111711'
p3703
atRp3704
ssS'dodgerblue3'
p3705
(dp3706
g4
g5
((lp3707
S'ENSG00000106733'
p3708
aS'ENSG00000196284'
p3709
aS'ENSG00000182218'
p3710
aS'ENSG00000167695'
p3711
aS'ENSG00000166938'
p3712
aS'ENSG00000153094'
p3713
aS'ENSG00000158122'
p3714
aS'ENSG00000154864'
p3715
aS'ENSG00000179242'
p3716
aS'ENSG00000118197'
p3717
aS'ENSG00000198521'
p3718
aS'ENSG00000055483'
p3719
atRp3720
ssS'dodgerblue4'
p3721
(dp3722
g4
g5
((lp3723
S'ENSG00000128191'
p3724
aS'ENSG00000100029'
p3725
aS'ENSG00000160948'
p3726
aS'ENSG00000188779'
p3727
aS'ENSG00000106348'
p3728
aS'ENSG00000153774'
p3729
aS'ENSG00000141425'
p3730
aS'ENSG00000160695'
p3731
aS'ENSG00000173226'
p3732
aS'ENSG00000182463'
p3733
aS'ENSG00000139631'
p3734
aS'ENSG00000198874'
p3735
aS'ENSG00000136807'
p3736
atRp3737
ssS'lightskyblue1'
p3738
(dp3739
g4
g5
((lp3740
S'ENSG00000182253'
p3741
aS'ENSG00000134330'
p3742
aS'ENSG00000178171'
p3743
aS'ENSG00000180354'
p3744
aS'ENSG00000254999'
p3745
aS'ENSG00000132661'
p3746
aS'ENSG00000100580'
p3747
aS'ENSG00000160785'
p3748
aS'ENSG00000149328'
p3749
aS'ENSG00000167671'
p3750
aS'ENSG00000142856'
p3751
aS'ENSG00000203965'
p3752
atRp3753
ssS'tomato4'
p3754
(dp3755
g4
g5
((lp3756
S'ENSG00000120708'
p3757
aS'ENSG00000176049'
p3758
aS'ENSG00000106538'
p3759
aS'ENSG00000198719'
p3760
aS'ENSG00000213658'
p3761
aS'ENSG00000130768'
p3762
aS'ENSG00000131435'
p3763
aS'ENSG00000213077'
p3764
aS'ENSG00000169432'
p3765
aS'ENSG00000118496'
p3766
aS'ENSG00000163684'
p3767
aS'ENSG00000135968'
p3768
aS'ENSG00000249459'
p3769
atRp3770
ssS'yellow4'
p3771
(dp3772
g4
g5
((lp3773
S'ENSG00000023041'
p3774
aS'ENSG00000151632'
p3775
aS'ENSG00000121858'
p3776
aS'ENSG00000187134'
p3777
aS'ENSG00000169087'
p3778
aS'ENSG00000107201'
p3779
aS'ENSG00000070018'
p3780
aS'ENSG00000135363'
p3781
aS'ENSG00000204149'
p3782
aS'ENSG00000061455'
p3783
aS'ENSG00000172123'
p3784
aS'ENSG00000244005'
p3785
aS'ENSG00000177570'
p3786
aS'ENSG00000163947'
p3787
aS'ENSG00000164209'
p3788
aS'ENSG00000118514'
p3789
aS'ENSG00000103245'
p3790
aS'ENSG00000073803'
p3791
aS'ENSG00000251369'
p3792
aS'ENSG00000185298'
p3793
atRp3794
ssS'greenyellow'
p3795
(dp3796
g4
g5
((lp3797
S'ENSG00000196653'
p3798
aS'ENSG00000107902'
p3799
aS'ENSG00000177479'
p3800
aS'ENSG00000196821'
p3801
aS'ENSG00000239998'
p3802
aS'ENSG00000166405'
p3803
aS'ENSG00000178467'
p3804
aS'ENSG00000160883'
p3805
aS'ENSG00000144730'
p3806
aS'ENSG00000065060'
p3807
aS'ENSG00000138600'
p3808
aS'ENSG00000156171'
p3809
aS'ENSG00000143740'
p3810
aS'ENSG00000116266'
p3811
aS'ENSG00000181396'
p3812
aS'ENSG00000121058'
p3813
aS'ENSG00000123219'
p3814
aS'ENSG00000172687'
p3815
aS'ENSG00000180767'
p3816
aS'ENSG00000148357'
p3817
aS'ENSG00000119844'
p3818
aS'ENSG00000141968'
p3819
aS'ENSG00000169896'
p3820
aS'ENSG00000178149'
p3821
aS'ENSG00000083097'
p3822
aS'ENSG00000169251'
p3823
aS'ENSG00000163131'
p3824
aS'ENSG00000127804'
p3825
aS'ENSG00000186198'
p3826
aS'ENSG00000254415'
p3827
aS'ENSG00000137841'
p3828
atRp3829
ssS'tomato2'
p3830
(dp3831
g79
(lp3832
(lp3833
S'ENSG00000163207'
p3834
aFinf
ag83
(g85
S'\xcb<\xabD$\xb8\x19?'
tRp3835
ag83
(g85
S'\x00\xb0\xde\xa3`\xacQ?'
tRp3836
aasg4
g5
((lp3837
S'ENSG00000111249'
p3838
aS'ENSG00000185479'
p3839
aS'ENSG00000163207'
p3840
aS'ENSG00000178363'
p3841
aS'ENSG00000081665'
p3842
aS'ENSG00000085982'
p3843
aS'ENSG00000133710'
p3844
aS'ENSG00000070269'
p3845
aS'ENSG00000188641'
p3846
aS'ENSG00000242441'
p3847
aS'ENSG00000143631'
p3848
aS'ENSG00000164733'
p3849
aS'ENSG00000204544'
p3850
aS'ENSG00000186832'
p3851
atRp3852
ssS'navajowhite4'
p3853
(dp3854
g4
g5
((lp3855
S'ENSG00000196345'
p3856
aS'ENSG00000106723'
p3857
aS'ENSG00000182923'
p3858
aS'ENSG00000174903'
p3859
aS'ENSG00000213889'
p3860
aS'ENSG00000164039'
p3861
aS'ENSG00000133627'
p3862
aS'ENSG00000176390'
p3863
aS'ENSG00000146834'
p3864
aS'ENSG00000129167'
p3865
aS'ENSG00000108395'
p3866
aS'ENSG00000125814'
p3867
aS'ENSG00000129055'
p3868
aS'ENSG00000136371'
p3869
atRp3870
ssS'magenta3'
p3871
(dp3872
g4
g5
((lp3873
S'ENSG00000048544'
p3874
aS'ENSG00000152102'
p3875
aS'ENSG00000182180'
p3876
aS'ENSG00000090372'
p3877
aS'ENSG00000106263'
p3878
aS'ENSG00000215012'
p3879
aS'ENSG00000156011'
p3880
aS'ENSG00000180822'
p3881
aS'ENSG00000129250'
p3882
aS'ENSG00000182568'
p3883
aS'ENSG00000138363'
p3884
aS'ENSG00000173545'
p3885
aS'ENSG00000141569'
p3886
aS'ENSG00000196642'
p3887
aS'ENSG00000196535'
p3888
aS'ENSG00000205809'
p3889
aS'ENSG00000167962'
p3890
atRp3891
ssS'navajowhite1'
p3892
(dp3893
g79
(lp3894
(lp3895
g1944
ag83
(g85
S'\x00\x00\x00\x00\x00\x80w@'
tRp3896
ag83
(g85
S'E\xbf\r-\x81;\x80?'
tRp3897
ag83
(g85
S'\x90\x90\xb0\xe1\n\xdf\xa7?'
tRp3898
aasg4
g5
((lp3899
S'ENSG00000079785'
p3900
aS'ENSG00000162390'
p3901
aS'ENSG00000108950'
p3902
aS'ENSG00000116459'
p3903
aS'ENSG00000221823'
p3904
aS'ENSG00000105497'
p3905
aS'ENSG00000162976'
p3906
aS'ENSG00000116017'
p3907
aS'ENSG00000100079'
p3908
aS'ENSG00000106399'
p3909
aS'ENSG00000117054'
p3910
aS'ENSG00000167863'
p3911
aS'ENSG00000115421'
p3912
aS'ENSG00000067704'
p3913
aS'ENSG00000173166'
p3914
aS'ENSG00000127831'
p3915
aS'ENSG00000131149'
p3916
aS'ENSG00000132199'
p3917
aS'ENSG00000005194'
p3918
atRp3919
ssS'navajowhite2'
p3920
(dp3921
g4
g5
((lp3922
S'ENSG00000198783'
p3923
aS'ENSG00000233927'
p3924
aS'ENSG00000134874'
p3925
aS'ENSG00000167081'
p3926
aS'ENSG00000116151'
p3927
aS'ENSG00000172572'
p3928
aS'ENSG00000011114'
p3929
aS'ENSG00000168769'
p3930
aS'ENSG00000243646'
p3931
aS'ENSG00000171014'
p3932
aS'ENSG00000232859'
p3933
aS'ENSG00000131779'
p3934
aS'ENSG00000157214'
p3935
aS'ENSG00000143771'
p3936
aS'ENSG00000161996'
p3937
aS'ENSG00000171444'
p3938
aS'ENSG00000131771'
p3939
aS'ENSG00000021488'
p3940
aS'ENSG00000101349'
p3941
aS'ENSG00000164647'
p3942
aS'ENSG00000134207'
p3943
atRp3944
ssS'magenta2'
p3945
(dp3946
g4
g5
((lp3947
S'ENSG00000188732'
p3948
aS'ENSG00000120322'
p3949
aS'ENSG00000075142'
p3950
aS'ENSG00000083099'
p3951
aS'ENSG00000132881'
p3952
aS'ENSG00000111671'
p3953
aS'ENSG00000204334'
p3954
aS'ENSG00000119242'
p3955
aS'ENSG00000099817'
p3956
aS'ENSG00000186453'
p3957
aS'ENSG00000167842'
p3958
aS'ENSG00000108264'
p3959
aS'ENSG00000182348'
p3960
aS'ENSG00000010626'
p3961
aS'ENSG00000006114'
p3962
atRp3963
ssS'sienna'
p3964
(dp3965
g4
g5
((lp3966
S'ENSG00000135547'
p3967
aS'ENSG00000127663'
p3968
aS'ENSG00000140955'
p3969
aS'ENSG00000103168'
p3970
aS'ENSG00000136068'
p3971
aS'ENSG00000101639'
p3972
aS'ENSG00000213977'
p3973
aS'ENSG00000165512'
p3974
aS'ENSG00000160961'
p3975
aS'ENSG00000133106'
p3976
aS'ENSG00000147654'
p3977
aS'ENSG00000141497'
p3978
aS'ENSG00000161921'
p3979
atRp3980
ssS'pink1'
p3981
(dp3982
g79
(lp3983
(lp3984
g1163
aFinf
ag83
(g85
S'\xec!A\x10\x04A\x80?'
tRp3985
ag83
(g85
S'\x00"A\x10\x04A\x80?'
tRp3986
aasg4
g5
((lp3987
S'ENSG00000021776'
p3988
aS'ENSG00000130348'
p3989
aS'ENSG00000006042'
p3990
aS'ENSG00000089006'
p3991
aS'ENSG00000127554'
p3992
aS'ENSG00000115816'
p3993
aS'ENSG00000134363'
p3994
aS'ENSG00000168234'
p3995
aS'ENSG00000169045'
p3996
aS'ENSG00000134202'
p3997
aS'ENSG00000053747'
p3998
aS'ENSG00000107099'
p3999
aS'ENSG00000204305'
p4000
atRp4001
ssS'mediumpurple'
p4002
(dp4003
g4
g5
((lp4004
S'ENSG00000130477'
p4005
aS'ENSG00000167608'
p4006
aS'ENSG00000172613'
p4007
aS'ENSG00000181074'
p4008
aS'ENSG00000168032'
p4009
aS'ENSG00000141298'
p4010
aS'ENSG00000132164'
p4011
aS'ENSG00000104112'
p4012
aS'ENSG00000197599'
p4013
aS'ENSG00000182013'
p4014
aS'ENSG00000132854'
p4015
aS'ENSG00000155906'
p4016
aS'ENSG00000183486'
p4017
aS'ENSG00000162877'
p4018
aS'ENSG00000144834'
p4019
aS'ENSG00000144290'
p4020
atRp4021
ssS'lightcoral'
p4022
(dp4023
g79
(lp4024
(lp4025
S'ENSG00000171346'
p4026
ag83
(g85
S'\x00\x00\x00\x00\x00\x88\x87@'
tRp4027
ag83
(g85
S'E\xe6\x89\xd3X\xa8u?'
tRp4028
ag83
(g85
S'\xc0\x0f\x0b\x91\x15\xdb\xa7?'
tRp4029
aasg4
g5
((lp4030
S'ENSG00000158717'
p4031
aS'ENSG00000114573'
p4032
aS'ENSG00000174373'
p4033
aS'ENSG00000109193'
p4034
aS'ENSG00000129347'
p4035
aS'ENSG00000154134'
p4036
aS'ENSG00000087253'
p4037
aS'ENSG00000138074'
p4038
aS'ENSG00000112297'
p4039
aS'ENSG00000183908'
p4040
aS'ENSG00000084676'
p4041
aS'ENSG00000183748'
p4042
aS'ENSG00000110448'
p4043
aS'ENSG00000127995'
p4044
aS'ENSG00000069974'
p4045
aS'ENSG00000186907'
p4046
aS'ENSG00000168827'
p4047
aS'ENSG00000172322'
p4048
aS'ENSG00000161016'
p4049
aS'ENSG00000243284'
p4050
atRp4051
ssS'orangered'
p4052
(dp4053
g4
g5
((lp4054
S'ENSG00000168803'
p4055
aS'ENSG00000182196'
p4056
aS'ENSG00000090686'
p4057
aS'ENSG00000151229'
p4058
aS'ENSG00000147601'
p4059
aS'ENSG00000178028'
p4060
aS'ENSG00000101752'
p4061
aS'ENSG00000165338'
p4062
aS'ENSG00000164764'
p4063
aS'ENSG00000131778'
p4064
aS'ENSG00000196365'
p4065
aS'ENSG00000066185'
p4066
aS'ENSG00000166266'
p4067
aS'ENSG00000166170'
p4068
aS'ENSG00000187867'
p4069
aS'ENSG00000136143'
p4070
atRp4071
ssS'navajowhite'
p4072
(dp4073
g4
g5
((lp4074
S'ENSG00000125844'
p4075
aS'ENSG00000159069'
p4076
aS'ENSG00000161091'
p4077
aS'ENSG00000248333'
p4078
aS'ENSG00000197785'
p4079
aS'ENSG00000241043'
p4080
aS'ENSG00000126804'
p4081
aS'ENSG00000198171'
p4082
aS'ENSG00000175166'
p4083
aS'ENSG00000141556'
p4084
aS'ENSG00000116120'
p4085
aS'ENSG00000244165'
p4086
aS'ENSG00000141252'
p4087
aS'ENSG00000125888'
p4088
aS'ENSG00000116237'
p4089
aS'ENSG00000204775'
p4090
aS'ENSG00000010030'
p4091
atRp4092
ssS'pink3'
p4093
(dp4094
g4
g5
((lp4095
S'ENSG00000100038'
p4096
aS'ENSG00000110328'
p4097
aS'ENSG00000146143'
p4098
aS'ENSG00000112110'
p4099
aS'ENSG00000186827'
p4100
aS'ENSG00000185101'
p4101
aS'ENSG00000170364'
p4102
aS'ENSG00000114416'
p4103
aS'ENSG00000138185'
p4104
aS'ENSG00000175581'
p4105
aS'ENSG00000100558'
p4106
aS'ENSG00000112031'
p4107
aS'ENSG00000135549'
p4108
aS'ENSG00000178568'
p4109
aS'ENSG00000100380'
p4110
aS'ENSG00000186297'
p4111
atRp4112
ssS'mediumpurple3'
p4113
(dp4114
g79
(lp4115
(lp4116
S'ENSG00000120093'
p4117
aFinf
ag83
(g85
S'}\x82\x01k\x05\xacU?'
tRp4118
ag83
(g85
S'\x00\x82\x01k\x05\xacU?'
tRp4119
aasg4
g5
((lp4120
S'ENSG00000197081'
p4121
aS'ENSG00000174775'
p4122
aS'ENSG00000092931'
p4123
aS'ENSG00000125629'
p4124
aS'ENSG00000177628'
p4125
aS'ENSG00000116922'
p4126
aS'ENSG00000205571'
p4127
aS'ENSG00000183250'
p4128
aS'ENSG00000139174'
p4129
aS'ENSG00000010361'
p4130
aS'ENSG00000089048'
p4131
aS'ENSG00000120075'
p4132
aS'ENSG00000188493'
p4133
aS'ENSG00000254901'
p4134
aS'ENSG00000165282'
p4135
aS'ENSG00000089847'
p4136
aS'ENSG00000163468'
p4137
aS'ENSG00000163933'
p4138
aS'ENSG00000169231'
p4139
aS'ENSG00000146963'
p4140
aS'ENSG00000111110'
p4141
aS'ENSG00000163956'
p4142
aS'ENSG00000152492'
p4143
atRp4144
ssS'burlywood'
p4145
(dp4146
g4
g5
((lp4147
S'ENSG00000186106'
p4148
aS'ENSG00000109133'
p4149
aS'ENSG00000152642'
p4150
aS'ENSG00000153989'
p4151
aS'ENSG00000143811'
p4152
aS'ENSG00000169189'
p4153
aS'ENSG00000196187'
p4154
aS'ENSG00000165271'
p4155
aS'ENSG00000040275'
p4156
aS'ENSG00000268885'
p4157
aS'ENSG00000109072'
p4158
aS'ENSG00000127418'
p4159
aS'ENSG00000044115'
p4160
atRp4161
ssS'royalblue'
p4162
(dp4163
g79
(lp4164
(lp4165
g1391
aFinf
ag83
(g85
S'\xca\x8a\x01k\x05\xacu?'
tRp4166
ag83
(g85
S'\x00\x8b\x01k\x05\xacu?'
tRp4167
aasg4
g5
((lp4168
S'ENSG00000023516'
p4169
aS'ENSG00000124193'
p4170
aS'ENSG00000177096'
p4171
aS'ENSG00000044090'
p4172
aS'ENSG00000153250'
p4173
aS'ENSG00000104946'
p4174
aS'ENSG00000068784'
p4175
aS'ENSG00000116819'
p4176
aS'ENSG00000085832'
p4177
aS'ENSG00000116016'
p4178
aS'ENSG00000057608'
p4179
aS'ENSG00000122678'
p4180
aS'ENSG00000196405'
p4181
aS'ENSG00000153395'
p4182
aS'ENSG00000177932'
p4183
aS'ENSG00000188659'
p4184
aS'ENSG00000235109'
p4185
aS'ENSG00000126822'
p4186
aS'ENSG00000078018'
p4187
aS'ENSG00000205930'
p4188
aS'ENSG00000136813'
p4189
aS'ENSG00000171224'
p4190
aS'ENSG00000021762'
p4191
aS'ENSG00000112874'
p4192
aS'ENSG00000188636'
p4193
aS'ENSG00000145979'
p4194
aS'ENSG00000134030'
p4195
aS'ENSG00000140367'
p4196
atRp4197
ssS'blanchedalmond'
p4198
(dp4199
g79
(lp4200
(lp4201
S'ENSG00000110934'
p4202
aFinf
ag83
(g85
S'\x88\x82\x01k\x05\xace?'
tRp4203
ag83
(g85
S'\xc0\x1b\x8c\x81\x046\x80?'
tRp4204
aa(lp4205
S'ENSG00000005844'
p4206
aFinf
ag83
(g85
S'\x88\x82\x01k\x05\xace?'
tRp4207
ag83
(g85
S'\xc0\x1b\x8c\x81\x046\x80?'
tRp4208
aa(lp4209
S'ENSG00000141968'
p4210
ag83
(g85
S'\x00\x00\x00\x00\x00PW@'
tRp4211
ag83
(g85
S'v\xe3-\xc5t@\x98?'
tRp4212
ag83
(g85
S'\x80\xe3-\xc5t@\x98?'
tRp4213
aasg4
g5
((lp4214
S'ENSG00000164162'
p4215
aS'ENSG00000153551'
p4216
aS'ENSG00000198053'
p4217
aS'ENSG00000108384'
p4218
aS'ENSG00000137166'
p4219
aS'ENSG00000104901'
p4220
aS'ENSG00000020922'
p4221
aS'ENSG00000067955'
p4222
aS'ENSG00000161609'
p4223
aS'ENSG00000187595'
p4224
aS'ENSG00000015475'
p4225
aS'ENSG00000134780'
p4226
aS'ENSG00000198520'
p4227
atRp4228
ssS'mistyrose1'
p4229
(dp4230
g4
g5
((lp4231
S'ENSG00000110063'
p4232
aS'ENSG00000155368'
p4233
aS'ENSG00000167377'
p4234
aS'ENSG00000110080'
p4235
aS'ENSG00000172954'
p4236
aS'ENSG00000169692'
p4237
aS'ENSG00000166780'
p4238
aS'ENSG00000165716'
p4239
aS'ENSG00000187391'
p4240
atRp4241
ssS'peru'
p4242
(dp4243
g79
(lp4244
(lp4245
S'ENSG00000131462'
p4246
aFinf
ag83
(g85
S'\x94\x82\x01k\x05\xacu?'
tRp4247
ag83
(g85
S'\xe0\x8f\xc6\xf4$\x80\x95?'
tRp4248
aa(lp4249
S'ENSG00000189184'
p4250
ag83
(g85
S'\xab\xaa\xaa\xaa\xaaJo@'
tRp4251
ag83
(g85
S'\xe5\xea\x9a\xa4\xff\xa0\x85?'
tRp4252
ag83
(g85
S'\x10\x8d\x02\xd5\x0b\r\xa0?'
tRp4253
aa(lp4254
g997
ag83
(g85
S'\xe48\x8e\xe38\xceT@'
tRp4255
ag83
(g85
S'\xa9\xd1\xc1\x0e\x03\x8b\x95?'
tRp4256
ag83
(g85
S' \x16*\xcf\xffP\xa5?'
tRp4257
aasg4
g5
((lp4258
S'ENSG00000166224'
p4259
aS'ENSG00000168758'
p4260
aS'ENSG00000141748'
p4261
aS'ENSG00000184451'
p4262
aS'ENSG00000179152'
p4263
aS'ENSG00000166228'
p4264
aS'ENSG00000105393'
p4265
aS'ENSG00000116783'
p4266
aS'ENSG00000112964'
p4267
aS'ENSG00000108797'
p4268
aS'ENSG00000136457'
p4269
aS'ENSG00000050628'
p4270
atRp4271
ssS'aquamarine'
p4272
(dp4273
g79
(lp4274
(lp4275
S'ENSG00000144908'
p4276
aFinf
ag83
(g85
S'}\x82\x01k\x05\xacU?'
tRp4277
ag83
(g85
S'\x80\x9e\xdb\xa9\x83;p?'
tRp4278
aa(lp4279
S'ENSG00000141744'
p4280
aFinf
ag83
(g85
S'\xc7\x1eA\x10\x04Ap?'
tRp4281
ag83
(g85
S'@[\x18\x88\xc28\x80?'
tRp4282
aa(lp4283
S'ENSG00000096060'
p4284
aFinf
ag83
(g85
S'\xde\xcc\xc1\xc5\x06\x17{?'
tRp4285
ag83
(g85
S'@[\x18\x88\xc28\x80?'
tRp4286
aasg4
g5
((lp4287
S'ENSG00000163492'
p4288
aS'ENSG00000136875'
p4289
aS'ENSG00000114251'
p4290
aS'ENSG00000113812'
p4291
aS'ENSG00000187715'
p4292
aS'ENSG00000153904'
p4293
aS'ENSG00000164168'
p4294
aS'ENSG00000148082'
p4295
aS'ENSG00000163006'
p4296
aS'ENSG00000176658'
p4297
aS'ENSG00000136811'
p4298
atRp4299
ssS'white'
p4300
(dp4301
g79
(lp4302
(lp4303
S'ENSG00000105270'
p4304
ag83
(g85
S'fffff\xe6H@'
tRp4305
ag83
(g85
S'\xb2{E\xcb\xd3\x17\xa0?'
tRp4306
ag83
(g85
S' \x16*\xcf\xffP\xa5?'
tRp4307
aa(lp4308
g3449
ag83
(g85
S'\xe48\x8e\xe38\xceT@'
tRp4309
ag83
(g85
S'\xa9\xd1\xc1\x0e\x03\x8b\x95?'
tRp4310
ag83
(g85
S' \x16*\xcf\xffP\xa5?'
tRp4311
aasg4
g5
((lp4312
S'ENSG00000124151'
p4313
aS'ENSG00000174886'
p4314
aS'ENSG00000048649'
p4315
aS'ENSG00000079616'
p4316
aS'ENSG00000158816'
p4317
aS'ENSG00000183741'
p4318
aS'ENSG00000140474'
p4319
aS'ENSG00000136098'
p4320
aS'ENSG00000205090'
p4321
aS'ENSG00000065600'
p4322
aS'ENSG00000136425'
p4323
aS'ENSG00000111816'
p4324
aS'ENSG00000051009'
p4325
aS'ENSG00000106305'
p4326
aS'ENSG00000145217'
p4327
aS'ENSG00000204941'
p4328
aS'ENSG00000217442'
p4329
aS'ENSG00000152669'
p4330
aS'ENSG00000140992'
p4331
aS'ENSG00000013297'
p4332
aS'ENSG00000222011'
p4333
aS'ENSG00000140995'
p4334
aS'ENSG00000184517'
p4335
aS'ENSG00000137106'
p4336
aS'ENSG00000151611'
p4337
aS'ENSG00000088836'
p4338
atRp4339
ssS'tan4'
p4340
(dp4341
g4
g5
((lp4342
S'ENSG00000139636'
p4343
aS'ENSG00000176399'
p4344
aS'ENSG00000134962'
p4345
aS'ENSG00000150526'
p4346
aS'ENSG00000087152'
p4347
aS'ENSG00000182704'
p4348
aS'ENSG00000170291'
p4349
aS'ENSG00000168143'
p4350
aS'ENSG00000215527'
p4351
aS'ENSG00000138380'
p4352
aS'ENSG00000188931'
p4353
aS'ENSG00000138769'
p4354
aS'ENSG00000141698'
p4355
aS'ENSG00000153406'
p4356
aS'ENSG00000225526'
p4357
aS'ENSG00000149289'
p4358
aS'ENSG00000100347'
p4359
atRp4360
ssS'tan3'
p4361
(dp4362
g79
(lp4363
(lp4364
S'ENSG00000163131'
p4365
ag83
(g85
S'\x00\x00\x00\x00\x00\x80w@'
tRp4366
ag83
(g85
S'\x1f\xb9\r-\x81;\x80?'
tRp4367
ag83
(g85
S'\x00\xb9\r-\x81;\x80?'
tRp4368
aasg4
g5
((lp4369
S'ENSG00000170632'
p4370
aS'ENSG00000180992'
p4371
aS'ENSG00000119632'
p4372
aS'ENSG00000173083'
p4373
aS'ENSG00000124780'
p4374
aS'ENSG00000108639'
p4375
aS'ENSG00000197563'
p4376
aS'ENSG00000126231'
p4377
aS'ENSG00000119326'
p4378
aS'ENSG00000116198'
p4379
aS'ENSG00000100865'
p4380
aS'ENSG00000168615'
p4381
aS'ENSG00000154945'
p4382
aS'ENSG00000185156'
p4383
aS'ENSG00000185324'
p4384
atRp4385
ssS'tan2'
p4386
(dp4387
g4
g5
((lp4388
S'ENSG00000163596'
p4389
aS'ENSG00000144647'
p4390
aS'ENSG00000137261'
p4391
aS'ENSG00000198625'
p4392
aS'ENSG00000087365'
p4393
aS'ENSG00000136448'
p4394
aS'ENSG00000143322'
p4395
aS'ENSG00000186716'
p4396
aS'ENSG00000177990'
p4397
aS'ENSG00000213024'
p4398
aS'ENSG00000183605'
p4399
aS'ENSG00000109576'
p4400
aS'ENSG00000177669'
p4401
aS'ENSG00000120093'
p4402
atRp4403
ssS'tan1'
p4404
(dp4405
g4
g5
((lp4406
S'ENSG00000254852'
p4407
aS'ENSG00000172461'
p4408
aS'ENSG00000114698'
p4409
aS'ENSG00000185920'
p4410
aS'ENSG00000100439'
p4411
aS'ENSG00000150712'
p4412
aS'ENSG00000253320'
p4413
aS'ENSG00000185087'
p4414
aS'ENSG00000172469'
p4415
aS'ENSG00000133104'
p4416
aS'ENSG00000241484'
p4417
aS'ENSG00000142675'
p4418
aS'ENSG00000149131'
p4419
atRp4420
ssS'royalblue3'
p4421
(dp4422
g79
(lp4423
(lp4424
g957
ag83
(g85
S'\xab\xaa\xaa\xaa\xaaJo@'
tRp4425
ag83
(g85
S'\xe5\xea\x9a\xa4\xff\xa0\x85?'
tRp4426
ag83
(g85
S'\x00\xeb\x9a\xa4\xff\xa0\x85?'
tRp4427
aasg4
g5
((lp4428
S'ENSG00000177425'
p4429
aS'ENSG00000137312'
p4430
aS'ENSG00000163075'
p4431
aS'ENSG00000127084'
p4432
aS'ENSG00000158234'
p4433
aS'ENSG00000146038'
p4434
aS'ENSG00000183718'
p4435
aS'ENSG00000124875'
p4436
aS'ENSG00000143344'
p4437
aS'ENSG00000140859'
p4438
aS'ENSG00000165914'
p4439
aS'ENSG00000057294'
p4440
aS'ENSG00000108272'
p4441
aS'ENSG00000092295'
p4442
aS'ENSG00000136451'
p4443
atRp4444
ssS'tomato'
p4445
(dp4446
g4
g5
((lp4447
S'ENSG00000011295'
p4448
aS'ENSG00000079974'
p4449
aS'ENSG00000171132'
p4450
aS'ENSG00000184178'
p4451
aS'ENSG00000185619'
p4452
aS'ENSG00000152558'
p4453
aS'ENSG00000170954'
p4454
aS'ENSG00000075826'
p4455
aS'ENSG00000054282'
p4456
aS'ENSG00000123146'
p4457
aS'ENSG00000179715'
p4458
aS'ENSG00000139211'
p4459
aS'ENSG00000100665'
p4460
aS'ENSG00000215252'
p4461
aS'ENSG00000213626'
p4462
atRp4463
ssS'ivory'
p4464
(dp4465
g79
(lp4466
(lp4467
S'ENSG00000204385'
p4468
aFinf
ag83
(g85
S'\xf4!A\x10\x04Ap?'
tRp4469
ag83
(g85
S'\xe0\xd25\xde\x85\xff\xa1?'
tRp4470
aasg4
g5
((lp4471
S'ENSG00000136273'
p4472
aS'ENSG00000117394'
p4473
aS'ENSG00000126233'
p4474
aS'ENSG00000176532'
p4475
aS'ENSG00000159322'
p4476
aS'ENSG00000171813'
p4477
aS'ENSG00000139263'
p4478
aS'ENSG00000181450'
p4479
aS'ENSG00000155324'
p4480
aS'ENSG00000114744'
p4481
aS'ENSG00000114541'
p4482
aS'ENSG00000188677'
p4483
aS'ENSG00000182257'
p4484
aS'ENSG00000197943'
p4485
aS'ENSG00000179335'
p4486
aS'ENSG00000144354'
p4487
aS'ENSG00000205659'
p4488
aS'ENSG00000181007'
p4489
aS'ENSG00000143184'
p4490
aS'ENSG00000204396'
p4491
aS'ENSG00000160223'
p4492
aS'ENSG00000111907'
p4493
aS'ENSG00000123243'
p4494
atRp4495
ssS'lightyellow'
p4496
(dp4497
g79
(lp4498
(lp4499
S'ENSG00000170890'
p4500
aFinf
ag83
(g85
S'\xf4!A\x10\x04Ap?'
tRp4501
ag83
(g85
S'\xc0\xe2\xfb\xe2\xc9H\x88?'
tRp4502
aa(lp4503
S'ENSG00000142789'
p4504
aFinf
ag83
(g85
S'\xf4!A\x10\x04Ap?'
tRp4505
ag83
(g85
S'\xc0\xe2\xfb\xe2\xc9H\x88?'
tRp4506
aa(lp4507
S'ENSG00000174059'
p4508
ag83
(g85
S'\x00\x00\x00\x00\x00xg@'
tRp4509
ag83
(g85
S'g\xed\xceM\xffP\x88?'
tRp4510
ag83
(g85
S'\x80\xed\xceM\xffP\x88?'
tRp4511
aasg4
g5
((lp4512
S'ENSG00000161980'
p4513
aS'ENSG00000137275'
p4514
aS'ENSG00000160949'
p4515
aS'ENSG00000111530'
p4516
aS'ENSG00000128512'
p4517
aS'ENSG00000185049'
p4518
aS'ENSG00000204410'
p4519
aS'ENSG00000152760'
p4520
aS'ENSG00000129749'
p4521
aS'ENSG00000105576'
p4522
aS'ENSG00000063978'
p4523
aS'ENSG00000076003'
p4524
aS'ENSG00000244038'
p4525
aS'ENSG00000131845'
p4526
aS'ENSG00000130307'
p4527
aS'ENSG00000134982'
p4528
aS'ENSG00000058729'
p4529
aS'ENSG00000185176'
p4530
aS'ENSG00000181827'
p4531
aS'ENSG00000144034'
p4532
aS'ENSG00000165238'
p4533
aS'ENSG00000198925'
p4534
aS'ENSG00000158161'
p4535
aS'ENSG00000179604'
p4536
aS'ENSG00000182173'
p4537
aS'ENSG00000184164'
p4538
aS'ENSG00000146909'
p4539
aS'ENSG00000167272'
p4540
atRp4541
ssS'paleturquoise1'
p4542
(dp4543
g4
g5
((lp4544
S'ENSG00000112796'
p4545
aS'ENSG00000075234'
p4546
aS'ENSG00000152818'
p4547
aS'ENSG00000078674'
p4548
aS'ENSG00000112294'
p4549
aS'ENSG00000172340'
p4550
aS'ENSG00000219073'
p4551
aS'ENSG00000108107'
p4552
aS'ENSG00000154310'
p4553
aS'ENSG00000141568'
p4554
aS'ENSG00000114796'
p4555
atRp4556
ssS'chocolate'
p4557
(dp4558
g79
(lp4559
(lp4560
g2343
aFinf
ag83
(g85
S'\xcf\x1b"s\x87\xcc\x9d?'
tRp4561
ag83
(g85
S'\xc0\x1b"s\x87\xcc\x9d?'
tRp4562
aasg4
g5
((lp4563
S'ENSG00000135437'
p4564
aS'ENSG00000130701'
p4565
aS'ENSG00000156398'
p4566
aS'ENSG00000164818'
p4567
aS'ENSG00000152049'
p4568
aS'ENSG00000137968'
p4569
aS'ENSG00000177301'
p4570
aS'ENSG00000171522'
p4571
aS'ENSG00000104695'
p4572
aS'ENSG00000102786'
p4573
aS'ENSG00000259494'
p4574
atRp4575
ssS'lightpink2'
p4576
(dp4577
g79
(lp4578
(lp4579
S'ENSG00000204967'
p4580
aFinf
ag83
(g85
S'2\xe3\xc1\xc5\x06\x17{?'
tRp4581
ag83
(g85
S'\xd0^\xb4\x19\x11=\xa7?'
tRp4582
aa(lp4583
S'ENSG00000266010'
p4584
aFinf
ag83
(g85
S'2\xe3\xc1\xc5\x06\x17{?'
tRp4585
ag83
(g85
S'\xd0^\xb4\x19\x11=\xa7?'
tRp4586
aasg4
g5
((lp4587
S'ENSG00000197140'
p4588
aS'ENSG00000117133'
p4589
aS'ENSG00000124839'
p4590
aS'ENSG00000135317'
p4591
aS'ENSG00000153317'
p4592
aS'ENSG00000065413'
p4593
aS'ENSG00000139197'
p4594
aS'ENSG00000267260'
p4595
aS'ENSG00000006282'
p4596
aS'ENSG00000204967'
p4597
aS'ENSG00000204965'
p4598
aS'ENSG00000072858'
p4599
aS'ENSG00000251664'
p4600
aS'ENSG00000204970'
p4601
aS'ENSG00000166004'
p4602
aS'ENSG00000204969'
p4603
atRp4604
ssS'lightpink3'
p4605
(dp4606
g79
(lp4607
(lp4608
S'ENSG00000170608'
p4609
aFinf
ag83
(g85
S'\x88\x82\x01k\x05\xace?'
tRp4610
ag83
(g85
S'\xc0\x1b\x8c\x81\x046\x80?'
tRp4611
aa(lp4612
S'ENSG00000101076'
p4613
ag83
(g85
S'\xab\xaa\xaa\xaa\xaa*_@'
tRp4614
ag83
(g85
S'\xae\xbam\xa2:\xe3\x92?'
tRp4615
ag83
(g85
S'@\x9dq\xe4\xa2\xb6\xa2?'
tRp4616
aa(lp4617
S'ENSG00000106927'
p4618
ag83
(g85
S'\xdb\xb6m\xdb\xb6mJ@'
tRp4619
ag83
(g85
S'9\xa4P\xd0\x0b!\xa4?'
tRp4620
ag83
(g85
S'@\xa4P\xd0\x0b!\xa4?'
tRp4621
aasg4
g5
((lp4622
S'ENSG00000178828'
p4623
aS'ENSG00000160194'
p4624
aS'ENSG00000156261'
p4625
aS'ENSG00000179387'
p4626
aS'ENSG00000184584'
p4627
aS'ENSG00000168487'
p4628
aS'ENSG00000128891'
p4629
aS'ENSG00000172803'
p4630
aS'ENSG00000120705'
p4631
aS'ENSG00000154710'
p4632
aS'ENSG00000151176'
p4633
aS'ENSG00000137996'
p4634
aS'ENSG00000144935'
p4635
aS'ENSG00000136827'
p4636
aS'ENSG00000197183'
p4637
aS'ENSG00000171311'
p4638
aS'ENSG00000142330'
p4639
aS'ENSG00000140511'
p4640
aS'ENSG00000089060'
p4641
atRp4642
ssS'lightpink1'
p4643
(dp4644
g4
g5
((lp4645
S'ENSG00000119703'
p4646
aS'ENSG00000114446'
p4647
aS'ENSG00000104043'
p4648
aS'ENSG00000122515'
p4649
aS'ENSG00000136869'
p4650
aS'ENSG00000181240'
p4651
aS'ENSG00000154265'
p4652
aS'ENSG00000112787'
p4653
aS'ENSG00000268948'
p4654
aS'ENSG00000088727'
p4655
aS'ENSG00000143669'
p4656
aS'ENSG00000164715'
p4657
aS'ENSG00000116698'
p4658
aS'ENSG00000179240'
p4659
aS'ENSG00000170430'
p4660
atRp4661
ssS'darkgrey'
p4662
(dp4663
g4
g5
((lp4664
S'ENSG00000110066'
p4665
aS'ENSG00000166788'
p4666
aS'ENSG00000184489'
p4667
aS'ENSG00000177427'
p4668
aS'ENSG00000105793'
p4669
aS'ENSG00000189377'
p4670
aS'ENSG00000262484'
p4671
aS'ENSG00000235531'
p4672
aS'ENSG00000049239'
p4673
aS'ENSG00000134470'
p4674
aS'ENSG00000093217'
p4675
aS'ENSG00000104228'
p4676
aS'ENSG00000112365'
p4677
aS'ENSG00000137976'
p4678
aS'ENSG00000172543'
p4679
aS'ENSG00000103351'
p4680
aS'ENSG00000170456'
p4681
aS'ENSG00000167987'
p4682
aS'ENSG00000156795'
p4683
aS'ENSG00000110171'
p4684
aS'ENSG00000153208'
p4685
aS'ENSG00000178860'
p4686
aS'ENSG00000204175'
p4687
aS'ENSG00000197363'
p4688
aS'ENSG00000110888'
p4689
aS'ENSG00000159445'
p4690
atRp4691
ssS'lightpink4'
p4692
(dp4693
g4
g5
((lp4694
S'ENSG00000169131'
p4695
aS'ENSG00000174197'
p4696
aS'ENSG00000011638'
p4697
aS'ENSG00000166927'
p4698
aS'ENSG00000130700'
p4699
aS'ENSG00000166928'
p4700
aS'ENSG00000143340'
p4701
aS'ENSG00000106443'
p4702
aS'ENSG00000184040'
p4703
aS'ENSG00000197771'
p4704
aS'ENSG00000139187'
p4705
aS'ENSG00000171700'
p4706
aS'ENSG00000196867'
p4707
aS'ENSG00000159374'
p4708
aS'ENSG00000204946'
p4709
aS'ENSG00000125510'
p4710
aS'ENSG00000222009'
p4711
aS'ENSG00000143515'
p4712
aS'ENSG00000182578'
p4713
aS'ENSG00000171202'
p4714
aS'ENSG00000169139'
p4715
atRp4716
ssS'darkseagreen3'
p4717
(dp4718
g4
g5
((lp4719
S'ENSG00000140395'
p4720
aS'ENSG00000180011'
p4721
aS'ENSG00000086062'
p4722
aS'ENSG00000130779'
p4723
aS'ENSG00000166965'
p4724
aS'ENSG00000175470'
p4725
aS'ENSG00000176171'
p4726
aS'ENSG00000099956'
p4727
aS'ENSG00000111331'
p4728
aS'ENSG00000213694'
p4729
aS'ENSG00000196586'
p4730
aS'ENSG00000061676'
p4731
aS'ENSG00000153015'
p4732
aS'ENSG00000168903'
p4733
aS'ENSG00000108270'
p4734
aS'ENSG00000176623'
p4735
aS'ENSG00000104361'
p4736
aS'ENSG00000125447'
p4737
atRp4738
ssS'antiquewhite'
p4739
(dp4740
g79
(lp4741
(lp4742
S'ENSG00000161082'
p4743
aFinf
ag83
(g85
S'\x88\x82\x01k\x05\xace?'
tRp4744
ag83
(g85
S'``\xb9\x02"\xd7\xa7?'
tRp4745
aa(lp4746
S'ENSG00000163430'
p4747
aFinf
ag83
(g85
S'\x88\x82\x01k\x05\xace?'
tRp4748
ag83
(g85
S'``\xb9\x02"\xd7\xa7?'
tRp4749
aa(lp4750
S'ENSG00000142173'
p4751
aFinf
ag83
(g85
S'\x88\x82\x01k\x05\xace?'
tRp4752
ag83
(g85
S'``\xb9\x02"\xd7\xa7?'
tRp4753
aasg4
g5
((lp4754
S'ENSG00000133110'
p4755
aS'ENSG00000227184'
p4756
aS'ENSG00000185340'
p4757
aS'ENSG00000125869'
p4758
aS'ENSG00000006625'
p4759
aS'ENSG00000154723'
p4760
aS'ENSG00000128989'
p4761
aS'ENSG00000166971'
p4762
aS'ENSG00000100601'
p4763
aS'ENSG00000154889'
p4764
aS'ENSG00000116885'
p4765
aS'ENSG00000122687'
p4766
aS'ENSG00000088682'
p4767
aS'ENSG00000126860'
p4768
atRp4769
ssS'darkorange2'
p4770
(dp4771
g79
(lp4772
(lp4773
S'ENSG00000143217'
p4774
ag83
(g85
S'\x00\x00\x00\x00\x00\x80w@'
tRp4775
ag83
(g85
S'\x1f\xb9\r-\x81;\x80?'
tRp4776
ag83
(g85
S'\x90\x87\xb0\xe1\n\xdf\xa7?'
tRp4777
aa(lp4778
S'ENSG00000197506'
p4779
ag83
(g85
S'\x00\x00\x00\x00\x00\x80w@'
tRp4780
ag83
(g85
S'\x1f\xb9\r-\x81;\x80?'
tRp4781
ag83
(g85
S'\x90\x87\xb0\xe1\n\xdf\xa7?'
tRp4782
aa(lp4783
g500
ag83
(g85
S'\xab\xaa\xaa\xaa\xaaJo@'
tRp4784
ag83
(g85
S'\x07\xef\x9a\xa4\xff\xa0\x85?'
tRp4785
ag83
(g85
S'\x90\x87\xb0\xe1\n\xdf\xa7?'
tRp4786
aasg4
g5
((lp4787
S'ENSG00000108953'
p4788
aS'ENSG00000133275'
p4789
aS'ENSG00000105738'
p4790
aS'ENSG00000100994'
p4791
aS'ENSG00000213672'
p4792
aS'ENSG00000176125'
p4793
aS'ENSG00000167644'
p4794
aS'ENSG00000172493'
p4795
aS'ENSG00000125898'
p4796
aS'ENSG00000238227'
p4797
aS'ENSG00000015676'
p4798
aS'ENSG00000176393'
p4799
aS'ENSG00000113119'
p4800
aS'ENSG00000180155'
p4801
aS'ENSG00000181027'
p4802
aS'ENSG00000125901'
p4803
aS'ENSG00000157036'
p4804
aS'ENSG00000135540'
p4805
aS'ENSG00000148655'
p4806
aS'ENSG00000204469'
p4807
aS'ENSG00000137868'
p4808
aS'ENSG00000115355'
p4809
aS'ENSG00000099785'
p4810
atRp4811
ssS'cornsilk2'
p4812
(dp4813
g79
(lp4814
(lp4815
S'ENSG00000186193'
p4816
aFinf
ag83
(g85
S'\x94\x82\x01k\x05\xacu?'
tRp4817
ag83
(g85
S'\x00\x8e0\xf6\x06\xce\x9a?'
tRp4818
aa(lp4819
S'ENSG00000183856'
p4820
ag83
(g85
S'\xab\xaa\xaa\xaa\xaaJo@'
tRp4821
ag83
(g85
S'\xe5\xea\x9a\xa4\xff\xa0\x85?'
tRp4822
ag83
(g85
S'\x80aCy\xe6I\xa5?'
tRp4823
aa(lp4824
S'ENSG00000105011'
p4825
ag83
(g85
S'\xab\xaa\xaa\xaa\xaaJo@'
tRp4826
ag83
(g85
S'\xe5\xea\x9a\xa4\xff\xa0\x85?'
tRp4827
ag83
(g85
S'\x80aCy\xe6I\xa5?'
tRp4828
aasg4
g5
((lp4829
S'ENSG00000166575'
p4830
aS'ENSG00000076555'
p4831
aS'ENSG00000151725'
p4832
aS'ENSG00000122481'
p4833
aS'ENSG00000171793'
p4834
aS'ENSG00000080166'
p4835
aS'ENSG00000041988'
p4836
aS'ENSG00000003249'
p4837
aS'ENSG00000166173'
p4838
aS'ENSG00000196456'
p4839
aS'ENSG00000162062'
p4840
aS'ENSG00000214595'
p4841
atRp4842
ssS'khaki2'
p4843
(dp4844
g79
(lp4845
(lp4846
S'ENSG00000011198'
p4847
ag83
(g85
S'\x00\x00\x00\x00\x00\x80w@'
tRp4848
ag83
(g85
S'\x1f\xb9\r-\x81;\x80?'
tRp4849
ag83
(g85
S'\x90\x87\xb0\xe1\n\xdf\xa7?'
tRp4850
aasg4
g5
((lp4851
S'ENSG00000171130'
p4852
aS'ENSG00000131849'
p4853
aS'ENSG00000171574'
p4854
aS'ENSG00000172594'
p4855
aS'ENSG00000114638'
p4856
aS'ENSG00000177674'
p4857
aS'ENSG00000187994'
p4858
aS'ENSG00000215187'
p4859
aS'ENSG00000135063'
p4860
atRp4861
ssS'moccasin'
p4862
(dp4863
g4
g5
((lp4864
S'ENSG00000174788'
p4865
aS'ENSG00000131051'
p4866
aS'ENSG00000101019'
p4867
aS'ENSG00000139405'
p4868
aS'ENSG00000165621'
p4869
aS'ENSG00000159063'
p4870
aS'ENSG00000170322'
p4871
aS'ENSG00000240344'
p4872
aS'ENSG00000100092'
p4873
aS'ENSG00000134343'
p4874
aS'ENSG00000088386'
p4875
aS'ENSG00000167525'
p4876
aS'ENSG00000186792'
p4877
aS'ENSG00000114779'
p4878
aS'ENSG00000152402'
p4879
atRp4880
ssS'chocolate1'
p4881
(dp4882
g79
(lp4883
(lp4884
S'ENSG00000138964'
p4885
ag83
(g85
S'\x00\x00\x00\x00\x00\x80w@'
tRp4886
ag83
(g85
S'E\xbf\r-\x81;\x80?'
tRp4887
ag83
(g85
S'@\xbf\r-\x81;\x80?'
tRp4888
aasg4
g5
((lp4889
S'ENSG00000215749'
p4890
aS'ENSG00000186188'
p4891
aS'ENSG00000182141'
p4892
aS'ENSG00000172000'
p4893
aS'ENSG00000205784'
p4894
aS'ENSG00000175591'
p4895
aS'ENSG00000111181'
p4896
aS'ENSG00000177663'
p4897
aS'ENSG00000205281'
p4898
aS'ENSG00000119787'
p4899
aS'ENSG00000108852'
p4900
aS'ENSG00000165684'
p4901
atRp4902
ssS'chocolate2'
p4903
(dp4904
g4
g5
((lp4905
S'ENSG00000204677'
p4906
aS'ENSG00000117410'
p4907
aS'ENSG00000138138'
p4908
aS'ENSG00000145781'
p4909
aS'ENSG00000103510'
p4910
aS'ENSG00000099365'
p4911
aS'ENSG00000178015'
p4912
aS'ENSG00000100065'
p4913
aS'ENSG00000160781'
p4914
aS'ENSG00000157335'
p4915
aS'ENSG00000103335'
p4916
aS'ENSG00000006534'
p4917
aS'ENSG00000198483'
p4918
aS'ENSG00000106609'
p4919
atRp4920
ssS'chocolate3'
p4921
(dp4922
g4
g5
((lp4923
S'ENSG00000169592'
p4924
aS'ENSG00000197857'
p4925
aS'ENSG00000198832'
p4926
aS'ENSG00000198648'
p4927
aS'ENSG00000185800'
p4928
aS'ENSG00000213676'
p4929
aS'ENSG00000156599'
p4930
aS'ENSG00000251247'
p4931
aS'ENSG00000152359'
p4932
aS'ENSG00000215421'
p4933
aS'ENSG00000179981'
p4934
aS'ENSG00000177191'
p4935
aS'ENSG00000139344'
p4936
aS'ENSG00000185261'
p4937
aS'ENSG00000198089'
p4938
atRp4939
ssS'chocolate4'
p4940
(dp4941
g79
(lp4942
(lp4943
S'ENSG00000159248'
p4944
aFinf
ag83
(g85
S'\xf4!A\x10\x04Ap?'
tRp4945
ag83
(g85
S' \xcb\xec7\xa9\x1b\x9c?'
tRp4946
aa(lp4947
S'ENSG00000162069'
p4948
ag83
(g85
S'\x00\x00\x00\x00\x00\x80w@'
tRp4949
ag83
(g85
S'E\xbf\r-\x81;\x80?'
tRp4950
ag83
(g85
S'\x90\x90\xb0\xe1\n\xdf\xa7?'
tRp4951
aa(lp4952
S'ENSG00000142273'
p4953
ag83
(g85
S'\x00\x00\x00\x00\x00\x80w@'
tRp4954
ag83
(g85
S'E\xbf\r-\x81;\x80?'
tRp4955
ag83
(g85
S'\x90\x90\xb0\xe1\n\xdf\xa7?'
tRp4956
aa(lp4957
S'ENSG00000086062'
p4958
ag83
(g85
S'\x00\x00\x00\x00\x00xg@'
tRp4959
ag83
(g85
S'g\xed\xceM\xffP\x88?'
tRp4960
ag83
(g85
S'\xc0\x82#\x83\x01\xe3\xa7?'
tRp4961
aasg4
g5
((lp4962
S'ENSG00000082641'
p4963
aS'ENSG00000127561'
p4964
aS'ENSG00000169756'
p4965
aS'ENSG00000182747'
p4966
aS'ENSG00000257093'
p4967
aS'ENSG00000170379'
p4968
aS'ENSG00000169570'
p4969
aS'ENSG00000085831'
p4970
aS'ENSG00000111321'
p4971
aS'ENSG00000129219'
p4972
aS'ENSG00000125741'
p4973
aS'ENSG00000139921'
p4974
aS'ENSG00000151702'
p4975
aS'ENSG00000184381'
p4976
aS'ENSG00000089916'
p4977
aS'ENSG00000134900'
p4978
atRp4979
ssS'darkslateblue'
p4980
(dp4981
g4
g5
((lp4982
S'ENSG00000165819'
p4983
aS'ENSG00000136104'
p4984
aS'ENSG00000124207'
p4985
aS'ENSG00000269305'
p4986
aS'ENSG00000215717'
p4987
aS'ENSG00000176208'
p4988
aS'ENSG00000176209'
p4989
aS'ENSG00000053524'
p4990
aS'ENSG00000228696'
p4991
aS'ENSG00000138663'
p4992
aS'ENSG00000118816'
p4993
aS'ENSG00000141140'
p4994
aS'ENSG00000149548'
p4995
aS'ENSG00000167524'
p4996
aS'ENSG00000114784'
p4997
aS'ENSG00000168291'
p4998
aS'ENSG00000164494'
p4999
aS'ENSG00000151287'
p5000
aS'ENSG00000149499'
p5001
aS'ENSG00000197696'
p5002
aS'ENSG00000120158'
p5003
aS'ENSG00000187688'
p5004
atRp5005
ssS'lightskyblue'
p5006
(dp5007
g79
(lp5008
(lp5009
S'ENSG00000124205'
p5010
aFinf
ag83
(g85
S'\x88\x82\x01k\x05\xace?'
tRp5011
ag83
(g85
S'`]\xae\xa6\x0b\xf2\xa3?'
tRp5012
aa(lp5013
S'ENSG00000130701'
p5014
aFinf
ag83
(g85
S'\x88\x82\x01k\x05\xace?'
tRp5015
ag83
(g85
S'`]\xae\xa6\x0b\xf2\xa3?'
tRp5016
aa(lp5017
S'ENSG00000133135'
p5018
aFinf
ag83
(g85
S'\x88\x82\x01k\x05\xace?'
tRp5019
ag83
(g85
S'`]\xae\xa6\x0b\xf2\xa3?'
tRp5020
aa(lp5021
S'ENSG00000113763'
p5022
aFinf
ag83
(g85
S'\x88\x82\x01k\x05\xace?'
tRp5023
ag83
(g85
S'`]\xae\xa6\x0b\xf2\xa3?'
tRp5024
aa(lp5025
S'ENSG00000168843'
p5026
aFinf
ag83
(g85
S'\x88\x82\x01k\x05\xace?'
tRp5027
ag83
(g85
S'`]\xae\xa6\x0b\xf2\xa3?'
tRp5028
aa(lp5029
S'ENSG00000183778'
p5030
aFinf
ag83
(g85
S'\x88\x82\x01k\x05\xace?'
tRp5031
ag83
(g85
S'`]\xae\xa6\x0b\xf2\xa3?'
tRp5032
aa(lp5033
S'ENSG00000154639'
p5034
ag83
(g85
S'\x00\x00\x00\x00\x00\x88\x87@'
tRp5035
ag83
(g85
S'E\xe6\x89\xd3X\xa8u?'
tRp5036
ag83
(g85
S'\xc0\x0f\x0b\x91\x15\xdb\xa7?'
tRp5037
aasg4
g5
((lp5038
S'ENSG00000182132'
p5039
aS'ENSG00000137364'
p5040
aS'ENSG00000182670'
p5041
aS'ENSG00000169629'
p5042
aS'ENSG00000131374'
p5043
aS'ENSG00000119227'
p5044
aS'ENSG00000180481'
p5045
aS'ENSG00000102981'
p5046
aS'ENSG00000075407'
p5047
aS'ENSG00000197191'
p5048
atRp5049
ssS'salmon1'
p5050
(dp5051
g79
(lp5052
(lp5053
S'ENSG00000120251'
p5054
aFinf
ag83
(g85
S'\x99\x86\x01k\x05\xace?'
tRp5055
ag83
(g85
S'@\x9e@D\x0b\x96\x85?'
tRp5056
aa(lp5057
S'ENSG00000101746'
p5058
aFinf
ag83
(g85
S'\x99\x86\x01k\x05\xace?'
tRp5059
ag83
(g85
S'@\x9e@D\x0b\x96\x85?'
tRp5060
aa(lp5061
S'ENSG00000179915'
p5062
aFinf
ag83
(g85
S'\x99\x86\x01k\x05\xace?'
tRp5063
ag83
(g85
S'@\x9e@D\x0b\x96\x85?'
tRp5064
aa(lp5065
S'ENSG00000198910'
p5066
aFinf
ag83
(g85
S'\xe6\x8e\x01k\x05\xac\x85?'
tRp5067
ag83
(g85
S'\x00\x8f\x01k\x05\xac\x85?'
tRp5068
aasg4
g5
((lp5069
S'ENSG00000161981'
p5070
aS'ENSG00000163161'
p5071
aS'ENSG00000007376'
p5072
aS'ENSG00000271303'
p5073
aS'ENSG00000110711'
p5074
aS'ENSG00000183011'
p5075
aS'ENSG00000141424'
p5076
aS'ENSG00000177414'
p5077
aS'ENSG00000101463'
p5078
aS'ENSG00000168028'
p5079
aS'ENSG00000117481'
p5080
aS'ENSG00000001084'
p5081
aS'ENSG00000147457'
p5082
aS'ENSG00000158865'
p5083
aS'ENSG00000140470'
p5084
aS'ENSG00000100804'
p5085
aS'ENSG00000136560'
p5086
atRp5087
ssS'thistle'
p5088
(dp5089
g4
g5
((lp5090
S'ENSG00000166897'
p5091
aS'ENSG00000136021'
p5092
aS'ENSG00000173124'
p5093
aS'ENSG00000095981'
p5094
aS'ENSG00000149582'
p5095
aS'ENSG00000205084'
p5096
aS'ENSG00000180113'
p5097
aS'ENSG00000173064'
p5098
aS'ENSG00000105479'
p5099
aS'ENSG00000117569'
p5100
aS'ENSG00000151208'
p5101
aS'ENSG00000113946'
p5102
aS'ENSG00000167311'
p5103
aS'ENSG00000100225'
p5104
aS'ENSG00000160326'
p5105
aS'ENSG00000221988'
p5106
aS'ENSG00000163346'
p5107
aS'ENSG00000088986'
p5108
aS'ENSG00000111786'
p5109
atRp5110
ssS'deeppink'
p5111
(dp5112
g4
g5
((lp5113
S'ENSG00000172426'
p5114
aS'ENSG00000176920'
p5115
aS'ENSG00000128310'
p5116
aS'ENSG00000140650'
p5117
aS'ENSG00000167920'
p5118
aS'ENSG00000119383'
p5119
aS'ENSG00000167118'
p5120
aS'ENSG00000120451'
p5121
aS'ENSG00000151746'
p5122
aS'ENSG00000160284'
p5123
aS'ENSG00000167703'
p5124
aS'ENSG00000115750'
p5125
aS'ENSG00000136205'
p5126
aS'ENSG00000124587'
p5127
aS'ENSG00000142798'
p5128
aS'ENSG00000070413'
p5129
aS'ENSG00000165443'
p5130
atRp5131
ssS'plum'
p5132
(dp5133
g79
(lp5134
(lp5135
g962
ag83
(g85
S'\x00\x00\x00\x00\x00pg@'
tRp5136
ag83
(g85
S'@<l\xd0\xa7\x04\x8b?'
tRp5137
ag83
(g85
S'PZ\x86S[\xff\xa3?'
tRp5138
aa(lp5139
S'ENSG00000166111'
p5140
ag83
(g85
S'\x00\x00\x00\x00\x00hW@'
tRp5141
ag83
(g85
S'\xab\xf8t\xff\xbf5\x94?'
tRp5142
ag83
(g85
S'\x10\xb7U\xd6\xb1\x02\xa4?'
tRp5143
aasg4
g5
((lp5144
S'ENSG00000060709'
p5145
aS'ENSG00000119048'
p5146
aS'ENSG00000087995'
p5147
aS'ENSG00000109794'
p5148
aS'ENSG00000163636'
p5149
aS'ENSG00000183431'
p5150
aS'ENSG00000074071'
p5151
aS'ENSG00000163635'
p5152
aS'ENSG00000156463'
p5153
aS'ENSG00000187514'
p5154
aS'ENSG00000221990'
p5155
aS'ENSG00000161013'
p5156
aS'ENSG00000124159'
p5157
aS'ENSG00000100731'
p5158
aS'ENSG00000121454'
p5159
aS'ENSG00000102935'
p5160
aS'ENSG00000228300'
p5161
aS'ENSG00000165863'
p5162
aS'ENSG00000058404'
p5163
aS'ENSG00000184828'
p5164
atRp5165
ssS'goldenrod4'
p5166
(dp5167
g4
g5
((lp5168
S'ENSG00000179855'
p5169
aS'ENSG00000241258'
p5170
aS'ENSG00000179119'
p5171
aS'ENSG00000119231'
p5172
aS'ENSG00000187624'
p5173
aS'ENSG00000112210'
p5174
aS'ENSG00000131979'
p5175
aS'ENSG00000162944'
p5176
aS'ENSG00000149658'
p5177
aS'ENSG00000183323'
p5178
aS'ENSG00000178401'
p5179
atRp5180
ssS'palegreen4'
p5181
(dp5182
g79
(lp5183
(lp5184
S'ENSG00000168143'
p5185
aFinf
ag83
(g85
S'\x94\x82\x01k\x05\xacu?'
tRp5186
ag83
(g85
S'\x80\x82\x01k\x05\xacu?'
tRp5187
aasg4
g5
((lp5188
S'ENSG00000175287'
p5189
aS'ENSG00000130202'
p5190
aS'ENSG00000129460'
p5191
aS'ENSG00000134755'
p5192
aS'ENSG00000143799'
p5193
aS'ENSG00000046604'
p5194
aS'ENSG00000100596'
p5195
aS'ENSG00000104892'
p5196
aS'ENSG00000170421'
p5197
atRp5198
ssS'goldenrod3'
p5199
(dp5200
g4
g5
((lp5201
S'ENSG00000168813'
p5202
aS'ENSG00000117748'
p5203
aS'ENSG00000106615'
p5204
aS'ENSG00000104497'
p5205
aS'ENSG00000164713'
p5206
aS'ENSG00000204070'
p5207
aS'ENSG00000182544'
p5208
aS'ENSG00000164199'
p5209
aS'ENSG00000067533'
p5210
atRp5211
ssS'darkgoldenrod'
p5212
(dp5213
g4
g5
((lp5214
S'ENSG00000113303'
p5215
aS'ENSG00000107954'
p5216
aS'ENSG00000198133'
p5217
aS'ENSG00000129657'
p5218
aS'ENSG00000163273'
p5219
aS'ENSG00000162714'
p5220
aS'ENSG00000254535'
p5221
aS'ENSG00000148672'
p5222
aS'ENSG00000163032'
p5223
aS'ENSG00000124134'
p5224
atRp5225
ssS'red1'
p5226
(dp5227
g79
(lp5228
(lp5229
g2947
ag83
(g85
S'\x00\x00\x00\x00\x00 _@'
tRp5230
ag83
(g85
S'\xf5\xe6\x84\x0eb\nA?'
tRp5231
ag83
(g85
S'\x00\x01|\x80\x1f2\x85?'
tRp5232
aa(lp5233
S'ENSG00000011465'
p5234
ag83
(g85
S'\x00\x00\x00\x00\x00PW@'
tRp5235
ag83
(g85
S'\x14\xaf\x9f\xcbdxI?'
tRp5236
ag83
(g85
S'\xc0j>\xdc\t\t\x8e?'
tRp5237
aasg4
g5
((lp5238
S'ENSG00000149577'
p5239
aS'ENSG00000145936'
p5240
aS'ENSG00000138722'
p5241
aS'ENSG00000178343'
p5242
aS'ENSG00000110274'
p5243
aS'ENSG00000012963'
p5244
aS'ENSG00000077943'
p5245
aS'ENSG00000106526'
p5246
aS'ENSG00000160613'
p5247
aS'ENSG00000133067'
p5248
aS'ENSG00000135211'
p5249
aS'ENSG00000100739'
p5250
aS'ENSG00000064205'
p5251
atRp5252
ssS'mediumorchid'
p5253
(dp5254
g4
g5
((lp5255
S'ENSG00000171984'
p5256
aS'ENSG00000120341'
p5257
aS'ENSG00000177034'
p5258
aS'ENSG00000188613'
p5259
aS'ENSG00000174500'
p5260
aS'ENSG00000178295'
p5261
aS'ENSG00000091536'
p5262
aS'ENSG00000135632'
p5263
aS'ENSG00000007341'
p5264
aS'ENSG00000214194'
p5265
aS'ENSG00000256525'
p5266
aS'ENSG00000243710'
p5267
aS'ENSG00000114529'
p5268
aS'ENSG00000135446'
p5269
aS'ENSG00000103148'
p5270
aS'ENSG00000188130'
p5271
aS'ENSG00000183891'
p5272
aS'ENSG00000197020'
p5273
aS'ENSG00000172139'
p5274
aS'ENSG00000175414'
p5275
atRp5276
ssS'maroon'
p5277
(dp5278
g4
g5
((lp5279
S'ENSG00000203867'
p5280
aS'ENSG00000137494'
p5281
aS'ENSG00000178927'
p5282
aS'ENSG00000182512'
p5283
aS'ENSG00000164252'
p5284
aS'ENSG00000101307'
p5285
aS'ENSG00000140743'
p5286
aS'ENSG00000064012'
p5287
aS'ENSG00000184524'
p5288
aS'ENSG00000003400'
p5289
aS'ENSG00000129925'
p5290
aS'ENSG00000126246'
p5291
aS'ENSG00000150455'
p5292
aS'ENSG00000024862'
p5293
aS'ENSG00000187650'
p5294
aS'ENSG00000141562'
p5295
aS'ENSG00000183060'
p5296
aS'ENSG00000164344'
p5297
aS'ENSG00000117151'
p5298
aS'ENSG00000145476'
p5299
aS'ENSG00000101457'
p5300
atRp5301
ssS'lightcyan1'
p5302
(dp5303
g79
(lp5304
(lp5305
g2364
aFinf
ag83
(g85
S'\xe6\x8e\x01k\x05\xac\x85?'
tRp5306
ag83
(g85
S'\x00\x8f\x01k\x05\xac\x85?'
tRp5307
aasg4
g5
((lp5308
S'ENSG00000010818'
p5309
aS'ENSG00000154803'
p5310
aS'ENSG00000127948'
p5311
aS'ENSG00000101096'
p5312
aS'ENSG00000122783'
p5313
aS'ENSG00000118518'
p5314
aS'ENSG00000152465'
p5315
aS'ENSG00000214063'
p5316
aS'ENSG00000170037'
p5317
aS'ENSG00000110944'
p5318
aS'ENSG00000034677'
p5319
aS'ENSG00000144566'
p5320
aS'ENSG00000040199'
p5321
aS'ENSG00000125734'
p5322
aS'ENSG00000113013'
p5323
aS'ENSG00000085449'
p5324
aS'ENSG00000174851'
p5325
aS'ENSG00000168763'
p5326
aS'ENSG00000133818'
p5327
aS'ENSG00000213471'
p5328
aS'ENSG00000185019'
p5329
aS'ENSG00000103249'
p5330
aS'ENSG00000087589'
p5331
atRp5332
ssS'turquoise2'
p5333
(dp5334
g79
(lp5335
(lp5336
S'ENSG00000188783'
p5337
aFinf
ag83
(g85
S'\x88\x82\x01k\x05\xace?'
tRp5338
ag83
(g85
S'\xc0\x1b\x8c\x81\x046\x80?'
tRp5339
aa(lp5340
g2050
ag83
(g85
S'\x00\x00\x00\x00\x00\x80w@'
tRp5341
ag83
(g85
S'\x1f\xb9\r-\x81;\x80?'
tRp5342
ag83
(g85
S'`\xdefM\t+\x90?'
tRp5343
aa(lp5344
g3299
ag83
(g85
S'\xdb\xb6m\xdb\xb6mJ@'
tRp5345
ag83
(g85
S'9\xa4P\xd0\x0b!\xa4?'
tRp5346
ag83
(g85
S'@\xa4P\xd0\x0b!\xa4?'
tRp5347
aasg4
g5
((lp5348
S'ENSG00000158828'
p5349
aS'ENSG00000145075'
p5350
aS'ENSG00000166913'
p5351
aS'ENSG00000162591'
p5352
aS'ENSG00000177646'
p5353
aS'ENSG00000172379'
p5354
aS'ENSG00000198466'
p5355
aS'ENSG00000203326'
p5356
aS'ENSG00000180257'
p5357
aS'ENSG00000163728'
p5358
aS'ENSG00000182446'
p5359
atRp5360
ssS'burlywood1'
p5361
(dp5362
g79
(lp5363
(lp5364
S'ENSG00000163581'
p5365
aFinf
ag83
(g85
S'\x88\x82\x01k\x05\xace?'
tRp5366
ag83
(g85
S'\xc0\x1b\x8c\x81\x046\x80?'
tRp5367
aa(lp5368
S'ENSG00000169903'
p5369
ag83
(g85
S'\x00\x00\x00\x00\x00\x88\x87@'
tRp5370
ag83
(g85
S'E\xe6\x89\xd3X\xa8u?'
tRp5371
ag83
(g85
S'\xc0\x9dNi\xb0\x99\x85?'
tRp5372
aa(lp5373
S'ENSG00000122786'
p5374
ag83
(g85
S'\x00\x00\x00\x00\x00\x80L@'
tRp5375
ag83
(g85
S'\x0f\x9e\xb1\x82\xb9\xcc\xa2?'
tRp5376
ag83
(g85
S'\x10\x9e\xb1\x82\xb9\xcc\xa2?'
tRp5377
aasg4
g5
((lp5378
S'ENSG00000255374'
p5379
aS'ENSG00000171806'
p5380
aS'ENSG00000173214'
p5381
aS'ENSG00000203797'
p5382
aS'ENSG00000183172'
p5383
aS'ENSG00000139508'
p5384
aS'ENSG00000090487'
p5385
aS'ENSG00000157734'
p5386
aS'ENSG00000171722'
p5387
aS'ENSG00000166839'
p5388
aS'ENSG00000198951'
p5389
atRp5390
ssS'seashell3'
p5391
(dp5392
g4
g5
((lp5393
S'ENSG00000105072'
p5394
aS'ENSG00000198589'
p5395
aS'ENSG00000168038'
p5396
aS'ENSG00000163812'
p5397
aS'ENSG00000102763'
p5398
aS'ENSG00000089091'
p5399
aS'ENSG00000119977'
p5400
aS'ENSG00000126785'
p5401
aS'ENSG00000136754'
p5402
aS'ENSG00000137509'
p5403
atRp5404
ssS'magenta'
p5405
(dp5406
g79
(lp5407
(lp5408
S'ENSG00000174938'
p5409
ag83
(g85
S'\xab\xaa\xaa\xaa\xaaJo@'
tRp5410
ag83
(g85
S'\x07\xef\x9a\xa4\xff\xa0\x85?'
tRp5411
ag83
(g85
S'`eCy\xe6I\xa5?'
tRp5412
aasg4
g5
((lp5413
S'ENSG00000256269'
p5414
aS'ENSG00000171790'
p5415
aS'ENSG00000060982'
p5416
aS'ENSG00000105281'
p5417
aS'ENSG00000134684'
p5418
aS'ENSG00000102908'
p5419
aS'ENSG00000166986'
p5420
aS'ENSG00000164241'
p5421
aS'ENSG00000066923'
p5422
aS'ENSG00000204084'
p5423
aS'ENSG00000169504'
p5424
aS'ENSG00000159761'
p5425
aS'ENSG00000197548'
p5426
aS'ENSG00000179909'
p5427
aS'ENSG00000135069'
p5428
aS'ENSG00000162734'
p5429
aS'ENSG00000039123'
p5430
aS'ENSG00000170248'
p5431
aS'ENSG00000106404'
p5432
aS'ENSG00000198961'
p5433
aS'ENSG00000166436'
p5434
aS'ENSG00000178381'
p5435
aS'ENSG00000180398'
p5436
aS'ENSG00000133706'
p5437
aS'ENSG00000014123'
p5438
aS'ENSG00000070669'
p5439
aS'ENSG00000153914'
p5440
aS'ENSG00000100201'
p5441
aS'ENSG00000101104'
p5442
aS'ENSG00000106105'
p5443
aS'ENSG00000134072'
p5444
atRp5445
ssS'burlywood2'
p5446
(dp5447
g4
g5
((lp5448
S'ENSG00000131094'
p5449
aS'ENSG00000255837'
p5450
aS'ENSG00000144043'
p5451
aS'ENSG00000197272'
p5452
aS'ENSG00000155542'
p5453
aS'ENSG00000077080'
p5454
aS'ENSG00000212127'
p5455
aS'ENSG00000102886'
p5456
aS'ENSG00000111215'
p5457
atRp5458
ssS'violet'
p5459
(dp5460
g79
(lp5461
(lp5462
S'ENSG00000130635'
p5463
aFinf
ag83
(g85
S'}\x82\x01k\x05\xacU?'
tRp5464
ag83
(g85
S'\x80\x9e\xdb\xa9\x83;p?'
tRp5465
aa(lp5466
S'ENSG00000164692'
p5467
aFinf
ag83
(g85
S'\xca\x8a\x01k\x05\xacu?'
tRp5468
ag83
(g85
S'\xc0\xd9*\x07X\x9d\x85?'
tRp5469
aa(lp5470
S'ENSG00000168542'
p5471
aFinf
ag83
(g85
S'\xde\xcc\xc1\xc5\x06\x17{?'
tRp5472
ag83
(g85
S'\xc0\xd9*\x07X\x9d\x85?'
tRp5473
aasg4
g5
((lp5474
S'ENSG00000196419'
p5475
aS'ENSG00000164323'
p5476
aS'ENSG00000090054'
p5477
aS'ENSG00000138085'
p5478
aS'ENSG00000152763'
p5479
aS'ENSG00000145416'
p5480
aS'ENSG00000128604'
p5481
aS'ENSG00000067167'
p5482
aS'ENSG00000145354'
p5483
aS'ENSG00000146574'
p5484
aS'ENSG00000130305'
p5485
aS'ENSG00000140943'
p5486
aS'ENSG00000110031'
p5487
aS'ENSG00000068697'
p5488
aS'ENSG00000113360'
p5489
aS'ENSG00000213865'
p5490
aS'ENSG00000119599'
p5491
aS'ENSG00000100554'
p5492
aS'ENSG00000135541'
p5493
aS'ENSG00000225940'
p5494
aS'ENSG00000101474'
p5495
aS'ENSG00000110911'
p5496
aS'ENSG00000092199'
p5497
aS'ENSG00000143183'
p5498
aS'ENSG00000125304'
p5499
atRp5500
ssS'mistyrose3'
p5501
(dp5502
g4
g5
((lp5503
S'ENSG00000140988'
p5504
aS'ENSG00000167123'
p5505
aS'ENSG00000113851'
p5506
aS'ENSG00000213903'
p5507
aS'ENSG00000197594'
p5508
aS'ENSG00000188690'
p5509
aS'ENSG00000100376'
p5510
aS'ENSG00000140986'
p5511
aS'ENSG00000165689'
p5512
aS'ENSG00000167641'
p5513
aS'ENSG00000189409'
p5514
aS'ENSG00000196597'
p5515
aS'ENSG00000145868'
p5516
atRp5517
ssS'seashell4'
p5518
(dp5519
g79
(lp5520
(lp5521
S'ENSG00000161509'
p5522
aFinf
ag83
(g85
S'}\x82\x01k\x05\xacU?'
tRp5523
ag83
(g85
S'\x80\xa0\x16\xdc\x05\xa1u?'
tRp5524
aa(lp5525
S'ENSG00000174672'
p5526
aFinf
ag83
(g85
S'}\x82\x01k\x05\xacU?'
tRp5527
ag83
(g85
S'\x80\xa0\x16\xdc\x05\xa1u?'
tRp5528
aa(lp5529
g3195
aFinf
ag83
(g85
S'\xc7\x1eA\x10\x04Ap?'
tRp5530
ag83
(g85
S'\x80.\x16\xb9\xae\xa4u?'
tRp5531
aa(lp5532
g3200
aFinf
ag83
(g85
S'\x99\x86\x01k\x05\xace?'
tRp5533
ag83
(g85
S'\x80.\x16\xb9\xae\xa4u?'
tRp5534
aasg4
g5
((lp5535
S'ENSG00000180773'
p5536
aS'ENSG00000100299'
p5537
aS'ENSG00000197681'
p5538
aS'ENSG00000093072'
p5539
aS'ENSG00000103653'
p5540
aS'ENSG00000123815'
p5541
aS'ENSG00000087903'
p5542
aS'ENSG00000135778'
p5543
aS'ENSG00000146830'
p5544
aS'ENSG00000103227'
p5545
aS'ENSG00000115944'
p5546
aS'ENSG00000175518'
p5547
atRp5548
ssS'turquoise4'
p5549
(dp5550
g79
(lp5551
(lp5552
S'ENSG00000145147'
p5553
aFinf
ag83
(g85
S'\xc7\x1eA\x10\x04Ap?'
tRp5554
ag83
(g85
S'`\xca/\xc27\xe9\xa5?'
tRp5555
aa(lp5556
S'ENSG00000120820'
p5557
aFinf
ag83
(g85
S'\xc7\x1eA\x10\x04Ap?'
tRp5558
ag83
(g85
S'`\xca/\xc27\xe9\xa5?'
tRp5559
aasg4
g5
((lp5560
S'ENSG00000083799'
p5561
aS'ENSG00000123096'
p5562
aS'ENSG00000087191'
p5563
aS'ENSG00000187815'
p5564
aS'ENSG00000108588'
p5565
aS'ENSG00000145246'
p5566
aS'ENSG00000185721'
p5567
aS'ENSG00000108592'
p5568
aS'ENSG00000095015'
p5569
atRp5570
ssS'pink'
p5571
(dp5572
g79
(lp5573
(lp5574
g1309
ag83
(g85
S'\x00\x00\x00\x00\x00\xfc|@'
tRp5575
ag83
(g85
S'\x05_\xafS\xac/0>'
tRp5576
ag83
(g85
S'\x00\x00\x00\x80mSl>'
tRp5577
aa(lp5578
g1299
ag83
(g85
S'33333\xd3k@'
tRp5579
ag83
(g85
S'\x8a\x98\xb0\xd5\xab\x8e\xf0>'
tRp5580
ag83
(g85
S'\x00\x00./0\xe7*?'
tRp5581
aa(lp5582
g1304
ag83
(g85
S'33333\xd3k@'
tRp5583
ag83
(g85
S'\x8a\x98\xb0\xd5\xab\x8e\xf0>'
tRp5584
ag83
(g85
S'\x00\x00./0\xe7*?'
tRp5585
aa(lp5586
g460
ag83
(g85
S'\xa4p=\n\xd7#F@'
tRp5587
ag83
(g85
S'x=\xbc&B\xd6+?'
tRp5588
ag83
(g85
S'\x00\x18\xb4y\x1a\x1ec?'
tRp5589
aasg4
g5
((lp5590
S'ENSG00000127324'
p5591
aS'ENSG00000115648'
p5592
aS'ENSG00000013588'
p5593
aS'ENSG00000145113'
p5594
aS'ENSG00000064787'
p5595
aS'ENSG00000041802'
p5596
aS'ENSG00000111615'
p5597
aS'ENSG00000130713'
p5598
aS'ENSG00000118094'
p5599
aS'ENSG00000203697'
p5600
aS'ENSG00000178038'
p5601
aS'ENSG00000154305'
p5602
aS'ENSG00000019102'
p5603
aS'ENSG00000187758'
p5604
aS'ENSG00000014914'
p5605
aS'ENSG00000106789'
p5606
aS'ENSG00000164609'
p5607
aS'ENSG00000096088'
p5608
aS'ENSG00000119718'
p5609
aS'ENSG00000163993'
p5610
aS'ENSG00000136542'
p5611
aS'ENSG00000007216'
p5612
aS'ENSG00000142484'
p5613
aS'ENSG00000160182'
p5614
aS'ENSG00000196188'
p5615
aS'ENSG00000060140'
p5616
aS'ENSG00000166866'
p5617
aS'ENSG00000129270'
p5618
aS'ENSG00000114650'
p5619
aS'ENSG00000090382'
p5620
aS'ENSG00000121067'
p5621
aS'ENSG00000117868'
p5622
atRp5623
ssS'lightblue'
p5624
(dp5625
g4
g5
((lp5626
S'ENSG00000148719'
p5627
aS'ENSG00000196090'
p5628
aS'ENSG00000113272'
p5629
aS'ENSG00000083857'
p5630
aS'ENSG00000168014'
p5631
aS'ENSG00000203880'
p5632
aS'ENSG00000185787'
p5633
aS'ENSG00000240303'
p5634
aS'ENSG00000150403'
p5635
aS'ENSG00000169507'
p5636
aS'ENSG00000139998'
p5637
aS'ENSG00000188707'
p5638
atRp5639
ssS'mistyrose2'
p5640
(dp5641
g79
(lp5642
(lp5643
S'ENSG00000185482'
p5644
aFinf
ag83
(g85
S'}\x82\x01k\x05\xacU?'
tRp5645
ag83
(g85
S'\x80\xa0\x16\xdc\x05\xa1u?'
tRp5646
aa(lp5647
S'ENSG00000108515'
p5648
aFinf
ag83
(g85
S'}\x82\x01k\x05\xacU?'
tRp5649
ag83
(g85
S'\x80\xa0\x16\xdc\x05\xa1u?'
tRp5650
aa(lp5651
g1148
aFinf
ag83
(g85
S'\x99\x86\x01k\x05\xace?'
tRp5652
ag83
(g85
S'\x80.\x16\xb9\xae\xa4u?'
tRp5653
aa(lp5654
g1158
aFinf
ag83
(g85
S'\xec!A\x10\x04A\x80?'
tRp5655
ag83
(g85
S'\x00"A\x10\x04A\x80?'
tRp5656
aasg4
g5
((lp5657
S'ENSG00000172716'
p5658
aS'ENSG00000214078'
p5659
aS'ENSG00000169914'
p5660
aS'ENSG00000180423'
p5661
aS'ENSG00000165935'
p5662
aS'ENSG00000206127'
p5663
aS'ENSG00000135940'
p5664
aS'ENSG00000183648'
p5665
aS'ENSG00000163702'
p5666
aS'ENSG00000165934'
p5667
aS'ENSG00000120539'
p5668
atRp5669
ssS'slateblue'
p5670
(dp5671
g79
(lp5672
(lp5673
S'ENSG00000175707'
p5674
aFinf
ag83
(g85
S'\x8b\x1d\xcbw\x9d\xe54?'
tRp5675
ag83
(g85
S'\x00\xfc\x9a\x95\x0e\xe3T?'
tRp5676
aa(lp5677
S'ENSG00000113645'
p5678
ag83
(g85
S'\x00\x00\x00\x00\x00\x80w@'
tRp5679
ag83
(g85
S'\x1f\xb9\r-\x81;\x80?'
tRp5680
ag83
(g85
S"\x80N\xdd\x8e\xfb'\x98?"
tRp5681
aa(lp5682
S'ENSG00000180921'
p5683
ag83
(g85
S'\x00\x00\x00\x00\x00pg@'
tRp5684
ag83
(g85
S'\xf2 l\xd0\xa7\x04\x8b?'
tRp5685
ag83
(g85
S'\xc0\xeb\xb1\x18\x08\xd7\x9a?'
tRp5686
aa(lp5687
S'ENSG00000163624'
p5688
ag83
(g85
S'\xab\xaa\xaa\xaa\xaa*_@'
tRp5689
ag83
(g85
S'\xae\xbam\xa2:\xe3\x92?'
tRp5690
ag83
(g85
S'\xc0\xeb\xb1\x18\x08\xd7\x9a?'
tRp5691
aasg4
g5
((lp5692
S'ENSG00000125170'
p5693
aS'ENSG00000213699'
p5694
aS'ENSG00000025039'
p5695
aS'ENSG00000159128'
p5696
aS'ENSG00000184047'
p5697
aS'ENSG00000164379'
p5698
aS'ENSG00000168071'
p5699
aS'ENSG00000070610'
p5700
aS'ENSG00000085552'
p5701
aS'ENSG00000149084'
p5702
aS'ENSG00000198035'
p5703
aS'ENSG00000111666'
p5704
aS'ENSG00000206535'
p5705
aS'ENSG00000203722'
p5706
aS'ENSG00000171928'
p5707
aS'ENSG00000118997'
p5708
atRp5709
ssS'sienna4'
p5710
(dp5711
g4
g5
((lp5712
S'ENSG00000158714'
p5713
aS'ENSG00000169180'
p5714
aS'ENSG00000051620'
p5715
aS'ENSG00000135404'
p5716
aS'ENSG00000171763'
p5717
aS'ENSG00000048162'
p5718
aS'ENSG00000198189'
p5719
aS'ENSG00000171970'
p5720
aS'ENSG00000139168'
p5721
aS'ENSG00000139908'
p5722
aS'ENSG00000072657'
p5723
aS'ENSG00000143198'
p5724
aS'ENSG00000214114'
p5725
aS'ENSG00000110660'
p5726
aS'ENSG00000144746'
p5727
aS'ENSG00000089327'
p5728
aS'ENSG00000164099'
p5729
aS'ENSG00000140400'
p5730
atRp5731
ssS'darkorange'
p5732
(dp5733
g79
(lp5734
(lp5735
g5674
ag83
(g85
S'\x00\x00\x00\x00\x00\xe0^@'
tRp5736
ag83
(g85
S'\xcew.lH\x03O?'
tRp5737
ag83
(g85
S'\x80\n\x174\xfa`\x81?'
tRp5738
aa(lp5739
S'ENSG00000189143'
p5740
aFinf
ag83
(g85
S'\xf4!A\x10\x04Ap?'
tRp5741
ag83
(g85
S'\xa0\x1d\xa1-\xae\x07\xa0?'
tRp5742
aa(lp5743
S'ENSG00000188112'
p5744
aFinf
ag83
(g85
S'\xf4!A\x10\x04Ap?'
tRp5745
ag83
(g85
S'\xa0\x1d\xa1-\xae\x07\xa0?'
tRp5746
aa(lp5747
S'ENSG00000184363'
p5748
ag83
(g85
S'\x00\x00\x00\x00\x00\x80w@'
tRp5749
ag83
(g85
S'E\xbf\r-\x81;\x80?'
tRp5750
ag83
(g85
S'\x90\x90\xb0\xe1\n\xdf\xa7?'
tRp5751
aasg4
g5
((lp5752
S'ENSG00000163328'
p5753
aS'ENSG00000135390'
p5754
aS'ENSG00000243678'
p5755
aS'ENSG00000132698'
p5756
aS'ENSG00000138430'
p5757
aS'ENSG00000166669'
p5758
aS'ENSG00000114790'
p5759
aS'ENSG00000175390'
p5760
aS'ENSG00000100353'
p5761
aS'ENSG00000148606'
p5762
aS'ENSG00000116898'
p5763
aS'ENSG00000100483'
p5764
aS'ENSG00000092036'
p5765
aS'ENSG00000162910'
p5766
aS'ENSG00000137054'
p5767
aS'ENSG00000148498'
p5768
aS'ENSG00000036448'
p5769
aS'ENSG00000124374'
p5770
aS'ENSG00000113269'
p5771
aS'ENSG00000117543'
p5772
aS'ENSG00000111144'
p5773
aS'ENSG00000166169'
p5774
aS'ENSG00000163814'
p5775
aS'ENSG00000177025'
p5776
aS'ENSG00000102910'
p5777
aS'ENSG00000145949'
p5778
atRp5779
ssS'powderblue'
p5780
(dp5781
g4
g5
((lp5782
S'ENSG00000179580'
p5783
aS'ENSG00000253626'
p5784
aS'ENSG00000183281'
p5785
aS'ENSG00000173327'
p5786
aS'ENSG00000172183'
p5787
aS'ENSG00000203666'
p5788
aS'ENSG00000143333'
p5789
aS'ENSG00000197136'
p5790
aS'ENSG00000105261'
p5791
aS'ENSG00000105063'
p5792
aS'ENSG00000175356'
p5793
aS'ENSG00000131944'
p5794
aS'ENSG00000213214'
p5795
aS'ENSG00000180902'
p5796
aS'ENSG00000170634'
p5797
atRp5798
ssS'red4'
p5799
(dp5800
g79
(lp5801
(lp5802
S'ENSG00000102109'
p5803
aFinf
ag83
(g85
S'\x88\x82\x01k\x05\xace?'
tRp5804
ag83
(g85
S'\x80*\x16\xb9\xae\xa4u?'
tRp5805
aa(lp5806
g1207
ag83
(g85
S'\x9a\x99\x99\x99\x99\x99R@'
tRp5807
ag83
(g85
S'\xfcPvP\x02\x9a\x9d?'
tRp5808
ag83
(g85
S'\x00QvP\x02\x9a\x9d?'
tRp5809
aasg4
g5
((lp5810
S'ENSG00000184923'
p5811
aS'ENSG00000133265'
p5812
aS'ENSG00000111801'
p5813
aS'ENSG00000178209'
p5814
aS'ENSG00000154479'
p5815
aS'ENSG00000197980'
p5816
aS'ENSG00000100053'
p5817
aS'ENSG00000186470'
p5818
aS'ENSG00000122735'
p5819
aS'ENSG00000178685'
p5820
aS'ENSG00000141696'
p5821
atRp5822
ssS'mistyrose4'
p5823
(dp5824
g4
g5
((lp5825
S'ENSG00000132305'
p5826
aS'ENSG00000048140'
p5827
aS'ENSG00000112218'
p5828
aS'ENSG00000010932'
p5829
aS'ENSG00000176788'
p5830
aS'ENSG00000143437'
p5831
aS'ENSG00000129103'
p5832
aS'ENSG00000155367'
p5833
aS'ENSG00000164823'
p5834
aS'ENSG00000197915'
p5835
aS'ENSG00000182372'
p5836
aS'ENSG00000076258'
p5837
aS'ENSG00000186973'
p5838
aS'ENSG00000147869'
p5839
atRp5840
ssS'lightcyan'
p5841
(dp5842
g79
(lp5843
(lp5844
S'ENSG00000091986'
p5845
aFinf
ag83
(g85
S'\x1cw\xbaU\x91B)?'
tRp5846
ag83
(g85
S'\x80v\x98w\xaf\x89{?'
tRp5847
aa(lp5848
g5467
ag83
(g85
S'9\x8e\xe38\x8e\xa3T@'
tRp5849
ag83
(g85
S'\xce\xa4\xe9\xd0\x0b\xa5R?'
tRp5850
ag83
(g85
S'\xb0\xa1\xa6\xa4Hq\xa3?'
tRp5851
aasg4
g5
((lp5852
S'ENSG00000171772'
p5853
aS'ENSG00000182362'
p5854
aS'ENSG00000168661'
p5855
aS'ENSG00000268358'
p5856
aS'ENSG00000100505'
p5857
aS'ENSG00000204514'
p5858
aS'ENSG00000106853'
p5859
aS'ENSG00000186340'
p5860
aS'ENSG00000140577'
p5861
aS'ENSG00000188517'
p5862
aS'ENSG00000181619'
p5863
aS'ENSG00000163661'
p5864
aS'ENSG00000186300'
p5865
aS'ENSG00000119139'
p5866
aS'ENSG00000129083'
p5867
aS'ENSG00000162692'
p5868
aS'ENSG00000139278'
p5869
aS'ENSG00000166145'
p5870
aS'ENSG00000168925'
p5871
aS'ENSG00000100557'
p5872
aS'ENSG00000166923'
p5873
aS'ENSG00000133048'
p5874
aS'ENSG00000113441'
p5875
aS'ENSG00000104059'
p5876
aS'ENSG00000156466'
p5877
aS'ENSG00000135144'
p5878
aS'ENSG00000213221'
p5879
aS'ENSG00000141314'
p5880
atRp5881
ssS'sienna1'
p5882
(dp5883
g79
(lp5884
(lp5885
S'ENSG00000167619'
p5886
aFinf
ag83
(g85
S'\x88\x82\x01k\x05\xace?'
tRp5887
ag83
(g85
S' \xefY\xedI?\xa5?'
tRp5888
aa(lp5889
S'ENSG00000100433'
p5890
aFinf
ag83
(g85
S'\x88\x82\x01k\x05\xace?'
tRp5891
ag83
(g85
S' \xefY\xedI?\xa5?'
tRp5892
aa(lp5893
S'ENSG00000167964'
p5894
aFinf
ag83
(g85
S'\x88\x82\x01k\x05\xace?'
tRp5895
ag83
(g85
S' \xefY\xedI?\xa5?'
tRp5896
aasg4
g5
((lp5897
S'ENSG00000140157'
p5898
aS'ENSG00000100304'
p5899
aS'ENSG00000196961'
p5900
aS'ENSG00000100949'
p5901
aS'ENSG00000099864'
p5902
aS'ENSG00000033050'
p5903
aS'ENSG00000148690'
p5904
aS'ENSG00000153814'
p5905
aS'ENSG00000124104'
p5906
aS'ENSG00000133107'
p5907
aS'ENSG00000196693'
p5908
aS'ENSG00000089195'
p5909
aS'ENSG00000213023'
p5910
aS'ENSG00000185404'
p5911
aS'ENSG00000197181'
p5912
atRp5913
ssS'midnightblue'
p5914
(dp5915
g4
g5
((lp5916
S'ENSG00000105185'
p5917
aS'ENSG00000153786'
p5918
aS'ENSG00000169635'
p5919
aS'ENSG00000120457'
p5920
aS'ENSG00000146521'
p5921
aS'ENSG00000075643'
p5922
aS'ENSG00000143954'
p5923
aS'ENSG00000166268'
p5924
aS'ENSG00000103932'
p5925
aS'ENSG00000244731'
p5926
aS'ENSG00000186523'
p5927
aS'ENSG00000100034'
p5928
aS'ENSG00000198756'
p5929
aS'ENSG00000164946'
p5930
aS'ENSG00000105538'
p5931
aS'ENSG00000176871'
p5932
aS'ENSG00000139722'
p5933
aS'ENSG00000188611'
p5934
aS'ENSG00000136783'
p5935
aS'ENSG00000261701'
p5936
aS'ENSG00000188086'
p5937
aS'ENSG00000121879'
p5938
aS'ENSG00000154930'
p5939
aS'ENSG00000172023'
p5940
aS'ENSG00000182264'
p5941
aS'ENSG00000174951'
p5942
aS'ENSG00000170802'
p5943
aS'ENSG00000101282'
p5944
aS'ENSG00000196323'
p5945
atRp5946
ssS'paleturquoise'
p5947
(dp5948
g79
(lp5949
(lp5950
S'ENSG00000000938'
p5951
aFinf
ag83
(g85
S'\x88\x82\x01k\x05\xace?'
tRp5952
ag83
(g85
S'\x90\xeaz\xb2\x00\x05\xa0?'
tRp5953
aa(lp5954
S'ENSG00000111913'
p5955
aFinf
ag83
(g85
S'\x88\x82\x01k\x05\xace?'
tRp5956
ag83
(g85
S'\x90\xeaz\xb2\x00\x05\xa0?'
tRp5957
aasg4
g5
((lp5958
S'ENSG00000112773'
p5959
aS'ENSG00000103260'
p5960
aS'ENSG00000083844'
p5961
aS'ENSG00000245317'
p5962
aS'ENSG00000213015'
p5963
aS'ENSG00000261221'
p5964
aS'ENSG00000144224'
p5965
aS'ENSG00000104388'
p5966
aS'ENSG00000115365'
p5967
aS'ENSG00000214309'
p5968
aS'ENSG00000168056'
p5969
aS'ENSG00000125458'
p5970
aS'ENSG00000178951'
p5971
aS'ENSG00000100330'
p5972
aS'ENSG00000167136'
p5973
aS'ENSG00000167526'
p5974
aS'ENSG00000111328'
p5975
aS'ENSG00000179862'
p5976
aS'ENSG00000166167'
p5977
aS'ENSG00000171044'
p5978
aS'ENSG00000162981'
p5979
aS'ENSG00000178922'
p5980
aS'ENSG00000142544'
p5981
aS'ENSG00000127415'
p5982
aS'ENSG00000119457'
p5983
atRp5984
ssS'purple2'
p5985
(dp5986
g79
(lp5987
(lp5988
S'ENSG00000204287'
p5989
aFinf
ag83
(g85
S'x\x0b%\xcd\x8c\x0b\xe6>'
tRp5990
ag83
(g85
S'\x00\xc0V\x05v\x0b\x06?'
tRp5991
aa(lp5992
S'ENSG00000081237'
p5993
ag83
(g85
S'\x00\x00\x00\x00\x00\x88\x87@'
tRp5994
ag83
(g85
S'E\xe6\x89\xd3X\xa8u?'
tRp5995
ag83
(g85
S'\x80\x14\xf1\xeaO(\x90?'
tRp5996
aa(lp5997
g2364
ag83
(g85
S'\xdb\xb6m\xdb\xb6\xadZ@'
tRp5998
ag83
(g85
S'~\xac\xbcFM\x92\x95?'
tRp5999
ag83
(g85
S'\xa0\xcd\x81\xbd"X\xa5?'
tRp6000
aasg4
g5
((lp6001
S'ENSG00000204257'
p6002
aS'ENSG00000149243'
p6003
aS'ENSG00000148296'
p6004
aS'ENSG00000242574'
p6005
aS'ENSG00000223865'
p6006
aS'ENSG00000130177'
p6007
aS'ENSG00000085788'
p6008
aS'ENSG00000204252'
p6009
aS'ENSG00000127364'
p6010
aS'ENSG00000160539'
p6011
aS'ENSG00000100116'
p6012
aS'ENSG00000231389'
p6013
aS'ENSG00000254004'
p6014
aS'ENSG00000162929'
p6015
atRp6016
ssS'orangered3'
p6017
(dp6018
g79
(lp6019
(lp6020
S'ENSG00000115263'
p6021
ag83
(g85
S'\xcd\xcc\xcc\xcc\xcc\xacb@'
tRp6022
ag83
(g85
S'}bN7\xcc\xad<?'
tRp6023
ag83
(g85
S'\x00lW\x8eo\x12\x80?'
tRp6024
aa(lp6025
S'ENSG00000171450'
p6026
ag83
(g85
S'\x00\x00\x00\x00\x00\xa0R@'
tRp6027
ag83
(g85
S'M<\xa1\xff\x18\xc4Q?'
tRp6028
ag83
(g85
S'@\xbb\x11\x12\xa9\xb6\x92?'
tRp6029
aa(lp6030
S'ENSG00000148798'
p6031
ag83
(g85
S'\xc3\xf5(\\\x8f\xc2M@'
tRp6032
ag83
(g85
S'RE\\j#\xc3X?'
tRp6033
ag83
(g85
S'@\xbb\x11\x12\xa9\xb6\x92?'
tRp6034
aa(lp6035
S'ENSG00000054356'
p6036
ag83
(g85
S'\x00\x00\x00\x00\x00\xa0R@'
tRp6037
ag83
(g85
S'M<\xa1\xff\x18\xc4Q?'
tRp6038
ag83
(g85
S'@\xbb\x11\x12\xa9\xb6\x92?'
tRp6039
aa(lp6040
S'ENSG00000118271'
p6041
ag83
(g85
S'\x00\x00\x00\x00\x00\xa0R@'
tRp6042
ag83
(g85
S'M<\xa1\xff\x18\xc4Q?'
tRp6043
ag83
(g85
S'@\xbb\x11\x12\xa9\xb6\x92?'
tRp6044
aa(lp6045
S'ENSG00000162998'
p6046
ag83
(g85
S'\x00\x00\x00\x00\x00\xa0R@'
tRp6047
ag83
(g85
S'M<\xa1\xff\x18\xc4Q?'
tRp6048
ag83
(g85
S'@\xbb\x11\x12\xa9\xb6\x92?'
tRp6049
aa(lp6050
S'ENSG00000147488'
p6051
ag83
(g85
S'\x00\x00\x00\x00\x00\xa0R@'
tRp6052
ag83
(g85
S'M<\xa1\xff\x18\xc4Q?'
tRp6053
ag83
(g85
S'@\xbb\x11\x12\xa9\xb6\x92?'
tRp6054
aa(lp6055
S'ENSG00000250366'
p6056
ag83
(g85
S'333333E@'
tRp6057
ag83
(g85
S'\x11\xb3+ \x7f\te?'
tRp6058
ag83
(g85
S'`\xec\x9c\x97\xb4\x8e\x9c?'
tRp6059
aasg4
g5
((lp6060
S'ENSG00000266714'
p6061
aS'ENSG00000128564'
p6062
aS'ENSG00000205078'
p6063
aS'ENSG00000185864'
p6064
aS'ENSG00000171282'
p6065
aS'ENSG00000173517'
p6066
aS'ENSG00000163499'
p6067
aS'ENSG00000136698'
p6068
aS'ENSG00000133805'
p6069
aS'ENSG00000197903'
p6070
aS'ENSG00000168843'
p6071
aS'ENSG00000164535'
p6072
aS'ENSG00000116183'
p6073
aS'ENSG00000165055'
p6074
aS'ENSG00000085721'
p6075
aS'ENSG00000170561'
p6076
aS'ENSG00000116489'
p6077
aS'ENSG00000141458'
p6078
aS'ENSG00000137124'
p6079
aS'ENSG00000167011'
p6080
atRp6081
ssS'deeppink2'
p6082
(dp6083
g4
g5
((lp6084
S'ENSG00000088756'
p6085
aS'ENSG00000065268'
p6086
aS'ENSG00000101680'
p6087
aS'ENSG00000242252'
p6088
aS'ENSG00000107242'
p6089
aS'ENSG00000165832'
p6090
aS'ENSG00000172113'
p6091
aS'ENSG00000113971'
p6092
aS'ENSG00000119973'
p6093
aS'ENSG00000115598'
p6094
aS'ENSG00000130489'
p6095
aS'ENSG00000104827'
p6096
aS'ENSG00000115594'
p6097
aS'ENSG00000163697'
p6098
atRp6099
ssS'deeppink1'
p6100
(dp6101
g4
g5
((lp6102
S'ENSG00000188152'
p6103
aS'ENSG00000155508'
p6104
aS'ENSG00000255098'
p6105
aS'ENSG00000162782'
p6106
aS'ENSG00000170482'
p6107
aS'ENSG00000155957'
p6108
aS'ENSG00000101670'
p6109
aS'ENSG00000205882'
p6110
aS'ENSG00000137563'
p6111
aS'ENSG00000138744'
p6112
aS'ENSG00000131238'
p6113
aS'ENSG00000135976'
p6114
aS'ENSG00000170464'
p6115
aS'ENSG00000125912'
p6116
aS'ENSG00000156219'
p6117
atRp6118
ssS'orangered4'
p6119
(dp6120
g4
g5
((lp6121
S'ENSG00000138303'
p6122
aS'ENSG00000133983'
p6123
aS'ENSG00000196628'
p6124
aS'ENSG00000169903'
p6125
aS'ENSG00000053372'
p6126
aS'ENSG00000084072'
p6127
aS'ENSG00000239264'
p6128
aS'ENSG00000127463'
p6129
aS'ENSG00000183255'
p6130
aS'ENSG00000152484'
p6131
aS'ENSG00000112679'
p6132
aS'ENSG00000257008'
p6133
aS'ENSG00000112308'
p6134
aS'ENSG00000110852'
p6135
aS'ENSG00000164825'
p6136
aS'ENSG00000086504'
p6137
aS'ENSG00000169744'
p6138
aS'ENSG00000133316'
p6139
aS'ENSG00000243317'
p6140
aS'ENSG00000196151'
p6141
aS'ENSG00000137673'
p6142
aS'ENSG00000107789'
p6143
aS'ENSG00000149809'
p6144
atRp6145
ssS'thistle3'
p6146
(dp6147
g79
(lp6148
(lp6149
S'ENSG00000109339'
p6150
aFinf
ag83
(g85
S'\x94\x82\x01k\x05\xacu?'
tRp6151
ag83
(g85
S'\xc0c\xa2z#\xaa\xa2?'
tRp6152
aasg4
g5
((lp6153
S'ENSG00000158220'
p6154
aS'ENSG00000116157'
p6155
aS'ENSG00000214944'
p6156
aS'ENSG00000127483'
p6157
aS'ENSG00000182004'
p6158
aS'ENSG00000092096'
p6159
aS'ENSG00000133661'
p6160
aS'ENSG00000134463'
p6161
aS'ENSG00000139343'
p6162
aS'ENSG00000221923'
p6163
aS'ENSG00000154380'
p6164
aS'ENSG00000168268'
p6165
aS'ENSG00000170425'
p6166
aS'ENSG00000130338'
p6167
aS'ENSG00000139880'
p6168
aS'ENSG00000165502'
p6169
aS'ENSG00000167555'
p6170
aS'ENSG00000143742'
p6171
aS'ENSG00000167535'
p6172
atRp6173
ssS'thistle2'
p6174
(dp6175
g79
(lp6176
(lp6177
S'ENSG00000196954'
p6178
ag83
(g85
S'm\xb2\xc9&\x9blF@'
tRp6179
ag83
(g85
S'\xa4\xc1\x9a\xed&\xbee?'
tRp6180
ag83
(g85
S'\xc0G dl\x02\xa4?'
tRp6181
aasg4
g5
((lp6182
S'ENSG00000134851'
p6183
aS'ENSG00000138293'
p6184
aS'ENSG00000229859'
p6185
aS'ENSG00000187166'
p6186
aS'ENSG00000170275'
p6187
aS'ENSG00000179163'
p6188
aS'ENSG00000151292'
p6189
aS'ENSG00000141428'
p6190
aS'ENSG00000182534'
p6191
aS'ENSG00000186184'
p6192
aS'ENSG00000255394'
p6193
aS'ENSG00000149054'
p6194
aS'ENSG00000069943'
p6195
aS'ENSG00000128394'
p6196
aS'ENSG00000204839'
p6197
aS'ENSG00000111142'
p6198
aS'ENSG00000204632'
p6199
aS'ENSG00000168765'
p6200
aS'ENSG00000198948'
p6201
aS'ENSG00000143612'
p6202
aS'ENSG00000164978'
p6203
aS'ENSG00000021355'
p6204
atRp6205
ssS'thistle1'
p6206
(dp6207
g79
(lp6208
(lp6209
g4284
ag83
(g85
S'\xab\xaa\xaa\xaa\xaa*O@'
tRp6210
ag83
(g85
S'f]\xf4K\x0f\xe0\x9a?'
tRp6211
ag83
(g85
S'`]\xf4K\x0f\xe0\x9a?'
tRp6212
aasg4
g5
((lp6213
S'ENSG00000161395'
p6214
aS'ENSG00000162066'
p6215
aS'ENSG00000142599'
p6216
aS'ENSG00000122696'
p6217
aS'ENSG00000179104'
p6218
aS'ENSG00000142208'
p6219
aS'ENSG00000070367'
p6220
aS'ENSG00000198453'
p6221
aS'ENSG00000197070'
p6222
aS'ENSG00000186628'
p6223
aS'ENSG00000100290'
p6224
aS'ENSG00000205362'
p6225
aS'ENSG00000125637'
p6226
aS'ENSG00000157014'
p6227
aS'ENSG00000136810'
p6228
aS'ENSG00000142973'
p6229
aS'ENSG00000204653'
p6230
aS'ENSG00000092841'
p6231
aS'ENSG00000183346'
p6232
aS'ENSG00000120675'
p6233
aS'ENSG00000132470'
p6234
aS'ENSG00000163795'
p6235
atRp6236
ssS'sienna2'
p6237
(dp6238
g79
(lp6239
(lp6240
S'ENSG00000164199'
p6241
aFinf
ag83
(g85
S'\xf4!A\x10\x04Ap?'
tRp6242
ag83
(g85
S'@^\x18\x88\xc28\x80?'
tRp6243
aa(lp6244
g4304
ag83
(g85
S'33333\xb3R@'
tRp6245
ag83
(g85
S'8\xf1\xa8&C8\x98?'
tRp6246
ag83
(g85
S'@\xf1\xa8&C8\x98?'
tRp6247
aasg4
g5
((lp6248
S'ENSG00000075131'
p6249
aS'ENSG00000206077'
p6250
aS'ENSG00000121542'
p6251
aS'ENSG00000139746'
p6252
aS'ENSG00000082684'
p6253
aS'ENSG00000133985'
p6254
aS'ENSG00000021645'
p6255
aS'ENSG00000188818'
p6256
aS'ENSG00000196455'
p6257
aS'ENSG00000244687'
p6258
aS'ENSG00000115109'
p6259
aS'ENSG00000164300'
p6260
aS'ENSG00000164944'
p6261
aS'ENSG00000143951'
p6262
aS'ENSG00000104450'
p6263
aS'ENSG00000141485'
p6264
atRp6265
ssS'salmon'
p6266
(dp6267
g4
g5
((lp6268
S'ENSG00000175575'
p6269
aS'ENSG00000065534'
p6270
aS'ENSG00000007933'
p6271
aS'ENSG00000204947'
p6272
aS'ENSG00000011304'
p6273
aS'ENSG00000073008'
p6274
aS'ENSG00000136040'
p6275
aS'ENSG00000120008'
p6276
aS'ENSG00000126522'
p6277
aS'ENSG00000120992'
p6278
aS'ENSG00000126878'
p6279
aS'ENSG00000038002'
p6280
aS'ENSG00000163431'
p6281
aS'ENSG00000155254'
p6282
aS'ENSG00000107796'
p6283
aS'ENSG00000162669'
p6284
aS'ENSG00000050165'
p6285
aS'ENSG00000109832'
p6286
aS'ENSG00000243709'
p6287
aS'ENSG00000197905'
p6288
aS'ENSG00000109458'
p6289
aS'ENSG00000152223'
p6290
aS'ENSG00000109452'
p6291
aS'ENSG00000177483'
p6292
aS'ENSG00000122786'
p6293
aS'ENSG00000214215'
p6294
aS'ENSG00000004776'
p6295
aS'ENSG00000140545'
p6296
aS'ENSG00000197362'
p6297
aS'ENSG00000163870'
p6298
atRp6299
ssS'thistle4'
p6300
(dp6301
g4
g5
((lp6302
S'ENSG00000105855'
p6303
aS'ENSG00000174374'
p6304
aS'ENSG00000168952'
p6305
aS'ENSG00000071242'
p6306
aS'ENSG00000107951'
p6307
aS'ENSG00000075239'
p6308
aS'ENSG00000100714'
p6309
aS'ENSG00000037757'
p6310
aS'ENSG00000151743'
p6311
aS'ENSG00000167595'
p6312
aS'ENSG00000102858'
p6313
aS'ENSG00000124588'
p6314
aS'ENSG00000135972'
p6315
aS'ENSG00000154719'
p6316
aS'ENSG00000164597'
p6317
aS'ENSG00000183742'
p6318
aS'ENSG00000114204'
p6319
atRp6320
ssS'palevioletred'
p6321
(dp6322
g79
(lp6323
(lp6324
S'ENSG00000060709'
p6325
aFinf
ag83
(g85
S'\xf4!A\x10\x04Ap?'
tRp6326
ag83
(g85
S' \xcb\xec7\xa9\x1b\x9c?'
tRp6327
aa(lp6328
S'ENSG00000268592'
p6329
ag83
(g85
S'\x00\x00\x00\x00\x00\x80w@'
tRp6330
ag83
(g85
S'E\xbf\r-\x81;\x80?'
tRp6331
ag83
(g85
S'\x90\x90\xb0\xe1\n\xdf\xa7?'
tRp6332
aasg4
g5
((lp6333
S'ENSG00000213516'
p6334
aS'ENSG00000120327'
p6335
aS'ENSG00000214253'
p6336
aS'ENSG00000198736'
p6337
aS'ENSG00000198168'
p6338
aS'ENSG00000163395'
p6339
aS'ENSG00000119950'
p6340
aS'ENSG00000054219'
p6341
aS'ENSG00000137944'
p6342
aS'ENSG00000112357'
p6343
aS'ENSG00000125611'
p6344
aS'ENSG00000232237'
p6345
aS'ENSG00000203727'
p6346
aS'ENSG00000100744'
p6347
aS'ENSG00000117226'
p6348
atRp6349
ssS'oldlace'
p6350
(dp6351
g4
g5
((lp6352
S'ENSG00000184908'
p6353
aS'ENSG00000124164'
p6354
aS'ENSG00000198150'
p6355
aS'ENSG00000131626'
p6356
aS'ENSG00000132016'
p6357
aS'ENSG00000197774'
p6358
aS'ENSG00000165325'
p6359
aS'ENSG00000127990'
p6360
aS'ENSG00000158805'
p6361
aS'ENSG00000181135'
p6362
aS'ENSG00000196814'
p6363
aS'ENSG00000170502'
p6364
atRp6365
ssS'honeydew1'
p6366
(dp6367
g4
g5
((lp6368
S'ENSG00000213402'
p6369
aS'ENSG00000104921'
p6370
aS'ENSG00000134242'
p6371
aS'ENSG00000186166'
p6372
aS'ENSG00000132383'
p6373
aS'ENSG00000147576'
p6374
aS'ENSG00000141543'
p6375
aS'ENSG00000171298'
p6376
aS'ENSG00000197008'
p6377
aS'ENSG00000130669'
p6378
aS'ENSG00000065559'
p6379
aS'ENSG00000100852'
p6380
aS'ENSG00000215397'
p6381
aS'ENSG00000169248'
p6382
aS'ENSG00000072415'
p6383
aS'ENSG00000100461'
p6384
aS'ENSG00000092020'
p6385
aS'ENSG00000085117'
p6386
aS'ENSG00000141934'
p6387
aS'ENSG00000177076'
p6388
aS'ENSG00000109667'
p6389
atRp6390
ssS'hotpink3'
p6391
(dp6392
g4
g5
((lp6393
S'ENSG00000154240'
p6394
aS'ENSG00000123191'
p6395
aS'ENSG00000136270'
p6396
aS'ENSG00000171045'
p6397
aS'ENSG00000164796'
p6398
aS'ENSG00000183111'
p6399
aS'ENSG00000169016'
p6400
aS'ENSG00000156711'
p6401
aS'ENSG00000188171'
p6402
aS'ENSG00000189403'
p6403
atRp6404
ssS'mediumpurple1'
p6405
(dp6406
g79
(lp6407
(lp6408
S'ENSG00000113924'
p6409
aFinf
ag83
(g85
S'}\x82\x01k\x05\xacU?'
tRp6410
ag83
(g85
S'\xa0t\xa4\t*x\x91?'
tRp6411
aa(lp6412
S'ENSG00000145569'
p6413
aFinf
ag83
(g85
S'}\x82\x01k\x05\xacU?'
tRp6414
ag83
(g85
S'\xa0t\xa4\t*x\x91?'
tRp6415
aa(lp6416
S'ENSG00000226051'
p6417
aFinf
ag83
(g85
S'}\x82\x01k\x05\xacU?'
tRp6418
ag83
(g85
S'\xa0t\xa4\t*x\x91?'
tRp6419
aa(lp6420
S'ENSG00000131781'
p6421
aFinf
ag83
(g85
S'}\x82\x01k\x05\xacU?'
tRp6422
ag83
(g85
S'\xa0t\xa4\t*x\x91?'
tRp6423
aa(lp6424
S'ENSG00000096696'
p6425
aFinf
ag83
(g85
S'\x99\x86\x01k\x05\xace?'
tRp6426
ag83
(g85
S'\x80\xb1\x93\xcc\xe1\x1f\x98?'
tRp6427
aa(lp6428
g212
aFinf
ag83
(g85
S'\x99\x86\x01k\x05\xace?'
tRp6429
ag83
(g85
S'\x80\xb1\x93\xcc\xe1\x1f\x98?'
tRp6430
aa(lp6431
g217
aFinf
ag83
(g85
S'\x99\x86\x01k\x05\xace?'
tRp6432
ag83
(g85
S'\x80\xb1\x93\xcc\xe1\x1f\x98?'
tRp6433
aa(lp6434
g207
aFinf
ag83
(g85
S'\xc7\x1eA\x10\x04Ap?'
tRp6435
ag83
(g85
S'`\xfc/:\xee#\x98?'
tRp6436
aa(lp6437
S'ENSG00000175470'
p6438
aFinf
ag83
(g85
S'\xca\x8a\x01k\x05\xacu?'
tRp6439
ag83
(g85
S'\x80\x980\xf6\x06\xce\x9a?'
tRp6440
aa(lp6441
S'ENSG00000176171'
p6442
aFinf
ag83
(g85
S'\xde\xcc\xc1\xc5\x06\x17{?'
tRp6443
ag83
(g85
S'\xc0DC\x89\x87\xd2\x9a?'
tRp6444
aa(lp6445
S'ENSG00000159166'
p6446
aFinf
ag83
(g85
S'\xe6\x8e\x01k\x05\xac\x85?'
tRp6447
ag83
(g85
S'0\xfe|\xa7#\x15\xa0?'
tRp6448
aa(lp6449
S'ENSG00000184012'
p6450
aFinf
ag83
(g85
S'\xe6\x8e\x01k\x05\xac\x85?'
tRp6451
ag83
(g85
S'0\xfe|\xa7#\x15\xa0?'
tRp6452
aa(lp6453
S'ENSG00000133477'
p6454
aFinf
ag83
(g85
S'\xa0\xa9a\x18\x86a\x88?'
tRp6455
ag83
(g85
S'0\xfe|\xa7#\x15\xa0?'
tRp6456
aasg4
g5
((lp6457
S'ENSG00000011376'
p6458
aS'ENSG00000156414'
p6459
aS'ENSG00000163607'
p6460
aS'ENSG00000136819'
p6461
aS'ENSG00000108448'
p6462
aS'ENSG00000221926'
p6463
aS'ENSG00000136982'
p6464
aS'ENSG00000144115'
p6465
aS'ENSG00000090013'
p6466
aS'ENSG00000159267'
p6467
aS'ENSG00000006715'
p6468
aS'ENSG00000138035'
p6469
aS'ENSG00000084774'
p6470
aS'ENSG00000069966'
p6471
aS'ENSG00000152953'
p6472
aS'ENSG00000234444'
p6473
aS'ENSG00000159348'
p6474
aS'ENSG00000169122'
p6475
atRp6476
ssS'mediumpurple2'
p6477
(dp6478
g79
(lp6479
(lp6480
S'ENSG00000125850'
p6481
aFinf
ag83
(g85
S'\xc7\x1eA\x10\x04Ap?'
tRp6482
ag83
(g85
S'\x00\x1fA\x10\x04Ap?'
tRp6483
aasg4
g5
((lp6484
S'ENSG00000180104'
p6485
aS'ENSG00000142444'
p6486
aS'ENSG00000106537'
p6487
aS'ENSG00000168566'
p6488
aS'ENSG00000121486'
p6489
aS'ENSG00000188895'
p6490
aS'ENSG00000182087'
p6491
aS'ENSG00000167543'
p6492
aS'ENSG00000159086'
p6493
aS'ENSG00000093167'
p6494
aS'ENSG00000172366'
p6495
aS'ENSG00000130758'
p6496
aS'ENSG00000071894'
p6497
aS'ENSG00000181444'
p6498
aS'ENSG00000184363'
p6499
aS'ENSG00000164896'
p6500
aS'ENSG00000108239'
p6501
aS'ENSG00000104953'
p6502
aS'ENSG00000161904'
p6503
aS'ENSG00000185522'
p6504
atRp6505
ssS'lightgreen'
p6506
(dp6507
g4
g5
((lp6508
S'ENSG00000080293'
p6509
aS'ENSG00000173406'
p6510
aS'ENSG00000075213'
p6511
aS'ENSG00000141076'
p6512
aS'ENSG00000170581'
p6513
aS'ENSG00000115738'
p6514
aS'ENSG00000166260'
p6515
aS'ENSG00000166394'
p6516
aS'ENSG00000105287'
p6517
aS'ENSG00000215305'
p6518
aS'ENSG00000149182'
p6519
aS'ENSG00000169885'
p6520
aS'ENSG00000076924'
p6521
aS'ENSG00000120915'
p6522
aS'ENSG00000213759'
p6523
aS'ENSG00000133393'
p6524
aS'ENSG00000135114'
p6525
aS'ENSG00000197375'
p6526
aS'ENSG00000062370'
p6527
aS'ENSG00000165806'
p6528
aS'ENSG00000102606'
p6529
aS'ENSG00000164663'
p6530
aS'ENSG00000100417'
p6531
aS'ENSG00000178821'
p6532
aS'ENSG00000114166'
p6533
aS'ENSG00000172006'
p6534
aS'ENSG00000162729'
p6535
aS'ENSG00000140471'
p6536
atRp6537
ssS'mediumpurple4'
p6538
(dp6539
g79
(lp6540
(lp6541
S'ENSG00000060138'
p6542
ag83
(g85
S'\x00\x00\x00\x00\x00X\x87@'
tRp6543
ag83
(g85
S'\xd9\x88\x03\xe2\xaa\xb6[>'
tRp6544
ag83
(g85
S'\x00\x00\xc0\x90?\xfb\xa9>'
tRp6545
aa(lp6546
S'ENSG00000155093'
p6547
ag83
(g85
S'\x00\x00\x00\x00\x00Pw@'
tRp6548
ag83
(g85
S'\xe2\x8c^FV\xb2t>'
tRp6549
ag83
(g85
S'\x00\x008\xdc\x9c\xc1\xc2>'
tRp6550
aa(lp6551
S'ENSG00000144655'
p6552
aFinf
ag83
(g85
S'~\xb7\x9a\xc5d2\xaa>'
tRp6553
ag83
(g85
S'\x00\x80\xa3W\x08\xec\xf6>'
tRp6554
aa(lp6555
S'ENSG00000091129'
p6556
ag83
(g85
S'\xab\xaa\xaa\xaa\xaa\xea^@'
tRp6557
ag83
(g85
S'\xc8\xbb\xe4\xaba\xcd\xb1>'
tRp6558
ag83
(g85
S'\x00\x80\xb3\xa9y\n\xfe>'
tRp6559
aa(lp6560
S'ENSG00000185201'
p6561
ag83
(g85
S'n\xdb\xb6m\xdbvZ@'
tRp6562
ag83
(g85
S']J\xf53\xf4\xda\xbb>'
tRp6563
ag83
(g85
S'\x00\xc0\xeb\xa1\xc7\xa1\x06?'
tRp6564
aa(lp6565
S'ENSG00000136732'
p6566
ag83
(g85
S'n\xdb\xb6m\xdbvZ@'
tRp6567
ag83
(g85
S']J\xf53\xf4\xda\xbb>'
tRp6568
ag83
(g85
S'\x00\xc0\xeb\xa1\xc7\xa1\x06?'
tRp6569
aa(lp6570
S'ENSG00000134470'
p6571
ag83
(g85
S'n\xdb\xb6m\xdbvZ@'
tRp6572
ag83
(g85
S']J\xf53\xf4\xda\xbb>'
tRp6573
ag83
(g85
S'\x00\xc0\xeb\xa1\xc7\xa1\x06?'
tRp6574
aa(lp6575
S'ENSG00000159388'
p6576
ag83
(g85
S'33333\x03|@'
tRp6577
ag83
(g85
S'\xfe>\xb8\xc9\xfe\x10\xca>'
tRp6578
ag83
(g85
S'\x00\xe0O)\r\xbc\x12?'
tRp6579
aa(lp6580
S'ENSG00000069399'
p6581
ag83
(g85
S'r\x1c\xc7q\x1c\x87T@'
tRp6582
ag83
(g85
S'\xb1C\x84u"\xeb\xcd>'
tRp6583
ag83
(g85
S'\x00\x80\xdb5u\x91\x14?'
tRp6584
aa(lp6585
S'ENSG00000171236'
p6586
ag83
(g85
S'\xecQ\xb8\x1e\x85\xeb<@'
tRp6587
ag83
(g85
S'\xce,*Un\xfa\x1c?'
tRp6588
ag83
(g85
S'\x00Bj\xac\xf7\xfeb?'
tRp6589
aa(lp6590
S'ENSG00000124602'
p6591
ag83
(g85
S'O\xec\xc4N\xec\xc4;@'
tRp6592
ag83
(g85
S'\x85G\x8f\x888\xa5 ?'
tRp6593
ag83
(g85
S'\x00\xe1U\xd2\x1a\xc8d?'
tRp6594
aasg4
g5
((lp6595
S'ENSG00000129467'
p6596
aS'ENSG00000095370'
p6597
aS'ENSG00000115207'
p6598
aS'ENSG00000087074'
p6599
aS'ENSG00000182912'
p6600
aS'ENSG00000159388'
p6601
aS'ENSG00000075673'
p6602
aS'ENSG00000176222'
p6603
aS'ENSG00000112245'
p6604
aS'ENSG00000136826'
p6605
aS'ENSG00000144230'
p6606
aS'ENSG00000099860'
p6607
aS'ENSG00000135953'
p6608
aS'ENSG00000187922'
p6609
aS'ENSG00000219626'
p6610
aS'ENSG00000239665'
p6611
aS'ENSG00000123358'
p6612
aS'ENSG00000187678'
p6613
atRp6614
ssS'pink4'
p6615
(dp6616
g79
(lp6617
(lp6618
g5748
ag83
(g85
S'\x00\x00\x00\x00\x00\x88\x87@'
tRp6619
ag83
(g85
S'E\xe6\x89\xd3X\xa8u?'
tRp6620
ag83
(g85
S'`\xb8\xf45\x87|\x95?'
tRp6621
aa(lp6622
g6481
ag83
(g85
S'\x00\x00\x00\x00\x00\x80w@'
tRp6623
ag83
(g85
S'\x1f\xb9\r-\x81;\x80?'
tRp6624
ag83
(g85
S"\x80N\xdd\x8e\xfb'\x98?"
tRp6625
aa(lp6626
S'ENSG00000160307'
p6627
ag83
(g85
S'\x00\x00\x00\x00\x00pg@'
tRp6628
ag83
(g85
S'\xf2 l\xd0\xa7\x04\x8b?'
tRp6629
ag83
(g85
S'\xc0\xeb\xb1\x18\x08\xd7\x9a?'
tRp6630
aa(lp6631
g5066
ag83
(g85
S'\xdb\xb6m\xdb\xb6\xadZ@'
tRp6632
ag83
(g85
S'~\xac\xbcFM\x92\x95?'
tRp6633
ag83
(g85
S'\xc0\xeb\xb1\x18\x08\xd7\x9a?'
tRp6634
aasg4
g5
((lp6635
S'ENSG00000166685'
p6636
aS'ENSG00000140406'
p6637
aS'ENSG00000171517'
p6638
aS'ENSG00000145390'
p6639
aS'ENSG00000139160'
p6640
aS'ENSG00000091640'
p6641
aS'ENSG00000107742'
p6642
aS'ENSG00000175040'
p6643
aS'ENSG00000198755'
p6644
aS'ENSG00000102760'
p6645
aS'ENSG00000196247'
p6646
aS'ENSG00000094975'
p6647
aS'ENSG00000174136'
p6648
aS'ENSG00000167468'
p6649
aS'ENSG00000163875'
p6650
aS'ENSG00000139289'
p6651
aS'ENSG00000151474'
p6652
aS'ENSG00000100106'
p6653
atRp6654
ssS'paleturquoise3'
p6655
(dp6656
g4
g5
((lp6657
S'ENSG00000084073'
p6658
aS'ENSG00000198131'
p6659
aS'ENSG00000174442'
p6660
aS'ENSG00000253729'
p6661
aS'ENSG00000135272'
p6662
aS'ENSG00000109854'
p6663
aS'ENSG00000196196'
p6664
aS'ENSG00000107854'
p6665
aS'ENSG00000119414'
p6666
aS'ENSG00000080854'
p6667
aS'ENSG00000101079'
p6668
aS'ENSG00000154079'
p6669
aS'ENSG00000172992'
p6670
atRp6671
ssS'hotpink4'
p6672
(dp6673
g79
(lp6674
(lp6675
g345
aFinf
ag83
(g85
S'\x17\xed\xc1\xc5\x06\x17\x8b?'
tRp6676
ag83
(g85
S'\x00\xed\xc1\xc5\x06\x17\x8b?'
tRp6677
aasg4
g5
((lp6678
S'ENSG00000196684'
p6679
aS'ENSG00000065320'
p6680
aS'ENSG00000174358'
p6681
aS'ENSG00000166135'
p6682
aS'ENSG00000096433'
p6683
aS'ENSG00000205060'
p6684
aS'ENSG00000218739'
p6685
aS'ENSG00000183134'
p6686
aS'ENSG00000100418'
p6687
aS'ENSG00000122176'
p6688
aS'ENSG00000093000'
p6689
aS'ENSG00000261115'
p6690
atRp6691
ssS'khaki4'
p6692
(dp6693
g79
(lp6694
(lp6695
S'ENSG00000169715'
p6696
aFinf
ag83
(g85
S'\x88\x82\x01k\x05\xace?'
tRp6697
ag83
(g85
S'\x80*\x16\xb9\xae\xa4u?'
tRp6698
aasg4
g5
((lp6699
S'ENSG00000139687'
p6700
aS'ENSG00000145506'
p6701
aS'ENSG00000205595'
p6702
aS'ENSG00000180479'
p6703
aS'ENSG00000183114'
p6704
aS'ENSG00000107672'
p6705
aS'ENSG00000120802'
p6706
aS'ENSG00000125148'
p6707
aS'ENSG00000105568'
p6708
aS'ENSG00000174194'
p6709
aS'ENSG00000164695'
p6710
aS'ENSG00000158467'
p6711
atRp6712
ssS'darkolivegreen4'
p6713
(dp6714
g79
(lp6715
(lp6716
S'ENSG00000104112'
p6717
aFinf
ag83
(g85
S'\xbez\xf0\x99^\xb3U?'
tRp6718
ag83
(g85
S'\xc0\xf8#"?\xa4\x8d?'
tRp6719
aasg4
g5
((lp6720
S'ENSG00000136108'
p6721
aS'ENSG00000065526'
p6722
aS'ENSG00000214102'
p6723
aS'ENSG00000217128'
p6724
aS'ENSG00000136699'
p6725
aS'ENSG00000141084'
p6726
aS'ENSG00000185917'
p6727
aS'ENSG00000153113'
p6728
aS'ENSG00000172301'
p6729
aS'ENSG00000073050'
p6730
aS'ENSG00000135698'
p6731
aS'ENSG00000125618'
p6732
aS'ENSG00000133878'
p6733
aS'ENSG00000126790'
p6734
aS'ENSG00000160207'
p6735
aS'ENSG00000166743'
p6736
aS'ENSG00000079335'
p6737
aS'ENSG00000165568'
p6738
aS'ENSG00000234465'
p6739
aS'ENSG00000183675'
p6740
atRp6741
ssS'darkseagreen4'
p6742
(dp6743
g4
g5
((lp6744
S'ENSG00000203942'
p6745
aS'ENSG00000100565'
p6746
aS'ENSG00000164366'
p6747
aS'ENSG00000151806'
p6748
aS'ENSG00000157800'
p6749
aS'ENSG00000124613'
p6750
aS'ENSG00000197775'
p6751
aS'ENSG00000115310'
p6752
aS'ENSG00000113593'
p6753
aS'ENSG00000102547'
p6754
aS'ENSG00000093010'
p6755
aS'ENSG00000102452'
p6756
aS'ENSG00000146707'
p6757
aS'ENSG00000099910'
p6758
aS'ENSG00000105221'
p6759
aS'ENSG00000101246'
p6760
aS'ENSG00000188234'
p6761
aS'ENSG00000162600'
p6762
aS'ENSG00000013523'
p6763
aS'ENSG00000188372'
p6764
aS'ENSG00000154511'
p6765
atRp6766
ssS'darkolivegreen1'
p6767
(dp6768
g79
(lp6769
(lp6770
S'ENSG00000134531'
p6771
aFinf
ag83
(g85
S'\xc7\x1eA\x10\x04Ap?'
tRp6772
ag83
(g85
S'\xc04\xad9P(\x90?'
tRp6773
aa(lp6774
g5234
aFinf
ag83
(g85
S'\xec!A\x10\x04A\x80?'
tRp6775
ag83
(g85
S'\xa0\x07\xbfs\x1e0\x98?'
tRp6776
aa(lp6777
g3673
aFinf
ag83
(g85
S'\xd9\xc0\x11oF\xbc\x99?'
tRp6778
ag83
(g85
S'\x00\xe5\xf2N8\x17\xa8?'
tRp6779
aa(lp6780
g3677
aFinf
ag83
(g85
S'\xa1\xc6a\x18\x86a\x98?'
tRp6781
ag83
(g85
S'\x00\xe5\xf2N8\x17\xa8?'
tRp6782
aasg4
g5
((lp6783
S'ENSG00000123453'
p6784
aS'ENSG00000176945'
p6785
aS'ENSG00000123454'
p6786
aS'ENSG00000187189'
p6787
aS'ENSG00000124444'
p6788
aS'ENSG00000095066'
p6789
aS'ENSG00000156017'
p6790
aS'ENSG00000213123'
p6791
aS'ENSG00000142530'
p6792
aS'ENSG00000170915'
p6793
aS'ENSG00000153714'
p6794
aS'ENSG00000115963'
p6795
aS'ENSG00000144031'
p6796
aS'ENSG00000171055'
p6797
aS'ENSG00000136816'
p6798
atRp6799
ssS'darkseagreen2'
p6800
(dp6801
g79
(lp6802
(lp6803
S'ENSG00000131477'
p6804
aFinf
ag83
(g85
S'\x94\x82\x01k\x05\xacu?'
tRp6805
ag83
(g85
S'\xe0\x8f\xc6\xf4$\x80\x95?'
tRp6806
aa(lp6807
S'ENSG00000164035'
p6808
aFinf
ag83
(g85
S'\x94\x82\x01k\x05\xacu?'
tRp6809
ag83
(g85
S'\xe0\x8f\xc6\xf4$\x80\x95?'
tRp6810
aa(lp6811
g4508
ag83
(g85
S'\x00\x00\x00\x00\x00@_@'
tRp6812
ag83
(g85
S'%\xad\xb5$\x7f0\x90?'
tRp6813
ag83
(g85
S'@9%\x02\xbc\x0f\xa0?'
tRp6814
aasg4
g5
((lp6815
S'ENSG00000125266'
p6816
aS'ENSG00000006638'
p6817
aS'ENSG00000160179'
p6818
aS'ENSG00000204381'
p6819
aS'ENSG00000066056'
p6820
aS'ENSG00000143603'
p6821
aS'ENSG00000170369'
p6822
aS'ENSG00000130702'
p6823
aS'ENSG00000138411'
p6824
aS'ENSG00000197748'
p6825
aS'ENSG00000245017'
p6826
aS'ENSG00000134802'
p6827
aS'ENSG00000128052'
p6828
aS'ENSG00000187513'
p6829
aS'ENSG00000179776'
p6830
aS'ENSG00000146833'
p6831
atRp6832
ssS'darkseagreen1'
p6833
(dp6834
g79
(lp6835
(lp6836
S'ENSG00000128815'
p6837
aFinf
ag83
(g85
S'\x88\x82\x01k\x05\xace?'
tRp6838
ag83
(g85
S'\x80*\x16\xb9\xae\xa4u?'
tRp6839
aa(lp6840
g670
ag83
(g85
S'\x1c\xc7q\x1c\xc7qD@'
tRp6841
ag83
(g85
S'\x16\xe5vI\xbdm\xa9?'
tRp6842
ag83
(g85
S'\x10\xe5vI\xbdm\xa9?'
tRp6843
aasg4
g5
((lp6844
S'ENSG00000137869'
p6845
aS'ENSG00000178188'
p6846
aS'ENSG00000196502'
p6847
aS'ENSG00000165821'
p6848
aS'ENSG00000110321'
p6849
aS'ENSG00000136643'
p6850
aS'ENSG00000122375'
p6851
aS'ENSG00000057593'
p6852
aS'ENSG00000111670'
p6853
aS'ENSG00000132436'
p6854
aS'ENSG00000109332'
p6855
aS'ENSG00000164603'
p6856
aS'ENSG00000099937'
p6857
aS'ENSG00000100410'
p6858
aS'ENSG00000108406'
p6859
atRp6860
ssS'darkolivegreen2'
p6861
(dp6862
g4
g5
((lp6863
S'ENSG00000149599'
p6864
aS'ENSG00000141391'
p6865
aS'ENSG00000111269'
p6866
aS'ENSG00000196109'
p6867
aS'ENSG00000117266'
p6868
aS'ENSG00000198707'
p6869
aS'ENSG00000197134'
p6870
aS'ENSG00000237440'
p6871
aS'ENSG00000160321'
p6872
aS'ENSG00000174652'
p6873
aS'ENSG00000197360'
p6874
aS'ENSG00000089335'
p6875
aS'ENSG00000001167'
p6876
aS'ENSG00000269067'
p6877
aS'ENSG00000134109'
p6878
aS'ENSG00000160229'
p6879
aS'ENSG00000142166'
p6880
atRp6881
ssS'lavenderblush'
p6882
(dp6883
g79
(lp6884
(lp6885
S'ENSG00000159164'
p6886
aFinf
ag83
(g85
S'\x94\x82\x01k\x05\xacu?'
tRp6887
ag83
(g85
S'\xe0\x8f\xc6\xf4$\x80\x95?'
tRp6888
aasg4
g5
((lp6889
S'ENSG00000008516'
p6890
aS'ENSG00000106299'
p6891
aS'ENSG00000213463'
p6892
aS'ENSG00000173218'
p6893
aS'ENSG00000204577'
p6894
aS'ENSG00000033122'
p6895
aS'ENSG00000171103'
p6896
aS'ENSG00000165997'
p6897
aS'ENSG00000156469'
p6898
aS'ENSG00000104863'
p6899
aS'ENSG00000184945'
p6900
aS'ENSG00000095059'
p6901
aS'ENSG00000139200'
p6902
aS'ENSG00000172466'
p6903
aS'ENSG00000154548'
p6904
atRp6905
ssS'lightyellow4'
p6906
(dp6907
g79
(lp6908
(lp6909
S'ENSG00000165905'
p6910
aFinf
ag83
(g85
S'\x99\x86\x01k\x05\xace?'
tRp6911
ag83
(g85
S'\xc0NR\xde\x0b\xc5\x9a?'
tRp6912
aa(lp6913
S'ENSG00000149418'
p6914
aFinf
ag83
(g85
S'\x99\x86\x01k\x05\xace?'
tRp6915
ag83
(g85
S'\xc0NR\xde\x0b\xc5\x9a?'
tRp6916
aa(lp6917
S'ENSG00000162777'
p6918
aFinf
ag83
(g85
S'\x99\x86\x01k\x05\xace?'
tRp6919
ag83
(g85
S'\xc0NR\xde\x0b\xc5\x9a?'
tRp6920
aa(lp6921
S'ENSG00000130545'
p6922
aFinf
ag83
(g85
S'\xc7\x1eA\x10\x04Ap?'
tRp6923
ag83
(g85
S'\x00\xc6\xec7\xa9\x1b\x9c?'
tRp6924
aa(lp6925
S'ENSG00000162366'
p6926
aFinf
ag83
(g85
S'\xc7\x1eA\x10\x04Ap?'
tRp6927
ag83
(g85
S'\x00\xc6\xec7\xa9\x1b\x9c?'
tRp6928
aa(lp6929
g1890
aFinf
ag83
(g85
S'\xde\xcc\xc1\xc5\x06\x17{?'
tRp6930
ag83
(g85
S'\xb0d\xff\xado\xb5\xa0?'
tRp6931
aa(lp6932
g5674
aFinf
ag83
(g85
S'\x97I\xa1\xbd\x84\xf6\x92?'
tRp6933
ag83
(g85
S'\xd0\xc7\xdb0\xf3\xf2\xa7?'
tRp6934
aa(lp6935
g2343
aFinf
ag83
(g85
S'\xcf\x1b"s\x87\xcc\x9d?'
tRp6936
ag83
(g85
S'\xd0\xc7\xdb0\xf3\xf2\xa7?'
tRp6937
aa(lp6938
g3294
aFinf
ag83
(g85
S']\xf8!s\x87\xcc\x8d?'
tRp6939
ag83
(g85
S'\xd0\xc7\xdb0\xf3\xf2\xa7?'
tRp6940
aa(lp6941
g1644
aFinf
ag83
(g85
S'\xa0\xa9a\x18\x86a\x88?'
tRp6942
ag83
(g85
S'\xd0\xc7\xdb0\xf3\xf2\xa7?'
tRp6943
aasg4
g5
((lp6944
S'ENSG00000178607'
p6945
aS'ENSG00000160213'
p6946
aS'ENSG00000115084'
p6947
aS'ENSG00000077097'
p6948
aS'ENSG00000118322'
p6949
aS'ENSG00000124788'
p6950
aS'ENSG00000187010'
p6951
aS'ENSG00000160209'
p6952
aS'ENSG00000012223'
p6953
atRp6954
ssS'salmon2'
p6955
(dp6956
g79
(lp6957
(lp6958
S'ENSG00000100604'
p6959
aFinf
ag83
(g85
S'\x1cw\xbaU\x91B)?'
tRp6960
ag83
(g85
S'\x80\x94\xf1\xd2\xec\xc0z?'
tRp6961
aa(lp6962
S'ENSG00000089199'
p6963
aFinf
ag83
(g85
S'\x1cw\xbaU\x91B)?'
tRp6964
ag83
(g85
S'\x80\x94\xf1\xd2\xec\xc0z?'
tRp6965
aasg4
g5
((lp6966
S'ENSG00000163581'
p6967
aS'ENSG00000160183'
p6968
aS'ENSG00000204385'
p6969
aS'ENSG00000006611'
p6970
aS'ENSG00000139354'
p6971
aS'ENSG00000132693'
p6972
aS'ENSG00000119547'
p6973
aS'ENSG00000159055'
p6974
aS'ENSG00000132744'
p6975
aS'ENSG00000165895'
p6976
aS'ENSG00000167880'
p6977
aS'ENSG00000237515'
p6978
aS'ENSG00000182472'
p6979
aS'ENSG00000162174'
p6980
aS'ENSG00000135744'
p6981
aS'ENSG00000188672'
p6982
aS'ENSG00000124602'
p6983
aS'ENSG00000132821'
p6984
aS'ENSG00000118785'
p6985
atRp6986
ssS'salmon4'
p6987
(dp6988
g79
(lp6989
(lp6990
g6926
ag83
(g85
S'\x00\x00\x00\x00\x00\x80w@'
tRp6991
ag83
(g85
S'\x1f\xb9\r-\x81;\x80?'
tRp6992
ag83
(g85
S'\x00\xb9\r-\x81;\x80?'
tRp6993
aasg4
g5
((lp6994
S'ENSG00000162438'
p6995
aS'ENSG00000163637'
p6996
aS'ENSG00000079950'
p6997
aS'ENSG00000128805'
p6998
aS'ENSG00000162836'
p6999
aS'ENSG00000034239'
p7000
aS'ENSG00000169302'
p7001
aS'ENSG00000169344'
p7002
aS'ENSG00000099814'
p7003
aS'ENSG00000111850'
p7004
aS'ENSG00000177697'
p7005
aS'ENSG00000171456'
p7006
aS'ENSG00000133639'
p7007
aS'ENSG00000128872'
p7008
aS'ENSG00000174021'
p7009
aS'ENSG00000197928'
p7010
aS'ENSG00000112234'
p7011
aS'ENSG00000167965'
p7012
aS'ENSG00000118939'
p7013
aS'ENSG00000198833'
p7014
aS'ENSG00000174606'
p7015
aS'ENSG00000175354'
p7016
atRp7017
ssS'rosybrown1'
p7018
(dp7019
g4
g5
((lp7020
S'ENSG00000136874'
p7021
aS'ENSG00000140876'
p7022
aS'ENSG00000164828'
p7023
aS'ENSG00000187145'
p7024
aS'ENSG00000173805'
p7025
aS'ENSG00000048405'
p7026
aS'ENSG00000130518'
p7027
aS'ENSG00000095261'
p7028
aS'ENSG00000171368'
p7029
atRp7030
ssS'linen'
p7031
(dp7032
g79
(lp7033
(lp7034
S'ENSG00000170099'
p7035
aFinf
ag83
(g85
S'\xf4!A\x10\x04Ap?'
tRp7036
ag83
(g85
S'\xc0\x000:\xee#\x98?'
tRp7037
aa(lp7038
S'ENSG00000148702'
p7039
aFinf
ag83
(g85
S'\xf4!A\x10\x04Ap?'
tRp7040
ag83
(g85
S'\xc0\x000:\xee#\x98?'
tRp7041
aa(lp7042
S'ENSG00000165025'
p7043
ag83
(g85
S'\x00\x00\x00\x00\x00xg@'
tRp7044
ag83
(g85
S'g\xed\xceM\xffP\x88?'
tRp7045
ag83
(g85
S'\xc0\x82#\x83\x01\xe3\xa7?'
tRp7046
aasg4
g5
((lp7047
S'ENSG00000229644'
p7048
aS'ENSG00000137198'
p7049
aS'ENSG00000090539'
p7050
aS'ENSG00000143156'
p7051
aS'ENSG00000159261'
p7052
aS'ENSG00000179950'
p7053
aS'ENSG00000155629'
p7054
aS'ENSG00000185043'
p7055
aS'ENSG00000125818'
p7056
aS'ENSG00000149292'
p7057
aS'ENSG00000185189'
p7058
aS'ENSG00000119408'
p7059
atRp7060
ssS'green'
p7061
(dp7062
g4
g5
((lp7063
S'ENSG00000161542'
p7064
aS'ENSG00000013374'
p7065
aS'ENSG00000105483'
p7066
aS'ENSG00000038382'
p7067
aS'ENSG00000164307'
p7068
aS'ENSG00000087448'
p7069
aS'ENSG00000063177'
p7070
aS'ENSG00000134245'
p7071
aS'ENSG00000115268'
p7072
aS'ENSG00000186364'
p7073
aS'ENSG00000134243'
p7074
aS'ENSG00000158623'
p7075
aS'ENSG00000112149'
p7076
aS'ENSG00000188846'
p7077
aS'ENSG00000265681'
p7078
aS'ENSG00000164144'
p7079
aS'ENSG00000018510'
p7080
aS'ENSG00000124523'
p7081
aS'ENSG00000072756'
p7082
aS'ENSG00000105193'
p7083
aS'ENSG00000133313'
p7084
aS'ENSG00000130414'
p7085
aS'ENSG00000099889'
p7086
aS'ENSG00000142937'
p7087
aS'ENSG00000105373'
p7088
aS'ENSG00000144488'
p7089
aS'ENSG00000101444'
p7090
aS'ENSG00000135372'
p7091
aS'ENSG00000153898'
p7092
aS'ENSG00000132793'
p7093
aS'ENSG00000149823'
p7094
aS'ENSG00000059122'
p7095
aS'ENSG00000250479'
p7096
aS'ENSG00000136144'
p7097
aS'ENSG00000170027'
p7098
aS'ENSG00000167658'
p7099
atRp7100
ssS'blueviolet'
p7101
(dp7102
g4
g5
((lp7103
S'ENSG00000134020'
p7104
aS'ENSG00000047056'
p7105
aS'ENSG00000205560'
p7106
aS'ENSG00000151651'
p7107
aS'ENSG00000099139'
p7108
aS'ENSG00000114378'
p7109
aS'ENSG00000167553'
p7110
aS'ENSG00000189334'
p7111
aS'ENSG00000137101'
p7112
aS'ENSG00000167280'
p7113
aS'ENSG00000171219'
p7114
aS'ENSG00000168491'
p7115
aS'ENSG00000137449'
p7116
aS'ENSG00000074855'
p7117
aS'ENSG00000111834'
p7118
aS'ENSG00000198917'
p7119
aS'ENSG00000121274'
p7120
atRp7121
ssS'brown2'
p7122
(dp7123
g4
g5
((lp7124
S'ENSG00000181264'
p7125
aS'ENSG00000007516'
p7126
aS'ENSG00000135929'
p7127
aS'ENSG00000183318'
p7128
aS'ENSG00000151640'
p7129
aS'ENSG00000109220'
p7130
aS'ENSG00000125744'
p7131
aS'ENSG00000184916'
p7132
aS'ENSG00000100987'
p7133
aS'ENSG00000180785'
p7134
aS'ENSG00000163138'
p7135
aS'ENSG00000168259'
p7136
aS'ENSG00000176490'
p7137
aS'ENSG00000166035'
p7138
aS'ENSG00000162601'
p7139
aS'ENSG00000183828'
p7140
aS'ENSG00000075340'
p7141
aS'ENSG00000117906'
p7142
aS'ENSG00000151553'
p7143
atRp7144
ssS'brown3'
p7145
(dp7146
g4
g5
((lp7147
S'ENSG00000078618'
p7148
aS'ENSG00000139505'
p7149
aS'ENSG00000119899'
p7150
aS'ENSG00000234745'
p7151
aS'ENSG00000070371'
p7152
aS'ENSG00000204525'
p7153
aS'ENSG00000204520'
p7154
aS'ENSG00000206503'
p7155
aS'ENSG00000100726'
p7156
aS'ENSG00000138030'
p7157
aS'ENSG00000204642'
p7158
aS'ENSG00000240654'
p7159
aS'ENSG00000185000'
p7160
aS'ENSG00000087008'
p7161
atRp7162
ssS'brown1'
p7163
(dp7164
g79
(lp7165
(lp7166
S'ENSG00000170153'
p7167
aFinf
ag83
(g85
S'\xf4!A\x10\x04Ap?'
tRp7168
ag83
(g85
S'\xa0\x1d\xa1-\xae\x07\xa0?'
tRp7169
aa(lp7170
S'ENSG00000158445'
p7171
aFinf
ag83
(g85
S'\xf4!A\x10\x04Ap?'
tRp7172
ag83
(g85
S'\xa0\x1d\xa1-\xae\x07\xa0?'
tRp7173
aa(lp7174
g2042
ag83
(g85
S'\x00\x00\x00\x00\x00\x80w@'
tRp7175
ag83
(g85
S'E\xbf\r-\x81;\x80?'
tRp7176
ag83
(g85
S'\x90\x90\xb0\xe1\n\xdf\xa7?'
tRp7177
aa(lp7178
g4280
ag83
(g85
S'\x00\x00\x00\x00\x00xg@'
tRp7179
ag83
(g85
S'g\xed\xceM\xffP\x88?'
tRp7180
ag83
(g85
S'\x90\x90\xb0\xe1\n\xdf\xa7?'
tRp7181
aa(lp7182
g2046
ag83
(g85
S'\x00\x00\x00\x00\x00\x80w@'
tRp7183
ag83
(g85
S'E\xbf\r-\x81;\x80?'
tRp7184
ag83
(g85
S'\x90\x90\xb0\xe1\n\xdf\xa7?'
tRp7185
aa(lp7186
g2050
ag83
(g85
S'\x00\x00\x00\x00\x00xg@'
tRp7187
ag83
(g85
S'g\xed\xceM\xffP\x88?'
tRp7188
ag83
(g85
S'\x90\x90\xb0\xe1\n\xdf\xa7?'
tRp7189
aa(lp7190
g2054
ag83
(g85
S'\x00\x00\x00\x00\x00\x80w@'
tRp7191
ag83
(g85
S'E\xbf\r-\x81;\x80?'
tRp7192
ag83
(g85
S'\x90\x90\xb0\xe1\n\xdf\xa7?'
tRp7193
aa(lp7194
g4284
ag83
(g85
S'\x00\x00\x00\x00\x00hW@'
tRp7195
ag83
(g85
S'\xd2\xebt\xff\xbf5\x94?'
tRp7196
ag83
(g85
S'\x90\x90\xb0\xe1\n\xdf\xa7?'
tRp7197
aasg4
g5
((lp7198
S'ENSG00000054267'
p7199
aS'ENSG00000168936'
p7200
aS'ENSG00000103353'
p7201
aS'ENSG00000101460'
p7202
aS'ENSG00000181392'
p7203
aS'ENSG00000160801'
p7204
aS'ENSG00000132970'
p7205
aS'ENSG00000013810'
p7206
aS'ENSG00000167711'
p7207
aS'ENSG00000241973'
p7208
aS'ENSG00000174137'
p7209
aS'ENSG00000132386'
p7210
aS'ENSG00000166446'
p7211
aS'ENSG00000196581'
p7212
aS'ENSG00000236699'
p7213
atRp7214
ssS'steelblue'
p7215
(dp7216
g79
(lp7217
(lp7218
S'ENSG00000085276'
p7219
aFinf
ag83
(g85
S'\xec!A\x10\x04A\x80?'
tRp7220
ag83
(g85
S'\xa0\x9a\xef\xff\x800\x90?'
tRp7221
aa(lp7222
S'ENSG00000137960'
p7223
aFinf
ag83
(g85
S'\xec!A\x10\x04A\x80?'
tRp7224
ag83
(g85
S'\xa0\x9a\xef\xff\x800\x90?'
tRp7225
aasg4
g5
((lp7226
S'ENSG00000186399'
p7227
aS'ENSG00000242110'
p7228
aS'ENSG00000232653'
p7229
aS'ENSG00000175538'
p7230
aS'ENSG00000135842'
p7231
aS'ENSG00000228716'
p7232
aS'ENSG00000112902'
p7233
aS'ENSG00000065548'
p7234
aS'ENSG00000170113'
p7235
aS'ENSG00000134779'
p7236
aS'ENSG00000172985'
p7237
aS'ENSG00000065154'
p7238
aS'ENSG00000242220'
p7239
aS'ENSG00000204616'
p7240
aS'ENSG00000182230'
p7241
aS'ENSG00000101363'
p7242
aS'ENSG00000139899'
p7243
aS'ENSG00000189350'
p7244
aS'ENSG00000107263'
p7245
aS'ENSG00000114026'
p7246
aS'ENSG00000175606'
p7247
aS'ENSG00000077514'
p7248
aS'ENSG00000128203'
p7249
aS'ENSG00000069345'
p7250
aS'ENSG00000137764'
p7251
atRp7252
ssS'brown4'
p7253
(dp7254
g79
(lp7255
(lp7256
S'ENSG00000262576'
p7257
aFinf
ag83
(g85
S'\x94\x82\x01k\x05\xacu?'
tRp7258
ag83
(g85
S'\x00\x8e0\xf6\x06\xce\x9a?'
tRp7259
aasg4
g5
((lp7260
S'ENSG00000181938'
p7261
aS'ENSG00000166526'
p7262
aS'ENSG00000170085'
p7263
aS'ENSG00000138107'
p7264
aS'ENSG00000089723'
p7265
aS'ENSG00000185252'
p7266
aS'ENSG00000152291'
p7267
aS'ENSG00000152689'
p7268
aS'ENSG00000137752'
p7269
aS'ENSG00000088538'
p7270
aS'ENSG00000177409'
p7271
aS'ENSG00000164291'
p7272
aS'ENSG00000114544'
p7273
aS'ENSG00000107779'
p7274
aS'ENSG00000123352'
p7275
aS'ENSG00000177082'
p7276
aS'ENSG00000152578'
p7277
aS'ENSG00000240764'
p7278
aS'ENSG00000153157'
p7279
aS'ENSG00000184792'
p7280
aS'ENSG00000167065'
p7281
aS'ENSG00000114757'
p7282
atRp7283
ss.